	.file	"user_counters_tabular_test.cc"
                                        # Start of file scope inline assembly
	.globl	_ZSt21ios_base_library_initv

                                        # End of file scope inline assembly
	.section	.text._ZN8TestCaseD2Ev,"axG",@progbits,_ZN8TestCaseD2Ev,comdat
	.hidden	_ZN8TestCaseD2Ev                # -- Begin function _ZN8TestCaseD2Ev
	.weak	_ZN8TestCaseD2Ev
	.p2align	5
	.type	_ZN8TestCaseD2Ev,@function
_ZN8TestCaseD2Ev:                       # @_ZN8TestCaseD2Ev
	.cfi_startproc
# %bb.0:
	addi.d	$sp, $sp, -32
	.cfi_def_cfa_offset 32
	st.d	$ra, $sp, 24                    # 8-byte Folded Spill
	st.d	$fp, $sp, 16                    # 8-byte Folded Spill
	st.d	$s0, $sp, 8                     # 8-byte Folded Spill
	.cfi_offset 1, -8
	.cfi_offset 22, -16
	.cfi_offset 23, -24
	move	$fp, $a0
	ld.d	$s0, $a0, 80
	beqz	$s0, .LBB0_5
# %bb.1:
	ld.d	$a0, $s0, 8
	ori	$a1, $zero, 1
	lu32i.d	$a1, 1
	dbar	20
	bne	$a0, $a1, .LBB0_3
# %bb.2:
	ld.d	$a0, $s0, 0
	st.d	$zero, $s0, 8
	ld.d	$a1, $a0, 16
	move	$a0, $s0
	jirl	$ra, $a1, 0
	ld.d	$a0, $s0, 0
	ld.d	$a1, $a0, 24
	move	$a0, $s0
	jirl	$ra, $a1, 0
	ld.d	$a0, $fp, 40
	addi.d	$a1, $fp, 56
	bne	$a0, $a1, .LBB0_6
	b	.LBB0_7
.LBB0_3:
	pcalau12i	$a1, %got_pc_hi20(__libc_single_threaded)
	ld.d	$a1, $a1, %got_pc_lo12(__libc_single_threaded)
	ld.bu	$a1, $a1, 0
	beqz	$a1, .LBB0_10
# %bb.4:
	addi.d	$a1, $a0, -1
	st.w	$a1, $s0, 8
	addi.w	$a0, $a0, 0
	ori	$a1, $zero, 1
	beq	$a0, $a1, .LBB0_11
.LBB0_5:                                # %_ZNSt12__shared_ptrIN9benchmark5RegexELN9__gnu_cxx12_Lock_policyE2EED2Ev.exit
	ld.d	$a0, $fp, 40
	addi.d	$a1, $fp, 56
	beq	$a0, $a1, .LBB0_7
.LBB0_6:                                # %_ZNKSt7__cxx1112basic_stringIcSt11char_traitsIcESaIcEE11_M_is_localEv.exit.i.i
	ld.d	$a1, $a1, 0
	addi.d	$a1, $a1, 1
	pcaddu18i	$ra, %call36(_ZdlPvm)
	jirl	$ra, $ra, 0
.LBB0_7:                                # %_ZNSt7__cxx1112basic_stringIcSt11char_traitsIcESaIcEED2Ev.exit
	ld.d	$a0, $fp, 0
	addi.d	$a1, $fp, 16
	beq	$a0, $a1, .LBB0_9
# %bb.8:                                # %_ZNKSt7__cxx1112basic_stringIcSt11char_traitsIcESaIcEE11_M_is_localEv.exit.i.i1
	ld.d	$a1, $a1, 0
	addi.d	$a1, $a1, 1
	ld.d	$s0, $sp, 8                     # 8-byte Folded Reload
	ld.d	$fp, $sp, 16                    # 8-byte Folded Reload
	ld.d	$ra, $sp, 24                    # 8-byte Folded Reload
	addi.d	$sp, $sp, 32
	pcaddu18i	$t8, %call36(_ZdlPvm)
	jr	$t8
.LBB0_9:                                # %_ZNSt7__cxx1112basic_stringIcSt11char_traitsIcESaIcEED2Ev.exit3
	ld.d	$s0, $sp, 8                     # 8-byte Folded Reload
	ld.d	$fp, $sp, 16                    # 8-byte Folded Reload
	ld.d	$ra, $sp, 24                    # 8-byte Folded Reload
	addi.d	$sp, $sp, 32
	ret
.LBB0_10:
	addi.d	$a1, $s0, 8
	addi.w	$a2, $zero, -1
	amadd_db.w	$a0, $a2, $a1
	addi.w	$a0, $a0, 0
	ori	$a1, $zero, 1
	bne	$a0, $a1, .LBB0_5
.LBB0_11:
	move	$a0, $s0
	pcaddu18i	$ra, %call36(_ZNSt16_Sp_counted_baseILN9__gnu_cxx12_Lock_policyE2EE24_M_release_last_use_coldEv)
	jirl	$ra, $ra, 0
	ld.d	$a0, $fp, 40
	addi.d	$a1, $fp, 56
	bne	$a0, $a1, .LBB0_6
	b	.LBB0_7
.Lfunc_end0:
	.size	_ZN8TestCaseD2Ev, .Lfunc_end0-_ZN8TestCaseD2Ev
	.cfi_endproc
                                        # -- End function
	.text
	.hidden	_Z19BM_Counters_TabularRN9benchmark5StateE # -- Begin function _Z19BM_Counters_TabularRN9benchmark5StateE
	.globl	_Z19BM_Counters_TabularRN9benchmark5StateE
	.p2align	5
	.type	_Z19BM_Counters_TabularRN9benchmark5StateE,@function
_Z19BM_Counters_TabularRN9benchmark5StateE: # @_Z19BM_Counters_TabularRN9benchmark5StateE
.Lfunc_begin0:
	.cfi_startproc
	.cfi_personality 155, DW.ref.__gxx_personality_v0
	.cfi_lsda 27, .Lexception0
# %bb.0:                                # %_ZN9benchmark5State13StateIteratorC2EPS0_.exit
	addi.d	$sp, $sp, -592
	.cfi_def_cfa_offset 592
	st.d	$ra, $sp, 584                   # 8-byte Folded Spill
	st.d	$fp, $sp, 576                   # 8-byte Folded Spill
	st.d	$s0, $sp, 568                   # 8-byte Folded Spill
	st.d	$s1, $sp, 560                   # 8-byte Folded Spill
	st.d	$s2, $sp, 552                   # 8-byte Folded Spill
	st.d	$s3, $sp, 544                   # 8-byte Folded Spill
	st.d	$s4, $sp, 536                   # 8-byte Folded Spill
	st.d	$s5, $sp, 528                   # 8-byte Folded Spill
	st.d	$s6, $sp, 520                   # 8-byte Folded Spill
	st.d	$s7, $sp, 512                   # 8-byte Folded Spill
	st.d	$s8, $sp, 504                   # 8-byte Folded Spill
	.cfi_offset 1, -8
	.cfi_offset 22, -16
	.cfi_offset 23, -24
	.cfi_offset 24, -32
	.cfi_offset 25, -40
	.cfi_offset 26, -48
	.cfi_offset 27, -56
	.cfi_offset 28, -64
	.cfi_offset 29, -72
	.cfi_offset 30, -80
	.cfi_offset 31, -88
	move	$s0, $a0
	ld.w	$s1, $a0, 28
	ld.d	$fp, $a0, 16
	pcaddu18i	$ra, %call36(_ZN9benchmark5State16StartKeepRunningEv)
	jirl	$ra, $ra, 0
	bnez	$s1, .LBB1_7
# %bb.1:                                # %_ZN9benchmark5State13StateIteratorC2EPS0_.exit
	beqz	$fp, .LBB1_7
# %bb.2:
	movgr2fr.d	$fa0, $zero
	addi.d	$a0, $sp, 208
	.p2align	4, , 16
.LBB1_3:                                # =>This Inner Loop Header: Depth=1
	ld.bu	$a1, $s0, 24
	fmov.d	$fa1, $fa0
	beqz	$a1, .LBB1_5
# %bb.4:                                #   in Loop: Header=BB1_3 Depth=1
	ld.d	$a1, $s0, 16
	ld.d	$a2, $s0, 0
	ld.d	$a3, $s0, 8
	sub.d	$a1, $a1, $a2
	add.d	$a1, $a1, $a3
	movgr2fr.d	$fa1, $a1
	ffint.d.l	$fa1, $fa1
	fmul.d	$fa1, $fa1, $fa1
.LBB1_5:                                # %_ZNK9benchmark5State10iterationsEv.exit
                                        #   in Loop: Header=BB1_3 Depth=1
	fst.d	$fa1, $sp, 208
	#APP
	#NO_APP
	blez	$fp, .LBB1_38
# %bb.6:                                #   in Loop: Header=BB1_3 Depth=1
	addi.d	$fp, $fp, -1
	bnez	$fp, .LBB1_3
.LBB1_7:                                # %.loopexit246
	move	$a0, $s0
	pcaddu18i	$ra, %call36(_ZN9benchmark5State17FinishKeepRunningEv)
	jirl	$ra, $ra, 0
	addi.d	$fp, $s0, 64
	addi.d	$a0, $sp, 192
	st.d	$a0, $sp, 176
	pcalau12i	$a0, %pc_hi20(.L.str.21)
	addi.d	$a0, $a0, %pc_lo12(.L.str.21)
	ld.h	$a1, $a0, 0
	ld.b	$a2, $a0, 2
	st.h	$a1, $sp, 192
	st.b	$a2, $sp, 194
	ori	$a0, $zero, 3
	st.d	$a0, $sp, 184
	st.b	$zero, $sp, 195
	addi.d	$s5, $sp, 224
	st.d	$s5, $sp, 208
	st.h	$a1, $sp, 224
	st.b	$a2, $sp, 226
	st.d	$a0, $sp, 216
	st.b	$zero, $sp, 227
	lu52i.d	$a1, $zero, 1023
	st.d	$a1, $sp, 240
	ori	$a1, $zero, 2
	lu32i.d	$a1, 1000
	st.d	$a1, $sp, 248
	addi.d	$a2, $sp, 160
	st.d	$a2, $sp, 144
	pcalau12i	$a2, %pc_hi20(.L.str.22)
	addi.d	$a2, $a2, %pc_lo12(.L.str.22)
	ld.h	$a3, $a2, 0
	ld.b	$a2, $a2, 2
	st.h	$a3, $sp, 160
	st.b	$a2, $sp, 162
	st.d	$a0, $sp, 152
	st.b	$zero, $sp, 163
	addi.d	$s7, $sp, 272
	st.d	$s7, $sp, 256
	st.b	$a2, $sp, 274
	st.h	$a3, $sp, 272
	st.d	$a0, $sp, 264
	st.b	$zero, $sp, 275
	lu52i.d	$a2, $zero, 1024
	st.d	$a2, $sp, 288
	st.d	$a1, $sp, 296
	addi.d	$a2, $sp, 128
	st.d	$a2, $sp, 112
	pcalau12i	$a2, %pc_hi20(.L.str.23)
	addi.d	$a2, $a2, %pc_lo12(.L.str.23)
	ld.h	$a3, $a2, 0
	ld.b	$a2, $a2, 2
	st.h	$a3, $sp, 128
	st.b	$a2, $sp, 130
	st.d	$a0, $sp, 120
	st.b	$zero, $sp, 131
	addi.d	$s1, $sp, 320
	st.d	$s1, $sp, 304
	st.b	$a2, $sp, 322
	st.h	$a3, $sp, 320
	st.d	$a0, $sp, 312
	st.b	$zero, $sp, 323
	lu52i.d	$a2, $zero, 1025
	st.d	$a2, $sp, 336
	st.d	$a1, $sp, 344
	addi.d	$a2, $sp, 96
	st.d	$a2, $sp, 80
	pcalau12i	$a2, %pc_hi20(.L.str.24)
	addi.d	$a2, $a2, %pc_lo12(.L.str.24)
	ld.h	$a3, $a2, 0
	ld.b	$a2, $a2, 2
	st.h	$a3, $sp, 96
	st.b	$a2, $sp, 98
	st.d	$a0, $sp, 88
	st.b	$zero, $sp, 99
	addi.d	$s2, $sp, 368
	st.d	$s2, $sp, 352
	st.b	$a2, $sp, 370
	st.h	$a3, $sp, 368
	st.d	$a0, $sp, 360
	st.b	$zero, $sp, 371
	lu52i.d	$a2, $zero, 1026
	st.d	$a2, $sp, 384
	st.d	$a1, $sp, 392
	addi.d	$s6, $sp, 64
	st.d	$s6, $sp, 48
	lu12i.w	$a2, 403191
	ori	$a2, $a2, 582
	st.w	$a2, $sp, 64
	ori	$a3, $zero, 4
	st.d	$a3, $sp, 56
	st.b	$zero, $sp, 68
	addi.d	$s3, $sp, 416
	st.d	$s3, $sp, 400
	st.w	$a2, $sp, 416
	st.d	$a3, $sp, 408
	st.b	$zero, $sp, 420
	lu52i.d	$a2, $zero, 1027
	st.d	$a2, $sp, 432
	st.d	$a1, $sp, 440
	addi.d	$s8, $sp, 32
	st.d	$s8, $sp, 16
	pcalau12i	$a2, %pc_hi20(.L.str.26)
	addi.d	$a2, $a2, %pc_lo12(.L.str.26)
	ld.h	$a3, $a2, 0
	ld.b	$a2, $a2, 2
	st.h	$a3, $sp, 32
	st.b	$a2, $sp, 34
	st.d	$a0, $sp, 24
	st.b	$zero, $sp, 35
	addi.d	$s4, $sp, 464
	st.d	$s4, $sp, 448
	st.b	$a2, $sp, 466
	st.h	$a3, $sp, 464
	st.d	$a0, $sp, 456
	st.b	$zero, $sp, 467
	lu52i.d	$a0, $zero, 1028
	st.d	$a0, $sp, 480
	st.d	$a1, $sp, 488
	st.d	$fp, $sp, 496
	addi.d	$s0, $s0, 72
.Ltmp0:                                 # EH_LABEL
	addi.d	$a2, $sp, 208
	addi.d	$a3, $sp, 496
	move	$a0, $fp
	move	$a1, $s0
	pcaddu18i	$ra, %call36(_ZNSt8_Rb_treeINSt7__cxx1112basic_stringIcSt11char_traitsIcESaIcEEESt4pairIKS5_N9benchmark7CounterEESt10_Select1stISA_ESt4lessIS5_ESaISA_EE17_M_insert_unique_IRKSA_NSG_11_Alloc_nodeEEESt17_Rb_tree_iteratorISA_ESt23_Rb_tree_const_iteratorISA_EOT_RT0_)
	jirl	$ra, $ra, 0
.Ltmp1:                                 # EH_LABEL
# %bb.8:                                # %.noexc109
.Ltmp2:                                 # EH_LABEL
	addi.d	$a2, $sp, 256
	addi.d	$a3, $sp, 496
	move	$a0, $fp
	move	$a1, $s0
	pcaddu18i	$ra, %call36(_ZNSt8_Rb_treeINSt7__cxx1112basic_stringIcSt11char_traitsIcESaIcEEESt4pairIKS5_N9benchmark7CounterEESt10_Select1stISA_ESt4lessIS5_ESaISA_EE17_M_insert_unique_IRKSA_NSG_11_Alloc_nodeEEESt17_Rb_tree_iteratorISA_ESt23_Rb_tree_const_iteratorISA_EOT_RT0_)
	jirl	$ra, $ra, 0
.Ltmp3:                                 # EH_LABEL
# %bb.9:                                # %.noexc109.1
.Ltmp4:                                 # EH_LABEL
	addi.d	$a2, $sp, 304
	addi.d	$a3, $sp, 496
	move	$a0, $fp
	move	$a1, $s0
	pcaddu18i	$ra, %call36(_ZNSt8_Rb_treeINSt7__cxx1112basic_stringIcSt11char_traitsIcESaIcEEESt4pairIKS5_N9benchmark7CounterEESt10_Select1stISA_ESt4lessIS5_ESaISA_EE17_M_insert_unique_IRKSA_NSG_11_Alloc_nodeEEESt17_Rb_tree_iteratorISA_ESt23_Rb_tree_const_iteratorISA_EOT_RT0_)
	jirl	$ra, $ra, 0
.Ltmp5:                                 # EH_LABEL
# %bb.10:                               # %.noexc109.2
.Ltmp6:                                 # EH_LABEL
	addi.d	$a2, $sp, 352
	addi.d	$a3, $sp, 496
	move	$a0, $fp
	move	$a1, $s0
	pcaddu18i	$ra, %call36(_ZNSt8_Rb_treeINSt7__cxx1112basic_stringIcSt11char_traitsIcESaIcEEESt4pairIKS5_N9benchmark7CounterEESt10_Select1stISA_ESt4lessIS5_ESaISA_EE17_M_insert_unique_IRKSA_NSG_11_Alloc_nodeEEESt17_Rb_tree_iteratorISA_ESt23_Rb_tree_const_iteratorISA_EOT_RT0_)
	jirl	$ra, $ra, 0
.Ltmp7:                                 # EH_LABEL
# %bb.11:                               # %.noexc109.3
.Ltmp8:                                 # EH_LABEL
	addi.d	$a2, $sp, 400
	addi.d	$a3, $sp, 496
	move	$a0, $fp
	move	$a1, $s0
	pcaddu18i	$ra, %call36(_ZNSt8_Rb_treeINSt7__cxx1112basic_stringIcSt11char_traitsIcESaIcEEESt4pairIKS5_N9benchmark7CounterEESt10_Select1stISA_ESt4lessIS5_ESaISA_EE17_M_insert_unique_IRKSA_NSG_11_Alloc_nodeEEESt17_Rb_tree_iteratorISA_ESt23_Rb_tree_const_iteratorISA_EOT_RT0_)
	jirl	$ra, $ra, 0
.Ltmp9:                                 # EH_LABEL
# %bb.12:                               # %.noexc109.4
.Ltmp10:                                # EH_LABEL
	addi.d	$a2, $sp, 448
	addi.d	$a3, $sp, 496
	move	$a0, $fp
	move	$a1, $s0
	pcaddu18i	$ra, %call36(_ZNSt8_Rb_treeINSt7__cxx1112basic_stringIcSt11char_traitsIcESaIcEEESt4pairIKS5_N9benchmark7CounterEESt10_Select1stISA_ESt4lessIS5_ESaISA_EE17_M_insert_unique_IRKSA_NSG_11_Alloc_nodeEEESt17_Rb_tree_iteratorISA_ESt23_Rb_tree_const_iteratorISA_EOT_RT0_)
	jirl	$ra, $ra, 0
.Ltmp11:                                # EH_LABEL
# %bb.13:                               # %.noexc109.5
	ld.d	$a0, $sp, 448
	beq	$a0, $s4, .LBB1_15
# %bb.14:                               # %_ZNKSt7__cxx1112basic_stringIcSt11char_traitsIcESaIcEE11_M_is_localEv.exit.i.i.i
	ld.d	$a1, $sp, 464
	addi.d	$a1, $a1, 1
	pcaddu18i	$ra, %call36(_ZdlPvm)
	jirl	$ra, $ra, 0
.LBB1_15:                               # %_ZNSt4pairIKNSt7__cxx1112basic_stringIcSt11char_traitsIcESaIcEEEN9benchmark7CounterEED2Ev.exit
	ld.d	$a0, $sp, 400
	beq	$a0, $s3, .LBB1_17
# %bb.16:                               # %_ZNKSt7__cxx1112basic_stringIcSt11char_traitsIcESaIcEE11_M_is_localEv.exit.i.i.i.1
	ld.d	$a1, $sp, 416
	addi.d	$a1, $a1, 1
	pcaddu18i	$ra, %call36(_ZdlPvm)
	jirl	$ra, $ra, 0
.LBB1_17:                               # %_ZNSt4pairIKNSt7__cxx1112basic_stringIcSt11char_traitsIcESaIcEEEN9benchmark7CounterEED2Ev.exit.1
	ld.d	$a0, $sp, 352
	beq	$a0, $s2, .LBB1_19
# %bb.18:                               # %_ZNKSt7__cxx1112basic_stringIcSt11char_traitsIcESaIcEE11_M_is_localEv.exit.i.i.i.2
	ld.d	$a1, $sp, 368
	addi.d	$a1, $a1, 1
	pcaddu18i	$ra, %call36(_ZdlPvm)
	jirl	$ra, $ra, 0
.LBB1_19:                               # %_ZNSt4pairIKNSt7__cxx1112basic_stringIcSt11char_traitsIcESaIcEEEN9benchmark7CounterEED2Ev.exit.2
	ld.d	$a0, $sp, 304
	beq	$a0, $s1, .LBB1_21
# %bb.20:                               # %_ZNKSt7__cxx1112basic_stringIcSt11char_traitsIcESaIcEE11_M_is_localEv.exit.i.i.i.3
	ld.d	$a1, $sp, 320
	addi.d	$a1, $a1, 1
	pcaddu18i	$ra, %call36(_ZdlPvm)
	jirl	$ra, $ra, 0
.LBB1_21:                               # %_ZNSt4pairIKNSt7__cxx1112basic_stringIcSt11char_traitsIcESaIcEEEN9benchmark7CounterEED2Ev.exit.3
	ld.d	$a0, $sp, 256
	beq	$a0, $s7, .LBB1_23
# %bb.22:                               # %_ZNKSt7__cxx1112basic_stringIcSt11char_traitsIcESaIcEE11_M_is_localEv.exit.i.i.i.4
	ld.d	$a1, $sp, 272
	addi.d	$a1, $a1, 1
	pcaddu18i	$ra, %call36(_ZdlPvm)
	jirl	$ra, $ra, 0
.LBB1_23:                               # %_ZNSt4pairIKNSt7__cxx1112basic_stringIcSt11char_traitsIcESaIcEEEN9benchmark7CounterEED2Ev.exit.4
	ld.d	$a0, $sp, 208
	beq	$a0, $s5, .LBB1_25
# %bb.24:                               # %_ZNKSt7__cxx1112basic_stringIcSt11char_traitsIcESaIcEE11_M_is_localEv.exit.i.i.i.5
	ld.d	$a1, $sp, 224
	addi.d	$a1, $a1, 1
	pcaddu18i	$ra, %call36(_ZdlPvm)
	jirl	$ra, $ra, 0
.LBB1_25:                               # %_ZNSt4pairIKNSt7__cxx1112basic_stringIcSt11char_traitsIcESaIcEEEN9benchmark7CounterEED2Ev.exit.5
	ld.d	$a0, $sp, 16
	beq	$a0, $s8, .LBB1_27
# %bb.26:                               # %_ZNKSt7__cxx1112basic_stringIcSt11char_traitsIcESaIcEE11_M_is_localEv.exit.i.i
	ld.d	$a1, $sp, 32
	addi.d	$a1, $a1, 1
	pcaddu18i	$ra, %call36(_ZdlPvm)
	jirl	$ra, $ra, 0
.LBB1_27:                               # %_ZNSt7__cxx1112basic_stringIcSt11char_traitsIcESaIcEED2Ev.exit
	ld.d	$a0, $sp, 48
	beq	$a0, $s6, .LBB1_29
# %bb.28:                               # %_ZNKSt7__cxx1112basic_stringIcSt11char_traitsIcESaIcEE11_M_is_localEv.exit.i.i110
	ld.d	$a1, $sp, 64
	addi.d	$a1, $a1, 1
	pcaddu18i	$ra, %call36(_ZdlPvm)
	jirl	$ra, $ra, 0
.LBB1_29:                               # %_ZNSt7__cxx1112basic_stringIcSt11char_traitsIcESaIcEED2Ev.exit112
	ld.d	$a0, $sp, 80
	addi.d	$a1, $sp, 96
	beq	$a0, $a1, .LBB1_31
# %bb.30:                               # %_ZNKSt7__cxx1112basic_stringIcSt11char_traitsIcESaIcEE11_M_is_localEv.exit.i.i113
	ld.d	$a1, $sp, 96
	addi.d	$a1, $a1, 1
	pcaddu18i	$ra, %call36(_ZdlPvm)
	jirl	$ra, $ra, 0
.LBB1_31:                               # %_ZNSt7__cxx1112basic_stringIcSt11char_traitsIcESaIcEED2Ev.exit115
	ld.d	$a0, $sp, 112
	addi.d	$a1, $sp, 128
	beq	$a0, $a1, .LBB1_33
# %bb.32:                               # %_ZNKSt7__cxx1112basic_stringIcSt11char_traitsIcESaIcEE11_M_is_localEv.exit.i.i116
	ld.d	$a1, $sp, 128
	addi.d	$a1, $a1, 1
	pcaddu18i	$ra, %call36(_ZdlPvm)
	jirl	$ra, $ra, 0
.LBB1_33:                               # %_ZNSt7__cxx1112basic_stringIcSt11char_traitsIcESaIcEED2Ev.exit118
	ld.d	$a0, $sp, 144
	addi.d	$a1, $sp, 160
	beq	$a0, $a1, .LBB1_35
# %bb.34:                               # %_ZNKSt7__cxx1112basic_stringIcSt11char_traitsIcESaIcEE11_M_is_localEv.exit.i.i119
	ld.d	$a1, $sp, 160
	addi.d	$a1, $a1, 1
	pcaddu18i	$ra, %call36(_ZdlPvm)
	jirl	$ra, $ra, 0
.LBB1_35:                               # %_ZNSt7__cxx1112basic_stringIcSt11char_traitsIcESaIcEED2Ev.exit121
	ld.d	$a0, $sp, 176
	addi.d	$a1, $sp, 192
	beq	$a0, $a1, .LBB1_37
# %bb.36:                               # %_ZNKSt7__cxx1112basic_stringIcSt11char_traitsIcESaIcEE11_M_is_localEv.exit.i.i122
	ld.d	$a1, $sp, 192
	addi.d	$a1, $a1, 1
	pcaddu18i	$ra, %call36(_ZdlPvm)
	jirl	$ra, $ra, 0
.LBB1_37:                               # %_ZNSt7__cxx1112basic_stringIcSt11char_traitsIcESaIcEED2Ev.exit124
	ld.d	$s8, $sp, 504                   # 8-byte Folded Reload
	ld.d	$s7, $sp, 512                   # 8-byte Folded Reload
	ld.d	$s6, $sp, 520                   # 8-byte Folded Reload
	ld.d	$s5, $sp, 528                   # 8-byte Folded Reload
	ld.d	$s4, $sp, 536                   # 8-byte Folded Reload
	ld.d	$s3, $sp, 544                   # 8-byte Folded Reload
	ld.d	$s2, $sp, 552                   # 8-byte Folded Reload
	ld.d	$s1, $sp, 560                   # 8-byte Folded Reload
	ld.d	$s0, $sp, 568                   # 8-byte Folded Reload
	ld.d	$fp, $sp, 576                   # 8-byte Folded Reload
	ld.d	$ra, $sp, 584                   # 8-byte Folded Reload
	addi.d	$sp, $sp, 592
	ret
.LBB1_38:
	pcalau12i	$a0, %pc_hi20(.L.str.179)
	addi.d	$a0, $a0, %pc_lo12(.L.str.179)
	pcalau12i	$a1, %pc_hi20(.L.str.180)
	addi.d	$a1, $a1, %pc_lo12(.L.str.180)
	pcalau12i	$a2, %pc_hi20(.L__PRETTY_FUNCTION__._ZN9benchmark5State13StateIteratorppEv)
	addi.d	$a3, $a2, %pc_lo12(.L__PRETTY_FUNCTION__._ZN9benchmark5State13StateIteratorppEv)
	ori	$a2, $zero, 1142
	pcaddu18i	$ra, %call36(__assert_fail)
	jirl	$ra, $ra, 0
.LBB1_39:
.Ltmp12:                                # EH_LABEL
	ld.d	$a2, $sp, 448
	move	$fp, $a0
	bne	$a2, $s4, .LBB1_52
# %bb.40:                               # %_ZNSt4pairIKNSt7__cxx1112basic_stringIcSt11char_traitsIcESaIcEEEN9benchmark7CounterEED2Ev.exit127
	ld.d	$a0, $sp, 400
	bne	$a0, $s3, .LBB1_53
.LBB1_41:                               # %_ZNSt4pairIKNSt7__cxx1112basic_stringIcSt11char_traitsIcESaIcEEEN9benchmark7CounterEED2Ev.exit127.1
	ld.d	$a0, $sp, 352
	bne	$a0, $s2, .LBB1_54
.LBB1_42:                               # %_ZNSt4pairIKNSt7__cxx1112basic_stringIcSt11char_traitsIcESaIcEEEN9benchmark7CounterEED2Ev.exit127.2
	ld.d	$a0, $sp, 304
	bne	$a0, $s1, .LBB1_55
.LBB1_43:                               # %_ZNSt4pairIKNSt7__cxx1112basic_stringIcSt11char_traitsIcESaIcEEEN9benchmark7CounterEED2Ev.exit127.3
	ld.d	$a0, $sp, 256
	bne	$a0, $s7, .LBB1_56
.LBB1_44:                               # %_ZNSt4pairIKNSt7__cxx1112basic_stringIcSt11char_traitsIcESaIcEEEN9benchmark7CounterEED2Ev.exit127.4
	ld.d	$a0, $sp, 208
	bne	$a0, $s5, .LBB1_57
.LBB1_45:                               # %.loopexit184
	ld.d	$a0, $sp, 16
	bne	$a0, $s8, .LBB1_58
.LBB1_46:                               # %_ZNKSt7__cxx1112basic_stringIcSt11char_traitsIcESaIcEE11_M_is_localEv.exit.thread.i.i129
	ld.d	$a0, $sp, 48
	bne	$a0, $s6, .LBB1_59
.LBB1_47:                               # %_ZNKSt7__cxx1112basic_stringIcSt11char_traitsIcESaIcEE11_M_is_localEv.exit.thread.i.i132
	ld.d	$a0, $sp, 80
	addi.d	$a1, $sp, 96
	bne	$a0, $a1, .LBB1_60
.LBB1_48:                               # %_ZNKSt7__cxx1112basic_stringIcSt11char_traitsIcESaIcEE11_M_is_localEv.exit.thread.i.i135
	ld.d	$a0, $sp, 112
	addi.d	$a1, $sp, 128
	bne	$a0, $a1, .LBB1_61
.LBB1_49:                               # %_ZNKSt7__cxx1112basic_stringIcSt11char_traitsIcESaIcEE11_M_is_localEv.exit.thread.i.i138
	ld.d	$a0, $sp, 144
	addi.d	$a1, $sp, 160
	bne	$a0, $a1, .LBB1_62
.LBB1_50:                               # %_ZNKSt7__cxx1112basic_stringIcSt11char_traitsIcESaIcEE11_M_is_localEv.exit.thread.i.i141
	ld.d	$a0, $sp, 176
	addi.d	$a1, $sp, 192
	bne	$a0, $a1, .LBB1_63
.LBB1_51:                               # %.loopexit
	move	$a0, $fp
	pcaddu18i	$ra, %call36(_Unwind_Resume)
	jirl	$ra, $ra, 0
.LBB1_52:                               # %_ZNKSt7__cxx1112basic_stringIcSt11char_traitsIcESaIcEE11_M_is_localEv.exit.i.i.i125
	ld.d	$a0, $sp, 464
	addi.d	$a1, $a0, 1
	move	$a0, $a2
	pcaddu18i	$ra, %call36(_ZdlPvm)
	jirl	$ra, $ra, 0
	ld.d	$a0, $sp, 400
	beq	$a0, $s3, .LBB1_41
.LBB1_53:                               # %_ZNKSt7__cxx1112basic_stringIcSt11char_traitsIcESaIcEE11_M_is_localEv.exit.i.i.i125.1
	ld.d	$a1, $sp, 416
	addi.d	$a1, $a1, 1
	pcaddu18i	$ra, %call36(_ZdlPvm)
	jirl	$ra, $ra, 0
	ld.d	$a0, $sp, 352
	beq	$a0, $s2, .LBB1_42
.LBB1_54:                               # %_ZNKSt7__cxx1112basic_stringIcSt11char_traitsIcESaIcEE11_M_is_localEv.exit.i.i.i125.2
	ld.d	$a1, $sp, 368
	addi.d	$a1, $a1, 1
	pcaddu18i	$ra, %call36(_ZdlPvm)
	jirl	$ra, $ra, 0
	ld.d	$a0, $sp, 304
	beq	$a0, $s1, .LBB1_43
.LBB1_55:                               # %_ZNKSt7__cxx1112basic_stringIcSt11char_traitsIcESaIcEE11_M_is_localEv.exit.i.i.i125.3
	ld.d	$a1, $sp, 320
	addi.d	$a1, $a1, 1
	pcaddu18i	$ra, %call36(_ZdlPvm)
	jirl	$ra, $ra, 0
	ld.d	$a0, $sp, 256
	beq	$a0, $s7, .LBB1_44
.LBB1_56:                               # %_ZNKSt7__cxx1112basic_stringIcSt11char_traitsIcESaIcEE11_M_is_localEv.exit.i.i.i125.4
	ld.d	$a1, $sp, 272
	addi.d	$a1, $a1, 1
	pcaddu18i	$ra, %call36(_ZdlPvm)
	jirl	$ra, $ra, 0
	ld.d	$a0, $sp, 208
	beq	$a0, $s5, .LBB1_45
.LBB1_57:                               # %_ZNKSt7__cxx1112basic_stringIcSt11char_traitsIcESaIcEE11_M_is_localEv.exit.i.i.i125.5
	ld.d	$a1, $sp, 224
	addi.d	$a1, $a1, 1
	pcaddu18i	$ra, %call36(_ZdlPvm)
	jirl	$ra, $ra, 0
	ld.d	$a0, $sp, 16
	beq	$a0, $s8, .LBB1_46
.LBB1_58:                               # %_ZNKSt7__cxx1112basic_stringIcSt11char_traitsIcESaIcEE11_M_is_localEv.exit.i.i128
	ld.d	$a1, $sp, 32
	addi.d	$a1, $a1, 1
	pcaddu18i	$ra, %call36(_ZdlPvm)
	jirl	$ra, $ra, 0
	ld.d	$a0, $sp, 48
	beq	$a0, $s6, .LBB1_47
.LBB1_59:                               # %_ZNKSt7__cxx1112basic_stringIcSt11char_traitsIcESaIcEE11_M_is_localEv.exit.i.i131
	ld.d	$a1, $sp, 64
	addi.d	$a1, $a1, 1
	pcaddu18i	$ra, %call36(_ZdlPvm)
	jirl	$ra, $ra, 0
	ld.d	$a0, $sp, 80
	addi.d	$a1, $sp, 96
	beq	$a0, $a1, .LBB1_48
.LBB1_60:                               # %_ZNKSt7__cxx1112basic_stringIcSt11char_traitsIcESaIcEE11_M_is_localEv.exit.i.i134
	ld.d	$a1, $sp, 96
	addi.d	$a1, $a1, 1
	pcaddu18i	$ra, %call36(_ZdlPvm)
	jirl	$ra, $ra, 0
	ld.d	$a0, $sp, 112
	addi.d	$a1, $sp, 128
	beq	$a0, $a1, .LBB1_49
.LBB1_61:                               # %_ZNKSt7__cxx1112basic_stringIcSt11char_traitsIcESaIcEE11_M_is_localEv.exit.i.i137
	ld.d	$a1, $sp, 128
	addi.d	$a1, $a1, 1
	pcaddu18i	$ra, %call36(_ZdlPvm)
	jirl	$ra, $ra, 0
	ld.d	$a0, $sp, 144
	addi.d	$a1, $sp, 160
	beq	$a0, $a1, .LBB1_50
.LBB1_62:                               # %_ZNKSt7__cxx1112basic_stringIcSt11char_traitsIcESaIcEE11_M_is_localEv.exit.i.i140
	ld.d	$a1, $sp, 160
	addi.d	$a1, $a1, 1
	pcaddu18i	$ra, %call36(_ZdlPvm)
	jirl	$ra, $ra, 0
	ld.d	$a0, $sp, 176
	addi.d	$a1, $sp, 192
	beq	$a0, $a1, .LBB1_51
.LBB1_63:                               # %_ZNKSt7__cxx1112basic_stringIcSt11char_traitsIcESaIcEE11_M_is_localEv.exit.i.i143
	ld.d	$a1, $sp, 192
	addi.d	$a1, $a1, 1
	pcaddu18i	$ra, %call36(_ZdlPvm)
	jirl	$ra, $ra, 0
	move	$a0, $fp
	pcaddu18i	$ra, %call36(_Unwind_Resume)
	jirl	$ra, $ra, 0
.Lfunc_end1:
	.size	_Z19BM_Counters_TabularRN9benchmark5StateE, .Lfunc_end1-_Z19BM_Counters_TabularRN9benchmark5StateE
	.cfi_endproc
	.section	.gcc_except_table,"a",@progbits
	.p2align	2, 0x0
GCC_except_table1:
.Lexception0:
	.byte	255                             # @LPStart Encoding = omit
	.byte	255                             # @TType Encoding = omit
	.byte	1                               # Call site Encoding = uleb128
	.uleb128 .Lcst_end0-.Lcst_begin0
.Lcst_begin0:
	.uleb128 .Lfunc_begin0-.Lfunc_begin0    # >> Call Site 1 <<
	.uleb128 .Ltmp0-.Lfunc_begin0           #   Call between .Lfunc_begin0 and .Ltmp0
	.byte	0                               #     has no landing pad
	.byte	0                               #   On action: cleanup
	.uleb128 .Ltmp0-.Lfunc_begin0           # >> Call Site 2 <<
	.uleb128 .Ltmp11-.Ltmp0                 #   Call between .Ltmp0 and .Ltmp11
	.uleb128 .Ltmp12-.Lfunc_begin0          #     jumps to .Ltmp12
	.byte	0                               #   On action: cleanup
	.uleb128 .Ltmp11-.Lfunc_begin0          # >> Call Site 3 <<
	.uleb128 .Lfunc_end1-.Ltmp11            #   Call between .Ltmp11 and .Lfunc_end1
	.byte	0                               #     has no landing pad
	.byte	0                               #   On action: cleanup
.Lcst_end0:
	.p2align	2, 0x0
                                        # -- End function
	.text
	.hidden	_Z12CheckTabularRK7Results      # -- Begin function _Z12CheckTabularRK7Results
	.globl	_Z12CheckTabularRK7Results
	.p2align	5
	.type	_Z12CheckTabularRK7Results,@function
_Z12CheckTabularRK7Results:             # @_Z12CheckTabularRK7Results
.Lfunc_begin1:
	.cfi_startproc
	.cfi_personality 155, DW.ref.__gxx_personality_v0
	.cfi_lsda 27, .Lexception1
# %bb.0:                                # %._crit_edge.i.i
	addi.d	$sp, $sp, -192
	.cfi_def_cfa_offset 192
	st.d	$ra, $sp, 184                   # 8-byte Folded Spill
	st.d	$fp, $sp, 176                   # 8-byte Folded Spill
	st.d	$s0, $sp, 168                   # 8-byte Folded Spill
	st.d	$s1, $sp, 160                   # 8-byte Folded Spill
	st.d	$s2, $sp, 152                   # 8-byte Folded Spill
	st.d	$s3, $sp, 144                   # 8-byte Folded Spill
	st.d	$s4, $sp, 136                   # 8-byte Folded Spill
	st.d	$s5, $sp, 128                   # 8-byte Folded Spill
	.cfi_offset 1, -8
	.cfi_offset 22, -16
	.cfi_offset 23, -24
	.cfi_offset 24, -32
	.cfi_offset 25, -40
	.cfi_offset 26, -48
	.cfi_offset 27, -56
	.cfi_offset 28, -64
	move	$fp, $a0
	addi.d	$s0, $sp, 112
	st.d	$s0, $sp, 96
	pcalau12i	$a0, %pc_hi20(.L.str.21)
	addi.d	$a0, $a0, %pc_lo12(.L.str.21)
	ld.h	$s4, $a0, 0
	ld.b	$s5, $a0, 2
	st.h	$s4, $sp, 112
	st.b	$s5, $sp, 114
	ori	$a0, $zero, 3
	st.d	$a0, $sp, 104
	st.b	$zero, $sp, 115
.Ltmp13:                                # EH_LABEL
	addi.d	$a1, $sp, 96
	move	$a0, $fp
	pcaddu18i	$ra, %call36(_ZNK7Results5GetAsIdEET_RKNSt7__cxx1112basic_stringIcSt11char_traitsIcESaIcEEE)
	jirl	$ra, $ra, 0
.Ltmp14:                                # EH_LABEL
# %bb.1:
	ftintrz.w.d	$fa0, $fa0
	movfr2gr.s	$s2, $fa0
	ori	$a0, $zero, 1
	bne	$s2, $a0, .LBB2_5
# %bb.2:
	pcalau12i	$a0, %pc_hi20(_ZGVZN9benchmark8internal18GetNullLogInstanceEvE8null_log)
	ld.b	$a0, $a0, %pc_lo12(_ZGVZN9benchmark8internal18GetNullLogInstanceEvE8null_log)
	dbar	20
	pcalau12i	$a1, %pc_hi20(_ZZN9benchmark8internal18GetNullLogInstanceEvE8null_log)
	addi.d	$s3, $a1, %pc_lo12(_ZZN9benchmark8internal18GetNullLogInstanceEvE8null_log)
	bnez	$a0, .LBB2_7
# %bb.3:
	pcalau12i	$a0, %pc_hi20(_ZGVZN9benchmark8internal18GetNullLogInstanceEvE8null_log)
	addi.d	$a0, $a0, %pc_lo12(_ZGVZN9benchmark8internal18GetNullLogInstanceEvE8null_log)
	pcaddu18i	$ra, %call36(__cxa_guard_acquire)
	jirl	$ra, $ra, 0
	addi.w	$a0, $a0, 0
	beqz	$a0, .LBB2_7
# %bb.4:
	pcalau12i	$a0, %pc_hi20(_ZZN9benchmark8internal18GetNullLogInstanceEvE8null_log)
	addi.d	$s3, $a0, %pc_lo12(_ZZN9benchmark8internal18GetNullLogInstanceEvE8null_log)
	st.d	$zero, $s3, 0
	pcalau12i	$a0, %pc_hi20(_ZGVZN9benchmark8internal18GetNullLogInstanceEvE8null_log)
	addi.d	$a0, $a0, %pc_lo12(_ZGVZN9benchmark8internal18GetNullLogInstanceEvE8null_log)
	pcaddu18i	$ra, %call36(__cxa_guard_release)
	jirl	$ra, $ra, 0
	b	.LBB2_7
.LBB2_5:
.Ltmp16:                                # EH_LABEL
	pcalau12i	$a0, %pc_hi20(.L.str.100)
	addi.d	$a1, $a0, %pc_lo12(.L.str.100)
	pcalau12i	$a0, %pc_hi20(.L.str.101)
	addi.d	$a2, $a0, %pc_lo12(.L.str.101)
	pcalau12i	$a0, %pc_hi20(.L__func__._Z12CheckTabularRK7Results)
	addi.d	$a3, $a0, %pc_lo12(.L__func__._Z12CheckTabularRK7Results)
	addi.d	$a0, $sp, 88
	ori	$a4, $zero, 359
	pcaddu18i	$ra, %call36(_ZN9benchmark8internal12CheckHandlerC2EPKcS3_S3_i)
	jirl	$ra, $ra, 0
.Ltmp17:                                # EH_LABEL
# %bb.6:
	ld.d	$s3, $sp, 88
.LBB2_7:                                # %_ZN9benchmark8internal18GetNullLogInstanceEv.exit
	ld.d	$a0, $s3, 0
	beqz	$a0, .LBB2_39
# %bb.8:
.Ltmp18:                                # EH_LABEL
	pcalau12i	$a1, %pc_hi20(.L.str.102)
	addi.d	$a1, $a1, %pc_lo12(.L.str.102)
	ori	$a2, $zero, 1
	pcaddu18i	$ra, %call36(_ZSt16__ostream_insertIcSt11char_traitsIcEERSt13basic_ostreamIT_T0_ES6_PKS3_l)
	jirl	$ra, $ra, 0
.Ltmp19:                                # EH_LABEL
# %bb.9:                                # %_ZN9benchmark8internallsIA2_cEERNS0_7LogTypeES4_RKT_.exit
	ld.d	$a0, $s3, 0
	beqz	$a0, .LBB2_39
# %bb.10:
.Ltmp20:                                # EH_LABEL
	pcalau12i	$a1, %pc_hi20(.L.str.101)
	addi.d	$a1, $a1, %pc_lo12(.L.str.101)
	ori	$a2, $zero, 148
	pcaddu18i	$ra, %call36(_ZSt16__ostream_insertIcSt11char_traitsIcEERSt13basic_ostreamIT_T0_ES6_PKS3_l)
	jirl	$ra, $ra, 0
.Ltmp21:                                # EH_LABEL
# %bb.11:                               # %_ZN9benchmark8internallsIA149_cEERNS0_7LogTypeES4_RKT_.exit
	ld.d	$a0, $s3, 0
	beqz	$a0, .LBB2_39
# %bb.12:
.Ltmp22:                                # EH_LABEL
	pcalau12i	$a1, %pc_hi20(.L.str.103)
	addi.d	$a1, $a1, %pc_lo12(.L.str.103)
	ori	$a2, $zero, 1
	pcaddu18i	$ra, %call36(_ZSt16__ostream_insertIcSt11char_traitsIcEERSt13basic_ostreamIT_T0_ES6_PKS3_l)
	jirl	$ra, $ra, 0
.Ltmp23:                                # EH_LABEL
# %bb.13:                               # %_ZN9benchmark8internallsIA2_cEERNS0_7LogTypeES4_RKT_.exit188
	ld.d	$a0, $s3, 0
	beqz	$a0, .LBB2_39
# %bb.14:
.Ltmp25:                                # EH_LABEL
	ori	$a1, $zero, 359
	pcaddu18i	$ra, %call36(_ZNSolsEi)
	jirl	$ra, $ra, 0
.Ltmp26:                                # EH_LABEL
# %bb.15:                               # %_ZN9benchmark8internallsIiEERNS0_7LogTypeES3_RKT_.exit
	ld.d	$a0, $s3, 0
	beqz	$a0, .LBB2_39
# %bb.16:
.Ltmp27:                                # EH_LABEL
	pcalau12i	$a1, %pc_hi20(.L.str.104)
	addi.d	$a1, $a1, %pc_lo12(.L.str.104)
	ori	$a2, $zero, 2
	pcaddu18i	$ra, %call36(_ZSt16__ostream_insertIcSt11char_traitsIcEERSt13basic_ostreamIT_T0_ES6_PKS3_l)
	jirl	$ra, $ra, 0
.Ltmp28:                                # EH_LABEL
# %bb.17:                               # %_ZN9benchmark8internallsIA3_cEERNS0_7LogTypeES4_RKT_.exit
	ld.d	$a0, $s3, 0
	beqz	$a0, .LBB2_39
# %bb.18:
	ld.d	$a1, $fp, 0
	ld.d	$a2, $fp, 8
.Ltmp29:                                # EH_LABEL
	pcaddu18i	$ra, %call36(_ZSt16__ostream_insertIcSt11char_traitsIcEERSt13basic_ostreamIT_T0_ES6_PKS3_l)
	jirl	$ra, $ra, 0
.Ltmp30:                                # EH_LABEL
# %bb.19:                               # %_ZN9benchmark8internallsINSt7__cxx1112basic_stringIcSt11char_traitsIcESaIcEEEEERNS0_7LogTypeES9_RKT_.exit
	ld.d	$a0, $s3, 0
	beqz	$a0, .LBB2_39
# %bb.20:
.Ltmp31:                                # EH_LABEL
	pcalau12i	$a1, %pc_hi20(.L.str.105)
	addi.d	$a1, $a1, %pc_lo12(.L.str.105)
	ori	$a2, $zero, 2
	pcaddu18i	$ra, %call36(_ZSt16__ostream_insertIcSt11char_traitsIcEERSt13basic_ostreamIT_T0_ES6_PKS3_l)
	jirl	$ra, $ra, 0
.Ltmp32:                                # EH_LABEL
# %bb.21:                               # %_ZN9benchmark8internallsIA3_cEERNS0_7LogTypeES4_RKT_.exit197
	ld.d	$a0, $s3, 0
	beqz	$a0, .LBB2_39
# %bb.22:
.Ltmp33:                                # EH_LABEL
	pcalau12i	$a1, %pc_hi20(.L.str.101)
	addi.d	$a1, $a1, %pc_lo12(.L.str.101)
	ori	$a2, $zero, 148
	pcaddu18i	$ra, %call36(_ZSt16__ostream_insertIcSt11char_traitsIcEERSt13basic_ostreamIT_T0_ES6_PKS3_l)
	jirl	$ra, $ra, 0
.Ltmp34:                                # EH_LABEL
# %bb.23:                               # %_ZN9benchmark8internallsIA149_cEERNS0_7LogTypeES4_RKT_.exit200
	ld.d	$a0, $s3, 0
	beqz	$a0, .LBB2_39
# %bb.24:
.Ltmp35:                                # EH_LABEL
	pcalau12i	$a1, %pc_hi20(.L.str.103)
	addi.d	$a1, $a1, %pc_lo12(.L.str.103)
	ori	$a2, $zero, 1
	pcaddu18i	$ra, %call36(_ZSt16__ostream_insertIcSt11char_traitsIcEERSt13basic_ostreamIT_T0_ES6_PKS3_l)
	jirl	$ra, $ra, 0
.Ltmp36:                                # EH_LABEL
# %bb.25:                               # %_ZN9benchmark8internallsIA2_cEERNS0_7LogTypeES4_RKT_.exit203
	ld.d	$a0, $s3, 0
	beqz	$a0, .LBB2_39
# %bb.26:
.Ltmp38:                                # EH_LABEL
	ori	$a1, $zero, 359
	pcaddu18i	$ra, %call36(_ZNSolsEi)
	jirl	$ra, $ra, 0
.Ltmp39:                                # EH_LABEL
# %bb.27:                               # %_ZN9benchmark8internallsIiEERNS0_7LogTypeES3_RKT_.exit206
	ld.d	$a0, $s3, 0
	beqz	$a0, .LBB2_39
# %bb.28:
.Ltmp40:                                # EH_LABEL
	pcalau12i	$a1, %pc_hi20(.L.str.104)
	addi.d	$a1, $a1, %pc_lo12(.L.str.104)
	ori	$a2, $zero, 2
	pcaddu18i	$ra, %call36(_ZSt16__ostream_insertIcSt11char_traitsIcEERSt13basic_ostreamIT_T0_ES6_PKS3_l)
	jirl	$ra, $ra, 0
.Ltmp41:                                # EH_LABEL
# %bb.29:                               # %_ZN9benchmark8internallsIA3_cEERNS0_7LogTypeES4_RKT_.exit209
	ld.d	$a0, $s3, 0
	beqz	$a0, .LBB2_39
# %bb.30:
.Ltmp42:                                # EH_LABEL
	pcalau12i	$a1, %pc_hi20(.L.str.106)
	addi.d	$a1, $a1, %pc_lo12(.L.str.106)
	ori	$a2, $zero, 10
	pcaddu18i	$ra, %call36(_ZSt16__ostream_insertIcSt11char_traitsIcEERSt13basic_ostreamIT_T0_ES6_PKS3_l)
	jirl	$ra, $ra, 0
.Ltmp43:                                # EH_LABEL
# %bb.31:                               # %_ZN9benchmark8internallsIA11_cEERNS0_7LogTypeES4_RKT_.exit
	ld.d	$a0, $s3, 0
	beqz	$a0, .LBB2_39
# %bb.32:
.Ltmp44:                                # EH_LABEL
	pcalau12i	$a1, %pc_hi20(.L.str.107)
	addi.d	$a1, $a1, %pc_lo12(.L.str.107)
	ori	$a2, $zero, 3
	pcaddu18i	$ra, %call36(_ZSt16__ostream_insertIcSt11char_traitsIcEERSt13basic_ostreamIT_T0_ES6_PKS3_l)
	jirl	$ra, $ra, 0
.Ltmp45:                                # EH_LABEL
# %bb.33:                               # %_ZN9benchmark8internallsIA4_cEERNS0_7LogTypeES4_RKT_.exit
	ld.d	$a0, $s3, 0
	beqz	$a0, .LBB2_39
# %bb.34:
.Ltmp46:                                # EH_LABEL
	pcalau12i	$a1, %pc_hi20(.L.str.108)
	addi.d	$a1, $a1, %pc_lo12(.L.str.108)
	ori	$a2, $zero, 1
	pcaddu18i	$ra, %call36(_ZSt16__ostream_insertIcSt11char_traitsIcEERSt13basic_ostreamIT_T0_ES6_PKS3_l)
	jirl	$ra, $ra, 0
.Ltmp47:                                # EH_LABEL
# %bb.35:                               # %_ZN9benchmark8internallsIA2_cEERNS0_7LogTypeES4_RKT_.exit216
	ld.d	$a0, $s3, 0
	beqz	$a0, .LBB2_39
# %bb.36:
.Ltmp48:                                # EH_LABEL
	pcalau12i	$a1, %pc_hi20(.L.str.21)
	addi.d	$a1, $a1, %pc_lo12(.L.str.21)
	ori	$a2, $zero, 3
	pcaddu18i	$ra, %call36(_ZSt16__ostream_insertIcSt11char_traitsIcEERSt13basic_ostreamIT_T0_ES6_PKS3_l)
	jirl	$ra, $ra, 0
.Ltmp49:                                # EH_LABEL
# %bb.37:                               # %_ZN9benchmark8internallsIA4_cEERNS0_7LogTypeES4_RKT_.exit219
	ld.d	$a0, $s3, 0
	beqz	$a0, .LBB2_39
# %bb.38:
.Ltmp50:                                # EH_LABEL
	pcalau12i	$a1, %pc_hi20(.L.str.109)
	addi.d	$a1, $a1, %pc_lo12(.L.str.109)
	ori	$a2, $zero, 1
	pcaddu18i	$ra, %call36(_ZSt16__ostream_insertIcSt11char_traitsIcEERSt13basic_ostreamIT_T0_ES6_PKS3_l)
	jirl	$ra, $ra, 0
.Ltmp51:                                # EH_LABEL
.LBB2_39:                               # %_ZN9benchmark8internallsIA2_cEERNS0_7LogTypeES4_RKT_.exit222
	addi.d	$s1, $sp, 72
	st.d	$s1, $sp, 56
	st.h	$s4, $sp, 72
	st.b	$s5, $sp, 74
	ori	$a0, $zero, 3
	st.d	$a0, $sp, 64
	st.b	$zero, $sp, 75
.Ltmp53:                                # EH_LABEL
	addi.d	$a1, $sp, 56
	move	$a0, $fp
	pcaddu18i	$ra, %call36(_ZNK7Results5GetAsIdEET_RKNSt7__cxx1112basic_stringIcSt11char_traitsIcESaIcEEE)
	jirl	$ra, $ra, 0
.Ltmp54:                                # EH_LABEL
# %bb.40:
	ld.d	$a0, $s3, 0
	beqz	$a0, .LBB2_48
# %bb.41:
	ftintrz.w.d	$fa0, $fa0
	movfr2gr.s	$a1, $fa0
.Ltmp55:                                # EH_LABEL
	pcaddu18i	$ra, %call36(_ZNSolsEi)
	jirl	$ra, $ra, 0
.Ltmp56:                                # EH_LABEL
# %bb.42:                               # %_ZN9benchmark8internallsIiEERNS0_7LogTypeES3_RKT_.exit231
	ld.d	$a0, $s3, 0
	beqz	$a0, .LBB2_48
# %bb.43:
.Ltmp57:                                # EH_LABEL
	pcalau12i	$a1, %pc_hi20(.L.str.110)
	addi.d	$a1, $a1, %pc_lo12(.L.str.110)
	ori	$a2, $zero, 13
	pcaddu18i	$ra, %call36(_ZSt16__ostream_insertIcSt11char_traitsIcEERSt13basic_ostreamIT_T0_ES6_PKS3_l)
	jirl	$ra, $ra, 0
.Ltmp58:                                # EH_LABEL
# %bb.44:                               # %_ZN9benchmark8internallsIA14_cEERNS0_7LogTypeES4_RKT_.exit
	ld.d	$a0, $s3, 0
	beqz	$a0, .LBB2_48
# %bb.45:
.Ltmp60:                                # EH_LABEL
	ori	$a1, $zero, 1
	pcaddu18i	$ra, %call36(_ZNSolsEi)
	jirl	$ra, $ra, 0
.Ltmp61:                                # EH_LABEL
# %bb.46:                               # %_ZN9benchmark8internallsIiEERNS0_7LogTypeES3_RKT_.exit236
	ld.d	$a0, $s3, 0
	beqz	$a0, .LBB2_48
# %bb.47:
.Ltmp62:                                # EH_LABEL
	pcalau12i	$a1, %pc_hi20(.L.str.102)
	addi.d	$a1, $a1, %pc_lo12(.L.str.102)
	ori	$a2, $zero, 1
	pcaddu18i	$ra, %call36(_ZSt16__ostream_insertIcSt11char_traitsIcEERSt13basic_ostreamIT_T0_ES6_PKS3_l)
	jirl	$ra, $ra, 0
.Ltmp63:                                # EH_LABEL
.LBB2_48:                               # %_ZN9benchmark8internallsIA2_cEERNS0_7LogTypeES4_RKT_.exit239
	ld.d	$a0, $sp, 56
	beq	$a0, $s1, .LBB2_50
# %bb.49:                               # %_ZNKSt7__cxx1112basic_stringIcSt11char_traitsIcESaIcEE11_M_is_localEv.exit.i.i
	ld.d	$a1, $sp, 72
	addi.d	$a1, $a1, 1
	pcaddu18i	$ra, %call36(_ZdlPvm)
	jirl	$ra, $ra, 0
.LBB2_50:                               # %_ZNSt7__cxx1112basic_stringIcSt11char_traitsIcESaIcEED2Ev.exit
	ori	$a0, $zero, 1
	bne	$s2, $a0, .LBB2_319
# %bb.51:
	ld.d	$a0, $sp, 96
	beq	$a0, $s0, .LBB2_53
# %bb.52:                               # %_ZNKSt7__cxx1112basic_stringIcSt11char_traitsIcESaIcEE11_M_is_localEv.exit.i.i243
	ld.d	$a1, $sp, 112
	addi.d	$a1, $a1, 1
	pcaddu18i	$ra, %call36(_ZdlPvm)
	jirl	$ra, $ra, 0
.LBB2_53:                               # %_ZNSt7__cxx1112basic_stringIcSt11char_traitsIcESaIcEED2Ev.exit245
	st.d	$s0, $sp, 96
	pcalau12i	$a0, %pc_hi20(.L.str.22)
	addi.d	$a0, $a0, %pc_lo12(.L.str.22)
	ld.h	$s4, $a0, 0
	ld.b	$s5, $a0, 2
	st.h	$s4, $sp, 112
	st.b	$s5, $sp, 114
	ori	$a0, $zero, 3
	st.d	$a0, $sp, 104
	st.b	$zero, $sp, 115
.Ltmp68:                                # EH_LABEL
	addi.d	$a1, $sp, 96
	move	$a0, $fp
	pcaddu18i	$ra, %call36(_ZNK7Results5GetAsIdEET_RKNSt7__cxx1112basic_stringIcSt11char_traitsIcESaIcEEE)
	jirl	$ra, $ra, 0
.Ltmp69:                                # EH_LABEL
# %bb.54:
	ftintrz.w.d	$fa0, $fa0
	movfr2gr.s	$s2, $fa0
	ori	$a0, $zero, 2
	bne	$s2, $a0, .LBB2_58
# %bb.55:
	pcalau12i	$a0, %pc_hi20(_ZGVZN9benchmark8internal18GetNullLogInstanceEvE8null_log)
	ld.b	$a0, $a0, %pc_lo12(_ZGVZN9benchmark8internal18GetNullLogInstanceEvE8null_log)
	dbar	20
	pcalau12i	$a1, %pc_hi20(_ZZN9benchmark8internal18GetNullLogInstanceEvE8null_log)
	addi.d	$s3, $a1, %pc_lo12(_ZZN9benchmark8internal18GetNullLogInstanceEvE8null_log)
	bnez	$a0, .LBB2_60
# %bb.56:
	pcalau12i	$a0, %pc_hi20(_ZGVZN9benchmark8internal18GetNullLogInstanceEvE8null_log)
	addi.d	$a0, $a0, %pc_lo12(_ZGVZN9benchmark8internal18GetNullLogInstanceEvE8null_log)
	pcaddu18i	$ra, %call36(__cxa_guard_acquire)
	jirl	$ra, $ra, 0
	addi.w	$a0, $a0, 0
	beqz	$a0, .LBB2_60
# %bb.57:
	pcalau12i	$a0, %pc_hi20(_ZZN9benchmark8internal18GetNullLogInstanceEvE8null_log)
	addi.d	$s3, $a0, %pc_lo12(_ZZN9benchmark8internal18GetNullLogInstanceEvE8null_log)
	st.d	$zero, $s3, 0
	pcalau12i	$a0, %pc_hi20(_ZGVZN9benchmark8internal18GetNullLogInstanceEvE8null_log)
	addi.d	$a0, $a0, %pc_lo12(_ZGVZN9benchmark8internal18GetNullLogInstanceEvE8null_log)
	pcaddu18i	$ra, %call36(__cxa_guard_release)
	jirl	$ra, $ra, 0
	b	.LBB2_60
.LBB2_58:
.Ltmp71:                                # EH_LABEL
	pcalau12i	$a0, %pc_hi20(.L.str.111)
	addi.d	$a1, $a0, %pc_lo12(.L.str.111)
	pcalau12i	$a0, %pc_hi20(.L.str.101)
	addi.d	$a2, $a0, %pc_lo12(.L.str.101)
	pcalau12i	$a0, %pc_hi20(.L__func__._Z12CheckTabularRK7Results)
	addi.d	$a3, $a0, %pc_lo12(.L__func__._Z12CheckTabularRK7Results)
	addi.d	$a0, $sp, 48
	ori	$a4, $zero, 360
	pcaddu18i	$ra, %call36(_ZN9benchmark8internal12CheckHandlerC2EPKcS3_S3_i)
	jirl	$ra, $ra, 0
.Ltmp72:                                # EH_LABEL
# %bb.59:
	ld.d	$s3, $sp, 48
.LBB2_60:                               # %_ZN9benchmark8internal18GetNullLogInstanceEv.exit253
	ld.d	$a0, $s3, 0
	beqz	$a0, .LBB2_92
# %bb.61:
.Ltmp73:                                # EH_LABEL
	pcalau12i	$a1, %pc_hi20(.L.str.102)
	addi.d	$a1, $a1, %pc_lo12(.L.str.102)
	ori	$a2, $zero, 1
	pcaddu18i	$ra, %call36(_ZSt16__ostream_insertIcSt11char_traitsIcEERSt13basic_ostreamIT_T0_ES6_PKS3_l)
	jirl	$ra, $ra, 0
.Ltmp74:                                # EH_LABEL
# %bb.62:                               # %_ZN9benchmark8internallsIA2_cEERNS0_7LogTypeES4_RKT_.exit256
	ld.d	$a0, $s3, 0
	beqz	$a0, .LBB2_92
# %bb.63:
.Ltmp75:                                # EH_LABEL
	pcalau12i	$a1, %pc_hi20(.L.str.101)
	addi.d	$a1, $a1, %pc_lo12(.L.str.101)
	ori	$a2, $zero, 148
	pcaddu18i	$ra, %call36(_ZSt16__ostream_insertIcSt11char_traitsIcEERSt13basic_ostreamIT_T0_ES6_PKS3_l)
	jirl	$ra, $ra, 0
.Ltmp76:                                # EH_LABEL
# %bb.64:                               # %_ZN9benchmark8internallsIA149_cEERNS0_7LogTypeES4_RKT_.exit259
	ld.d	$a0, $s3, 0
	beqz	$a0, .LBB2_92
# %bb.65:
.Ltmp77:                                # EH_LABEL
	pcalau12i	$a1, %pc_hi20(.L.str.103)
	addi.d	$a1, $a1, %pc_lo12(.L.str.103)
	ori	$a2, $zero, 1
	pcaddu18i	$ra, %call36(_ZSt16__ostream_insertIcSt11char_traitsIcEERSt13basic_ostreamIT_T0_ES6_PKS3_l)
	jirl	$ra, $ra, 0
.Ltmp78:                                # EH_LABEL
# %bb.66:                               # %_ZN9benchmark8internallsIA2_cEERNS0_7LogTypeES4_RKT_.exit262
	ld.d	$a0, $s3, 0
	beqz	$a0, .LBB2_92
# %bb.67:
.Ltmp80:                                # EH_LABEL
	ori	$a1, $zero, 360
	pcaddu18i	$ra, %call36(_ZNSolsEi)
	jirl	$ra, $ra, 0
.Ltmp81:                                # EH_LABEL
# %bb.68:                               # %_ZN9benchmark8internallsIiEERNS0_7LogTypeES3_RKT_.exit265
	ld.d	$a0, $s3, 0
	beqz	$a0, .LBB2_92
# %bb.69:
.Ltmp82:                                # EH_LABEL
	pcalau12i	$a1, %pc_hi20(.L.str.104)
	addi.d	$a1, $a1, %pc_lo12(.L.str.104)
	ori	$a2, $zero, 2
	pcaddu18i	$ra, %call36(_ZSt16__ostream_insertIcSt11char_traitsIcEERSt13basic_ostreamIT_T0_ES6_PKS3_l)
	jirl	$ra, $ra, 0
.Ltmp83:                                # EH_LABEL
# %bb.70:                               # %_ZN9benchmark8internallsIA3_cEERNS0_7LogTypeES4_RKT_.exit268
	ld.d	$a0, $s3, 0
	beqz	$a0, .LBB2_92
# %bb.71:
	ld.d	$a1, $fp, 0
	ld.d	$a2, $fp, 8
.Ltmp84:                                # EH_LABEL
	pcaddu18i	$ra, %call36(_ZSt16__ostream_insertIcSt11char_traitsIcEERSt13basic_ostreamIT_T0_ES6_PKS3_l)
	jirl	$ra, $ra, 0
.Ltmp85:                                # EH_LABEL
# %bb.72:                               # %_ZN9benchmark8internallsINSt7__cxx1112basic_stringIcSt11char_traitsIcESaIcEEEEERNS0_7LogTypeES9_RKT_.exit271
	ld.d	$a0, $s3, 0
	beqz	$a0, .LBB2_92
# %bb.73:
.Ltmp86:                                # EH_LABEL
	pcalau12i	$a1, %pc_hi20(.L.str.105)
	addi.d	$a1, $a1, %pc_lo12(.L.str.105)
	ori	$a2, $zero, 2
	pcaddu18i	$ra, %call36(_ZSt16__ostream_insertIcSt11char_traitsIcEERSt13basic_ostreamIT_T0_ES6_PKS3_l)
	jirl	$ra, $ra, 0
.Ltmp87:                                # EH_LABEL
# %bb.74:                               # %_ZN9benchmark8internallsIA3_cEERNS0_7LogTypeES4_RKT_.exit274
	ld.d	$a0, $s3, 0
	beqz	$a0, .LBB2_92
# %bb.75:
.Ltmp88:                                # EH_LABEL
	pcalau12i	$a1, %pc_hi20(.L.str.101)
	addi.d	$a1, $a1, %pc_lo12(.L.str.101)
	ori	$a2, $zero, 148
	pcaddu18i	$ra, %call36(_ZSt16__ostream_insertIcSt11char_traitsIcEERSt13basic_ostreamIT_T0_ES6_PKS3_l)
	jirl	$ra, $ra, 0
.Ltmp89:                                # EH_LABEL
# %bb.76:                               # %_ZN9benchmark8internallsIA149_cEERNS0_7LogTypeES4_RKT_.exit277
	ld.d	$a0, $s3, 0
	beqz	$a0, .LBB2_92
# %bb.77:
.Ltmp90:                                # EH_LABEL
	pcalau12i	$a1, %pc_hi20(.L.str.103)
	addi.d	$a1, $a1, %pc_lo12(.L.str.103)
	ori	$a2, $zero, 1
	pcaddu18i	$ra, %call36(_ZSt16__ostream_insertIcSt11char_traitsIcEERSt13basic_ostreamIT_T0_ES6_PKS3_l)
	jirl	$ra, $ra, 0
.Ltmp91:                                # EH_LABEL
# %bb.78:                               # %_ZN9benchmark8internallsIA2_cEERNS0_7LogTypeES4_RKT_.exit280
	ld.d	$a0, $s3, 0
	beqz	$a0, .LBB2_92
# %bb.79:
.Ltmp93:                                # EH_LABEL
	ori	$a1, $zero, 360
	pcaddu18i	$ra, %call36(_ZNSolsEi)
	jirl	$ra, $ra, 0
.Ltmp94:                                # EH_LABEL
# %bb.80:                               # %_ZN9benchmark8internallsIiEERNS0_7LogTypeES3_RKT_.exit283
	ld.d	$a0, $s3, 0
	beqz	$a0, .LBB2_92
# %bb.81:
.Ltmp95:                                # EH_LABEL
	pcalau12i	$a1, %pc_hi20(.L.str.104)
	addi.d	$a1, $a1, %pc_lo12(.L.str.104)
	ori	$a2, $zero, 2
	pcaddu18i	$ra, %call36(_ZSt16__ostream_insertIcSt11char_traitsIcEERSt13basic_ostreamIT_T0_ES6_PKS3_l)
	jirl	$ra, $ra, 0
.Ltmp96:                                # EH_LABEL
# %bb.82:                               # %_ZN9benchmark8internallsIA3_cEERNS0_7LogTypeES4_RKT_.exit286
	ld.d	$a0, $s3, 0
	beqz	$a0, .LBB2_92
# %bb.83:
.Ltmp97:                                # EH_LABEL
	pcalau12i	$a1, %pc_hi20(.L.str.106)
	addi.d	$a1, $a1, %pc_lo12(.L.str.106)
	ori	$a2, $zero, 10
	pcaddu18i	$ra, %call36(_ZSt16__ostream_insertIcSt11char_traitsIcEERSt13basic_ostreamIT_T0_ES6_PKS3_l)
	jirl	$ra, $ra, 0
.Ltmp98:                                # EH_LABEL
# %bb.84:                               # %_ZN9benchmark8internallsIA11_cEERNS0_7LogTypeES4_RKT_.exit289
	ld.d	$a0, $s3, 0
	beqz	$a0, .LBB2_92
# %bb.85:
.Ltmp99:                                # EH_LABEL
	pcalau12i	$a1, %pc_hi20(.L.str.107)
	addi.d	$a1, $a1, %pc_lo12(.L.str.107)
	ori	$a2, $zero, 3
	pcaddu18i	$ra, %call36(_ZSt16__ostream_insertIcSt11char_traitsIcEERSt13basic_ostreamIT_T0_ES6_PKS3_l)
	jirl	$ra, $ra, 0
.Ltmp100:                               # EH_LABEL
# %bb.86:                               # %_ZN9benchmark8internallsIA4_cEERNS0_7LogTypeES4_RKT_.exit292
	ld.d	$a0, $s3, 0
	beqz	$a0, .LBB2_92
# %bb.87:
.Ltmp101:                               # EH_LABEL
	pcalau12i	$a1, %pc_hi20(.L.str.108)
	addi.d	$a1, $a1, %pc_lo12(.L.str.108)
	ori	$a2, $zero, 1
	pcaddu18i	$ra, %call36(_ZSt16__ostream_insertIcSt11char_traitsIcEERSt13basic_ostreamIT_T0_ES6_PKS3_l)
	jirl	$ra, $ra, 0
.Ltmp102:                               # EH_LABEL
# %bb.88:                               # %_ZN9benchmark8internallsIA2_cEERNS0_7LogTypeES4_RKT_.exit295
	ld.d	$a0, $s3, 0
	beqz	$a0, .LBB2_92
# %bb.89:
.Ltmp103:                               # EH_LABEL
	pcalau12i	$a1, %pc_hi20(.L.str.22)
	addi.d	$a1, $a1, %pc_lo12(.L.str.22)
	ori	$a2, $zero, 3
	pcaddu18i	$ra, %call36(_ZSt16__ostream_insertIcSt11char_traitsIcEERSt13basic_ostreamIT_T0_ES6_PKS3_l)
	jirl	$ra, $ra, 0
.Ltmp104:                               # EH_LABEL
# %bb.90:                               # %_ZN9benchmark8internallsIA4_cEERNS0_7LogTypeES4_RKT_.exit298
	ld.d	$a0, $s3, 0
	beqz	$a0, .LBB2_92
# %bb.91:
.Ltmp105:                               # EH_LABEL
	pcalau12i	$a1, %pc_hi20(.L.str.109)
	addi.d	$a1, $a1, %pc_lo12(.L.str.109)
	ori	$a2, $zero, 1
	pcaddu18i	$ra, %call36(_ZSt16__ostream_insertIcSt11char_traitsIcEERSt13basic_ostreamIT_T0_ES6_PKS3_l)
	jirl	$ra, $ra, 0
.Ltmp106:                               # EH_LABEL
.LBB2_92:                               # %_ZN9benchmark8internallsIA2_cEERNS0_7LogTypeES4_RKT_.exit301
	st.d	$s1, $sp, 56
	st.h	$s4, $sp, 72
	st.b	$s5, $sp, 74
	ori	$a0, $zero, 3
	st.d	$a0, $sp, 64
	st.b	$zero, $sp, 75
.Ltmp108:                               # EH_LABEL
	addi.d	$a1, $sp, 56
	move	$a0, $fp
	pcaddu18i	$ra, %call36(_ZNK7Results5GetAsIdEET_RKNSt7__cxx1112basic_stringIcSt11char_traitsIcESaIcEEE)
	jirl	$ra, $ra, 0
.Ltmp109:                               # EH_LABEL
# %bb.93:
	ld.d	$a0, $s3, 0
	beqz	$a0, .LBB2_101
# %bb.94:
	ftintrz.w.d	$fa0, $fa0
	movfr2gr.s	$a1, $fa0
.Ltmp110:                               # EH_LABEL
	pcaddu18i	$ra, %call36(_ZNSolsEi)
	jirl	$ra, $ra, 0
.Ltmp111:                               # EH_LABEL
# %bb.95:                               # %_ZN9benchmark8internallsIiEERNS0_7LogTypeES3_RKT_.exit310
	ld.d	$a0, $s3, 0
	beqz	$a0, .LBB2_101
# %bb.96:
.Ltmp112:                               # EH_LABEL
	pcalau12i	$a1, %pc_hi20(.L.str.110)
	addi.d	$a1, $a1, %pc_lo12(.L.str.110)
	ori	$a2, $zero, 13
	pcaddu18i	$ra, %call36(_ZSt16__ostream_insertIcSt11char_traitsIcEERSt13basic_ostreamIT_T0_ES6_PKS3_l)
	jirl	$ra, $ra, 0
.Ltmp113:                               # EH_LABEL
# %bb.97:                               # %_ZN9benchmark8internallsIA14_cEERNS0_7LogTypeES4_RKT_.exit313
	ld.d	$a0, $s3, 0
	beqz	$a0, .LBB2_101
# %bb.98:
.Ltmp115:                               # EH_LABEL
	ori	$a1, $zero, 2
	pcaddu18i	$ra, %call36(_ZNSolsEi)
	jirl	$ra, $ra, 0
.Ltmp116:                               # EH_LABEL
# %bb.99:                               # %_ZN9benchmark8internallsIiEERNS0_7LogTypeES3_RKT_.exit316
	ld.d	$a0, $s3, 0
	beqz	$a0, .LBB2_101
# %bb.100:
.Ltmp117:                               # EH_LABEL
	pcalau12i	$a1, %pc_hi20(.L.str.102)
	addi.d	$a1, $a1, %pc_lo12(.L.str.102)
	ori	$a2, $zero, 1
	pcaddu18i	$ra, %call36(_ZSt16__ostream_insertIcSt11char_traitsIcEERSt13basic_ostreamIT_T0_ES6_PKS3_l)
	jirl	$ra, $ra, 0
.Ltmp118:                               # EH_LABEL
.LBB2_101:                              # %_ZN9benchmark8internallsIA2_cEERNS0_7LogTypeES4_RKT_.exit319
	ld.d	$a0, $sp, 56
	beq	$a0, $s1, .LBB2_103
# %bb.102:                              # %_ZNKSt7__cxx1112basic_stringIcSt11char_traitsIcESaIcEE11_M_is_localEv.exit.i.i320
	ld.d	$a1, $sp, 72
	addi.d	$a1, $a1, 1
	pcaddu18i	$ra, %call36(_ZdlPvm)
	jirl	$ra, $ra, 0
.LBB2_103:                              # %_ZNSt7__cxx1112basic_stringIcSt11char_traitsIcESaIcEED2Ev.exit322
	ori	$a0, $zero, 2
	bne	$s2, $a0, .LBB2_321
# %bb.104:
	ld.d	$a0, $sp, 96
	beq	$a0, $s0, .LBB2_106
# %bb.105:                              # %_ZNKSt7__cxx1112basic_stringIcSt11char_traitsIcESaIcEE11_M_is_localEv.exit.i.i329
	ld.d	$a1, $sp, 112
	addi.d	$a1, $a1, 1
	pcaddu18i	$ra, %call36(_ZdlPvm)
	jirl	$ra, $ra, 0
.LBB2_106:                              # %_ZNSt7__cxx1112basic_stringIcSt11char_traitsIcESaIcEED2Ev.exit331
	st.d	$s0, $sp, 96
	pcalau12i	$a0, %pc_hi20(.L.str.23)
	addi.d	$a0, $a0, %pc_lo12(.L.str.23)
	ld.h	$s4, $a0, 0
	ld.b	$s5, $a0, 2
	st.h	$s4, $sp, 112
	st.b	$s5, $sp, 114
	ori	$a0, $zero, 3
	st.d	$a0, $sp, 104
	st.b	$zero, $sp, 115
.Ltmp123:                               # EH_LABEL
	addi.d	$a1, $sp, 96
	move	$a0, $fp
	pcaddu18i	$ra, %call36(_ZNK7Results5GetAsIdEET_RKNSt7__cxx1112basic_stringIcSt11char_traitsIcESaIcEEE)
	jirl	$ra, $ra, 0
.Ltmp124:                               # EH_LABEL
# %bb.107:
	ftintrz.w.d	$fa0, $fa0
	movfr2gr.s	$s2, $fa0
	ori	$a0, $zero, 4
	bne	$s2, $a0, .LBB2_111
# %bb.108:
	pcalau12i	$a0, %pc_hi20(_ZGVZN9benchmark8internal18GetNullLogInstanceEvE8null_log)
	ld.b	$a0, $a0, %pc_lo12(_ZGVZN9benchmark8internal18GetNullLogInstanceEvE8null_log)
	dbar	20
	pcalau12i	$a1, %pc_hi20(_ZZN9benchmark8internal18GetNullLogInstanceEvE8null_log)
	addi.d	$s3, $a1, %pc_lo12(_ZZN9benchmark8internal18GetNullLogInstanceEvE8null_log)
	bnez	$a0, .LBB2_113
# %bb.109:
	pcalau12i	$a0, %pc_hi20(_ZGVZN9benchmark8internal18GetNullLogInstanceEvE8null_log)
	addi.d	$a0, $a0, %pc_lo12(_ZGVZN9benchmark8internal18GetNullLogInstanceEvE8null_log)
	pcaddu18i	$ra, %call36(__cxa_guard_acquire)
	jirl	$ra, $ra, 0
	addi.w	$a0, $a0, 0
	beqz	$a0, .LBB2_113
# %bb.110:
	pcalau12i	$a0, %pc_hi20(_ZZN9benchmark8internal18GetNullLogInstanceEvE8null_log)
	addi.d	$s3, $a0, %pc_lo12(_ZZN9benchmark8internal18GetNullLogInstanceEvE8null_log)
	st.d	$zero, $s3, 0
	pcalau12i	$a0, %pc_hi20(_ZGVZN9benchmark8internal18GetNullLogInstanceEvE8null_log)
	addi.d	$a0, $a0, %pc_lo12(_ZGVZN9benchmark8internal18GetNullLogInstanceEvE8null_log)
	pcaddu18i	$ra, %call36(__cxa_guard_release)
	jirl	$ra, $ra, 0
	b	.LBB2_113
.LBB2_111:
.Ltmp126:                               # EH_LABEL
	pcalau12i	$a0, %pc_hi20(.L.str.112)
	addi.d	$a1, $a0, %pc_lo12(.L.str.112)
	pcalau12i	$a0, %pc_hi20(.L.str.101)
	addi.d	$a2, $a0, %pc_lo12(.L.str.101)
	pcalau12i	$a0, %pc_hi20(.L__func__._Z12CheckTabularRK7Results)
	addi.d	$a3, $a0, %pc_lo12(.L__func__._Z12CheckTabularRK7Results)
	addi.d	$a0, $sp, 40
	ori	$a4, $zero, 361
	pcaddu18i	$ra, %call36(_ZN9benchmark8internal12CheckHandlerC2EPKcS3_S3_i)
	jirl	$ra, $ra, 0
.Ltmp127:                               # EH_LABEL
# %bb.112:
	ld.d	$s3, $sp, 40
.LBB2_113:                              # %_ZN9benchmark8internal18GetNullLogInstanceEv.exit339
	ld.d	$a0, $s3, 0
	beqz	$a0, .LBB2_145
# %bb.114:
.Ltmp128:                               # EH_LABEL
	pcalau12i	$a1, %pc_hi20(.L.str.102)
	addi.d	$a1, $a1, %pc_lo12(.L.str.102)
	ori	$a2, $zero, 1
	pcaddu18i	$ra, %call36(_ZSt16__ostream_insertIcSt11char_traitsIcEERSt13basic_ostreamIT_T0_ES6_PKS3_l)
	jirl	$ra, $ra, 0
.Ltmp129:                               # EH_LABEL
# %bb.115:                              # %_ZN9benchmark8internallsIA2_cEERNS0_7LogTypeES4_RKT_.exit342
	ld.d	$a0, $s3, 0
	beqz	$a0, .LBB2_145
# %bb.116:
.Ltmp130:                               # EH_LABEL
	pcalau12i	$a1, %pc_hi20(.L.str.101)
	addi.d	$a1, $a1, %pc_lo12(.L.str.101)
	ori	$a2, $zero, 148
	pcaddu18i	$ra, %call36(_ZSt16__ostream_insertIcSt11char_traitsIcEERSt13basic_ostreamIT_T0_ES6_PKS3_l)
	jirl	$ra, $ra, 0
.Ltmp131:                               # EH_LABEL
# %bb.117:                              # %_ZN9benchmark8internallsIA149_cEERNS0_7LogTypeES4_RKT_.exit345
	ld.d	$a0, $s3, 0
	beqz	$a0, .LBB2_145
# %bb.118:
.Ltmp132:                               # EH_LABEL
	pcalau12i	$a1, %pc_hi20(.L.str.103)
	addi.d	$a1, $a1, %pc_lo12(.L.str.103)
	ori	$a2, $zero, 1
	pcaddu18i	$ra, %call36(_ZSt16__ostream_insertIcSt11char_traitsIcEERSt13basic_ostreamIT_T0_ES6_PKS3_l)
	jirl	$ra, $ra, 0
.Ltmp133:                               # EH_LABEL
# %bb.119:                              # %_ZN9benchmark8internallsIA2_cEERNS0_7LogTypeES4_RKT_.exit348
	ld.d	$a0, $s3, 0
	beqz	$a0, .LBB2_145
# %bb.120:
.Ltmp135:                               # EH_LABEL
	ori	$a1, $zero, 361
	pcaddu18i	$ra, %call36(_ZNSolsEi)
	jirl	$ra, $ra, 0
.Ltmp136:                               # EH_LABEL
# %bb.121:                              # %_ZN9benchmark8internallsIiEERNS0_7LogTypeES3_RKT_.exit351
	ld.d	$a0, $s3, 0
	beqz	$a0, .LBB2_145
# %bb.122:
.Ltmp137:                               # EH_LABEL
	pcalau12i	$a1, %pc_hi20(.L.str.104)
	addi.d	$a1, $a1, %pc_lo12(.L.str.104)
	ori	$a2, $zero, 2
	pcaddu18i	$ra, %call36(_ZSt16__ostream_insertIcSt11char_traitsIcEERSt13basic_ostreamIT_T0_ES6_PKS3_l)
	jirl	$ra, $ra, 0
.Ltmp138:                               # EH_LABEL
# %bb.123:                              # %_ZN9benchmark8internallsIA3_cEERNS0_7LogTypeES4_RKT_.exit354
	ld.d	$a0, $s3, 0
	beqz	$a0, .LBB2_145
# %bb.124:
	ld.d	$a1, $fp, 0
	ld.d	$a2, $fp, 8
.Ltmp139:                               # EH_LABEL
	pcaddu18i	$ra, %call36(_ZSt16__ostream_insertIcSt11char_traitsIcEERSt13basic_ostreamIT_T0_ES6_PKS3_l)
	jirl	$ra, $ra, 0
.Ltmp140:                               # EH_LABEL
# %bb.125:                              # %_ZN9benchmark8internallsINSt7__cxx1112basic_stringIcSt11char_traitsIcESaIcEEEEERNS0_7LogTypeES9_RKT_.exit357
	ld.d	$a0, $s3, 0
	beqz	$a0, .LBB2_145
# %bb.126:
.Ltmp141:                               # EH_LABEL
	pcalau12i	$a1, %pc_hi20(.L.str.105)
	addi.d	$a1, $a1, %pc_lo12(.L.str.105)
	ori	$a2, $zero, 2
	pcaddu18i	$ra, %call36(_ZSt16__ostream_insertIcSt11char_traitsIcEERSt13basic_ostreamIT_T0_ES6_PKS3_l)
	jirl	$ra, $ra, 0
.Ltmp142:                               # EH_LABEL
# %bb.127:                              # %_ZN9benchmark8internallsIA3_cEERNS0_7LogTypeES4_RKT_.exit360
	ld.d	$a0, $s3, 0
	beqz	$a0, .LBB2_145
# %bb.128:
.Ltmp143:                               # EH_LABEL
	pcalau12i	$a1, %pc_hi20(.L.str.101)
	addi.d	$a1, $a1, %pc_lo12(.L.str.101)
	ori	$a2, $zero, 148
	pcaddu18i	$ra, %call36(_ZSt16__ostream_insertIcSt11char_traitsIcEERSt13basic_ostreamIT_T0_ES6_PKS3_l)
	jirl	$ra, $ra, 0
.Ltmp144:                               # EH_LABEL
# %bb.129:                              # %_ZN9benchmark8internallsIA149_cEERNS0_7LogTypeES4_RKT_.exit363
	ld.d	$a0, $s3, 0
	beqz	$a0, .LBB2_145
# %bb.130:
.Ltmp145:                               # EH_LABEL
	pcalau12i	$a1, %pc_hi20(.L.str.103)
	addi.d	$a1, $a1, %pc_lo12(.L.str.103)
	ori	$a2, $zero, 1
	pcaddu18i	$ra, %call36(_ZSt16__ostream_insertIcSt11char_traitsIcEERSt13basic_ostreamIT_T0_ES6_PKS3_l)
	jirl	$ra, $ra, 0
.Ltmp146:                               # EH_LABEL
# %bb.131:                              # %_ZN9benchmark8internallsIA2_cEERNS0_7LogTypeES4_RKT_.exit366
	ld.d	$a0, $s3, 0
	beqz	$a0, .LBB2_145
# %bb.132:
.Ltmp148:                               # EH_LABEL
	ori	$a1, $zero, 361
	pcaddu18i	$ra, %call36(_ZNSolsEi)
	jirl	$ra, $ra, 0
.Ltmp149:                               # EH_LABEL
# %bb.133:                              # %_ZN9benchmark8internallsIiEERNS0_7LogTypeES3_RKT_.exit369
	ld.d	$a0, $s3, 0
	beqz	$a0, .LBB2_145
# %bb.134:
.Ltmp150:                               # EH_LABEL
	pcalau12i	$a1, %pc_hi20(.L.str.104)
	addi.d	$a1, $a1, %pc_lo12(.L.str.104)
	ori	$a2, $zero, 2
	pcaddu18i	$ra, %call36(_ZSt16__ostream_insertIcSt11char_traitsIcEERSt13basic_ostreamIT_T0_ES6_PKS3_l)
	jirl	$ra, $ra, 0
.Ltmp151:                               # EH_LABEL
# %bb.135:                              # %_ZN9benchmark8internallsIA3_cEERNS0_7LogTypeES4_RKT_.exit372
	ld.d	$a0, $s3, 0
	beqz	$a0, .LBB2_145
# %bb.136:
.Ltmp152:                               # EH_LABEL
	pcalau12i	$a1, %pc_hi20(.L.str.106)
	addi.d	$a1, $a1, %pc_lo12(.L.str.106)
	ori	$a2, $zero, 10
	pcaddu18i	$ra, %call36(_ZSt16__ostream_insertIcSt11char_traitsIcEERSt13basic_ostreamIT_T0_ES6_PKS3_l)
	jirl	$ra, $ra, 0
.Ltmp153:                               # EH_LABEL
# %bb.137:                              # %_ZN9benchmark8internallsIA11_cEERNS0_7LogTypeES4_RKT_.exit375
	ld.d	$a0, $s3, 0
	beqz	$a0, .LBB2_145
# %bb.138:
.Ltmp154:                               # EH_LABEL
	pcalau12i	$a1, %pc_hi20(.L.str.107)
	addi.d	$a1, $a1, %pc_lo12(.L.str.107)
	ori	$a2, $zero, 3
	pcaddu18i	$ra, %call36(_ZSt16__ostream_insertIcSt11char_traitsIcEERSt13basic_ostreamIT_T0_ES6_PKS3_l)
	jirl	$ra, $ra, 0
.Ltmp155:                               # EH_LABEL
# %bb.139:                              # %_ZN9benchmark8internallsIA4_cEERNS0_7LogTypeES4_RKT_.exit378
	ld.d	$a0, $s3, 0
	beqz	$a0, .LBB2_145
# %bb.140:
.Ltmp156:                               # EH_LABEL
	pcalau12i	$a1, %pc_hi20(.L.str.108)
	addi.d	$a1, $a1, %pc_lo12(.L.str.108)
	ori	$a2, $zero, 1
	pcaddu18i	$ra, %call36(_ZSt16__ostream_insertIcSt11char_traitsIcEERSt13basic_ostreamIT_T0_ES6_PKS3_l)
	jirl	$ra, $ra, 0
.Ltmp157:                               # EH_LABEL
# %bb.141:                              # %_ZN9benchmark8internallsIA2_cEERNS0_7LogTypeES4_RKT_.exit381
	ld.d	$a0, $s3, 0
	beqz	$a0, .LBB2_145
# %bb.142:
.Ltmp158:                               # EH_LABEL
	pcalau12i	$a1, %pc_hi20(.L.str.23)
	addi.d	$a1, $a1, %pc_lo12(.L.str.23)
	ori	$a2, $zero, 3
	pcaddu18i	$ra, %call36(_ZSt16__ostream_insertIcSt11char_traitsIcEERSt13basic_ostreamIT_T0_ES6_PKS3_l)
	jirl	$ra, $ra, 0
.Ltmp159:                               # EH_LABEL
# %bb.143:                              # %_ZN9benchmark8internallsIA4_cEERNS0_7LogTypeES4_RKT_.exit384
	ld.d	$a0, $s3, 0
	beqz	$a0, .LBB2_145
# %bb.144:
.Ltmp160:                               # EH_LABEL
	pcalau12i	$a1, %pc_hi20(.L.str.109)
	addi.d	$a1, $a1, %pc_lo12(.L.str.109)
	ori	$a2, $zero, 1
	pcaddu18i	$ra, %call36(_ZSt16__ostream_insertIcSt11char_traitsIcEERSt13basic_ostreamIT_T0_ES6_PKS3_l)
	jirl	$ra, $ra, 0
.Ltmp161:                               # EH_LABEL
.LBB2_145:                              # %_ZN9benchmark8internallsIA2_cEERNS0_7LogTypeES4_RKT_.exit387
	st.d	$s1, $sp, 56
	st.h	$s4, $sp, 72
	st.b	$s5, $sp, 74
	ori	$a0, $zero, 3
	st.d	$a0, $sp, 64
	st.b	$zero, $sp, 75
.Ltmp163:                               # EH_LABEL
	addi.d	$a1, $sp, 56
	move	$a0, $fp
	pcaddu18i	$ra, %call36(_ZNK7Results5GetAsIdEET_RKNSt7__cxx1112basic_stringIcSt11char_traitsIcESaIcEEE)
	jirl	$ra, $ra, 0
.Ltmp164:                               # EH_LABEL
# %bb.146:
	ld.d	$a0, $s3, 0
	beqz	$a0, .LBB2_154
# %bb.147:
	ftintrz.w.d	$fa0, $fa0
	movfr2gr.s	$a1, $fa0
.Ltmp165:                               # EH_LABEL
	pcaddu18i	$ra, %call36(_ZNSolsEi)
	jirl	$ra, $ra, 0
.Ltmp166:                               # EH_LABEL
# %bb.148:                              # %_ZN9benchmark8internallsIiEERNS0_7LogTypeES3_RKT_.exit396
	ld.d	$a0, $s3, 0
	beqz	$a0, .LBB2_154
# %bb.149:
.Ltmp167:                               # EH_LABEL
	pcalau12i	$a1, %pc_hi20(.L.str.110)
	addi.d	$a1, $a1, %pc_lo12(.L.str.110)
	ori	$a2, $zero, 13
	pcaddu18i	$ra, %call36(_ZSt16__ostream_insertIcSt11char_traitsIcEERSt13basic_ostreamIT_T0_ES6_PKS3_l)
	jirl	$ra, $ra, 0
.Ltmp168:                               # EH_LABEL
# %bb.150:                              # %_ZN9benchmark8internallsIA14_cEERNS0_7LogTypeES4_RKT_.exit399
	ld.d	$a0, $s3, 0
	beqz	$a0, .LBB2_154
# %bb.151:
.Ltmp170:                               # EH_LABEL
	ori	$a1, $zero, 4
	pcaddu18i	$ra, %call36(_ZNSolsEi)
	jirl	$ra, $ra, 0
.Ltmp171:                               # EH_LABEL
# %bb.152:                              # %_ZN9benchmark8internallsIiEERNS0_7LogTypeES3_RKT_.exit402
	ld.d	$a0, $s3, 0
	beqz	$a0, .LBB2_154
# %bb.153:
.Ltmp172:                               # EH_LABEL
	pcalau12i	$a1, %pc_hi20(.L.str.102)
	addi.d	$a1, $a1, %pc_lo12(.L.str.102)
	ori	$a2, $zero, 1
	pcaddu18i	$ra, %call36(_ZSt16__ostream_insertIcSt11char_traitsIcEERSt13basic_ostreamIT_T0_ES6_PKS3_l)
	jirl	$ra, $ra, 0
.Ltmp173:                               # EH_LABEL
.LBB2_154:                              # %_ZN9benchmark8internallsIA2_cEERNS0_7LogTypeES4_RKT_.exit405
	ld.d	$a0, $sp, 56
	beq	$a0, $s1, .LBB2_156
# %bb.155:                              # %_ZNKSt7__cxx1112basic_stringIcSt11char_traitsIcESaIcEE11_M_is_localEv.exit.i.i406
	ld.d	$a1, $sp, 72
	addi.d	$a1, $a1, 1
	pcaddu18i	$ra, %call36(_ZdlPvm)
	jirl	$ra, $ra, 0
.LBB2_156:                              # %_ZNSt7__cxx1112basic_stringIcSt11char_traitsIcESaIcEED2Ev.exit408
	ori	$a0, $zero, 4
	bne	$s2, $a0, .LBB2_323
# %bb.157:
	ld.d	$a0, $sp, 96
	beq	$a0, $s0, .LBB2_159
# %bb.158:                              # %_ZNKSt7__cxx1112basic_stringIcSt11char_traitsIcESaIcEE11_M_is_localEv.exit.i.i415
	ld.d	$a1, $sp, 112
	addi.d	$a1, $a1, 1
	pcaddu18i	$ra, %call36(_ZdlPvm)
	jirl	$ra, $ra, 0
.LBB2_159:                              # %_ZNSt7__cxx1112basic_stringIcSt11char_traitsIcESaIcEED2Ev.exit417
	st.d	$s0, $sp, 96
	pcalau12i	$a0, %pc_hi20(.L.str.24)
	addi.d	$a0, $a0, %pc_lo12(.L.str.24)
	ld.h	$s4, $a0, 0
	ld.b	$s5, $a0, 2
	st.h	$s4, $sp, 112
	st.b	$s5, $sp, 114
	ori	$a0, $zero, 3
	st.d	$a0, $sp, 104
	st.b	$zero, $sp, 115
.Ltmp178:                               # EH_LABEL
	addi.d	$a1, $sp, 96
	move	$a0, $fp
	pcaddu18i	$ra, %call36(_ZNK7Results5GetAsIdEET_RKNSt7__cxx1112basic_stringIcSt11char_traitsIcESaIcEEE)
	jirl	$ra, $ra, 0
.Ltmp179:                               # EH_LABEL
# %bb.160:
	ftintrz.w.d	$fa0, $fa0
	movfr2gr.s	$s2, $fa0
	ori	$a0, $zero, 8
	bne	$s2, $a0, .LBB2_164
# %bb.161:
	pcalau12i	$a0, %pc_hi20(_ZGVZN9benchmark8internal18GetNullLogInstanceEvE8null_log)
	ld.b	$a0, $a0, %pc_lo12(_ZGVZN9benchmark8internal18GetNullLogInstanceEvE8null_log)
	dbar	20
	pcalau12i	$a1, %pc_hi20(_ZZN9benchmark8internal18GetNullLogInstanceEvE8null_log)
	addi.d	$s3, $a1, %pc_lo12(_ZZN9benchmark8internal18GetNullLogInstanceEvE8null_log)
	bnez	$a0, .LBB2_166
# %bb.162:
	pcalau12i	$a0, %pc_hi20(_ZGVZN9benchmark8internal18GetNullLogInstanceEvE8null_log)
	addi.d	$a0, $a0, %pc_lo12(_ZGVZN9benchmark8internal18GetNullLogInstanceEvE8null_log)
	pcaddu18i	$ra, %call36(__cxa_guard_acquire)
	jirl	$ra, $ra, 0
	addi.w	$a0, $a0, 0
	beqz	$a0, .LBB2_166
# %bb.163:
	pcalau12i	$a0, %pc_hi20(_ZZN9benchmark8internal18GetNullLogInstanceEvE8null_log)
	addi.d	$s3, $a0, %pc_lo12(_ZZN9benchmark8internal18GetNullLogInstanceEvE8null_log)
	st.d	$zero, $s3, 0
	pcalau12i	$a0, %pc_hi20(_ZGVZN9benchmark8internal18GetNullLogInstanceEvE8null_log)
	addi.d	$a0, $a0, %pc_lo12(_ZGVZN9benchmark8internal18GetNullLogInstanceEvE8null_log)
	pcaddu18i	$ra, %call36(__cxa_guard_release)
	jirl	$ra, $ra, 0
	b	.LBB2_166
.LBB2_164:
.Ltmp181:                               # EH_LABEL
	pcalau12i	$a0, %pc_hi20(.L.str.113)
	addi.d	$a1, $a0, %pc_lo12(.L.str.113)
	pcalau12i	$a0, %pc_hi20(.L.str.101)
	addi.d	$a2, $a0, %pc_lo12(.L.str.101)
	pcalau12i	$a0, %pc_hi20(.L__func__._Z12CheckTabularRK7Results)
	addi.d	$a3, $a0, %pc_lo12(.L__func__._Z12CheckTabularRK7Results)
	addi.d	$a0, $sp, 32
	ori	$a4, $zero, 362
	pcaddu18i	$ra, %call36(_ZN9benchmark8internal12CheckHandlerC2EPKcS3_S3_i)
	jirl	$ra, $ra, 0
.Ltmp182:                               # EH_LABEL
# %bb.165:
	ld.d	$s3, $sp, 32
.LBB2_166:                              # %_ZN9benchmark8internal18GetNullLogInstanceEv.exit425
	ld.d	$a0, $s3, 0
	beqz	$a0, .LBB2_198
# %bb.167:
.Ltmp183:                               # EH_LABEL
	pcalau12i	$a1, %pc_hi20(.L.str.102)
	addi.d	$a1, $a1, %pc_lo12(.L.str.102)
	ori	$a2, $zero, 1
	pcaddu18i	$ra, %call36(_ZSt16__ostream_insertIcSt11char_traitsIcEERSt13basic_ostreamIT_T0_ES6_PKS3_l)
	jirl	$ra, $ra, 0
.Ltmp184:                               # EH_LABEL
# %bb.168:                              # %_ZN9benchmark8internallsIA2_cEERNS0_7LogTypeES4_RKT_.exit428
	ld.d	$a0, $s3, 0
	beqz	$a0, .LBB2_198
# %bb.169:
.Ltmp185:                               # EH_LABEL
	pcalau12i	$a1, %pc_hi20(.L.str.101)
	addi.d	$a1, $a1, %pc_lo12(.L.str.101)
	ori	$a2, $zero, 148
	pcaddu18i	$ra, %call36(_ZSt16__ostream_insertIcSt11char_traitsIcEERSt13basic_ostreamIT_T0_ES6_PKS3_l)
	jirl	$ra, $ra, 0
.Ltmp186:                               # EH_LABEL
# %bb.170:                              # %_ZN9benchmark8internallsIA149_cEERNS0_7LogTypeES4_RKT_.exit431
	ld.d	$a0, $s3, 0
	beqz	$a0, .LBB2_198
# %bb.171:
.Ltmp187:                               # EH_LABEL
	pcalau12i	$a1, %pc_hi20(.L.str.103)
	addi.d	$a1, $a1, %pc_lo12(.L.str.103)
	ori	$a2, $zero, 1
	pcaddu18i	$ra, %call36(_ZSt16__ostream_insertIcSt11char_traitsIcEERSt13basic_ostreamIT_T0_ES6_PKS3_l)
	jirl	$ra, $ra, 0
.Ltmp188:                               # EH_LABEL
# %bb.172:                              # %_ZN9benchmark8internallsIA2_cEERNS0_7LogTypeES4_RKT_.exit434
	ld.d	$a0, $s3, 0
	beqz	$a0, .LBB2_198
# %bb.173:
.Ltmp190:                               # EH_LABEL
	ori	$a1, $zero, 362
	pcaddu18i	$ra, %call36(_ZNSolsEi)
	jirl	$ra, $ra, 0
.Ltmp191:                               # EH_LABEL
# %bb.174:                              # %_ZN9benchmark8internallsIiEERNS0_7LogTypeES3_RKT_.exit437
	ld.d	$a0, $s3, 0
	beqz	$a0, .LBB2_198
# %bb.175:
.Ltmp192:                               # EH_LABEL
	pcalau12i	$a1, %pc_hi20(.L.str.104)
	addi.d	$a1, $a1, %pc_lo12(.L.str.104)
	ori	$a2, $zero, 2
	pcaddu18i	$ra, %call36(_ZSt16__ostream_insertIcSt11char_traitsIcEERSt13basic_ostreamIT_T0_ES6_PKS3_l)
	jirl	$ra, $ra, 0
.Ltmp193:                               # EH_LABEL
# %bb.176:                              # %_ZN9benchmark8internallsIA3_cEERNS0_7LogTypeES4_RKT_.exit440
	ld.d	$a0, $s3, 0
	beqz	$a0, .LBB2_198
# %bb.177:
	ld.d	$a1, $fp, 0
	ld.d	$a2, $fp, 8
.Ltmp194:                               # EH_LABEL
	pcaddu18i	$ra, %call36(_ZSt16__ostream_insertIcSt11char_traitsIcEERSt13basic_ostreamIT_T0_ES6_PKS3_l)
	jirl	$ra, $ra, 0
.Ltmp195:                               # EH_LABEL
# %bb.178:                              # %_ZN9benchmark8internallsINSt7__cxx1112basic_stringIcSt11char_traitsIcESaIcEEEEERNS0_7LogTypeES9_RKT_.exit443
	ld.d	$a0, $s3, 0
	beqz	$a0, .LBB2_198
# %bb.179:
.Ltmp196:                               # EH_LABEL
	pcalau12i	$a1, %pc_hi20(.L.str.105)
	addi.d	$a1, $a1, %pc_lo12(.L.str.105)
	ori	$a2, $zero, 2
	pcaddu18i	$ra, %call36(_ZSt16__ostream_insertIcSt11char_traitsIcEERSt13basic_ostreamIT_T0_ES6_PKS3_l)
	jirl	$ra, $ra, 0
.Ltmp197:                               # EH_LABEL
# %bb.180:                              # %_ZN9benchmark8internallsIA3_cEERNS0_7LogTypeES4_RKT_.exit446
	ld.d	$a0, $s3, 0
	beqz	$a0, .LBB2_198
# %bb.181:
.Ltmp198:                               # EH_LABEL
	pcalau12i	$a1, %pc_hi20(.L.str.101)
	addi.d	$a1, $a1, %pc_lo12(.L.str.101)
	ori	$a2, $zero, 148
	pcaddu18i	$ra, %call36(_ZSt16__ostream_insertIcSt11char_traitsIcEERSt13basic_ostreamIT_T0_ES6_PKS3_l)
	jirl	$ra, $ra, 0
.Ltmp199:                               # EH_LABEL
# %bb.182:                              # %_ZN9benchmark8internallsIA149_cEERNS0_7LogTypeES4_RKT_.exit449
	ld.d	$a0, $s3, 0
	beqz	$a0, .LBB2_198
# %bb.183:
.Ltmp200:                               # EH_LABEL
	pcalau12i	$a1, %pc_hi20(.L.str.103)
	addi.d	$a1, $a1, %pc_lo12(.L.str.103)
	ori	$a2, $zero, 1
	pcaddu18i	$ra, %call36(_ZSt16__ostream_insertIcSt11char_traitsIcEERSt13basic_ostreamIT_T0_ES6_PKS3_l)
	jirl	$ra, $ra, 0
.Ltmp201:                               # EH_LABEL
# %bb.184:                              # %_ZN9benchmark8internallsIA2_cEERNS0_7LogTypeES4_RKT_.exit452
	ld.d	$a0, $s3, 0
	beqz	$a0, .LBB2_198
# %bb.185:
.Ltmp203:                               # EH_LABEL
	ori	$a1, $zero, 362
	pcaddu18i	$ra, %call36(_ZNSolsEi)
	jirl	$ra, $ra, 0
.Ltmp204:                               # EH_LABEL
# %bb.186:                              # %_ZN9benchmark8internallsIiEERNS0_7LogTypeES3_RKT_.exit455
	ld.d	$a0, $s3, 0
	beqz	$a0, .LBB2_198
# %bb.187:
.Ltmp205:                               # EH_LABEL
	pcalau12i	$a1, %pc_hi20(.L.str.104)
	addi.d	$a1, $a1, %pc_lo12(.L.str.104)
	ori	$a2, $zero, 2
	pcaddu18i	$ra, %call36(_ZSt16__ostream_insertIcSt11char_traitsIcEERSt13basic_ostreamIT_T0_ES6_PKS3_l)
	jirl	$ra, $ra, 0
.Ltmp206:                               # EH_LABEL
# %bb.188:                              # %_ZN9benchmark8internallsIA3_cEERNS0_7LogTypeES4_RKT_.exit458
	ld.d	$a0, $s3, 0
	beqz	$a0, .LBB2_198
# %bb.189:
.Ltmp207:                               # EH_LABEL
	pcalau12i	$a1, %pc_hi20(.L.str.106)
	addi.d	$a1, $a1, %pc_lo12(.L.str.106)
	ori	$a2, $zero, 10
	pcaddu18i	$ra, %call36(_ZSt16__ostream_insertIcSt11char_traitsIcEERSt13basic_ostreamIT_T0_ES6_PKS3_l)
	jirl	$ra, $ra, 0
.Ltmp208:                               # EH_LABEL
# %bb.190:                              # %_ZN9benchmark8internallsIA11_cEERNS0_7LogTypeES4_RKT_.exit461
	ld.d	$a0, $s3, 0
	beqz	$a0, .LBB2_198
# %bb.191:
.Ltmp209:                               # EH_LABEL
	pcalau12i	$a1, %pc_hi20(.L.str.107)
	addi.d	$a1, $a1, %pc_lo12(.L.str.107)
	ori	$a2, $zero, 3
	pcaddu18i	$ra, %call36(_ZSt16__ostream_insertIcSt11char_traitsIcEERSt13basic_ostreamIT_T0_ES6_PKS3_l)
	jirl	$ra, $ra, 0
.Ltmp210:                               # EH_LABEL
# %bb.192:                              # %_ZN9benchmark8internallsIA4_cEERNS0_7LogTypeES4_RKT_.exit464
	ld.d	$a0, $s3, 0
	beqz	$a0, .LBB2_198
# %bb.193:
.Ltmp211:                               # EH_LABEL
	pcalau12i	$a1, %pc_hi20(.L.str.108)
	addi.d	$a1, $a1, %pc_lo12(.L.str.108)
	ori	$a2, $zero, 1
	pcaddu18i	$ra, %call36(_ZSt16__ostream_insertIcSt11char_traitsIcEERSt13basic_ostreamIT_T0_ES6_PKS3_l)
	jirl	$ra, $ra, 0
.Ltmp212:                               # EH_LABEL
# %bb.194:                              # %_ZN9benchmark8internallsIA2_cEERNS0_7LogTypeES4_RKT_.exit467
	ld.d	$a0, $s3, 0
	beqz	$a0, .LBB2_198
# %bb.195:
.Ltmp213:                               # EH_LABEL
	pcalau12i	$a1, %pc_hi20(.L.str.24)
	addi.d	$a1, $a1, %pc_lo12(.L.str.24)
	ori	$a2, $zero, 3
	pcaddu18i	$ra, %call36(_ZSt16__ostream_insertIcSt11char_traitsIcEERSt13basic_ostreamIT_T0_ES6_PKS3_l)
	jirl	$ra, $ra, 0
.Ltmp214:                               # EH_LABEL
# %bb.196:                              # %_ZN9benchmark8internallsIA4_cEERNS0_7LogTypeES4_RKT_.exit470
	ld.d	$a0, $s3, 0
	beqz	$a0, .LBB2_198
# %bb.197:
.Ltmp215:                               # EH_LABEL
	pcalau12i	$a1, %pc_hi20(.L.str.109)
	addi.d	$a1, $a1, %pc_lo12(.L.str.109)
	ori	$a2, $zero, 1
	pcaddu18i	$ra, %call36(_ZSt16__ostream_insertIcSt11char_traitsIcEERSt13basic_ostreamIT_T0_ES6_PKS3_l)
	jirl	$ra, $ra, 0
.Ltmp216:                               # EH_LABEL
.LBB2_198:                              # %_ZN9benchmark8internallsIA2_cEERNS0_7LogTypeES4_RKT_.exit473
	st.d	$s1, $sp, 56
	st.h	$s4, $sp, 72
	st.b	$s5, $sp, 74
	ori	$a0, $zero, 3
	st.d	$a0, $sp, 64
	st.b	$zero, $sp, 75
.Ltmp218:                               # EH_LABEL
	addi.d	$a1, $sp, 56
	move	$a0, $fp
	pcaddu18i	$ra, %call36(_ZNK7Results5GetAsIdEET_RKNSt7__cxx1112basic_stringIcSt11char_traitsIcESaIcEEE)
	jirl	$ra, $ra, 0
.Ltmp219:                               # EH_LABEL
# %bb.199:
	ld.d	$a0, $s3, 0
	beqz	$a0, .LBB2_207
# %bb.200:
	ftintrz.w.d	$fa0, $fa0
	movfr2gr.s	$a1, $fa0
.Ltmp220:                               # EH_LABEL
	pcaddu18i	$ra, %call36(_ZNSolsEi)
	jirl	$ra, $ra, 0
.Ltmp221:                               # EH_LABEL
# %bb.201:                              # %_ZN9benchmark8internallsIiEERNS0_7LogTypeES3_RKT_.exit482
	ld.d	$a0, $s3, 0
	beqz	$a0, .LBB2_207
# %bb.202:
.Ltmp222:                               # EH_LABEL
	pcalau12i	$a1, %pc_hi20(.L.str.110)
	addi.d	$a1, $a1, %pc_lo12(.L.str.110)
	ori	$a2, $zero, 13
	pcaddu18i	$ra, %call36(_ZSt16__ostream_insertIcSt11char_traitsIcEERSt13basic_ostreamIT_T0_ES6_PKS3_l)
	jirl	$ra, $ra, 0
.Ltmp223:                               # EH_LABEL
# %bb.203:                              # %_ZN9benchmark8internallsIA14_cEERNS0_7LogTypeES4_RKT_.exit485
	ld.d	$a0, $s3, 0
	beqz	$a0, .LBB2_207
# %bb.204:
.Ltmp225:                               # EH_LABEL
	ori	$a1, $zero, 8
	pcaddu18i	$ra, %call36(_ZNSolsEi)
	jirl	$ra, $ra, 0
.Ltmp226:                               # EH_LABEL
# %bb.205:                              # %_ZN9benchmark8internallsIiEERNS0_7LogTypeES3_RKT_.exit488
	ld.d	$a0, $s3, 0
	beqz	$a0, .LBB2_207
# %bb.206:
.Ltmp227:                               # EH_LABEL
	pcalau12i	$a1, %pc_hi20(.L.str.102)
	addi.d	$a1, $a1, %pc_lo12(.L.str.102)
	ori	$a2, $zero, 1
	pcaddu18i	$ra, %call36(_ZSt16__ostream_insertIcSt11char_traitsIcEERSt13basic_ostreamIT_T0_ES6_PKS3_l)
	jirl	$ra, $ra, 0
.Ltmp228:                               # EH_LABEL
.LBB2_207:                              # %_ZN9benchmark8internallsIA2_cEERNS0_7LogTypeES4_RKT_.exit491
	ld.d	$a0, $sp, 56
	beq	$a0, $s1, .LBB2_209
# %bb.208:                              # %_ZNKSt7__cxx1112basic_stringIcSt11char_traitsIcESaIcEE11_M_is_localEv.exit.i.i492
	ld.d	$a1, $sp, 72
	addi.d	$a1, $a1, 1
	pcaddu18i	$ra, %call36(_ZdlPvm)
	jirl	$ra, $ra, 0
.LBB2_209:                              # %_ZNSt7__cxx1112basic_stringIcSt11char_traitsIcESaIcEED2Ev.exit494
	ori	$a0, $zero, 8
	bne	$s2, $a0, .LBB2_325
# %bb.210:
	ld.d	$a0, $sp, 96
	beq	$a0, $s0, .LBB2_212
# %bb.211:                              # %_ZNKSt7__cxx1112basic_stringIcSt11char_traitsIcESaIcEE11_M_is_localEv.exit.i.i501
	ld.d	$a1, $sp, 112
	addi.d	$a1, $a1, 1
	pcaddu18i	$ra, %call36(_ZdlPvm)
	jirl	$ra, $ra, 0
.LBB2_212:                              # %_ZNSt7__cxx1112basic_stringIcSt11char_traitsIcESaIcEED2Ev.exit503
	st.d	$s0, $sp, 96
	lu12i.w	$a0, 403191
	ori	$s4, $a0, 582
	st.w	$s4, $sp, 112
	ori	$a0, $zero, 4
	st.d	$a0, $sp, 104
	st.b	$zero, $sp, 116
.Ltmp233:                               # EH_LABEL
	addi.d	$a1, $sp, 96
	move	$a0, $fp
	pcaddu18i	$ra, %call36(_ZNK7Results5GetAsIdEET_RKNSt7__cxx1112basic_stringIcSt11char_traitsIcESaIcEEE)
	jirl	$ra, $ra, 0
.Ltmp234:                               # EH_LABEL
# %bb.213:
	ftintrz.w.d	$fa0, $fa0
	movfr2gr.s	$s2, $fa0
	ori	$a0, $zero, 16
	bne	$s2, $a0, .LBB2_217
# %bb.214:
	pcalau12i	$a0, %pc_hi20(_ZGVZN9benchmark8internal18GetNullLogInstanceEvE8null_log)
	ld.b	$a0, $a0, %pc_lo12(_ZGVZN9benchmark8internal18GetNullLogInstanceEvE8null_log)
	dbar	20
	pcalau12i	$a1, %pc_hi20(_ZZN9benchmark8internal18GetNullLogInstanceEvE8null_log)
	addi.d	$s3, $a1, %pc_lo12(_ZZN9benchmark8internal18GetNullLogInstanceEvE8null_log)
	bnez	$a0, .LBB2_219
# %bb.215:
	pcalau12i	$a0, %pc_hi20(_ZGVZN9benchmark8internal18GetNullLogInstanceEvE8null_log)
	addi.d	$a0, $a0, %pc_lo12(_ZGVZN9benchmark8internal18GetNullLogInstanceEvE8null_log)
	pcaddu18i	$ra, %call36(__cxa_guard_acquire)
	jirl	$ra, $ra, 0
	addi.w	$a0, $a0, 0
	beqz	$a0, .LBB2_219
# %bb.216:
	pcalau12i	$a0, %pc_hi20(_ZZN9benchmark8internal18GetNullLogInstanceEvE8null_log)
	addi.d	$s3, $a0, %pc_lo12(_ZZN9benchmark8internal18GetNullLogInstanceEvE8null_log)
	st.d	$zero, $s3, 0
	pcalau12i	$a0, %pc_hi20(_ZGVZN9benchmark8internal18GetNullLogInstanceEvE8null_log)
	addi.d	$a0, $a0, %pc_lo12(_ZGVZN9benchmark8internal18GetNullLogInstanceEvE8null_log)
	pcaddu18i	$ra, %call36(__cxa_guard_release)
	jirl	$ra, $ra, 0
	b	.LBB2_219
.LBB2_217:
.Ltmp236:                               # EH_LABEL
	pcalau12i	$a0, %pc_hi20(.L.str.114)
	addi.d	$a1, $a0, %pc_lo12(.L.str.114)
	pcalau12i	$a0, %pc_hi20(.L.str.101)
	addi.d	$a2, $a0, %pc_lo12(.L.str.101)
	pcalau12i	$a0, %pc_hi20(.L__func__._Z12CheckTabularRK7Results)
	addi.d	$a3, $a0, %pc_lo12(.L__func__._Z12CheckTabularRK7Results)
	addi.d	$a0, $sp, 24
	ori	$a4, $zero, 363
	pcaddu18i	$ra, %call36(_ZN9benchmark8internal12CheckHandlerC2EPKcS3_S3_i)
	jirl	$ra, $ra, 0
.Ltmp237:                               # EH_LABEL
# %bb.218:
	ld.d	$s3, $sp, 24
.LBB2_219:                              # %_ZN9benchmark8internal18GetNullLogInstanceEv.exit511
	ld.d	$a0, $s3, 0
	beqz	$a0, .LBB2_251
# %bb.220:
.Ltmp238:                               # EH_LABEL
	pcalau12i	$a1, %pc_hi20(.L.str.102)
	addi.d	$a1, $a1, %pc_lo12(.L.str.102)
	ori	$a2, $zero, 1
	pcaddu18i	$ra, %call36(_ZSt16__ostream_insertIcSt11char_traitsIcEERSt13basic_ostreamIT_T0_ES6_PKS3_l)
	jirl	$ra, $ra, 0
.Ltmp239:                               # EH_LABEL
# %bb.221:                              # %_ZN9benchmark8internallsIA2_cEERNS0_7LogTypeES4_RKT_.exit514
	ld.d	$a0, $s3, 0
	beqz	$a0, .LBB2_251
# %bb.222:
.Ltmp240:                               # EH_LABEL
	pcalau12i	$a1, %pc_hi20(.L.str.101)
	addi.d	$a1, $a1, %pc_lo12(.L.str.101)
	ori	$a2, $zero, 148
	pcaddu18i	$ra, %call36(_ZSt16__ostream_insertIcSt11char_traitsIcEERSt13basic_ostreamIT_T0_ES6_PKS3_l)
	jirl	$ra, $ra, 0
.Ltmp241:                               # EH_LABEL
# %bb.223:                              # %_ZN9benchmark8internallsIA149_cEERNS0_7LogTypeES4_RKT_.exit517
	ld.d	$a0, $s3, 0
	beqz	$a0, .LBB2_251
# %bb.224:
.Ltmp242:                               # EH_LABEL
	pcalau12i	$a1, %pc_hi20(.L.str.103)
	addi.d	$a1, $a1, %pc_lo12(.L.str.103)
	ori	$a2, $zero, 1
	pcaddu18i	$ra, %call36(_ZSt16__ostream_insertIcSt11char_traitsIcEERSt13basic_ostreamIT_T0_ES6_PKS3_l)
	jirl	$ra, $ra, 0
.Ltmp243:                               # EH_LABEL
# %bb.225:                              # %_ZN9benchmark8internallsIA2_cEERNS0_7LogTypeES4_RKT_.exit520
	ld.d	$a0, $s3, 0
	beqz	$a0, .LBB2_251
# %bb.226:
.Ltmp245:                               # EH_LABEL
	ori	$a1, $zero, 363
	pcaddu18i	$ra, %call36(_ZNSolsEi)
	jirl	$ra, $ra, 0
.Ltmp246:                               # EH_LABEL
# %bb.227:                              # %_ZN9benchmark8internallsIiEERNS0_7LogTypeES3_RKT_.exit523
	ld.d	$a0, $s3, 0
	beqz	$a0, .LBB2_251
# %bb.228:
.Ltmp247:                               # EH_LABEL
	pcalau12i	$a1, %pc_hi20(.L.str.104)
	addi.d	$a1, $a1, %pc_lo12(.L.str.104)
	ori	$a2, $zero, 2
	pcaddu18i	$ra, %call36(_ZSt16__ostream_insertIcSt11char_traitsIcEERSt13basic_ostreamIT_T0_ES6_PKS3_l)
	jirl	$ra, $ra, 0
.Ltmp248:                               # EH_LABEL
# %bb.229:                              # %_ZN9benchmark8internallsIA3_cEERNS0_7LogTypeES4_RKT_.exit526
	ld.d	$a0, $s3, 0
	beqz	$a0, .LBB2_251
# %bb.230:
	ld.d	$a1, $fp, 0
	ld.d	$a2, $fp, 8
.Ltmp249:                               # EH_LABEL
	pcaddu18i	$ra, %call36(_ZSt16__ostream_insertIcSt11char_traitsIcEERSt13basic_ostreamIT_T0_ES6_PKS3_l)
	jirl	$ra, $ra, 0
.Ltmp250:                               # EH_LABEL
# %bb.231:                              # %_ZN9benchmark8internallsINSt7__cxx1112basic_stringIcSt11char_traitsIcESaIcEEEEERNS0_7LogTypeES9_RKT_.exit529
	ld.d	$a0, $s3, 0
	beqz	$a0, .LBB2_251
# %bb.232:
.Ltmp251:                               # EH_LABEL
	pcalau12i	$a1, %pc_hi20(.L.str.105)
	addi.d	$a1, $a1, %pc_lo12(.L.str.105)
	ori	$a2, $zero, 2
	pcaddu18i	$ra, %call36(_ZSt16__ostream_insertIcSt11char_traitsIcEERSt13basic_ostreamIT_T0_ES6_PKS3_l)
	jirl	$ra, $ra, 0
.Ltmp252:                               # EH_LABEL
# %bb.233:                              # %_ZN9benchmark8internallsIA3_cEERNS0_7LogTypeES4_RKT_.exit532
	ld.d	$a0, $s3, 0
	beqz	$a0, .LBB2_251
# %bb.234:
.Ltmp253:                               # EH_LABEL
	pcalau12i	$a1, %pc_hi20(.L.str.101)
	addi.d	$a1, $a1, %pc_lo12(.L.str.101)
	ori	$a2, $zero, 148
	pcaddu18i	$ra, %call36(_ZSt16__ostream_insertIcSt11char_traitsIcEERSt13basic_ostreamIT_T0_ES6_PKS3_l)
	jirl	$ra, $ra, 0
.Ltmp254:                               # EH_LABEL
# %bb.235:                              # %_ZN9benchmark8internallsIA149_cEERNS0_7LogTypeES4_RKT_.exit535
	ld.d	$a0, $s3, 0
	beqz	$a0, .LBB2_251
# %bb.236:
.Ltmp255:                               # EH_LABEL
	pcalau12i	$a1, %pc_hi20(.L.str.103)
	addi.d	$a1, $a1, %pc_lo12(.L.str.103)
	ori	$a2, $zero, 1
	pcaddu18i	$ra, %call36(_ZSt16__ostream_insertIcSt11char_traitsIcEERSt13basic_ostreamIT_T0_ES6_PKS3_l)
	jirl	$ra, $ra, 0
.Ltmp256:                               # EH_LABEL
# %bb.237:                              # %_ZN9benchmark8internallsIA2_cEERNS0_7LogTypeES4_RKT_.exit538
	ld.d	$a0, $s3, 0
	beqz	$a0, .LBB2_251
# %bb.238:
.Ltmp258:                               # EH_LABEL
	ori	$a1, $zero, 363
	pcaddu18i	$ra, %call36(_ZNSolsEi)
	jirl	$ra, $ra, 0
.Ltmp259:                               # EH_LABEL
# %bb.239:                              # %_ZN9benchmark8internallsIiEERNS0_7LogTypeES3_RKT_.exit541
	ld.d	$a0, $s3, 0
	beqz	$a0, .LBB2_251
# %bb.240:
.Ltmp260:                               # EH_LABEL
	pcalau12i	$a1, %pc_hi20(.L.str.104)
	addi.d	$a1, $a1, %pc_lo12(.L.str.104)
	ori	$a2, $zero, 2
	pcaddu18i	$ra, %call36(_ZSt16__ostream_insertIcSt11char_traitsIcEERSt13basic_ostreamIT_T0_ES6_PKS3_l)
	jirl	$ra, $ra, 0
.Ltmp261:                               # EH_LABEL
# %bb.241:                              # %_ZN9benchmark8internallsIA3_cEERNS0_7LogTypeES4_RKT_.exit544
	ld.d	$a0, $s3, 0
	beqz	$a0, .LBB2_251
# %bb.242:
.Ltmp262:                               # EH_LABEL
	pcalau12i	$a1, %pc_hi20(.L.str.106)
	addi.d	$a1, $a1, %pc_lo12(.L.str.106)
	ori	$a2, $zero, 10
	pcaddu18i	$ra, %call36(_ZSt16__ostream_insertIcSt11char_traitsIcEERSt13basic_ostreamIT_T0_ES6_PKS3_l)
	jirl	$ra, $ra, 0
.Ltmp263:                               # EH_LABEL
# %bb.243:                              # %_ZN9benchmark8internallsIA11_cEERNS0_7LogTypeES4_RKT_.exit547
	ld.d	$a0, $s3, 0
	beqz	$a0, .LBB2_251
# %bb.244:
.Ltmp264:                               # EH_LABEL
	pcalau12i	$a1, %pc_hi20(.L.str.107)
	addi.d	$a1, $a1, %pc_lo12(.L.str.107)
	ori	$a2, $zero, 3
	pcaddu18i	$ra, %call36(_ZSt16__ostream_insertIcSt11char_traitsIcEERSt13basic_ostreamIT_T0_ES6_PKS3_l)
	jirl	$ra, $ra, 0
.Ltmp265:                               # EH_LABEL
# %bb.245:                              # %_ZN9benchmark8internallsIA4_cEERNS0_7LogTypeES4_RKT_.exit550
	ld.d	$a0, $s3, 0
	beqz	$a0, .LBB2_251
# %bb.246:
.Ltmp266:                               # EH_LABEL
	pcalau12i	$a1, %pc_hi20(.L.str.108)
	addi.d	$a1, $a1, %pc_lo12(.L.str.108)
	ori	$a2, $zero, 1
	pcaddu18i	$ra, %call36(_ZSt16__ostream_insertIcSt11char_traitsIcEERSt13basic_ostreamIT_T0_ES6_PKS3_l)
	jirl	$ra, $ra, 0
.Ltmp267:                               # EH_LABEL
# %bb.247:                              # %_ZN9benchmark8internallsIA2_cEERNS0_7LogTypeES4_RKT_.exit553
	ld.d	$a0, $s3, 0
	beqz	$a0, .LBB2_251
# %bb.248:
.Ltmp268:                               # EH_LABEL
	pcalau12i	$a1, %pc_hi20(.L.str.25)
	addi.d	$a1, $a1, %pc_lo12(.L.str.25)
	ori	$a2, $zero, 4
	pcaddu18i	$ra, %call36(_ZSt16__ostream_insertIcSt11char_traitsIcEERSt13basic_ostreamIT_T0_ES6_PKS3_l)
	jirl	$ra, $ra, 0
.Ltmp269:                               # EH_LABEL
# %bb.249:                              # %_ZN9benchmark8internallsIA5_cEERNS0_7LogTypeES4_RKT_.exit
	ld.d	$a0, $s3, 0
	beqz	$a0, .LBB2_251
# %bb.250:
.Ltmp270:                               # EH_LABEL
	pcalau12i	$a1, %pc_hi20(.L.str.109)
	addi.d	$a1, $a1, %pc_lo12(.L.str.109)
	ori	$a2, $zero, 1
	pcaddu18i	$ra, %call36(_ZSt16__ostream_insertIcSt11char_traitsIcEERSt13basic_ostreamIT_T0_ES6_PKS3_l)
	jirl	$ra, $ra, 0
.Ltmp271:                               # EH_LABEL
.LBB2_251:                              # %_ZN9benchmark8internallsIA2_cEERNS0_7LogTypeES4_RKT_.exit558
	st.d	$s1, $sp, 56
	st.w	$s4, $sp, 72
	ori	$a0, $zero, 4
	st.d	$a0, $sp, 64
	st.b	$zero, $sp, 76
.Ltmp273:                               # EH_LABEL
	addi.d	$a1, $sp, 56
	move	$a0, $fp
	pcaddu18i	$ra, %call36(_ZNK7Results5GetAsIdEET_RKNSt7__cxx1112basic_stringIcSt11char_traitsIcESaIcEEE)
	jirl	$ra, $ra, 0
.Ltmp274:                               # EH_LABEL
# %bb.252:
	ld.d	$a0, $s3, 0
	beqz	$a0, .LBB2_260
# %bb.253:
	ftintrz.w.d	$fa0, $fa0
	movfr2gr.s	$a1, $fa0
.Ltmp275:                               # EH_LABEL
	pcaddu18i	$ra, %call36(_ZNSolsEi)
	jirl	$ra, $ra, 0
.Ltmp276:                               # EH_LABEL
# %bb.254:                              # %_ZN9benchmark8internallsIiEERNS0_7LogTypeES3_RKT_.exit567
	ld.d	$a0, $s3, 0
	beqz	$a0, .LBB2_260
# %bb.255:
.Ltmp277:                               # EH_LABEL
	pcalau12i	$a1, %pc_hi20(.L.str.110)
	addi.d	$a1, $a1, %pc_lo12(.L.str.110)
	ori	$a2, $zero, 13
	pcaddu18i	$ra, %call36(_ZSt16__ostream_insertIcSt11char_traitsIcEERSt13basic_ostreamIT_T0_ES6_PKS3_l)
	jirl	$ra, $ra, 0
.Ltmp278:                               # EH_LABEL
# %bb.256:                              # %_ZN9benchmark8internallsIA14_cEERNS0_7LogTypeES4_RKT_.exit570
	ld.d	$a0, $s3, 0
	beqz	$a0, .LBB2_260
# %bb.257:
.Ltmp280:                               # EH_LABEL
	ori	$a1, $zero, 16
	pcaddu18i	$ra, %call36(_ZNSolsEi)
	jirl	$ra, $ra, 0
.Ltmp281:                               # EH_LABEL
# %bb.258:                              # %_ZN9benchmark8internallsIiEERNS0_7LogTypeES3_RKT_.exit573
	ld.d	$a0, $s3, 0
	beqz	$a0, .LBB2_260
# %bb.259:
.Ltmp282:                               # EH_LABEL
	pcalau12i	$a1, %pc_hi20(.L.str.102)
	addi.d	$a1, $a1, %pc_lo12(.L.str.102)
	ori	$a2, $zero, 1
	pcaddu18i	$ra, %call36(_ZSt16__ostream_insertIcSt11char_traitsIcEERSt13basic_ostreamIT_T0_ES6_PKS3_l)
	jirl	$ra, $ra, 0
.Ltmp283:                               # EH_LABEL
.LBB2_260:                              # %_ZN9benchmark8internallsIA2_cEERNS0_7LogTypeES4_RKT_.exit576
	ld.d	$a0, $sp, 56
	beq	$a0, $s1, .LBB2_262
# %bb.261:                              # %_ZNKSt7__cxx1112basic_stringIcSt11char_traitsIcESaIcEE11_M_is_localEv.exit.i.i577
	ld.d	$a1, $sp, 72
	addi.d	$a1, $a1, 1
	pcaddu18i	$ra, %call36(_ZdlPvm)
	jirl	$ra, $ra, 0
.LBB2_262:                              # %_ZNSt7__cxx1112basic_stringIcSt11char_traitsIcESaIcEED2Ev.exit579
	ori	$a0, $zero, 16
	bne	$s2, $a0, .LBB2_327
# %bb.263:
	ld.d	$a0, $sp, 96
	beq	$a0, $s0, .LBB2_265
# %bb.264:                              # %_ZNKSt7__cxx1112basic_stringIcSt11char_traitsIcESaIcEE11_M_is_localEv.exit.i.i586
	ld.d	$a1, $sp, 112
	addi.d	$a1, $a1, 1
	pcaddu18i	$ra, %call36(_ZdlPvm)
	jirl	$ra, $ra, 0
.LBB2_265:                              # %_ZNSt7__cxx1112basic_stringIcSt11char_traitsIcESaIcEED2Ev.exit588
	st.d	$s0, $sp, 96
	pcalau12i	$a0, %pc_hi20(.L.str.26)
	addi.d	$a0, $a0, %pc_lo12(.L.str.26)
	ld.h	$s4, $a0, 0
	ld.b	$s5, $a0, 2
	st.h	$s4, $sp, 112
	st.b	$s5, $sp, 114
	ori	$a0, $zero, 3
	st.d	$a0, $sp, 104
	st.b	$zero, $sp, 115
.Ltmp288:                               # EH_LABEL
	addi.d	$a1, $sp, 96
	move	$a0, $fp
	pcaddu18i	$ra, %call36(_ZNK7Results5GetAsIdEET_RKNSt7__cxx1112basic_stringIcSt11char_traitsIcESaIcEEE)
	jirl	$ra, $ra, 0
.Ltmp289:                               # EH_LABEL
# %bb.266:
	ftintrz.w.d	$fa0, $fa0
	movfr2gr.s	$s2, $fa0
	ori	$a0, $zero, 32
	bne	$s2, $a0, .LBB2_270
# %bb.267:
	pcalau12i	$a0, %pc_hi20(_ZGVZN9benchmark8internal18GetNullLogInstanceEvE8null_log)
	ld.b	$a0, $a0, %pc_lo12(_ZGVZN9benchmark8internal18GetNullLogInstanceEvE8null_log)
	dbar	20
	pcalau12i	$a1, %pc_hi20(_ZZN9benchmark8internal18GetNullLogInstanceEvE8null_log)
	addi.d	$s3, $a1, %pc_lo12(_ZZN9benchmark8internal18GetNullLogInstanceEvE8null_log)
	bnez	$a0, .LBB2_272
# %bb.268:
	pcalau12i	$a0, %pc_hi20(_ZGVZN9benchmark8internal18GetNullLogInstanceEvE8null_log)
	addi.d	$a0, $a0, %pc_lo12(_ZGVZN9benchmark8internal18GetNullLogInstanceEvE8null_log)
	pcaddu18i	$ra, %call36(__cxa_guard_acquire)
	jirl	$ra, $ra, 0
	addi.w	$a0, $a0, 0
	beqz	$a0, .LBB2_272
# %bb.269:
	pcalau12i	$a0, %pc_hi20(_ZZN9benchmark8internal18GetNullLogInstanceEvE8null_log)
	addi.d	$s3, $a0, %pc_lo12(_ZZN9benchmark8internal18GetNullLogInstanceEvE8null_log)
	st.d	$zero, $s3, 0
	pcalau12i	$a0, %pc_hi20(_ZGVZN9benchmark8internal18GetNullLogInstanceEvE8null_log)
	addi.d	$a0, $a0, %pc_lo12(_ZGVZN9benchmark8internal18GetNullLogInstanceEvE8null_log)
	pcaddu18i	$ra, %call36(__cxa_guard_release)
	jirl	$ra, $ra, 0
	b	.LBB2_272
.LBB2_270:
.Ltmp291:                               # EH_LABEL
	pcalau12i	$a0, %pc_hi20(.L.str.115)
	addi.d	$a1, $a0, %pc_lo12(.L.str.115)
	pcalau12i	$a0, %pc_hi20(.L.str.101)
	addi.d	$a2, $a0, %pc_lo12(.L.str.101)
	pcalau12i	$a0, %pc_hi20(.L__func__._Z12CheckTabularRK7Results)
	addi.d	$a3, $a0, %pc_lo12(.L__func__._Z12CheckTabularRK7Results)
	addi.d	$a0, $sp, 16
	ori	$a4, $zero, 364
	pcaddu18i	$ra, %call36(_ZN9benchmark8internal12CheckHandlerC2EPKcS3_S3_i)
	jirl	$ra, $ra, 0
.Ltmp292:                               # EH_LABEL
# %bb.271:
	ld.d	$s3, $sp, 16
.LBB2_272:                              # %_ZN9benchmark8internal18GetNullLogInstanceEv.exit596
	ld.d	$a0, $s3, 0
	beqz	$a0, .LBB2_304
# %bb.273:
.Ltmp293:                               # EH_LABEL
	pcalau12i	$a1, %pc_hi20(.L.str.102)
	addi.d	$a1, $a1, %pc_lo12(.L.str.102)
	ori	$a2, $zero, 1
	pcaddu18i	$ra, %call36(_ZSt16__ostream_insertIcSt11char_traitsIcEERSt13basic_ostreamIT_T0_ES6_PKS3_l)
	jirl	$ra, $ra, 0
.Ltmp294:                               # EH_LABEL
# %bb.274:                              # %_ZN9benchmark8internallsIA2_cEERNS0_7LogTypeES4_RKT_.exit599
	ld.d	$a0, $s3, 0
	beqz	$a0, .LBB2_304
# %bb.275:
.Ltmp295:                               # EH_LABEL
	pcalau12i	$a1, %pc_hi20(.L.str.101)
	addi.d	$a1, $a1, %pc_lo12(.L.str.101)
	ori	$a2, $zero, 148
	pcaddu18i	$ra, %call36(_ZSt16__ostream_insertIcSt11char_traitsIcEERSt13basic_ostreamIT_T0_ES6_PKS3_l)
	jirl	$ra, $ra, 0
.Ltmp296:                               # EH_LABEL
# %bb.276:                              # %_ZN9benchmark8internallsIA149_cEERNS0_7LogTypeES4_RKT_.exit602
	ld.d	$a0, $s3, 0
	beqz	$a0, .LBB2_304
# %bb.277:
.Ltmp297:                               # EH_LABEL
	pcalau12i	$a1, %pc_hi20(.L.str.103)
	addi.d	$a1, $a1, %pc_lo12(.L.str.103)
	ori	$a2, $zero, 1
	pcaddu18i	$ra, %call36(_ZSt16__ostream_insertIcSt11char_traitsIcEERSt13basic_ostreamIT_T0_ES6_PKS3_l)
	jirl	$ra, $ra, 0
.Ltmp298:                               # EH_LABEL
# %bb.278:                              # %_ZN9benchmark8internallsIA2_cEERNS0_7LogTypeES4_RKT_.exit605
	ld.d	$a0, $s3, 0
	beqz	$a0, .LBB2_304
# %bb.279:
.Ltmp300:                               # EH_LABEL
	ori	$a1, $zero, 364
	pcaddu18i	$ra, %call36(_ZNSolsEi)
	jirl	$ra, $ra, 0
.Ltmp301:                               # EH_LABEL
# %bb.280:                              # %_ZN9benchmark8internallsIiEERNS0_7LogTypeES3_RKT_.exit608
	ld.d	$a0, $s3, 0
	beqz	$a0, .LBB2_304
# %bb.281:
.Ltmp302:                               # EH_LABEL
	pcalau12i	$a1, %pc_hi20(.L.str.104)
	addi.d	$a1, $a1, %pc_lo12(.L.str.104)
	ori	$a2, $zero, 2
	pcaddu18i	$ra, %call36(_ZSt16__ostream_insertIcSt11char_traitsIcEERSt13basic_ostreamIT_T0_ES6_PKS3_l)
	jirl	$ra, $ra, 0
.Ltmp303:                               # EH_LABEL
# %bb.282:                              # %_ZN9benchmark8internallsIA3_cEERNS0_7LogTypeES4_RKT_.exit611
	ld.d	$a0, $s3, 0
	beqz	$a0, .LBB2_304
# %bb.283:
	ld.d	$a1, $fp, 0
	ld.d	$a2, $fp, 8
.Ltmp304:                               # EH_LABEL
	pcaddu18i	$ra, %call36(_ZSt16__ostream_insertIcSt11char_traitsIcEERSt13basic_ostreamIT_T0_ES6_PKS3_l)
	jirl	$ra, $ra, 0
.Ltmp305:                               # EH_LABEL
# %bb.284:                              # %_ZN9benchmark8internallsINSt7__cxx1112basic_stringIcSt11char_traitsIcESaIcEEEEERNS0_7LogTypeES9_RKT_.exit614
	ld.d	$a0, $s3, 0
	beqz	$a0, .LBB2_304
# %bb.285:
.Ltmp306:                               # EH_LABEL
	pcalau12i	$a1, %pc_hi20(.L.str.105)
	addi.d	$a1, $a1, %pc_lo12(.L.str.105)
	ori	$a2, $zero, 2
	pcaddu18i	$ra, %call36(_ZSt16__ostream_insertIcSt11char_traitsIcEERSt13basic_ostreamIT_T0_ES6_PKS3_l)
	jirl	$ra, $ra, 0
.Ltmp307:                               # EH_LABEL
# %bb.286:                              # %_ZN9benchmark8internallsIA3_cEERNS0_7LogTypeES4_RKT_.exit617
	ld.d	$a0, $s3, 0
	beqz	$a0, .LBB2_304
# %bb.287:
.Ltmp308:                               # EH_LABEL
	pcalau12i	$a1, %pc_hi20(.L.str.101)
	addi.d	$a1, $a1, %pc_lo12(.L.str.101)
	ori	$a2, $zero, 148
	pcaddu18i	$ra, %call36(_ZSt16__ostream_insertIcSt11char_traitsIcEERSt13basic_ostreamIT_T0_ES6_PKS3_l)
	jirl	$ra, $ra, 0
.Ltmp309:                               # EH_LABEL
# %bb.288:                              # %_ZN9benchmark8internallsIA149_cEERNS0_7LogTypeES4_RKT_.exit620
	ld.d	$a0, $s3, 0
	beqz	$a0, .LBB2_304
# %bb.289:
.Ltmp310:                               # EH_LABEL
	pcalau12i	$a1, %pc_hi20(.L.str.103)
	addi.d	$a1, $a1, %pc_lo12(.L.str.103)
	ori	$a2, $zero, 1
	pcaddu18i	$ra, %call36(_ZSt16__ostream_insertIcSt11char_traitsIcEERSt13basic_ostreamIT_T0_ES6_PKS3_l)
	jirl	$ra, $ra, 0
.Ltmp311:                               # EH_LABEL
# %bb.290:                              # %_ZN9benchmark8internallsIA2_cEERNS0_7LogTypeES4_RKT_.exit623
	ld.d	$a0, $s3, 0
	beqz	$a0, .LBB2_304
# %bb.291:
.Ltmp313:                               # EH_LABEL
	ori	$a1, $zero, 364
	pcaddu18i	$ra, %call36(_ZNSolsEi)
	jirl	$ra, $ra, 0
.Ltmp314:                               # EH_LABEL
# %bb.292:                              # %_ZN9benchmark8internallsIiEERNS0_7LogTypeES3_RKT_.exit626
	ld.d	$a0, $s3, 0
	beqz	$a0, .LBB2_304
# %bb.293:
.Ltmp315:                               # EH_LABEL
	pcalau12i	$a1, %pc_hi20(.L.str.104)
	addi.d	$a1, $a1, %pc_lo12(.L.str.104)
	ori	$a2, $zero, 2
	pcaddu18i	$ra, %call36(_ZSt16__ostream_insertIcSt11char_traitsIcEERSt13basic_ostreamIT_T0_ES6_PKS3_l)
	jirl	$ra, $ra, 0
.Ltmp316:                               # EH_LABEL
# %bb.294:                              # %_ZN9benchmark8internallsIA3_cEERNS0_7LogTypeES4_RKT_.exit629
	ld.d	$a0, $s3, 0
	beqz	$a0, .LBB2_304
# %bb.295:
.Ltmp317:                               # EH_LABEL
	pcalau12i	$a1, %pc_hi20(.L.str.106)
	addi.d	$a1, $a1, %pc_lo12(.L.str.106)
	ori	$a2, $zero, 10
	pcaddu18i	$ra, %call36(_ZSt16__ostream_insertIcSt11char_traitsIcEERSt13basic_ostreamIT_T0_ES6_PKS3_l)
	jirl	$ra, $ra, 0
.Ltmp318:                               # EH_LABEL
# %bb.296:                              # %_ZN9benchmark8internallsIA11_cEERNS0_7LogTypeES4_RKT_.exit632
	ld.d	$a0, $s3, 0
	beqz	$a0, .LBB2_304
# %bb.297:
.Ltmp319:                               # EH_LABEL
	pcalau12i	$a1, %pc_hi20(.L.str.107)
	addi.d	$a1, $a1, %pc_lo12(.L.str.107)
	ori	$a2, $zero, 3
	pcaddu18i	$ra, %call36(_ZSt16__ostream_insertIcSt11char_traitsIcEERSt13basic_ostreamIT_T0_ES6_PKS3_l)
	jirl	$ra, $ra, 0
.Ltmp320:                               # EH_LABEL
# %bb.298:                              # %_ZN9benchmark8internallsIA4_cEERNS0_7LogTypeES4_RKT_.exit635
	ld.d	$a0, $s3, 0
	beqz	$a0, .LBB2_304
# %bb.299:
.Ltmp321:                               # EH_LABEL
	pcalau12i	$a1, %pc_hi20(.L.str.108)
	addi.d	$a1, $a1, %pc_lo12(.L.str.108)
	ori	$a2, $zero, 1
	pcaddu18i	$ra, %call36(_ZSt16__ostream_insertIcSt11char_traitsIcEERSt13basic_ostreamIT_T0_ES6_PKS3_l)
	jirl	$ra, $ra, 0
.Ltmp322:                               # EH_LABEL
# %bb.300:                              # %_ZN9benchmark8internallsIA2_cEERNS0_7LogTypeES4_RKT_.exit638
	ld.d	$a0, $s3, 0
	beqz	$a0, .LBB2_304
# %bb.301:
.Ltmp323:                               # EH_LABEL
	pcalau12i	$a1, %pc_hi20(.L.str.26)
	addi.d	$a1, $a1, %pc_lo12(.L.str.26)
	ori	$a2, $zero, 3
	pcaddu18i	$ra, %call36(_ZSt16__ostream_insertIcSt11char_traitsIcEERSt13basic_ostreamIT_T0_ES6_PKS3_l)
	jirl	$ra, $ra, 0
.Ltmp324:                               # EH_LABEL
# %bb.302:                              # %_ZN9benchmark8internallsIA4_cEERNS0_7LogTypeES4_RKT_.exit641
	ld.d	$a0, $s3, 0
	beqz	$a0, .LBB2_304
# %bb.303:
.Ltmp325:                               # EH_LABEL
	pcalau12i	$a1, %pc_hi20(.L.str.109)
	addi.d	$a1, $a1, %pc_lo12(.L.str.109)
	ori	$a2, $zero, 1
	pcaddu18i	$ra, %call36(_ZSt16__ostream_insertIcSt11char_traitsIcEERSt13basic_ostreamIT_T0_ES6_PKS3_l)
	jirl	$ra, $ra, 0
.Ltmp326:                               # EH_LABEL
.LBB2_304:                              # %_ZN9benchmark8internallsIA2_cEERNS0_7LogTypeES4_RKT_.exit644
	st.d	$s1, $sp, 56
	st.h	$s4, $sp, 72
	st.b	$s5, $sp, 74
	ori	$a0, $zero, 3
	st.d	$a0, $sp, 64
	st.b	$zero, $sp, 75
.Ltmp328:                               # EH_LABEL
	addi.d	$a1, $sp, 56
	move	$a0, $fp
	pcaddu18i	$ra, %call36(_ZNK7Results5GetAsIdEET_RKNSt7__cxx1112basic_stringIcSt11char_traitsIcESaIcEEE)
	jirl	$ra, $ra, 0
.Ltmp329:                               # EH_LABEL
# %bb.305:
	ld.d	$a0, $s3, 0
	beqz	$a0, .LBB2_313
# %bb.306:
	ftintrz.w.d	$fa0, $fa0
	movfr2gr.s	$a1, $fa0
.Ltmp330:                               # EH_LABEL
	pcaddu18i	$ra, %call36(_ZNSolsEi)
	jirl	$ra, $ra, 0
.Ltmp331:                               # EH_LABEL
# %bb.307:                              # %_ZN9benchmark8internallsIiEERNS0_7LogTypeES3_RKT_.exit653
	ld.d	$a0, $s3, 0
	beqz	$a0, .LBB2_313
# %bb.308:
.Ltmp332:                               # EH_LABEL
	pcalau12i	$a1, %pc_hi20(.L.str.110)
	addi.d	$a1, $a1, %pc_lo12(.L.str.110)
	ori	$a2, $zero, 13
	pcaddu18i	$ra, %call36(_ZSt16__ostream_insertIcSt11char_traitsIcEERSt13basic_ostreamIT_T0_ES6_PKS3_l)
	jirl	$ra, $ra, 0
.Ltmp333:                               # EH_LABEL
# %bb.309:                              # %_ZN9benchmark8internallsIA14_cEERNS0_7LogTypeES4_RKT_.exit656
	ld.d	$a0, $s3, 0
	beqz	$a0, .LBB2_313
# %bb.310:
.Ltmp335:                               # EH_LABEL
	ori	$a1, $zero, 32
	pcaddu18i	$ra, %call36(_ZNSolsEi)
	jirl	$ra, $ra, 0
.Ltmp336:                               # EH_LABEL
# %bb.311:                              # %_ZN9benchmark8internallsIiEERNS0_7LogTypeES3_RKT_.exit659
	ld.d	$a0, $s3, 0
	beqz	$a0, .LBB2_313
# %bb.312:
.Ltmp337:                               # EH_LABEL
	pcalau12i	$a1, %pc_hi20(.L.str.102)
	addi.d	$a1, $a1, %pc_lo12(.L.str.102)
	ori	$a2, $zero, 1
	pcaddu18i	$ra, %call36(_ZSt16__ostream_insertIcSt11char_traitsIcEERSt13basic_ostreamIT_T0_ES6_PKS3_l)
	jirl	$ra, $ra, 0
.Ltmp338:                               # EH_LABEL
.LBB2_313:                              # %_ZN9benchmark8internallsIA2_cEERNS0_7LogTypeES4_RKT_.exit662
	ld.d	$a0, $sp, 56
	beq	$a0, $s1, .LBB2_315
# %bb.314:                              # %_ZNKSt7__cxx1112basic_stringIcSt11char_traitsIcESaIcEE11_M_is_localEv.exit.i.i663
	ld.d	$a1, $sp, 72
	addi.d	$a1, $a1, 1
	pcaddu18i	$ra, %call36(_ZdlPvm)
	jirl	$ra, $ra, 0
.LBB2_315:                              # %_ZNSt7__cxx1112basic_stringIcSt11char_traitsIcESaIcEED2Ev.exit665
	ori	$a0, $zero, 32
	bne	$s2, $a0, .LBB2_329
# %bb.316:
	ld.d	$a0, $sp, 96
	beq	$a0, $s0, .LBB2_318
# %bb.317:                              # %_ZNKSt7__cxx1112basic_stringIcSt11char_traitsIcESaIcEE11_M_is_localEv.exit.i.i672
	ld.d	$a1, $sp, 112
	addi.d	$a1, $a1, 1
	pcaddu18i	$ra, %call36(_ZdlPvm)
	jirl	$ra, $ra, 0
.LBB2_318:                              # %_ZNSt7__cxx1112basic_stringIcSt11char_traitsIcESaIcEED2Ev.exit674
	ld.d	$s5, $sp, 128                   # 8-byte Folded Reload
	ld.d	$s4, $sp, 136                   # 8-byte Folded Reload
	ld.d	$s3, $sp, 144                   # 8-byte Folded Reload
	ld.d	$s2, $sp, 152                   # 8-byte Folded Reload
	ld.d	$s1, $sp, 160                   # 8-byte Folded Reload
	ld.d	$s0, $sp, 168                   # 8-byte Folded Reload
	ld.d	$fp, $sp, 176                   # 8-byte Folded Reload
	ld.d	$ra, $sp, 184                   # 8-byte Folded Reload
	addi.d	$sp, $sp, 192
	ret
.LBB2_319:
.Ltmp65:                                # EH_LABEL
	addi.d	$a0, $sp, 88
	pcaddu18i	$ra, %call36(_ZN9benchmark8internal12CheckHandlerD2Ev)
	jirl	$ra, $ra, 0
.Ltmp66:                                # EH_LABEL
# %bb.320:
.LBB2_321:
.Ltmp120:                               # EH_LABEL
	addi.d	$a0, $sp, 48
	pcaddu18i	$ra, %call36(_ZN9benchmark8internal12CheckHandlerD2Ev)
	jirl	$ra, $ra, 0
.Ltmp121:                               # EH_LABEL
# %bb.322:
.LBB2_323:
.Ltmp175:                               # EH_LABEL
	addi.d	$a0, $sp, 40
	pcaddu18i	$ra, %call36(_ZN9benchmark8internal12CheckHandlerD2Ev)
	jirl	$ra, $ra, 0
.Ltmp176:                               # EH_LABEL
# %bb.324:
.LBB2_325:
.Ltmp230:                               # EH_LABEL
	addi.d	$a0, $sp, 32
	pcaddu18i	$ra, %call36(_ZN9benchmark8internal12CheckHandlerD2Ev)
	jirl	$ra, $ra, 0
.Ltmp231:                               # EH_LABEL
# %bb.326:
.LBB2_327:
.Ltmp285:                               # EH_LABEL
	addi.d	$a0, $sp, 24
	pcaddu18i	$ra, %call36(_ZN9benchmark8internal12CheckHandlerD2Ev)
	jirl	$ra, $ra, 0
.Ltmp286:                               # EH_LABEL
# %bb.328:
.LBB2_329:
.Ltmp343:                               # EH_LABEL
	addi.d	$a0, $sp, 16
	pcaddu18i	$ra, %call36(_ZN9benchmark8internal12CheckHandlerD2Ev)
	jirl	$ra, $ra, 0
.Ltmp344:                               # EH_LABEL
# %bb.330:
.LBB2_331:
.Ltmp327:                               # EH_LABEL
	b	.LBB2_356
.LBB2_332:
.Ltmp272:                               # EH_LABEL
	b	.LBB2_358
.LBB2_333:
.Ltmp217:                               # EH_LABEL
	b	.LBB2_360
.LBB2_334:
.Ltmp162:                               # EH_LABEL
	b	.LBB2_362
.LBB2_335:
.Ltmp107:                               # EH_LABEL
	b	.LBB2_364
.LBB2_336:
.Ltmp52:                                # EH_LABEL
	b	.LBB2_366
.LBB2_337:
.Ltmp312:                               # EH_LABEL
	b	.LBB2_356
.LBB2_338:
.Ltmp257:                               # EH_LABEL
	b	.LBB2_358
.LBB2_339:
.Ltmp202:                               # EH_LABEL
	b	.LBB2_360
.LBB2_340:
.Ltmp147:                               # EH_LABEL
	b	.LBB2_362
.LBB2_341:
.Ltmp92:                                # EH_LABEL
	b	.LBB2_364
.LBB2_342:
.Ltmp37:                                # EH_LABEL
	b	.LBB2_366
.LBB2_343:
.Ltmp339:                               # EH_LABEL
	b	.LBB2_378
.LBB2_344:
.Ltmp284:                               # EH_LABEL
	b	.LBB2_382
.LBB2_345:
.Ltmp229:                               # EH_LABEL
	b	.LBB2_386
.LBB2_346:
.Ltmp174:                               # EH_LABEL
	b	.LBB2_390
.LBB2_347:
.Ltmp119:                               # EH_LABEL
	b	.LBB2_394
.LBB2_348:
.Ltmp64:                                # EH_LABEL
	b	.LBB2_398
.LBB2_349:
.Ltmp290:                               # EH_LABEL
	b	.LBB2_373
.LBB2_350:
.Ltmp235:                               # EH_LABEL
	b	.LBB2_373
.LBB2_351:
.Ltmp180:                               # EH_LABEL
	b	.LBB2_373
.LBB2_352:
.Ltmp125:                               # EH_LABEL
	b	.LBB2_373
.LBB2_353:
.Ltmp70:                                # EH_LABEL
	b	.LBB2_373
.LBB2_354:
.Ltmp15:                                # EH_LABEL
	b	.LBB2_373
.LBB2_355:
.Ltmp299:                               # EH_LABEL
.LBB2_356:
	move	$fp, $a0
	b	.LBB2_380
.LBB2_357:
.Ltmp244:                               # EH_LABEL
.LBB2_358:
	move	$fp, $a0
	b	.LBB2_384
.LBB2_359:
.Ltmp189:                               # EH_LABEL
.LBB2_360:
	move	$fp, $a0
	b	.LBB2_388
.LBB2_361:
.Ltmp134:                               # EH_LABEL
.LBB2_362:
	move	$fp, $a0
	b	.LBB2_392
.LBB2_363:
.Ltmp79:                                # EH_LABEL
.LBB2_364:
	move	$fp, $a0
	b	.LBB2_396
.LBB2_365:
.Ltmp24:                                # EH_LABEL
.LBB2_366:
	move	$fp, $a0
	b	.LBB2_400
.LBB2_367:
.Ltmp345:                               # EH_LABEL
	b	.LBB2_373
.LBB2_368:
.Ltmp287:                               # EH_LABEL
	b	.LBB2_373
.LBB2_369:
.Ltmp232:                               # EH_LABEL
	b	.LBB2_373
.LBB2_370:
.Ltmp177:                               # EH_LABEL
	b	.LBB2_373
.LBB2_371:
.Ltmp122:                               # EH_LABEL
	b	.LBB2_373
.LBB2_372:
.Ltmp67:                                # EH_LABEL
.LBB2_373:
	move	$fp, $a0
.LBB2_374:
	ld.d	$a0, $sp, 96
	beq	$a0, $s0, .LBB2_376
# %bb.375:                              # %_ZNKSt7__cxx1112basic_stringIcSt11char_traitsIcESaIcEE11_M_is_localEv.exit.i.i675
	ld.d	$a1, $sp, 112
	addi.d	$a1, $a1, 1
	pcaddu18i	$ra, %call36(_ZdlPvm)
	jirl	$ra, $ra, 0
.LBB2_376:
	move	$a0, $fp
	pcaddu18i	$ra, %call36(_Unwind_Resume)
	jirl	$ra, $ra, 0
.LBB2_377:
.Ltmp334:                               # EH_LABEL
.LBB2_378:
	move	$fp, $a0
	ld.d	$a0, $sp, 56
	beq	$a0, $s1, .LBB2_380
# %bb.379:                              # %_ZNKSt7__cxx1112basic_stringIcSt11char_traitsIcESaIcEE11_M_is_localEv.exit.i.i669
	ld.d	$a1, $sp, 72
	addi.d	$a1, $a1, 1
	pcaddu18i	$ra, %call36(_ZdlPvm)
	jirl	$ra, $ra, 0
.LBB2_380:
	ori	$a1, $zero, 32
	addi.d	$a0, $sp, 16
	beq	$s2, $a1, .LBB2_374
	b	.LBB2_401
.LBB2_381:
.Ltmp279:                               # EH_LABEL
.LBB2_382:
	move	$fp, $a0
	ld.d	$a0, $sp, 56
	beq	$a0, $s1, .LBB2_384
# %bb.383:                              # %_ZNKSt7__cxx1112basic_stringIcSt11char_traitsIcESaIcEE11_M_is_localEv.exit.i.i583
	ld.d	$a1, $sp, 72
	addi.d	$a1, $a1, 1
	pcaddu18i	$ra, %call36(_ZdlPvm)
	jirl	$ra, $ra, 0
.LBB2_384:
	ori	$a1, $zero, 16
	addi.d	$a0, $sp, 24
	beq	$s2, $a1, .LBB2_374
	b	.LBB2_401
.LBB2_385:
.Ltmp224:                               # EH_LABEL
.LBB2_386:
	move	$fp, $a0
	ld.d	$a0, $sp, 56
	beq	$a0, $s1, .LBB2_388
# %bb.387:                              # %_ZNKSt7__cxx1112basic_stringIcSt11char_traitsIcESaIcEE11_M_is_localEv.exit.i.i498
	ld.d	$a1, $sp, 72
	addi.d	$a1, $a1, 1
	pcaddu18i	$ra, %call36(_ZdlPvm)
	jirl	$ra, $ra, 0
.LBB2_388:
	ori	$a1, $zero, 8
	addi.d	$a0, $sp, 32
	beq	$s2, $a1, .LBB2_374
	b	.LBB2_401
.LBB2_389:
.Ltmp169:                               # EH_LABEL
.LBB2_390:
	move	$fp, $a0
	ld.d	$a0, $sp, 56
	beq	$a0, $s1, .LBB2_392
# %bb.391:                              # %_ZNKSt7__cxx1112basic_stringIcSt11char_traitsIcESaIcEE11_M_is_localEv.exit.i.i412
	ld.d	$a1, $sp, 72
	addi.d	$a1, $a1, 1
	pcaddu18i	$ra, %call36(_ZdlPvm)
	jirl	$ra, $ra, 0
.LBB2_392:
	ori	$a1, $zero, 4
	addi.d	$a0, $sp, 40
	beq	$s2, $a1, .LBB2_374
	b	.LBB2_401
.LBB2_393:
.Ltmp114:                               # EH_LABEL
.LBB2_394:
	move	$fp, $a0
	ld.d	$a0, $sp, 56
	beq	$a0, $s1, .LBB2_396
# %bb.395:                              # %_ZNKSt7__cxx1112basic_stringIcSt11char_traitsIcESaIcEE11_M_is_localEv.exit.i.i326
	ld.d	$a1, $sp, 72
	addi.d	$a1, $a1, 1
	pcaddu18i	$ra, %call36(_ZdlPvm)
	jirl	$ra, $ra, 0
.LBB2_396:
	ori	$a1, $zero, 2
	addi.d	$a0, $sp, 48
	beq	$s2, $a1, .LBB2_374
	b	.LBB2_401
.LBB2_397:
.Ltmp59:                                # EH_LABEL
.LBB2_398:
	move	$fp, $a0
	ld.d	$a0, $sp, 56
	beq	$a0, $s1, .LBB2_400
# %bb.399:                              # %_ZNKSt7__cxx1112basic_stringIcSt11char_traitsIcESaIcEE11_M_is_localEv.exit.i.i240
	ld.d	$a1, $sp, 72
	addi.d	$a1, $a1, 1
	pcaddu18i	$ra, %call36(_ZdlPvm)
	jirl	$ra, $ra, 0
.LBB2_400:
	ori	$a1, $zero, 1
	addi.d	$a0, $sp, 88
	beq	$s2, $a1, .LBB2_374
.LBB2_401:                              # %.invoke
.Ltmp340:                               # EH_LABEL
	pcaddu18i	$ra, %call36(_ZN9benchmark8internal12CheckHandlerD2Ev)
	jirl	$ra, $ra, 0
.Ltmp341:                               # EH_LABEL
# %bb.402:                              # %.cont
.LBB2_403:
.Ltmp342:                               # EH_LABEL
	pcaddu18i	$ra, %call36(__clang_call_terminate)
	jirl	$ra, $ra, 0
.Lfunc_end2:
	.size	_Z12CheckTabularRK7Results, .Lfunc_end2-_Z12CheckTabularRK7Results
	.cfi_endproc
	.section	.gcc_except_table,"a",@progbits
	.p2align	2, 0x0
GCC_except_table2:
.Lexception1:
	.byte	255                             # @LPStart Encoding = omit
	.byte	155                             # @TType Encoding = indirect pcrel sdata4
	.uleb128 .Lttbase0-.Lttbaseref0
.Lttbaseref0:
	.byte	1                               # Call site Encoding = uleb128
	.uleb128 .Lcst_end1-.Lcst_begin1
.Lcst_begin1:
	.uleb128 .Ltmp13-.Lfunc_begin1          # >> Call Site 1 <<
	.uleb128 .Ltmp14-.Ltmp13                #   Call between .Ltmp13 and .Ltmp14
	.uleb128 .Ltmp15-.Lfunc_begin1          #     jumps to .Ltmp15
	.byte	0                               #   On action: cleanup
	.uleb128 .Ltmp14-.Lfunc_begin1          # >> Call Site 2 <<
	.uleb128 .Ltmp16-.Ltmp14                #   Call between .Ltmp14 and .Ltmp16
	.byte	0                               #     has no landing pad
	.byte	0                               #   On action: cleanup
	.uleb128 .Ltmp16-.Lfunc_begin1          # >> Call Site 3 <<
	.uleb128 .Ltmp17-.Ltmp16                #   Call between .Ltmp16 and .Ltmp17
	.uleb128 .Ltmp67-.Lfunc_begin1          #     jumps to .Ltmp67
	.byte	0                               #   On action: cleanup
	.uleb128 .Ltmp18-.Lfunc_begin1          # >> Call Site 4 <<
	.uleb128 .Ltmp23-.Ltmp18                #   Call between .Ltmp18 and .Ltmp23
	.uleb128 .Ltmp24-.Lfunc_begin1          #     jumps to .Ltmp24
	.byte	0                               #   On action: cleanup
	.uleb128 .Ltmp25-.Lfunc_begin1          # >> Call Site 5 <<
	.uleb128 .Ltmp36-.Ltmp25                #   Call between .Ltmp25 and .Ltmp36
	.uleb128 .Ltmp37-.Lfunc_begin1          #     jumps to .Ltmp37
	.byte	0                               #   On action: cleanup
	.uleb128 .Ltmp38-.Lfunc_begin1          # >> Call Site 6 <<
	.uleb128 .Ltmp51-.Ltmp38                #   Call between .Ltmp38 and .Ltmp51
	.uleb128 .Ltmp52-.Lfunc_begin1          #     jumps to .Ltmp52
	.byte	0                               #   On action: cleanup
	.uleb128 .Ltmp53-.Lfunc_begin1          # >> Call Site 7 <<
	.uleb128 .Ltmp58-.Ltmp53                #   Call between .Ltmp53 and .Ltmp58
	.uleb128 .Ltmp59-.Lfunc_begin1          #     jumps to .Ltmp59
	.byte	0                               #   On action: cleanup
	.uleb128 .Ltmp60-.Lfunc_begin1          # >> Call Site 8 <<
	.uleb128 .Ltmp63-.Ltmp60                #   Call between .Ltmp60 and .Ltmp63
	.uleb128 .Ltmp64-.Lfunc_begin1          #     jumps to .Ltmp64
	.byte	0                               #   On action: cleanup
	.uleb128 .Ltmp63-.Lfunc_begin1          # >> Call Site 9 <<
	.uleb128 .Ltmp68-.Ltmp63                #   Call between .Ltmp63 and .Ltmp68
	.byte	0                               #     has no landing pad
	.byte	0                               #   On action: cleanup
	.uleb128 .Ltmp68-.Lfunc_begin1          # >> Call Site 10 <<
	.uleb128 .Ltmp69-.Ltmp68                #   Call between .Ltmp68 and .Ltmp69
	.uleb128 .Ltmp70-.Lfunc_begin1          #     jumps to .Ltmp70
	.byte	0                               #   On action: cleanup
	.uleb128 .Ltmp69-.Lfunc_begin1          # >> Call Site 11 <<
	.uleb128 .Ltmp71-.Ltmp69                #   Call between .Ltmp69 and .Ltmp71
	.byte	0                               #     has no landing pad
	.byte	0                               #   On action: cleanup
	.uleb128 .Ltmp71-.Lfunc_begin1          # >> Call Site 12 <<
	.uleb128 .Ltmp72-.Ltmp71                #   Call between .Ltmp71 and .Ltmp72
	.uleb128 .Ltmp122-.Lfunc_begin1         #     jumps to .Ltmp122
	.byte	0                               #   On action: cleanup
	.uleb128 .Ltmp73-.Lfunc_begin1          # >> Call Site 13 <<
	.uleb128 .Ltmp78-.Ltmp73                #   Call between .Ltmp73 and .Ltmp78
	.uleb128 .Ltmp79-.Lfunc_begin1          #     jumps to .Ltmp79
	.byte	0                               #   On action: cleanup
	.uleb128 .Ltmp80-.Lfunc_begin1          # >> Call Site 14 <<
	.uleb128 .Ltmp91-.Ltmp80                #   Call between .Ltmp80 and .Ltmp91
	.uleb128 .Ltmp92-.Lfunc_begin1          #     jumps to .Ltmp92
	.byte	0                               #   On action: cleanup
	.uleb128 .Ltmp93-.Lfunc_begin1          # >> Call Site 15 <<
	.uleb128 .Ltmp106-.Ltmp93               #   Call between .Ltmp93 and .Ltmp106
	.uleb128 .Ltmp107-.Lfunc_begin1         #     jumps to .Ltmp107
	.byte	0                               #   On action: cleanup
	.uleb128 .Ltmp108-.Lfunc_begin1         # >> Call Site 16 <<
	.uleb128 .Ltmp113-.Ltmp108              #   Call between .Ltmp108 and .Ltmp113
	.uleb128 .Ltmp114-.Lfunc_begin1         #     jumps to .Ltmp114
	.byte	0                               #   On action: cleanup
	.uleb128 .Ltmp115-.Lfunc_begin1         # >> Call Site 17 <<
	.uleb128 .Ltmp118-.Ltmp115              #   Call between .Ltmp115 and .Ltmp118
	.uleb128 .Ltmp119-.Lfunc_begin1         #     jumps to .Ltmp119
	.byte	0                               #   On action: cleanup
	.uleb128 .Ltmp118-.Lfunc_begin1         # >> Call Site 18 <<
	.uleb128 .Ltmp123-.Ltmp118              #   Call between .Ltmp118 and .Ltmp123
	.byte	0                               #     has no landing pad
	.byte	0                               #   On action: cleanup
	.uleb128 .Ltmp123-.Lfunc_begin1         # >> Call Site 19 <<
	.uleb128 .Ltmp124-.Ltmp123              #   Call between .Ltmp123 and .Ltmp124
	.uleb128 .Ltmp125-.Lfunc_begin1         #     jumps to .Ltmp125
	.byte	0                               #   On action: cleanup
	.uleb128 .Ltmp124-.Lfunc_begin1         # >> Call Site 20 <<
	.uleb128 .Ltmp126-.Ltmp124              #   Call between .Ltmp124 and .Ltmp126
	.byte	0                               #     has no landing pad
	.byte	0                               #   On action: cleanup
	.uleb128 .Ltmp126-.Lfunc_begin1         # >> Call Site 21 <<
	.uleb128 .Ltmp127-.Ltmp126              #   Call between .Ltmp126 and .Ltmp127
	.uleb128 .Ltmp177-.Lfunc_begin1         #     jumps to .Ltmp177
	.byte	0                               #   On action: cleanup
	.uleb128 .Ltmp128-.Lfunc_begin1         # >> Call Site 22 <<
	.uleb128 .Ltmp133-.Ltmp128              #   Call between .Ltmp128 and .Ltmp133
	.uleb128 .Ltmp134-.Lfunc_begin1         #     jumps to .Ltmp134
	.byte	0                               #   On action: cleanup
	.uleb128 .Ltmp135-.Lfunc_begin1         # >> Call Site 23 <<
	.uleb128 .Ltmp146-.Ltmp135              #   Call between .Ltmp135 and .Ltmp146
	.uleb128 .Ltmp147-.Lfunc_begin1         #     jumps to .Ltmp147
	.byte	0                               #   On action: cleanup
	.uleb128 .Ltmp148-.Lfunc_begin1         # >> Call Site 24 <<
	.uleb128 .Ltmp161-.Ltmp148              #   Call between .Ltmp148 and .Ltmp161
	.uleb128 .Ltmp162-.Lfunc_begin1         #     jumps to .Ltmp162
	.byte	0                               #   On action: cleanup
	.uleb128 .Ltmp163-.Lfunc_begin1         # >> Call Site 25 <<
	.uleb128 .Ltmp168-.Ltmp163              #   Call between .Ltmp163 and .Ltmp168
	.uleb128 .Ltmp169-.Lfunc_begin1         #     jumps to .Ltmp169
	.byte	0                               #   On action: cleanup
	.uleb128 .Ltmp170-.Lfunc_begin1         # >> Call Site 26 <<
	.uleb128 .Ltmp173-.Ltmp170              #   Call between .Ltmp170 and .Ltmp173
	.uleb128 .Ltmp174-.Lfunc_begin1         #     jumps to .Ltmp174
	.byte	0                               #   On action: cleanup
	.uleb128 .Ltmp173-.Lfunc_begin1         # >> Call Site 27 <<
	.uleb128 .Ltmp178-.Ltmp173              #   Call between .Ltmp173 and .Ltmp178
	.byte	0                               #     has no landing pad
	.byte	0                               #   On action: cleanup
	.uleb128 .Ltmp178-.Lfunc_begin1         # >> Call Site 28 <<
	.uleb128 .Ltmp179-.Ltmp178              #   Call between .Ltmp178 and .Ltmp179
	.uleb128 .Ltmp180-.Lfunc_begin1         #     jumps to .Ltmp180
	.byte	0                               #   On action: cleanup
	.uleb128 .Ltmp179-.Lfunc_begin1         # >> Call Site 29 <<
	.uleb128 .Ltmp181-.Ltmp179              #   Call between .Ltmp179 and .Ltmp181
	.byte	0                               #     has no landing pad
	.byte	0                               #   On action: cleanup
	.uleb128 .Ltmp181-.Lfunc_begin1         # >> Call Site 30 <<
	.uleb128 .Ltmp182-.Ltmp181              #   Call between .Ltmp181 and .Ltmp182
	.uleb128 .Ltmp232-.Lfunc_begin1         #     jumps to .Ltmp232
	.byte	0                               #   On action: cleanup
	.uleb128 .Ltmp183-.Lfunc_begin1         # >> Call Site 31 <<
	.uleb128 .Ltmp188-.Ltmp183              #   Call between .Ltmp183 and .Ltmp188
	.uleb128 .Ltmp189-.Lfunc_begin1         #     jumps to .Ltmp189
	.byte	0                               #   On action: cleanup
	.uleb128 .Ltmp190-.Lfunc_begin1         # >> Call Site 32 <<
	.uleb128 .Ltmp201-.Ltmp190              #   Call between .Ltmp190 and .Ltmp201
	.uleb128 .Ltmp202-.Lfunc_begin1         #     jumps to .Ltmp202
	.byte	0                               #   On action: cleanup
	.uleb128 .Ltmp203-.Lfunc_begin1         # >> Call Site 33 <<
	.uleb128 .Ltmp216-.Ltmp203              #   Call between .Ltmp203 and .Ltmp216
	.uleb128 .Ltmp217-.Lfunc_begin1         #     jumps to .Ltmp217
	.byte	0                               #   On action: cleanup
	.uleb128 .Ltmp218-.Lfunc_begin1         # >> Call Site 34 <<
	.uleb128 .Ltmp223-.Ltmp218              #   Call between .Ltmp218 and .Ltmp223
	.uleb128 .Ltmp224-.Lfunc_begin1         #     jumps to .Ltmp224
	.byte	0                               #   On action: cleanup
	.uleb128 .Ltmp225-.Lfunc_begin1         # >> Call Site 35 <<
	.uleb128 .Ltmp228-.Ltmp225              #   Call between .Ltmp225 and .Ltmp228
	.uleb128 .Ltmp229-.Lfunc_begin1         #     jumps to .Ltmp229
	.byte	0                               #   On action: cleanup
	.uleb128 .Ltmp228-.Lfunc_begin1         # >> Call Site 36 <<
	.uleb128 .Ltmp233-.Ltmp228              #   Call between .Ltmp228 and .Ltmp233
	.byte	0                               #     has no landing pad
	.byte	0                               #   On action: cleanup
	.uleb128 .Ltmp233-.Lfunc_begin1         # >> Call Site 37 <<
	.uleb128 .Ltmp234-.Ltmp233              #   Call between .Ltmp233 and .Ltmp234
	.uleb128 .Ltmp235-.Lfunc_begin1         #     jumps to .Ltmp235
	.byte	0                               #   On action: cleanup
	.uleb128 .Ltmp234-.Lfunc_begin1         # >> Call Site 38 <<
	.uleb128 .Ltmp236-.Ltmp234              #   Call between .Ltmp234 and .Ltmp236
	.byte	0                               #     has no landing pad
	.byte	0                               #   On action: cleanup
	.uleb128 .Ltmp236-.Lfunc_begin1         # >> Call Site 39 <<
	.uleb128 .Ltmp237-.Ltmp236              #   Call between .Ltmp236 and .Ltmp237
	.uleb128 .Ltmp287-.Lfunc_begin1         #     jumps to .Ltmp287
	.byte	0                               #   On action: cleanup
	.uleb128 .Ltmp238-.Lfunc_begin1         # >> Call Site 40 <<
	.uleb128 .Ltmp243-.Ltmp238              #   Call between .Ltmp238 and .Ltmp243
	.uleb128 .Ltmp244-.Lfunc_begin1         #     jumps to .Ltmp244
	.byte	0                               #   On action: cleanup
	.uleb128 .Ltmp245-.Lfunc_begin1         # >> Call Site 41 <<
	.uleb128 .Ltmp256-.Ltmp245              #   Call between .Ltmp245 and .Ltmp256
	.uleb128 .Ltmp257-.Lfunc_begin1         #     jumps to .Ltmp257
	.byte	0                               #   On action: cleanup
	.uleb128 .Ltmp258-.Lfunc_begin1         # >> Call Site 42 <<
	.uleb128 .Ltmp271-.Ltmp258              #   Call between .Ltmp258 and .Ltmp271
	.uleb128 .Ltmp272-.Lfunc_begin1         #     jumps to .Ltmp272
	.byte	0                               #   On action: cleanup
	.uleb128 .Ltmp273-.Lfunc_begin1         # >> Call Site 43 <<
	.uleb128 .Ltmp278-.Ltmp273              #   Call between .Ltmp273 and .Ltmp278
	.uleb128 .Ltmp279-.Lfunc_begin1         #     jumps to .Ltmp279
	.byte	0                               #   On action: cleanup
	.uleb128 .Ltmp280-.Lfunc_begin1         # >> Call Site 44 <<
	.uleb128 .Ltmp283-.Ltmp280              #   Call between .Ltmp280 and .Ltmp283
	.uleb128 .Ltmp284-.Lfunc_begin1         #     jumps to .Ltmp284
	.byte	0                               #   On action: cleanup
	.uleb128 .Ltmp283-.Lfunc_begin1         # >> Call Site 45 <<
	.uleb128 .Ltmp288-.Ltmp283              #   Call between .Ltmp283 and .Ltmp288
	.byte	0                               #     has no landing pad
	.byte	0                               #   On action: cleanup
	.uleb128 .Ltmp288-.Lfunc_begin1         # >> Call Site 46 <<
	.uleb128 .Ltmp289-.Ltmp288              #   Call between .Ltmp288 and .Ltmp289
	.uleb128 .Ltmp290-.Lfunc_begin1         #     jumps to .Ltmp290
	.byte	0                               #   On action: cleanup
	.uleb128 .Ltmp289-.Lfunc_begin1         # >> Call Site 47 <<
	.uleb128 .Ltmp291-.Ltmp289              #   Call between .Ltmp289 and .Ltmp291
	.byte	0                               #     has no landing pad
	.byte	0                               #   On action: cleanup
	.uleb128 .Ltmp291-.Lfunc_begin1         # >> Call Site 48 <<
	.uleb128 .Ltmp292-.Ltmp291              #   Call between .Ltmp291 and .Ltmp292
	.uleb128 .Ltmp345-.Lfunc_begin1         #     jumps to .Ltmp345
	.byte	0                               #   On action: cleanup
	.uleb128 .Ltmp293-.Lfunc_begin1         # >> Call Site 49 <<
	.uleb128 .Ltmp298-.Ltmp293              #   Call between .Ltmp293 and .Ltmp298
	.uleb128 .Ltmp299-.Lfunc_begin1         #     jumps to .Ltmp299
	.byte	0                               #   On action: cleanup
	.uleb128 .Ltmp300-.Lfunc_begin1         # >> Call Site 50 <<
	.uleb128 .Ltmp311-.Ltmp300              #   Call between .Ltmp300 and .Ltmp311
	.uleb128 .Ltmp312-.Lfunc_begin1         #     jumps to .Ltmp312
	.byte	0                               #   On action: cleanup
	.uleb128 .Ltmp313-.Lfunc_begin1         # >> Call Site 51 <<
	.uleb128 .Ltmp326-.Ltmp313              #   Call between .Ltmp313 and .Ltmp326
	.uleb128 .Ltmp327-.Lfunc_begin1         #     jumps to .Ltmp327
	.byte	0                               #   On action: cleanup
	.uleb128 .Ltmp328-.Lfunc_begin1         # >> Call Site 52 <<
	.uleb128 .Ltmp333-.Ltmp328              #   Call between .Ltmp328 and .Ltmp333
	.uleb128 .Ltmp334-.Lfunc_begin1         #     jumps to .Ltmp334
	.byte	0                               #   On action: cleanup
	.uleb128 .Ltmp335-.Lfunc_begin1         # >> Call Site 53 <<
	.uleb128 .Ltmp338-.Ltmp335              #   Call between .Ltmp335 and .Ltmp338
	.uleb128 .Ltmp339-.Lfunc_begin1         #     jumps to .Ltmp339
	.byte	0                               #   On action: cleanup
	.uleb128 .Ltmp338-.Lfunc_begin1         # >> Call Site 54 <<
	.uleb128 .Ltmp65-.Ltmp338               #   Call between .Ltmp338 and .Ltmp65
	.byte	0                               #     has no landing pad
	.byte	0                               #   On action: cleanup
	.uleb128 .Ltmp65-.Lfunc_begin1          # >> Call Site 55 <<
	.uleb128 .Ltmp66-.Ltmp65                #   Call between .Ltmp65 and .Ltmp66
	.uleb128 .Ltmp67-.Lfunc_begin1          #     jumps to .Ltmp67
	.byte	0                               #   On action: cleanup
	.uleb128 .Ltmp120-.Lfunc_begin1         # >> Call Site 56 <<
	.uleb128 .Ltmp121-.Ltmp120              #   Call between .Ltmp120 and .Ltmp121
	.uleb128 .Ltmp122-.Lfunc_begin1         #     jumps to .Ltmp122
	.byte	0                               #   On action: cleanup
	.uleb128 .Ltmp175-.Lfunc_begin1         # >> Call Site 57 <<
	.uleb128 .Ltmp176-.Ltmp175              #   Call between .Ltmp175 and .Ltmp176
	.uleb128 .Ltmp177-.Lfunc_begin1         #     jumps to .Ltmp177
	.byte	0                               #   On action: cleanup
	.uleb128 .Ltmp230-.Lfunc_begin1         # >> Call Site 58 <<
	.uleb128 .Ltmp231-.Ltmp230              #   Call between .Ltmp230 and .Ltmp231
	.uleb128 .Ltmp232-.Lfunc_begin1         #     jumps to .Ltmp232
	.byte	0                               #   On action: cleanup
	.uleb128 .Ltmp285-.Lfunc_begin1         # >> Call Site 59 <<
	.uleb128 .Ltmp286-.Ltmp285              #   Call between .Ltmp285 and .Ltmp286
	.uleb128 .Ltmp287-.Lfunc_begin1         #     jumps to .Ltmp287
	.byte	0                               #   On action: cleanup
	.uleb128 .Ltmp343-.Lfunc_begin1         # >> Call Site 60 <<
	.uleb128 .Ltmp344-.Ltmp343              #   Call between .Ltmp343 and .Ltmp344
	.uleb128 .Ltmp345-.Lfunc_begin1         #     jumps to .Ltmp345
	.byte	0                               #   On action: cleanup
	.uleb128 .Ltmp344-.Lfunc_begin1         # >> Call Site 61 <<
	.uleb128 .Ltmp340-.Ltmp344              #   Call between .Ltmp344 and .Ltmp340
	.byte	0                               #     has no landing pad
	.byte	0                               #   On action: cleanup
	.uleb128 .Ltmp340-.Lfunc_begin1         # >> Call Site 62 <<
	.uleb128 .Ltmp341-.Ltmp340              #   Call between .Ltmp340 and .Ltmp341
	.uleb128 .Ltmp342-.Lfunc_begin1         #     jumps to .Ltmp342
	.byte	1                               #   On action: 1
	.uleb128 .Ltmp341-.Lfunc_begin1         # >> Call Site 63 <<
	.uleb128 .Lfunc_end2-.Ltmp341           #   Call between .Ltmp341 and .Lfunc_end2
	.byte	0                               #     has no landing pad
	.byte	0                               #   On action: cleanup
.Lcst_end1:
	.byte	1                               # >> Action Record 1 <<
                                        #   Catch TypeInfo 1
	.byte	0                               #   No further actions
	.p2align	2, 0x0
                                        # >> Catch TypeInfos <<
	.word	0                               # TypeInfo 1
.Lttbase0:
	.p2align	2, 0x0
                                        # -- End function
	.section	.text._ZN9benchmark8internal12CheckHandlerC2EPKcS3_S3_i,"axG",@progbits,_ZN9benchmark8internal12CheckHandlerC2EPKcS3_S3_i,comdat
	.hidden	_ZN9benchmark8internal12CheckHandlerC2EPKcS3_S3_i # -- Begin function _ZN9benchmark8internal12CheckHandlerC2EPKcS3_S3_i
	.weak	_ZN9benchmark8internal12CheckHandlerC2EPKcS3_S3_i
	.p2align	5
	.type	_ZN9benchmark8internal12CheckHandlerC2EPKcS3_S3_i,@function
_ZN9benchmark8internal12CheckHandlerC2EPKcS3_S3_i: # @_ZN9benchmark8internal12CheckHandlerC2EPKcS3_S3_i
	.cfi_startproc
# %bb.0:
	addi.d	$sp, $sp, -64
	.cfi_def_cfa_offset 64
	st.d	$ra, $sp, 56                    # 8-byte Folded Spill
	st.d	$fp, $sp, 48                    # 8-byte Folded Spill
	st.d	$s0, $sp, 40                    # 8-byte Folded Spill
	st.d	$s1, $sp, 32                    # 8-byte Folded Spill
	st.d	$s2, $sp, 24                    # 8-byte Folded Spill
	st.d	$s3, $sp, 16                    # 8-byte Folded Spill
	st.d	$s4, $sp, 8                     # 8-byte Folded Spill
	.cfi_offset 1, -8
	.cfi_offset 22, -16
	.cfi_offset 23, -24
	.cfi_offset 24, -32
	.cfi_offset 25, -40
	.cfi_offset 26, -48
	.cfi_offset 27, -56
	pcalau12i	$a5, %pc_hi20(_ZGVZN9benchmark8internal19GetErrorLogInstanceEvE9error_log)
	ld.b	$a5, $a5, %pc_lo12(_ZGVZN9benchmark8internal19GetErrorLogInstanceEvE9error_log)
	move	$s1, $a4
	move	$s0, $a3
	move	$fp, $a1
	dbar	20
	pcalau12i	$a1, %pc_hi20(_ZZN9benchmark8internal19GetErrorLogInstanceEvE9error_log)
	addi.d	$s4, $a1, %pc_lo12(_ZZN9benchmark8internal19GetErrorLogInstanceEvE9error_log)
	beqz	$a5, .LBB3_18
.LBB3_1:                                # %_ZN9benchmark8internal19GetErrorLogInstanceEv.exit
	ld.d	$s2, $s4, 0
	st.d	$s4, $a0, 0
	beqz	$s2, .LBB3_17
# %bb.2:
	beqz	$a2, .LBB3_4
# %bb.3:
	move	$a0, $a2
	move	$s3, $a2
	pcaddu18i	$ra, %call36(strlen)
	jirl	$ra, $ra, 0
	move	$a2, $a0
	move	$a0, $s2
	move	$a1, $s3
	pcaddu18i	$ra, %call36(_ZSt16__ostream_insertIcSt11char_traitsIcEERSt13basic_ostreamIT_T0_ES6_PKS3_l)
	jirl	$ra, $ra, 0
	ld.d	$a0, $s4, 0
	bnez	$a0, .LBB3_5
	b	.LBB3_17
.LBB3_4:
	ld.d	$a0, $s2, 0
	ld.d	$a0, $a0, -24
	add.d	$a0, $s2, $a0
	ld.w	$a1, $a0, 32
	ori	$a1, $a1, 1
	pcaddu18i	$ra, %call36(_ZNSt9basic_iosIcSt11char_traitsIcEE5clearESt12_Ios_Iostate)
	jirl	$ra, $ra, 0
	ld.d	$a0, $s4, 0
	beqz	$a0, .LBB3_17
.LBB3_5:                                # %_ZN9benchmark8internallsIA2_cEERNS0_7LogTypeES4_RKT_.exit
	pcalau12i	$a1, %pc_hi20(.L.str.103)
	addi.d	$a1, $a1, %pc_lo12(.L.str.103)
	ori	$a2, $zero, 1
	pcaddu18i	$ra, %call36(_ZSt16__ostream_insertIcSt11char_traitsIcEERSt13basic_ostreamIT_T0_ES6_PKS3_l)
	jirl	$ra, $ra, 0
	ld.d	$a0, $s4, 0
	beqz	$a0, .LBB3_17
# %bb.6:                                # %_ZN9benchmark8internallsIiEERNS0_7LogTypeES3_RKT_.exit
	move	$a1, $s1
	pcaddu18i	$ra, %call36(_ZNSolsEi)
	jirl	$ra, $ra, 0
	ld.d	$a0, $s4, 0
	beqz	$a0, .LBB3_17
# %bb.7:                                # %_ZN9benchmark8internallsIA3_cEERNS0_7LogTypeES4_RKT_.exit
	pcalau12i	$a1, %pc_hi20(.L.str.104)
	addi.d	$a1, $a1, %pc_lo12(.L.str.104)
	ori	$a2, $zero, 2
	pcaddu18i	$ra, %call36(_ZSt16__ostream_insertIcSt11char_traitsIcEERSt13basic_ostreamIT_T0_ES6_PKS3_l)
	jirl	$ra, $ra, 0
	ld.d	$s1, $s4, 0
	beqz	$s1, .LBB3_17
# %bb.8:
	beqz	$s0, .LBB3_10
# %bb.9:
	move	$a0, $s0
	pcaddu18i	$ra, %call36(strlen)
	jirl	$ra, $ra, 0
	move	$a2, $a0
	move	$a0, $s1
	move	$a1, $s0
	pcaddu18i	$ra, %call36(_ZSt16__ostream_insertIcSt11char_traitsIcEERSt13basic_ostreamIT_T0_ES6_PKS3_l)
	jirl	$ra, $ra, 0
	ld.d	$a0, $s4, 0
	bnez	$a0, .LBB3_11
	b	.LBB3_17
.LBB3_10:
	ld.d	$a0, $s1, 0
	ld.d	$a0, $a0, -24
	add.d	$a0, $s1, $a0
	ld.w	$a1, $a0, 32
	ori	$a1, $a1, 1
	pcaddu18i	$ra, %call36(_ZNSt9basic_iosIcSt11char_traitsIcEE5clearESt12_Ios_Iostate)
	jirl	$ra, $ra, 0
	ld.d	$a0, $s4, 0
	beqz	$a0, .LBB3_17
.LBB3_11:                               # %_ZN9benchmark8internallsIA10_cEERNS0_7LogTypeES4_RKT_.exit
	pcalau12i	$a1, %pc_hi20(.L.str.181)
	addi.d	$a1, $a1, %pc_lo12(.L.str.181)
	ori	$a2, $zero, 9
	pcaddu18i	$ra, %call36(_ZSt16__ostream_insertIcSt11char_traitsIcEERSt13basic_ostreamIT_T0_ES6_PKS3_l)
	jirl	$ra, $ra, 0
	ld.d	$s0, $s4, 0
	beqz	$s0, .LBB3_17
# %bb.12:
	beqz	$fp, .LBB3_14
# %bb.13:
	move	$a0, $fp
	pcaddu18i	$ra, %call36(strlen)
	jirl	$ra, $ra, 0
	move	$a2, $a0
	move	$a0, $s0
	move	$a1, $fp
	pcaddu18i	$ra, %call36(_ZSt16__ostream_insertIcSt11char_traitsIcEERSt13basic_ostreamIT_T0_ES6_PKS3_l)
	jirl	$ra, $ra, 0
	b	.LBB3_15
.LBB3_14:
	ld.d	$a0, $s0, 0
	ld.d	$a0, $a0, -24
	add.d	$a0, $s0, $a0
	ld.w	$a1, $a0, 32
	ori	$a1, $a1, 1
	pcaddu18i	$ra, %call36(_ZNSt9basic_iosIcSt11char_traitsIcEE5clearESt12_Ios_Iostate)
	jirl	$ra, $ra, 0
.LBB3_15:                               # %_ZN9benchmark8internallsIPKcEERNS0_7LogTypeES5_RKT_.exit11
	ld.d	$a0, $s4, 0
	beqz	$a0, .LBB3_17
# %bb.16:
	pcalau12i	$a1, %pc_hi20(.L.str.182)
	addi.d	$a1, $a1, %pc_lo12(.L.str.182)
	ori	$a2, $zero, 10
	ld.d	$s4, $sp, 8                     # 8-byte Folded Reload
	ld.d	$s3, $sp, 16                    # 8-byte Folded Reload
	ld.d	$s2, $sp, 24                    # 8-byte Folded Reload
	ld.d	$s1, $sp, 32                    # 8-byte Folded Reload
	ld.d	$s0, $sp, 40                    # 8-byte Folded Reload
	ld.d	$fp, $sp, 48                    # 8-byte Folded Reload
	ld.d	$ra, $sp, 56                    # 8-byte Folded Reload
	addi.d	$sp, $sp, 64
	pcaddu18i	$t8, %call36(_ZSt16__ostream_insertIcSt11char_traitsIcEERSt13basic_ostreamIT_T0_ES6_PKS3_l)
	jr	$t8
.LBB3_17:                               # %_ZN9benchmark8internallsIA11_cEERNS0_7LogTypeES4_RKT_.exit
	ld.d	$s4, $sp, 8                     # 8-byte Folded Reload
	ld.d	$s3, $sp, 16                    # 8-byte Folded Reload
	ld.d	$s2, $sp, 24                    # 8-byte Folded Reload
	ld.d	$s1, $sp, 32                    # 8-byte Folded Reload
	ld.d	$s0, $sp, 40                    # 8-byte Folded Reload
	ld.d	$fp, $sp, 48                    # 8-byte Folded Reload
	ld.d	$ra, $sp, 56                    # 8-byte Folded Reload
	addi.d	$sp, $sp, 64
	ret
.LBB3_18:
	pcalau12i	$a1, %pc_hi20(_ZGVZN9benchmark8internal19GetErrorLogInstanceEvE9error_log)
	addi.d	$a1, $a1, %pc_lo12(_ZGVZN9benchmark8internal19GetErrorLogInstanceEvE9error_log)
	move	$s2, $a0
	move	$a0, $a1
	move	$s3, $a2
	pcaddu18i	$ra, %call36(__cxa_guard_acquire)
	jirl	$ra, $ra, 0
	move	$a2, $s3
	move	$a1, $a0
	move	$a0, $s2
	addi.w	$a1, $a1, 0
	beqz	$a1, .LBB3_1
# %bb.19:
	pcalau12i	$a0, %got_pc_hi20(_ZSt4clog)
	ld.d	$a0, $a0, %got_pc_lo12(_ZSt4clog)
	st.d	$a0, $s4, 0
	pcalau12i	$a0, %pc_hi20(_ZGVZN9benchmark8internal19GetErrorLogInstanceEvE9error_log)
	addi.d	$a0, $a0, %pc_lo12(_ZGVZN9benchmark8internal19GetErrorLogInstanceEvE9error_log)
	pcaddu18i	$ra, %call36(__cxa_guard_release)
	jirl	$ra, $ra, 0
	move	$a0, $s2
	move	$a2, $s3
	b	.LBB3_1
.Lfunc_end3:
	.size	_ZN9benchmark8internal12CheckHandlerC2EPKcS3_S3_i, .Lfunc_end3-_ZN9benchmark8internal12CheckHandlerC2EPKcS3_S3_i
	.cfi_endproc
                                        # -- End function
	.section	.text._ZN9benchmark8internal12CheckHandlerD2Ev,"axG",@progbits,_ZN9benchmark8internal12CheckHandlerD2Ev,comdat
	.hidden	_ZN9benchmark8internal12CheckHandlerD2Ev # -- Begin function _ZN9benchmark8internal12CheckHandlerD2Ev
	.weak	_ZN9benchmark8internal12CheckHandlerD2Ev
	.p2align	5
	.type	_ZN9benchmark8internal12CheckHandlerD2Ev,@function
_ZN9benchmark8internal12CheckHandlerD2Ev: # @_ZN9benchmark8internal12CheckHandlerD2Ev
	.cfi_startproc
# %bb.0:
	addi.d	$sp, $sp, -32
	.cfi_def_cfa_offset 32
	st.d	$ra, $sp, 24                    # 8-byte Folded Spill
	st.d	$fp, $sp, 16                    # 8-byte Folded Spill
	st.d	$s0, $sp, 8                     # 8-byte Folded Spill
	.cfi_offset 1, -8
	.cfi_offset 22, -16
	.cfi_offset 23, -24
	ld.d	$a0, $a0, 0
	ld.d	$fp, $a0, 0
	beqz	$fp, .LBB4_7
# %bb.1:
	ld.d	$a0, $fp, 0
	ld.d	$a0, $a0, -24
	add.d	$a0, $fp, $a0
	ld.d	$s0, $a0, 240
	bnez	$s0, .LBB4_3
# %bb.2:
	pcaddu18i	$ra, %call36(_ZSt16__throw_bad_castv)
	jirl	$ra, $ra, 0
.LBB4_3:                                # %_ZSt13__check_facetISt5ctypeIcEERKT_PS3_.exit.i.i
	ld.bu	$a0, $s0, 56
	bnez	$a0, .LBB4_5
# %bb.4:
	move	$a0, $s0
	pcaddu18i	$ra, %call36(_ZNKSt5ctypeIcE13_M_widen_initEv)
	jirl	$ra, $ra, 0
	ld.d	$a0, $s0, 0
	ld.d	$a2, $a0, 48
	ori	$a1, $zero, 10
	move	$a0, $s0
	jirl	$ra, $a2, 0
	b	.LBB4_6
.LBB4_5:
	ld.bu	$a0, $s0, 67
.LBB4_6:                                # %_ZSt4endlIcSt11char_traitsIcEERSt13basic_ostreamIT_T0_ES6_.exit
	ext.w.b	$a1, $a0
	move	$a0, $fp
	pcaddu18i	$ra, %call36(_ZNSo3putEc)
	jirl	$ra, $ra, 0
	pcaddu18i	$ra, %call36(_ZNSo5flushEv)
	jirl	$ra, $ra, 0
.LBB4_7:                                # %_ZN9benchmark8internallsERNS0_7LogTypeEPFRSoS3_E.exit
	pcaddu18i	$ra, %call36(_ZN9benchmark8internal16CallAbortHandlerEv)
	jirl	$ra, $ra, 0
.Lfunc_end4:
	.size	_ZN9benchmark8internal12CheckHandlerD2Ev, .Lfunc_end4-_ZN9benchmark8internal12CheckHandlerD2Ev
	.cfi_endproc
                                        # -- End function
	.section	.text.__clang_call_terminate,"axG",@progbits,__clang_call_terminate,comdat
	.hidden	__clang_call_terminate          # -- Begin function __clang_call_terminate
	.weak	__clang_call_terminate
	.p2align	5
	.type	__clang_call_terminate,@function
__clang_call_terminate:                 # @__clang_call_terminate
# %bb.0:
	addi.d	$sp, $sp, -16
	st.d	$ra, $sp, 8                     # 8-byte Folded Spill
	pcaddu18i	$ra, %call36(__cxa_begin_catch)
	jirl	$ra, $ra, 0
	pcaddu18i	$ra, %call36(_ZSt9terminatev)
	jirl	$ra, $ra, 0
.Lfunc_end5:
	.size	__clang_call_terminate, .Lfunc_end5-__clang_call_terminate
                                        # -- End function
	.text
	.hidden	_Z23BM_CounterRates_TabularRN9benchmark5StateE # -- Begin function _Z23BM_CounterRates_TabularRN9benchmark5StateE
	.globl	_Z23BM_CounterRates_TabularRN9benchmark5StateE
	.p2align	5
	.type	_Z23BM_CounterRates_TabularRN9benchmark5StateE,@function
_Z23BM_CounterRates_TabularRN9benchmark5StateE: # @_Z23BM_CounterRates_TabularRN9benchmark5StateE
.Lfunc_begin2:
	.cfi_startproc
	.cfi_personality 155, DW.ref.__gxx_personality_v0
	.cfi_lsda 27, .Lexception2
# %bb.0:                                # %_ZN9benchmark5State13StateIteratorC2EPS0_.exit
	addi.d	$sp, $sp, -592
	.cfi_def_cfa_offset 592
	st.d	$ra, $sp, 584                   # 8-byte Folded Spill
	st.d	$fp, $sp, 576                   # 8-byte Folded Spill
	st.d	$s0, $sp, 568                   # 8-byte Folded Spill
	st.d	$s1, $sp, 560                   # 8-byte Folded Spill
	st.d	$s2, $sp, 552                   # 8-byte Folded Spill
	st.d	$s3, $sp, 544                   # 8-byte Folded Spill
	st.d	$s4, $sp, 536                   # 8-byte Folded Spill
	st.d	$s5, $sp, 528                   # 8-byte Folded Spill
	st.d	$s6, $sp, 520                   # 8-byte Folded Spill
	st.d	$s7, $sp, 512                   # 8-byte Folded Spill
	st.d	$s8, $sp, 504                   # 8-byte Folded Spill
	.cfi_offset 1, -8
	.cfi_offset 22, -16
	.cfi_offset 23, -24
	.cfi_offset 24, -32
	.cfi_offset 25, -40
	.cfi_offset 26, -48
	.cfi_offset 27, -56
	.cfi_offset 28, -64
	.cfi_offset 29, -72
	.cfi_offset 30, -80
	.cfi_offset 31, -88
	move	$s0, $a0
	ld.w	$s1, $a0, 28
	ld.d	$fp, $a0, 16
	pcaddu18i	$ra, %call36(_ZN9benchmark5State16StartKeepRunningEv)
	jirl	$ra, $ra, 0
	bnez	$s1, .LBB6_7
# %bb.1:                                # %_ZN9benchmark5State13StateIteratorC2EPS0_.exit
	beqz	$fp, .LBB6_7
# %bb.2:
	movgr2fr.d	$fa0, $zero
	addi.d	$a0, $sp, 208
	.p2align	4, , 16
.LBB6_3:                                # =>This Inner Loop Header: Depth=1
	ld.bu	$a1, $s0, 24
	fmov.d	$fa1, $fa0
	beqz	$a1, .LBB6_5
# %bb.4:                                #   in Loop: Header=BB6_3 Depth=1
	ld.d	$a1, $s0, 16
	ld.d	$a2, $s0, 0
	ld.d	$a3, $s0, 8
	sub.d	$a1, $a1, $a2
	add.d	$a1, $a1, $a3
	movgr2fr.d	$fa1, $a1
	ffint.d.l	$fa1, $fa1
	fmul.d	$fa1, $fa1, $fa1
.LBB6_5:                                # %_ZNK9benchmark5State10iterationsEv.exit
                                        #   in Loop: Header=BB6_3 Depth=1
	fst.d	$fa1, $sp, 208
	#APP
	#NO_APP
	blez	$fp, .LBB6_38
# %bb.6:                                #   in Loop: Header=BB6_3 Depth=1
	addi.d	$fp, $fp, -1
	bnez	$fp, .LBB6_3
.LBB6_7:                                # %.loopexit246
	move	$a0, $s0
	pcaddu18i	$ra, %call36(_ZN9benchmark5State17FinishKeepRunningEv)
	jirl	$ra, $ra, 0
	addi.d	$fp, $s0, 64
	addi.d	$a0, $sp, 192
	st.d	$a0, $sp, 176
	pcalau12i	$a0, %pc_hi20(.L.str.21)
	addi.d	$a0, $a0, %pc_lo12(.L.str.21)
	ld.h	$a1, $a0, 0
	ld.b	$a2, $a0, 2
	st.h	$a1, $sp, 192
	st.b	$a2, $sp, 194
	ori	$a0, $zero, 3
	st.d	$a0, $sp, 184
	st.b	$zero, $sp, 195
	addi.d	$s5, $sp, 224
	st.d	$s5, $sp, 208
	st.h	$a1, $sp, 224
	st.b	$a2, $sp, 226
	st.d	$a0, $sp, 216
	st.b	$zero, $sp, 227
	lu52i.d	$a1, $zero, 1023
	st.d	$a1, $sp, 240
	ori	$a1, $zero, 3
	lu32i.d	$a1, 1000
	st.d	$a1, $sp, 248
	addi.d	$a2, $sp, 160
	st.d	$a2, $sp, 144
	pcalau12i	$a2, %pc_hi20(.L.str.22)
	addi.d	$a2, $a2, %pc_lo12(.L.str.22)
	ld.h	$a3, $a2, 0
	ld.b	$a2, $a2, 2
	st.h	$a3, $sp, 160
	st.b	$a2, $sp, 162
	st.d	$a0, $sp, 152
	st.b	$zero, $sp, 163
	addi.d	$s7, $sp, 272
	st.d	$s7, $sp, 256
	st.b	$a2, $sp, 274
	st.h	$a3, $sp, 272
	st.d	$a0, $sp, 264
	st.b	$zero, $sp, 275
	lu52i.d	$a2, $zero, 1024
	st.d	$a2, $sp, 288
	st.d	$a1, $sp, 296
	addi.d	$a2, $sp, 128
	st.d	$a2, $sp, 112
	pcalau12i	$a2, %pc_hi20(.L.str.23)
	addi.d	$a2, $a2, %pc_lo12(.L.str.23)
	ld.h	$a3, $a2, 0
	ld.b	$a2, $a2, 2
	st.h	$a3, $sp, 128
	st.b	$a2, $sp, 130
	st.d	$a0, $sp, 120
	st.b	$zero, $sp, 131
	addi.d	$s1, $sp, 320
	st.d	$s1, $sp, 304
	st.b	$a2, $sp, 322
	st.h	$a3, $sp, 320
	st.d	$a0, $sp, 312
	st.b	$zero, $sp, 323
	lu52i.d	$a2, $zero, 1025
	st.d	$a2, $sp, 336
	st.d	$a1, $sp, 344
	addi.d	$a2, $sp, 96
	st.d	$a2, $sp, 80
	pcalau12i	$a2, %pc_hi20(.L.str.24)
	addi.d	$a2, $a2, %pc_lo12(.L.str.24)
	ld.h	$a3, $a2, 0
	ld.b	$a2, $a2, 2
	st.h	$a3, $sp, 96
	st.b	$a2, $sp, 98
	st.d	$a0, $sp, 88
	st.b	$zero, $sp, 99
	addi.d	$s2, $sp, 368
	st.d	$s2, $sp, 352
	st.b	$a2, $sp, 370
	st.h	$a3, $sp, 368
	st.d	$a0, $sp, 360
	st.b	$zero, $sp, 371
	lu52i.d	$a2, $zero, 1026
	st.d	$a2, $sp, 384
	st.d	$a1, $sp, 392
	addi.d	$s6, $sp, 64
	st.d	$s6, $sp, 48
	lu12i.w	$a2, 403191
	ori	$a2, $a2, 582
	st.w	$a2, $sp, 64
	ori	$a3, $zero, 4
	st.d	$a3, $sp, 56
	st.b	$zero, $sp, 68
	addi.d	$s3, $sp, 416
	st.d	$s3, $sp, 400
	st.w	$a2, $sp, 416
	st.d	$a3, $sp, 408
	st.b	$zero, $sp, 420
	lu52i.d	$a2, $zero, 1027
	st.d	$a2, $sp, 432
	st.d	$a1, $sp, 440
	addi.d	$s8, $sp, 32
	st.d	$s8, $sp, 16
	pcalau12i	$a2, %pc_hi20(.L.str.26)
	addi.d	$a2, $a2, %pc_lo12(.L.str.26)
	ld.h	$a3, $a2, 0
	ld.b	$a2, $a2, 2
	st.h	$a3, $sp, 32
	st.b	$a2, $sp, 34
	st.d	$a0, $sp, 24
	st.b	$zero, $sp, 35
	addi.d	$s4, $sp, 464
	st.d	$s4, $sp, 448
	st.b	$a2, $sp, 466
	st.h	$a3, $sp, 464
	st.d	$a0, $sp, 456
	st.b	$zero, $sp, 467
	lu52i.d	$a0, $zero, 1028
	st.d	$a0, $sp, 480
	st.d	$a1, $sp, 488
	st.d	$fp, $sp, 496
	addi.d	$s0, $s0, 72
.Ltmp346:                               # EH_LABEL
	addi.d	$a2, $sp, 208
	addi.d	$a3, $sp, 496
	move	$a0, $fp
	move	$a1, $s0
	pcaddu18i	$ra, %call36(_ZNSt8_Rb_treeINSt7__cxx1112basic_stringIcSt11char_traitsIcESaIcEEESt4pairIKS5_N9benchmark7CounterEESt10_Select1stISA_ESt4lessIS5_ESaISA_EE17_M_insert_unique_IRKSA_NSG_11_Alloc_nodeEEESt17_Rb_tree_iteratorISA_ESt23_Rb_tree_const_iteratorISA_EOT_RT0_)
	jirl	$ra, $ra, 0
.Ltmp347:                               # EH_LABEL
# %bb.8:                                # %.noexc109
.Ltmp348:                               # EH_LABEL
	addi.d	$a2, $sp, 256
	addi.d	$a3, $sp, 496
	move	$a0, $fp
	move	$a1, $s0
	pcaddu18i	$ra, %call36(_ZNSt8_Rb_treeINSt7__cxx1112basic_stringIcSt11char_traitsIcESaIcEEESt4pairIKS5_N9benchmark7CounterEESt10_Select1stISA_ESt4lessIS5_ESaISA_EE17_M_insert_unique_IRKSA_NSG_11_Alloc_nodeEEESt17_Rb_tree_iteratorISA_ESt23_Rb_tree_const_iteratorISA_EOT_RT0_)
	jirl	$ra, $ra, 0
.Ltmp349:                               # EH_LABEL
# %bb.9:                                # %.noexc109.1
.Ltmp350:                               # EH_LABEL
	addi.d	$a2, $sp, 304
	addi.d	$a3, $sp, 496
	move	$a0, $fp
	move	$a1, $s0
	pcaddu18i	$ra, %call36(_ZNSt8_Rb_treeINSt7__cxx1112basic_stringIcSt11char_traitsIcESaIcEEESt4pairIKS5_N9benchmark7CounterEESt10_Select1stISA_ESt4lessIS5_ESaISA_EE17_M_insert_unique_IRKSA_NSG_11_Alloc_nodeEEESt17_Rb_tree_iteratorISA_ESt23_Rb_tree_const_iteratorISA_EOT_RT0_)
	jirl	$ra, $ra, 0
.Ltmp351:                               # EH_LABEL
# %bb.10:                               # %.noexc109.2
.Ltmp352:                               # EH_LABEL
	addi.d	$a2, $sp, 352
	addi.d	$a3, $sp, 496
	move	$a0, $fp
	move	$a1, $s0
	pcaddu18i	$ra, %call36(_ZNSt8_Rb_treeINSt7__cxx1112basic_stringIcSt11char_traitsIcESaIcEEESt4pairIKS5_N9benchmark7CounterEESt10_Select1stISA_ESt4lessIS5_ESaISA_EE17_M_insert_unique_IRKSA_NSG_11_Alloc_nodeEEESt17_Rb_tree_iteratorISA_ESt23_Rb_tree_const_iteratorISA_EOT_RT0_)
	jirl	$ra, $ra, 0
.Ltmp353:                               # EH_LABEL
# %bb.11:                               # %.noexc109.3
.Ltmp354:                               # EH_LABEL
	addi.d	$a2, $sp, 400
	addi.d	$a3, $sp, 496
	move	$a0, $fp
	move	$a1, $s0
	pcaddu18i	$ra, %call36(_ZNSt8_Rb_treeINSt7__cxx1112basic_stringIcSt11char_traitsIcESaIcEEESt4pairIKS5_N9benchmark7CounterEESt10_Select1stISA_ESt4lessIS5_ESaISA_EE17_M_insert_unique_IRKSA_NSG_11_Alloc_nodeEEESt17_Rb_tree_iteratorISA_ESt23_Rb_tree_const_iteratorISA_EOT_RT0_)
	jirl	$ra, $ra, 0
.Ltmp355:                               # EH_LABEL
# %bb.12:                               # %.noexc109.4
.Ltmp356:                               # EH_LABEL
	addi.d	$a2, $sp, 448
	addi.d	$a3, $sp, 496
	move	$a0, $fp
	move	$a1, $s0
	pcaddu18i	$ra, %call36(_ZNSt8_Rb_treeINSt7__cxx1112basic_stringIcSt11char_traitsIcESaIcEEESt4pairIKS5_N9benchmark7CounterEESt10_Select1stISA_ESt4lessIS5_ESaISA_EE17_M_insert_unique_IRKSA_NSG_11_Alloc_nodeEEESt17_Rb_tree_iteratorISA_ESt23_Rb_tree_const_iteratorISA_EOT_RT0_)
	jirl	$ra, $ra, 0
.Ltmp357:                               # EH_LABEL
# %bb.13:                               # %.noexc109.5
	ld.d	$a0, $sp, 448
	beq	$a0, $s4, .LBB6_15
# %bb.14:                               # %_ZNKSt7__cxx1112basic_stringIcSt11char_traitsIcESaIcEE11_M_is_localEv.exit.i.i.i
	ld.d	$a1, $sp, 464
	addi.d	$a1, $a1, 1
	pcaddu18i	$ra, %call36(_ZdlPvm)
	jirl	$ra, $ra, 0
.LBB6_15:                               # %_ZNSt4pairIKNSt7__cxx1112basic_stringIcSt11char_traitsIcESaIcEEEN9benchmark7CounterEED2Ev.exit
	ld.d	$a0, $sp, 400
	beq	$a0, $s3, .LBB6_17
# %bb.16:                               # %_ZNKSt7__cxx1112basic_stringIcSt11char_traitsIcESaIcEE11_M_is_localEv.exit.i.i.i.1
	ld.d	$a1, $sp, 416
	addi.d	$a1, $a1, 1
	pcaddu18i	$ra, %call36(_ZdlPvm)
	jirl	$ra, $ra, 0
.LBB6_17:                               # %_ZNSt4pairIKNSt7__cxx1112basic_stringIcSt11char_traitsIcESaIcEEEN9benchmark7CounterEED2Ev.exit.1
	ld.d	$a0, $sp, 352
	beq	$a0, $s2, .LBB6_19
# %bb.18:                               # %_ZNKSt7__cxx1112basic_stringIcSt11char_traitsIcESaIcEE11_M_is_localEv.exit.i.i.i.2
	ld.d	$a1, $sp, 368
	addi.d	$a1, $a1, 1
	pcaddu18i	$ra, %call36(_ZdlPvm)
	jirl	$ra, $ra, 0
.LBB6_19:                               # %_ZNSt4pairIKNSt7__cxx1112basic_stringIcSt11char_traitsIcESaIcEEEN9benchmark7CounterEED2Ev.exit.2
	ld.d	$a0, $sp, 304
	beq	$a0, $s1, .LBB6_21
# %bb.20:                               # %_ZNKSt7__cxx1112basic_stringIcSt11char_traitsIcESaIcEE11_M_is_localEv.exit.i.i.i.3
	ld.d	$a1, $sp, 320
	addi.d	$a1, $a1, 1
	pcaddu18i	$ra, %call36(_ZdlPvm)
	jirl	$ra, $ra, 0
.LBB6_21:                               # %_ZNSt4pairIKNSt7__cxx1112basic_stringIcSt11char_traitsIcESaIcEEEN9benchmark7CounterEED2Ev.exit.3
	ld.d	$a0, $sp, 256
	beq	$a0, $s7, .LBB6_23
# %bb.22:                               # %_ZNKSt7__cxx1112basic_stringIcSt11char_traitsIcESaIcEE11_M_is_localEv.exit.i.i.i.4
	ld.d	$a1, $sp, 272
	addi.d	$a1, $a1, 1
	pcaddu18i	$ra, %call36(_ZdlPvm)
	jirl	$ra, $ra, 0
.LBB6_23:                               # %_ZNSt4pairIKNSt7__cxx1112basic_stringIcSt11char_traitsIcESaIcEEEN9benchmark7CounterEED2Ev.exit.4
	ld.d	$a0, $sp, 208
	beq	$a0, $s5, .LBB6_25
# %bb.24:                               # %_ZNKSt7__cxx1112basic_stringIcSt11char_traitsIcESaIcEE11_M_is_localEv.exit.i.i.i.5
	ld.d	$a1, $sp, 224
	addi.d	$a1, $a1, 1
	pcaddu18i	$ra, %call36(_ZdlPvm)
	jirl	$ra, $ra, 0
.LBB6_25:                               # %_ZNSt4pairIKNSt7__cxx1112basic_stringIcSt11char_traitsIcESaIcEEEN9benchmark7CounterEED2Ev.exit.5
	ld.d	$a0, $sp, 16
	beq	$a0, $s8, .LBB6_27
# %bb.26:                               # %_ZNKSt7__cxx1112basic_stringIcSt11char_traitsIcESaIcEE11_M_is_localEv.exit.i.i
	ld.d	$a1, $sp, 32
	addi.d	$a1, $a1, 1
	pcaddu18i	$ra, %call36(_ZdlPvm)
	jirl	$ra, $ra, 0
.LBB6_27:                               # %_ZNSt7__cxx1112basic_stringIcSt11char_traitsIcESaIcEED2Ev.exit
	ld.d	$a0, $sp, 48
	beq	$a0, $s6, .LBB6_29
# %bb.28:                               # %_ZNKSt7__cxx1112basic_stringIcSt11char_traitsIcESaIcEE11_M_is_localEv.exit.i.i110
	ld.d	$a1, $sp, 64
	addi.d	$a1, $a1, 1
	pcaddu18i	$ra, %call36(_ZdlPvm)
	jirl	$ra, $ra, 0
.LBB6_29:                               # %_ZNSt7__cxx1112basic_stringIcSt11char_traitsIcESaIcEED2Ev.exit112
	ld.d	$a0, $sp, 80
	addi.d	$a1, $sp, 96
	beq	$a0, $a1, .LBB6_31
# %bb.30:                               # %_ZNKSt7__cxx1112basic_stringIcSt11char_traitsIcESaIcEE11_M_is_localEv.exit.i.i113
	ld.d	$a1, $sp, 96
	addi.d	$a1, $a1, 1
	pcaddu18i	$ra, %call36(_ZdlPvm)
	jirl	$ra, $ra, 0
.LBB6_31:                               # %_ZNSt7__cxx1112basic_stringIcSt11char_traitsIcESaIcEED2Ev.exit115
	ld.d	$a0, $sp, 112
	addi.d	$a1, $sp, 128
	beq	$a0, $a1, .LBB6_33
# %bb.32:                               # %_ZNKSt7__cxx1112basic_stringIcSt11char_traitsIcESaIcEE11_M_is_localEv.exit.i.i116
	ld.d	$a1, $sp, 128
	addi.d	$a1, $a1, 1
	pcaddu18i	$ra, %call36(_ZdlPvm)
	jirl	$ra, $ra, 0
.LBB6_33:                               # %_ZNSt7__cxx1112basic_stringIcSt11char_traitsIcESaIcEED2Ev.exit118
	ld.d	$a0, $sp, 144
	addi.d	$a1, $sp, 160
	beq	$a0, $a1, .LBB6_35
# %bb.34:                               # %_ZNKSt7__cxx1112basic_stringIcSt11char_traitsIcESaIcEE11_M_is_localEv.exit.i.i119
	ld.d	$a1, $sp, 160
	addi.d	$a1, $a1, 1
	pcaddu18i	$ra, %call36(_ZdlPvm)
	jirl	$ra, $ra, 0
.LBB6_35:                               # %_ZNSt7__cxx1112basic_stringIcSt11char_traitsIcESaIcEED2Ev.exit121
	ld.d	$a0, $sp, 176
	addi.d	$a1, $sp, 192
	beq	$a0, $a1, .LBB6_37
# %bb.36:                               # %_ZNKSt7__cxx1112basic_stringIcSt11char_traitsIcESaIcEE11_M_is_localEv.exit.i.i122
	ld.d	$a1, $sp, 192
	addi.d	$a1, $a1, 1
	pcaddu18i	$ra, %call36(_ZdlPvm)
	jirl	$ra, $ra, 0
.LBB6_37:                               # %_ZNSt7__cxx1112basic_stringIcSt11char_traitsIcESaIcEED2Ev.exit124
	ld.d	$s8, $sp, 504                   # 8-byte Folded Reload
	ld.d	$s7, $sp, 512                   # 8-byte Folded Reload
	ld.d	$s6, $sp, 520                   # 8-byte Folded Reload
	ld.d	$s5, $sp, 528                   # 8-byte Folded Reload
	ld.d	$s4, $sp, 536                   # 8-byte Folded Reload
	ld.d	$s3, $sp, 544                   # 8-byte Folded Reload
	ld.d	$s2, $sp, 552                   # 8-byte Folded Reload
	ld.d	$s1, $sp, 560                   # 8-byte Folded Reload
	ld.d	$s0, $sp, 568                   # 8-byte Folded Reload
	ld.d	$fp, $sp, 576                   # 8-byte Folded Reload
	ld.d	$ra, $sp, 584                   # 8-byte Folded Reload
	addi.d	$sp, $sp, 592
	ret
.LBB6_38:
	pcalau12i	$a0, %pc_hi20(.L.str.179)
	addi.d	$a0, $a0, %pc_lo12(.L.str.179)
	pcalau12i	$a1, %pc_hi20(.L.str.180)
	addi.d	$a1, $a1, %pc_lo12(.L.str.180)
	pcalau12i	$a2, %pc_hi20(.L__PRETTY_FUNCTION__._ZN9benchmark5State13StateIteratorppEv)
	addi.d	$a3, $a2, %pc_lo12(.L__PRETTY_FUNCTION__._ZN9benchmark5State13StateIteratorppEv)
	ori	$a2, $zero, 1142
	pcaddu18i	$ra, %call36(__assert_fail)
	jirl	$ra, $ra, 0
.LBB6_39:
.Ltmp358:                               # EH_LABEL
	ld.d	$a2, $sp, 448
	move	$fp, $a0
	bne	$a2, $s4, .LBB6_52
# %bb.40:                               # %_ZNSt4pairIKNSt7__cxx1112basic_stringIcSt11char_traitsIcESaIcEEEN9benchmark7CounterEED2Ev.exit127
	ld.d	$a0, $sp, 400
	bne	$a0, $s3, .LBB6_53
.LBB6_41:                               # %_ZNSt4pairIKNSt7__cxx1112basic_stringIcSt11char_traitsIcESaIcEEEN9benchmark7CounterEED2Ev.exit127.1
	ld.d	$a0, $sp, 352
	bne	$a0, $s2, .LBB6_54
.LBB6_42:                               # %_ZNSt4pairIKNSt7__cxx1112basic_stringIcSt11char_traitsIcESaIcEEEN9benchmark7CounterEED2Ev.exit127.2
	ld.d	$a0, $sp, 304
	bne	$a0, $s1, .LBB6_55
.LBB6_43:                               # %_ZNSt4pairIKNSt7__cxx1112basic_stringIcSt11char_traitsIcESaIcEEEN9benchmark7CounterEED2Ev.exit127.3
	ld.d	$a0, $sp, 256
	bne	$a0, $s7, .LBB6_56
.LBB6_44:                               # %_ZNSt4pairIKNSt7__cxx1112basic_stringIcSt11char_traitsIcESaIcEEEN9benchmark7CounterEED2Ev.exit127.4
	ld.d	$a0, $sp, 208
	bne	$a0, $s5, .LBB6_57
.LBB6_45:                               # %.loopexit184
	ld.d	$a0, $sp, 16
	bne	$a0, $s8, .LBB6_58
.LBB6_46:                               # %_ZNKSt7__cxx1112basic_stringIcSt11char_traitsIcESaIcEE11_M_is_localEv.exit.thread.i.i129
	ld.d	$a0, $sp, 48
	bne	$a0, $s6, .LBB6_59
.LBB6_47:                               # %_ZNKSt7__cxx1112basic_stringIcSt11char_traitsIcESaIcEE11_M_is_localEv.exit.thread.i.i132
	ld.d	$a0, $sp, 80
	addi.d	$a1, $sp, 96
	bne	$a0, $a1, .LBB6_60
.LBB6_48:                               # %_ZNKSt7__cxx1112basic_stringIcSt11char_traitsIcESaIcEE11_M_is_localEv.exit.thread.i.i135
	ld.d	$a0, $sp, 112
	addi.d	$a1, $sp, 128
	bne	$a0, $a1, .LBB6_61
.LBB6_49:                               # %_ZNKSt7__cxx1112basic_stringIcSt11char_traitsIcESaIcEE11_M_is_localEv.exit.thread.i.i138
	ld.d	$a0, $sp, 144
	addi.d	$a1, $sp, 160
	bne	$a0, $a1, .LBB6_62
.LBB6_50:                               # %_ZNKSt7__cxx1112basic_stringIcSt11char_traitsIcESaIcEE11_M_is_localEv.exit.thread.i.i141
	ld.d	$a0, $sp, 176
	addi.d	$a1, $sp, 192
	bne	$a0, $a1, .LBB6_63
.LBB6_51:                               # %.loopexit
	move	$a0, $fp
	pcaddu18i	$ra, %call36(_Unwind_Resume)
	jirl	$ra, $ra, 0
.LBB6_52:                               # %_ZNKSt7__cxx1112basic_stringIcSt11char_traitsIcESaIcEE11_M_is_localEv.exit.i.i.i125
	ld.d	$a0, $sp, 464
	addi.d	$a1, $a0, 1
	move	$a0, $a2
	pcaddu18i	$ra, %call36(_ZdlPvm)
	jirl	$ra, $ra, 0
	ld.d	$a0, $sp, 400
	beq	$a0, $s3, .LBB6_41
.LBB6_53:                               # %_ZNKSt7__cxx1112basic_stringIcSt11char_traitsIcESaIcEE11_M_is_localEv.exit.i.i.i125.1
	ld.d	$a1, $sp, 416
	addi.d	$a1, $a1, 1
	pcaddu18i	$ra, %call36(_ZdlPvm)
	jirl	$ra, $ra, 0
	ld.d	$a0, $sp, 352
	beq	$a0, $s2, .LBB6_42
.LBB6_54:                               # %_ZNKSt7__cxx1112basic_stringIcSt11char_traitsIcESaIcEE11_M_is_localEv.exit.i.i.i125.2
	ld.d	$a1, $sp, 368
	addi.d	$a1, $a1, 1
	pcaddu18i	$ra, %call36(_ZdlPvm)
	jirl	$ra, $ra, 0
	ld.d	$a0, $sp, 304
	beq	$a0, $s1, .LBB6_43
.LBB6_55:                               # %_ZNKSt7__cxx1112basic_stringIcSt11char_traitsIcESaIcEE11_M_is_localEv.exit.i.i.i125.3
	ld.d	$a1, $sp, 320
	addi.d	$a1, $a1, 1
	pcaddu18i	$ra, %call36(_ZdlPvm)
	jirl	$ra, $ra, 0
	ld.d	$a0, $sp, 256
	beq	$a0, $s7, .LBB6_44
.LBB6_56:                               # %_ZNKSt7__cxx1112basic_stringIcSt11char_traitsIcESaIcEE11_M_is_localEv.exit.i.i.i125.4
	ld.d	$a1, $sp, 272
	addi.d	$a1, $a1, 1
	pcaddu18i	$ra, %call36(_ZdlPvm)
	jirl	$ra, $ra, 0
	ld.d	$a0, $sp, 208
	beq	$a0, $s5, .LBB6_45
.LBB6_57:                               # %_ZNKSt7__cxx1112basic_stringIcSt11char_traitsIcESaIcEE11_M_is_localEv.exit.i.i.i125.5
	ld.d	$a1, $sp, 224
	addi.d	$a1, $a1, 1
	pcaddu18i	$ra, %call36(_ZdlPvm)
	jirl	$ra, $ra, 0
	ld.d	$a0, $sp, 16
	beq	$a0, $s8, .LBB6_46
.LBB6_58:                               # %_ZNKSt7__cxx1112basic_stringIcSt11char_traitsIcESaIcEE11_M_is_localEv.exit.i.i128
	ld.d	$a1, $sp, 32
	addi.d	$a1, $a1, 1
	pcaddu18i	$ra, %call36(_ZdlPvm)
	jirl	$ra, $ra, 0
	ld.d	$a0, $sp, 48
	beq	$a0, $s6, .LBB6_47
.LBB6_59:                               # %_ZNKSt7__cxx1112basic_stringIcSt11char_traitsIcESaIcEE11_M_is_localEv.exit.i.i131
	ld.d	$a1, $sp, 64
	addi.d	$a1, $a1, 1
	pcaddu18i	$ra, %call36(_ZdlPvm)
	jirl	$ra, $ra, 0
	ld.d	$a0, $sp, 80
	addi.d	$a1, $sp, 96
	beq	$a0, $a1, .LBB6_48
.LBB6_60:                               # %_ZNKSt7__cxx1112basic_stringIcSt11char_traitsIcESaIcEE11_M_is_localEv.exit.i.i134
	ld.d	$a1, $sp, 96
	addi.d	$a1, $a1, 1
	pcaddu18i	$ra, %call36(_ZdlPvm)
	jirl	$ra, $ra, 0
	ld.d	$a0, $sp, 112
	addi.d	$a1, $sp, 128
	beq	$a0, $a1, .LBB6_49
.LBB6_61:                               # %_ZNKSt7__cxx1112basic_stringIcSt11char_traitsIcESaIcEE11_M_is_localEv.exit.i.i137
	ld.d	$a1, $sp, 128
	addi.d	$a1, $a1, 1
	pcaddu18i	$ra, %call36(_ZdlPvm)
	jirl	$ra, $ra, 0
	ld.d	$a0, $sp, 144
	addi.d	$a1, $sp, 160
	beq	$a0, $a1, .LBB6_50
.LBB6_62:                               # %_ZNKSt7__cxx1112basic_stringIcSt11char_traitsIcESaIcEE11_M_is_localEv.exit.i.i140
	ld.d	$a1, $sp, 160
	addi.d	$a1, $a1, 1
	pcaddu18i	$ra, %call36(_ZdlPvm)
	jirl	$ra, $ra, 0
	ld.d	$a0, $sp, 176
	addi.d	$a1, $sp, 192
	beq	$a0, $a1, .LBB6_51
.LBB6_63:                               # %_ZNKSt7__cxx1112basic_stringIcSt11char_traitsIcESaIcEE11_M_is_localEv.exit.i.i143
	ld.d	$a1, $sp, 192
	addi.d	$a1, $a1, 1
	pcaddu18i	$ra, %call36(_ZdlPvm)
	jirl	$ra, $ra, 0
	move	$a0, $fp
	pcaddu18i	$ra, %call36(_Unwind_Resume)
	jirl	$ra, $ra, 0
.Lfunc_end6:
	.size	_Z23BM_CounterRates_TabularRN9benchmark5StateE, .Lfunc_end6-_Z23BM_CounterRates_TabularRN9benchmark5StateE
	.cfi_endproc
	.section	.gcc_except_table,"a",@progbits
	.p2align	2, 0x0
GCC_except_table6:
.Lexception2:
	.byte	255                             # @LPStart Encoding = omit
	.byte	255                             # @TType Encoding = omit
	.byte	1                               # Call site Encoding = uleb128
	.uleb128 .Lcst_end2-.Lcst_begin2
.Lcst_begin2:
	.uleb128 .Lfunc_begin2-.Lfunc_begin2    # >> Call Site 1 <<
	.uleb128 .Ltmp346-.Lfunc_begin2         #   Call between .Lfunc_begin2 and .Ltmp346
	.byte	0                               #     has no landing pad
	.byte	0                               #   On action: cleanup
	.uleb128 .Ltmp346-.Lfunc_begin2         # >> Call Site 2 <<
	.uleb128 .Ltmp357-.Ltmp346              #   Call between .Ltmp346 and .Ltmp357
	.uleb128 .Ltmp358-.Lfunc_begin2         #     jumps to .Ltmp358
	.byte	0                               #   On action: cleanup
	.uleb128 .Ltmp357-.Lfunc_begin2         # >> Call Site 3 <<
	.uleb128 .Lfunc_end6-.Ltmp357           #   Call between .Ltmp357 and .Lfunc_end6
	.byte	0                               #     has no landing pad
	.byte	0                               #   On action: cleanup
.Lcst_end2:
	.p2align	2, 0x0
                                        # -- End function
	.section	.rodata.cst8,"aM",@progbits,8
	.p2align	3, 0x0                          # -- Begin function _Z16CheckTabularRateRK7Results
.LCPI7_0:
	.dword	0x3f50624dd2f1a9fc              # double 0.001
.LCPI7_1:
	.dword	0x3fb999999999999a              # double 0.10000000000000001
.LCPI7_2:
	.dword	0x3ee4f8b588e368f1              # double 1.0000000000000001E-5
.LCPI7_3:
	.dword	0x4059000000000000              # double 100
	.text
	.hidden	_Z16CheckTabularRateRK7Results
	.globl	_Z16CheckTabularRateRK7Results
	.p2align	5
	.type	_Z16CheckTabularRateRK7Results,@function
_Z16CheckTabularRateRK7Results:         # @_Z16CheckTabularRateRK7Results
.Lfunc_begin3:
	.cfi_startproc
	.cfi_personality 155, DW.ref.__gxx_personality_v0
	.cfi_lsda 27, .Lexception3
# %bb.0:                                # %._crit_edge.i.i
	addi.d	$sp, $sp, -336
	.cfi_def_cfa_offset 336
	st.d	$ra, $sp, 328                   # 8-byte Folded Spill
	st.d	$fp, $sp, 320                   # 8-byte Folded Spill
	st.d	$s0, $sp, 312                   # 8-byte Folded Spill
	st.d	$s1, $sp, 304                   # 8-byte Folded Spill
	st.d	$s2, $sp, 296                   # 8-byte Folded Spill
	st.d	$s3, $sp, 288                   # 8-byte Folded Spill
	st.d	$s4, $sp, 280                   # 8-byte Folded Spill
	st.d	$s5, $sp, 272                   # 8-byte Folded Spill
	st.d	$s6, $sp, 264                   # 8-byte Folded Spill
	st.d	$s7, $sp, 256                   # 8-byte Folded Spill
	st.d	$s8, $sp, 248                   # 8-byte Folded Spill
	fst.d	$fs0, $sp, 240                  # 8-byte Folded Spill
	fst.d	$fs1, $sp, 232                  # 8-byte Folded Spill
	fst.d	$fs2, $sp, 224                  # 8-byte Folded Spill
	fst.d	$fs3, $sp, 216                  # 8-byte Folded Spill
	fst.d	$fs4, $sp, 208                  # 8-byte Folded Spill
	.cfi_offset 1, -8
	.cfi_offset 22, -16
	.cfi_offset 23, -24
	.cfi_offset 24, -32
	.cfi_offset 25, -40
	.cfi_offset 26, -48
	.cfi_offset 27, -56
	.cfi_offset 28, -64
	.cfi_offset 29, -72
	.cfi_offset 30, -80
	.cfi_offset 31, -88
	.cfi_offset 56, -96
	.cfi_offset 57, -104
	.cfi_offset 58, -112
	.cfi_offset 59, -120
	.cfi_offset 60, -128
	move	$fp, $a0
	pcaddu18i	$ra, %call36(_ZNK7Results13NumIterationsEv)
	jirl	$ra, $ra, 0
	fmov.d	$fs0, $fa0
	move	$a0, $fp
	move	$a1, $zero
	pcaddu18i	$ra, %call36(_ZNK7Results7GetTimeENS_13BenchmarkTimeE)
	jirl	$ra, $ra, 0
	fmov.d	$fs1, $fa0
	addi.d	$s0, $sp, 192
	st.d	$s0, $sp, 176
	pcalau12i	$a0, %pc_hi20(.L.str.21)
	addi.d	$a0, $a0, %pc_lo12(.L.str.21)
	ld.h	$s4, $a0, 0
	ld.b	$s5, $a0, 2
	st.h	$s4, $sp, 192
	st.b	$s5, $sp, 194
	ori	$a0, $zero, 3
	st.d	$a0, $sp, 184
	st.b	$zero, $sp, 195
.Ltmp359:                               # EH_LABEL
	addi.d	$a1, $sp, 176
	move	$a0, $fp
	pcaddu18i	$ra, %call36(_ZNK7Results5GetAsIdEET_RKNSt7__cxx1112basic_stringIcSt11char_traitsIcESaIcEEE)
	jirl	$ra, $ra, 0
.Ltmp360:                               # EH_LABEL
# %bb.1:                                # %_ZNK7Results12GetCounterAsIdEET_RKNSt7__cxx1112basic_stringIcSt11char_traitsIcESaIcEEE.exit
	fmul.d	$fs2, $fs0, $fs1
	pcalau12i	$a0, %pc_hi20(.LCPI7_0)
	fld.d	$fs3, $a0, %pc_lo12(.LCPI7_0)
	frecip.d	$fs1, $fs2
	fsub.d	$fa0, $fa0, $fs1
	fabs.d	$fs4, $fa0
	fmul.d	$fs0, $fs1, $fs3
	fcmp.cule.d	$fcc0, $fs0, $fs4
	movcf2gr	$a0, $fcc0
	st.d	$a0, $sp, 24
	bceqz	$fcc0, .LBB7_4
# %bb.2:
.Ltmp362:                               # EH_LABEL
	pcalau12i	$a0, %pc_hi20(.L.str.129)
	addi.d	$a1, $a0, %pc_lo12(.L.str.129)
	pcalau12i	$a0, %pc_hi20(.L.str.101)
	addi.d	$a2, $a0, %pc_lo12(.L.str.101)
	pcalau12i	$a0, %pc_hi20(.L__func__._Z16CheckTabularRateRK7Results)
	addi.d	$a3, $a0, %pc_lo12(.L__func__._Z16CheckTabularRateRK7Results)
	addi.d	$a0, $sp, 168
	ori	$a4, $zero, 419
	pcaddu18i	$ra, %call36(_ZN9benchmark8internal12CheckHandlerC2EPKcS3_S3_i)
	jirl	$ra, $ra, 0
.Ltmp363:                               # EH_LABEL
# %bb.3:
	ld.d	$s6, $sp, 168
	b	.LBB7_5
.LBB7_4:
	pcalau12i	$a0, %pc_hi20(_ZGVZN9benchmark8internal18GetNullLogInstanceEvE8null_log)
	ld.b	$a0, $a0, %pc_lo12(_ZGVZN9benchmark8internal18GetNullLogInstanceEvE8null_log)
	dbar	20
	pcalau12i	$a1, %pc_hi20(_ZZN9benchmark8internal18GetNullLogInstanceEvE8null_log)
	addi.d	$s6, $a1, %pc_lo12(_ZZN9benchmark8internal18GetNullLogInstanceEvE8null_log)
	beqz	$a0, .LBB7_523
.LBB7_5:                                # %_ZN9benchmark8internal18GetNullLogInstanceEv.exit
	ld.d	$a0, $s6, 0
	beqz	$a0, .LBB7_37
# %bb.6:
.Ltmp364:                               # EH_LABEL
	pcalau12i	$a1, %pc_hi20(.L.str.102)
	addi.d	$a1, $a1, %pc_lo12(.L.str.102)
	ori	$a2, $zero, 1
	pcaddu18i	$ra, %call36(_ZSt16__ostream_insertIcSt11char_traitsIcEERSt13basic_ostreamIT_T0_ES6_PKS3_l)
	jirl	$ra, $ra, 0
.Ltmp365:                               # EH_LABEL
# %bb.7:                                # %_ZN9benchmark8internallsIA2_cEERNS0_7LogTypeES4_RKT_.exit
	ld.d	$a0, $s6, 0
	beqz	$a0, .LBB7_37
# %bb.8:
.Ltmp366:                               # EH_LABEL
	pcalau12i	$a1, %pc_hi20(.L.str.101)
	addi.d	$a1, $a1, %pc_lo12(.L.str.101)
	ori	$a2, $zero, 148
	pcaddu18i	$ra, %call36(_ZSt16__ostream_insertIcSt11char_traitsIcEERSt13basic_ostreamIT_T0_ES6_PKS3_l)
	jirl	$ra, $ra, 0
.Ltmp367:                               # EH_LABEL
# %bb.9:                                # %_ZN9benchmark8internallsIA149_cEERNS0_7LogTypeES4_RKT_.exit
	ld.d	$a0, $s6, 0
	beqz	$a0, .LBB7_37
# %bb.10:
.Ltmp368:                               # EH_LABEL
	pcalau12i	$a1, %pc_hi20(.L.str.103)
	addi.d	$a1, $a1, %pc_lo12(.L.str.103)
	ori	$a2, $zero, 1
	pcaddu18i	$ra, %call36(_ZSt16__ostream_insertIcSt11char_traitsIcEERSt13basic_ostreamIT_T0_ES6_PKS3_l)
	jirl	$ra, $ra, 0
.Ltmp369:                               # EH_LABEL
# %bb.11:                               # %_ZN9benchmark8internallsIA2_cEERNS0_7LogTypeES4_RKT_.exit345
	ld.d	$a0, $s6, 0
	beqz	$a0, .LBB7_37
# %bb.12:
.Ltmp371:                               # EH_LABEL
	ori	$a1, $zero, 419
	pcaddu18i	$ra, %call36(_ZNSolsEi)
	jirl	$ra, $ra, 0
.Ltmp372:                               # EH_LABEL
# %bb.13:                               # %_ZN9benchmark8internallsIiEERNS0_7LogTypeES3_RKT_.exit
	ld.d	$a0, $s6, 0
	beqz	$a0, .LBB7_37
# %bb.14:
.Ltmp373:                               # EH_LABEL
	pcalau12i	$a1, %pc_hi20(.L.str.104)
	addi.d	$a1, $a1, %pc_lo12(.L.str.104)
	ori	$a2, $zero, 2
	pcaddu18i	$ra, %call36(_ZSt16__ostream_insertIcSt11char_traitsIcEERSt13basic_ostreamIT_T0_ES6_PKS3_l)
	jirl	$ra, $ra, 0
.Ltmp374:                               # EH_LABEL
# %bb.15:                               # %_ZN9benchmark8internallsIA3_cEERNS0_7LogTypeES4_RKT_.exit
	ld.d	$a0, $s6, 0
	beqz	$a0, .LBB7_37
# %bb.16:
	ld.d	$a1, $fp, 0
	ld.d	$a2, $fp, 8
.Ltmp375:                               # EH_LABEL
	pcaddu18i	$ra, %call36(_ZSt16__ostream_insertIcSt11char_traitsIcEERSt13basic_ostreamIT_T0_ES6_PKS3_l)
	jirl	$ra, $ra, 0
.Ltmp376:                               # EH_LABEL
# %bb.17:                               # %_ZN9benchmark8internallsINSt7__cxx1112basic_stringIcSt11char_traitsIcESaIcEEEEERNS0_7LogTypeES9_RKT_.exit
	ld.d	$a0, $s6, 0
	beqz	$a0, .LBB7_37
# %bb.18:
.Ltmp377:                               # EH_LABEL
	pcalau12i	$a1, %pc_hi20(.L.str.105)
	addi.d	$a1, $a1, %pc_lo12(.L.str.105)
	ori	$a2, $zero, 2
	pcaddu18i	$ra, %call36(_ZSt16__ostream_insertIcSt11char_traitsIcEERSt13basic_ostreamIT_T0_ES6_PKS3_l)
	jirl	$ra, $ra, 0
.Ltmp378:                               # EH_LABEL
# %bb.19:                               # %_ZN9benchmark8internallsIA3_cEERNS0_7LogTypeES4_RKT_.exit354
	ld.d	$a0, $s6, 0
	beqz	$a0, .LBB7_37
# %bb.20:
.Ltmp379:                               # EH_LABEL
	pcalau12i	$a1, %pc_hi20(.L.str.101)
	addi.d	$a1, $a1, %pc_lo12(.L.str.101)
	ori	$a2, $zero, 148
	pcaddu18i	$ra, %call36(_ZSt16__ostream_insertIcSt11char_traitsIcEERSt13basic_ostreamIT_T0_ES6_PKS3_l)
	jirl	$ra, $ra, 0
.Ltmp380:                               # EH_LABEL
# %bb.21:                               # %_ZN9benchmark8internallsIA149_cEERNS0_7LogTypeES4_RKT_.exit357
	ld.d	$a0, $s6, 0
	beqz	$a0, .LBB7_37
# %bb.22:
.Ltmp381:                               # EH_LABEL
	pcalau12i	$a1, %pc_hi20(.L.str.103)
	addi.d	$a1, $a1, %pc_lo12(.L.str.103)
	ori	$a2, $zero, 1
	pcaddu18i	$ra, %call36(_ZSt16__ostream_insertIcSt11char_traitsIcEERSt13basic_ostreamIT_T0_ES6_PKS3_l)
	jirl	$ra, $ra, 0
.Ltmp382:                               # EH_LABEL
# %bb.23:                               # %_ZN9benchmark8internallsIA2_cEERNS0_7LogTypeES4_RKT_.exit360
	ld.d	$a0, $s6, 0
	beqz	$a0, .LBB7_37
# %bb.24:
.Ltmp384:                               # EH_LABEL
	ori	$a1, $zero, 419
	pcaddu18i	$ra, %call36(_ZNSolsEi)
	jirl	$ra, $ra, 0
.Ltmp385:                               # EH_LABEL
# %bb.25:                               # %_ZN9benchmark8internallsIiEERNS0_7LogTypeES3_RKT_.exit363
	ld.d	$a0, $s6, 0
	beqz	$a0, .LBB7_37
# %bb.26:
.Ltmp386:                               # EH_LABEL
	pcalau12i	$a1, %pc_hi20(.L.str.104)
	addi.d	$a1, $a1, %pc_lo12(.L.str.104)
	ori	$a2, $zero, 2
	pcaddu18i	$ra, %call36(_ZSt16__ostream_insertIcSt11char_traitsIcEERSt13basic_ostreamIT_T0_ES6_PKS3_l)
	jirl	$ra, $ra, 0
.Ltmp387:                               # EH_LABEL
# %bb.27:                               # %_ZN9benchmark8internallsIA3_cEERNS0_7LogTypeES4_RKT_.exit366
	ld.d	$a0, $s6, 0
	beqz	$a0, .LBB7_37
# %bb.28:
.Ltmp388:                               # EH_LABEL
	pcalau12i	$a1, %pc_hi20(.L.str.106)
	addi.d	$a1, $a1, %pc_lo12(.L.str.106)
	ori	$a2, $zero, 10
	pcaddu18i	$ra, %call36(_ZSt16__ostream_insertIcSt11char_traitsIcEERSt13basic_ostreamIT_T0_ES6_PKS3_l)
	jirl	$ra, $ra, 0
.Ltmp389:                               # EH_LABEL
# %bb.29:                               # %_ZN9benchmark8internallsIA11_cEERNS0_7LogTypeES4_RKT_.exit
	ld.d	$a0, $s6, 0
	beqz	$a0, .LBB7_37
# %bb.30:
.Ltmp390:                               # EH_LABEL
	pcalau12i	$a1, %pc_hi20(.L.str.130)
	addi.d	$a1, $a1, %pc_lo12(.L.str.130)
	ori	$a2, $zero, 6
	pcaddu18i	$ra, %call36(_ZSt16__ostream_insertIcSt11char_traitsIcEERSt13basic_ostreamIT_T0_ES6_PKS3_l)
	jirl	$ra, $ra, 0
.Ltmp391:                               # EH_LABEL
# %bb.31:                               # %_ZN9benchmark8internallsIA7_cEERNS0_7LogTypeES4_RKT_.exit
	ld.d	$a0, $s6, 0
	beqz	$a0, .LBB7_37
# %bb.32:
.Ltmp392:                               # EH_LABEL
	pcalau12i	$a1, %pc_hi20(.L.str.108)
	addi.d	$a1, $a1, %pc_lo12(.L.str.108)
	ori	$a2, $zero, 1
	pcaddu18i	$ra, %call36(_ZSt16__ostream_insertIcSt11char_traitsIcEERSt13basic_ostreamIT_T0_ES6_PKS3_l)
	jirl	$ra, $ra, 0
.Ltmp393:                               # EH_LABEL
# %bb.33:                               # %_ZN9benchmark8internallsIA2_cEERNS0_7LogTypeES4_RKT_.exit373
	ld.d	$a0, $s6, 0
	beqz	$a0, .LBB7_37
# %bb.34:
.Ltmp394:                               # EH_LABEL
	pcalau12i	$a1, %pc_hi20(.L.str.21)
	addi.d	$a1, $a1, %pc_lo12(.L.str.21)
	ori	$a2, $zero, 3
	pcaddu18i	$ra, %call36(_ZSt16__ostream_insertIcSt11char_traitsIcEERSt13basic_ostreamIT_T0_ES6_PKS3_l)
	jirl	$ra, $ra, 0
.Ltmp395:                               # EH_LABEL
# %bb.35:                               # %_ZN9benchmark8internallsIA4_cEERNS0_7LogTypeES4_RKT_.exit
	ld.d	$a0, $s6, 0
	beqz	$a0, .LBB7_37
# %bb.36:
.Ltmp396:                               # EH_LABEL
	pcalau12i	$a1, %pc_hi20(.L.str.109)
	addi.d	$a1, $a1, %pc_lo12(.L.str.109)
	ori	$a2, $zero, 1
	pcaddu18i	$ra, %call36(_ZSt16__ostream_insertIcSt11char_traitsIcEERSt13basic_ostreamIT_T0_ES6_PKS3_l)
	jirl	$ra, $ra, 0
.Ltmp397:                               # EH_LABEL
.LBB7_37:                               # %_ZN9benchmark8internallsIA2_cEERNS0_7LogTypeES4_RKT_.exit378
	addi.d	$s1, $sp, 152
	st.d	$s1, $sp, 136
	st.h	$s4, $sp, 152
	st.b	$s5, $sp, 154
	ori	$a0, $zero, 3
	st.d	$a0, $sp, 144
	st.b	$zero, $sp, 155
.Ltmp399:                               # EH_LABEL
	addi.d	$a1, $sp, 136
	move	$a0, $fp
	pcaddu18i	$ra, %call36(_ZNK7Results5GetAsIdEET_RKNSt7__cxx1112basic_stringIcSt11char_traitsIcESaIcEEE)
	jirl	$ra, $ra, 0
.Ltmp400:                               # EH_LABEL
# %bb.38:                               # %_ZNK7Results12GetCounterAsIdEET_RKNSt7__cxx1112basic_stringIcSt11char_traitsIcESaIcEEE.exit384
	ld.d	$a0, $s6, 0
	beqz	$a0, .LBB7_66
# %bb.39:
.Ltmp401:                               # EH_LABEL
	pcaddu18i	$ra, %call36(_ZNSo9_M_insertIdEERSoT_)
	jirl	$ra, $ra, 0
.Ltmp402:                               # EH_LABEL
# %bb.40:                               # %_ZN9benchmark8internallsIdEERNS0_7LogTypeES3_RKT_.exit
	ld.d	$a0, $s6, 0
	beqz	$a0, .LBB7_66
# %bb.41:
.Ltmp403:                               # EH_LABEL
	pcalau12i	$a1, %pc_hi20(.L.str.110)
	addi.d	$a1, $a1, %pc_lo12(.L.str.110)
	ori	$a2, $zero, 13
	pcaddu18i	$ra, %call36(_ZSt16__ostream_insertIcSt11char_traitsIcEERSt13basic_ostreamIT_T0_ES6_PKS3_l)
	jirl	$ra, $ra, 0
.Ltmp404:                               # EH_LABEL
# %bb.42:                               # %_ZN9benchmark8internallsIA14_cEERNS0_7LogTypeES4_RKT_.exit
	ld.d	$a0, $s6, 0
	beqz	$a0, .LBB7_66
# %bb.43:
.Ltmp406:                               # EH_LABEL
	fmov.d	$fa0, $fs1
	pcaddu18i	$ra, %call36(_ZNSo9_M_insertIdEERSoT_)
	jirl	$ra, $ra, 0
.Ltmp407:                               # EH_LABEL
# %bb.44:                               # %_ZN9benchmark8internallsIdEERNS0_7LogTypeES3_RKT_.exit391
	ld.d	$a0, $s6, 0
	beqz	$a0, .LBB7_66
# %bb.45:
.Ltmp408:                               # EH_LABEL
	pcalau12i	$a1, %pc_hi20(.L.str.102)
	addi.d	$a1, $a1, %pc_lo12(.L.str.102)
	ori	$a2, $zero, 1
	pcaddu18i	$ra, %call36(_ZSt16__ostream_insertIcSt11char_traitsIcEERSt13basic_ostreamIT_T0_ES6_PKS3_l)
	jirl	$ra, $ra, 0
.Ltmp409:                               # EH_LABEL
# %bb.46:                               # %_ZN9benchmark8internallsIA2_cEERNS0_7LogTypeES4_RKT_.exit394
	ld.d	$a0, $s6, 0
	beqz	$a0, .LBB7_66
# %bb.47:
.Ltmp410:                               # EH_LABEL
	pcalau12i	$a1, %pc_hi20(.L.str.101)
	addi.d	$a1, $a1, %pc_lo12(.L.str.101)
	ori	$a2, $zero, 148
	pcaddu18i	$ra, %call36(_ZSt16__ostream_insertIcSt11char_traitsIcEERSt13basic_ostreamIT_T0_ES6_PKS3_l)
	jirl	$ra, $ra, 0
.Ltmp411:                               # EH_LABEL
# %bb.48:                               # %_ZN9benchmark8internallsIA149_cEERNS0_7LogTypeES4_RKT_.exit397
	ld.d	$a0, $s6, 0
	beqz	$a0, .LBB7_66
# %bb.49:
.Ltmp412:                               # EH_LABEL
	pcalau12i	$a1, %pc_hi20(.L.str.103)
	addi.d	$a1, $a1, %pc_lo12(.L.str.103)
	ori	$a2, $zero, 1
	pcaddu18i	$ra, %call36(_ZSt16__ostream_insertIcSt11char_traitsIcEERSt13basic_ostreamIT_T0_ES6_PKS3_l)
	jirl	$ra, $ra, 0
.Ltmp413:                               # EH_LABEL
# %bb.50:                               # %_ZN9benchmark8internallsIA2_cEERNS0_7LogTypeES4_RKT_.exit400
	ld.d	$a0, $s6, 0
	beqz	$a0, .LBB7_66
# %bb.51:
.Ltmp415:                               # EH_LABEL
	ori	$a1, $zero, 419
	pcaddu18i	$ra, %call36(_ZNSolsEi)
	jirl	$ra, $ra, 0
.Ltmp416:                               # EH_LABEL
# %bb.52:                               # %_ZN9benchmark8internallsIiEERNS0_7LogTypeES3_RKT_.exit403
	ld.d	$a0, $s6, 0
	beqz	$a0, .LBB7_66
# %bb.53:
.Ltmp417:                               # EH_LABEL
	pcalau12i	$a1, %pc_hi20(.L.str.104)
	addi.d	$a1, $a1, %pc_lo12(.L.str.104)
	ori	$a2, $zero, 2
	pcaddu18i	$ra, %call36(_ZSt16__ostream_insertIcSt11char_traitsIcEERSt13basic_ostreamIT_T0_ES6_PKS3_l)
	jirl	$ra, $ra, 0
.Ltmp418:                               # EH_LABEL
# %bb.54:                               # %_ZN9benchmark8internallsIA3_cEERNS0_7LogTypeES4_RKT_.exit406
	ld.d	$a0, $s6, 0
	beqz	$a0, .LBB7_66
# %bb.55:
.Ltmp419:                               # EH_LABEL
	pcalau12i	$a1, %pc_hi20(.L.str.131)
	addi.d	$a1, $a1, %pc_lo12(.L.str.131)
	ori	$a2, $zero, 18
	pcaddu18i	$ra, %call36(_ZSt16__ostream_insertIcSt11char_traitsIcEERSt13basic_ostreamIT_T0_ES6_PKS3_l)
	jirl	$ra, $ra, 0
.Ltmp420:                               # EH_LABEL
# %bb.56:                               # %_ZN9benchmark8internallsIA19_cEERNS0_7LogTypeES4_RKT_.exit
	ld.d	$a0, $s6, 0
	beqz	$a0, .LBB7_66
# %bb.57:
.Ltmp422:                               # EH_LABEL
	fmov.d	$fa0, $fs0
	pcaddu18i	$ra, %call36(_ZNSo9_M_insertIdEERSoT_)
	jirl	$ra, $ra, 0
.Ltmp423:                               # EH_LABEL
# %bb.58:                               # %_ZN9benchmark8internallsIdEERNS0_7LogTypeES3_RKT_.exit411
	ld.d	$a0, $s6, 0
	beqz	$a0, .LBB7_66
# %bb.59:
.Ltmp424:                               # EH_LABEL
	pcalau12i	$a1, %pc_hi20(.L.str.132)
	addi.d	$a1, $a1, %pc_lo12(.L.str.132)
	ori	$a2, $zero, 2
	pcaddu18i	$ra, %call36(_ZSt16__ostream_insertIcSt11char_traitsIcEERSt13basic_ostreamIT_T0_ES6_PKS3_l)
	jirl	$ra, $ra, 0
.Ltmp425:                               # EH_LABEL
# %bb.60:                               # %_ZN9benchmark8internallsIA3_cEERNS0_7LogTypeES4_RKT_.exit414
	ld.d	$a0, $s6, 0
	beqz	$a0, .LBB7_66
# %bb.61:
.Ltmp427:                               # EH_LABEL
	pcalau12i	$a1, %pc_hi20(.LCPI7_1)
	fld.d	$fa0, $a1, %pc_lo12(.LCPI7_1)
	pcaddu18i	$ra, %call36(_ZNSo9_M_insertIdEERSoT_)
	jirl	$ra, $ra, 0
.Ltmp428:                               # EH_LABEL
# %bb.62:                               # %_ZN9benchmark8internallsIdEERNS0_7LogTypeES3_RKT_.exit417
	ld.d	$a0, $s6, 0
	beqz	$a0, .LBB7_66
# %bb.63:
.Ltmp429:                               # EH_LABEL
	pcalau12i	$a1, %pc_hi20(.L.str.133)
	addi.d	$a1, $a1, %pc_lo12(.L.str.133)
	ori	$a2, $zero, 4
	pcaddu18i	$ra, %call36(_ZSt16__ostream_insertIcSt11char_traitsIcEERSt13basic_ostreamIT_T0_ES6_PKS3_l)
	jirl	$ra, $ra, 0
.Ltmp430:                               # EH_LABEL
# %bb.64:                               # %_ZN9benchmark8internallsIA5_cEERNS0_7LogTypeES4_RKT_.exit
	ld.d	$a0, $s6, 0
	beqz	$a0, .LBB7_66
# %bb.65:
.Ltmp431:                               # EH_LABEL
	pcalau12i	$a1, %pc_hi20(.L.str.134)
	addi.d	$a1, $a1, %pc_lo12(.L.str.134)
	ori	$a2, $zero, 14
	pcaddu18i	$ra, %call36(_ZSt16__ostream_insertIcSt11char_traitsIcEERSt13basic_ostreamIT_T0_ES6_PKS3_l)
	jirl	$ra, $ra, 0
.Ltmp432:                               # EH_LABEL
.LBB7_66:                               # %_ZN9benchmark8internallsIA15_cEERNS0_7LogTypeES4_RKT_.exit
	addi.d	$s2, $sp, 120
	st.d	$s2, $sp, 104
	st.h	$s4, $sp, 120
	st.b	$s5, $sp, 122
	ori	$a0, $zero, 3
	st.d	$a0, $sp, 112
	st.b	$zero, $sp, 123
.Ltmp434:                               # EH_LABEL
	addi.d	$a1, $sp, 104
	move	$a0, $fp
	pcaddu18i	$ra, %call36(_ZNK7Results5GetAsIdEET_RKNSt7__cxx1112basic_stringIcSt11char_traitsIcESaIcEEE)
	jirl	$ra, $ra, 0
.Ltmp435:                               # EH_LABEL
# %bb.67:                               # %_ZNK7Results12GetCounterAsIdEET_RKNSt7__cxx1112basic_stringIcSt11char_traitsIcESaIcEEE.exit427
	ld.d	$a0, $s6, 0
	beqz	$a0, .LBB7_71
# %bb.68:
	fsub.d	$fa0, $fa0, $fs1
.Ltmp436:                               # EH_LABEL
	pcaddu18i	$ra, %call36(_ZNSo9_M_insertIdEERSoT_)
	jirl	$ra, $ra, 0
.Ltmp437:                               # EH_LABEL
# %bb.69:                               # %_ZN9benchmark8internallsIdEERNS0_7LogTypeES3_RKT_.exit430
	ld.d	$a0, $s6, 0
	beqz	$a0, .LBB7_71
# %bb.70:
.Ltmp438:                               # EH_LABEL
	pcalau12i	$a1, %pc_hi20(.L.str.132)
	addi.d	$a1, $a1, %pc_lo12(.L.str.132)
	ori	$a2, $zero, 2
	pcaddu18i	$ra, %call36(_ZSt16__ostream_insertIcSt11char_traitsIcEERSt13basic_ostreamIT_T0_ES6_PKS3_l)
	jirl	$ra, $ra, 0
.Ltmp439:                               # EH_LABEL
.LBB7_71:                               # %_ZN9benchmark8internallsIA3_cEERNS0_7LogTypeES4_RKT_.exit433
	addi.d	$s3, $sp, 88
	st.d	$s3, $sp, 72
	st.h	$s4, $sp, 88
	st.b	$s5, $sp, 90
	ori	$a0, $zero, 3
	st.d	$a0, $sp, 80
	st.b	$zero, $sp, 91
.Ltmp441:                               # EH_LABEL
	addi.d	$a1, $sp, 72
	move	$a0, $fp
	pcaddu18i	$ra, %call36(_ZNK7Results5GetAsIdEET_RKNSt7__cxx1112basic_stringIcSt11char_traitsIcESaIcEEE)
	jirl	$ra, $ra, 0
.Ltmp442:                               # EH_LABEL
# %bb.72:                               # %_ZNK7Results12GetCounterAsIdEET_RKNSt7__cxx1112basic_stringIcSt11char_traitsIcESaIcEEE.exit439
	ld.d	$a0, $s6, 0
	pcalau12i	$s5, %pc_hi20(.LCPI7_2)
	pcalau12i	$s4, %pc_hi20(.LCPI7_3)
	beqz	$a0, .LBB7_76
# %bb.73:
	fld.d	$fa1, $s5, %pc_lo12(.LCPI7_2)
	fsub.d	$fa0, $fa0, $fs1
	fabs.d	$fa2, $fs1
	fld.d	$fa3, $s4, %pc_lo12(.LCPI7_3)
	fcmp.clt.d	$fcc0, $fa1, $fa2
	fsel	$fa1, $fa1, $fs1, $fcc0
	fdiv.d	$fa0, $fa0, $fa1
	fmul.d	$fa0, $fa0, $fa3
.Ltmp443:                               # EH_LABEL
	pcaddu18i	$ra, %call36(_ZNSo9_M_insertIdEERSoT_)
	jirl	$ra, $ra, 0
.Ltmp444:                               # EH_LABEL
# %bb.74:                               # %_ZN9benchmark8internallsIdEERNS0_7LogTypeES3_RKT_.exit442
	ld.d	$a0, $s6, 0
	beqz	$a0, .LBB7_76
# %bb.75:
.Ltmp445:                               # EH_LABEL
	pcalau12i	$a1, %pc_hi20(.L.str.135)
	addi.d	$a1, $a1, %pc_lo12(.L.str.135)
	ori	$a2, $zero, 2
	pcaddu18i	$ra, %call36(_ZSt16__ostream_insertIcSt11char_traitsIcEERSt13basic_ostreamIT_T0_ES6_PKS3_l)
	jirl	$ra, $ra, 0
.Ltmp446:                               # EH_LABEL
.LBB7_76:                               # %_ZN9benchmark8internallsIA3_cEERNS0_7LogTypeES4_RKT_.exit445
	ld.d	$a0, $sp, 72
	beq	$a0, $s3, .LBB7_78
# %bb.77:                               # %_ZNKSt7__cxx1112basic_stringIcSt11char_traitsIcESaIcEE11_M_is_localEv.exit.i.i
	ld.d	$a1, $sp, 88
	addi.d	$a1, $a1, 1
	pcaddu18i	$ra, %call36(_ZdlPvm)
	jirl	$ra, $ra, 0
.LBB7_78:                               # %_ZNSt7__cxx1112basic_stringIcSt11char_traitsIcESaIcEED2Ev.exit
	ld.d	$a0, $sp, 104
	beq	$a0, $s2, .LBB7_80
# %bb.79:                               # %_ZNKSt7__cxx1112basic_stringIcSt11char_traitsIcESaIcEE11_M_is_localEv.exit.i.i446
	ld.d	$a1, $sp, 120
	addi.d	$a1, $a1, 1
	pcaddu18i	$ra, %call36(_ZdlPvm)
	jirl	$ra, $ra, 0
.LBB7_80:                               # %_ZNSt7__cxx1112basic_stringIcSt11char_traitsIcESaIcEED2Ev.exit448
	ld.d	$a0, $sp, 136
	beq	$a0, $s1, .LBB7_82
# %bb.81:                               # %_ZNKSt7__cxx1112basic_stringIcSt11char_traitsIcESaIcEE11_M_is_localEv.exit.i.i449
	ld.d	$a1, $sp, 152
	addi.d	$a1, $a1, 1
	pcaddu18i	$ra, %call36(_ZdlPvm)
	jirl	$ra, $ra, 0
.LBB7_82:                               # %_ZNSt7__cxx1112basic_stringIcSt11char_traitsIcESaIcEED2Ev.exit451
	fcmp.clt.d	$fcc0, $fs4, $fs0
	bceqz	$fcc0, .LBB7_511
# %bb.83:
	ld.d	$a0, $sp, 176
	beq	$a0, $s0, .LBB7_85
# %bb.84:                               # %_ZNKSt7__cxx1112basic_stringIcSt11char_traitsIcESaIcEE11_M_is_localEv.exit.i.i461
	ld.d	$a1, $sp, 192
	addi.d	$a1, $a1, 1
	pcaddu18i	$ra, %call36(_ZdlPvm)
	jirl	$ra, $ra, 0
.LBB7_85:                               # %_ZNSt7__cxx1112basic_stringIcSt11char_traitsIcESaIcEED2Ev.exit463
	st.d	$s0, $sp, 176
	pcalau12i	$a0, %pc_hi20(.L.str.22)
	addi.d	$a0, $a0, %pc_lo12(.L.str.22)
	ld.h	$s6, $a0, 0
	ld.b	$s7, $a0, 2
	st.h	$s6, $sp, 192
	st.b	$s7, $sp, 194
	ori	$a0, $zero, 3
	st.d	$a0, $sp, 184
	st.b	$zero, $sp, 195
.Ltmp448:                               # EH_LABEL
	addi.d	$a1, $sp, 176
	move	$a0, $fp
	pcaddu18i	$ra, %call36(_ZNK7Results5GetAsIdEET_RKNSt7__cxx1112basic_stringIcSt11char_traitsIcESaIcEEE)
	jirl	$ra, $ra, 0
.Ltmp449:                               # EH_LABEL
# %bb.86:                               # %_ZNK7Results12GetCounterAsIdEET_RKNSt7__cxx1112basic_stringIcSt11char_traitsIcESaIcEEE.exit469
	vldi	$vr1, -1024
	fdiv.d	$fs1, $fa1, $fs2
	fsub.d	$fa0, $fa0, $fs1
	fabs.d	$fs4, $fa0
	fmul.d	$fs0, $fs1, $fs3
	fcmp.cule.d	$fcc0, $fs0, $fs4
	movcf2gr	$a0, $fcc0
	st.d	$a0, $sp, 24
	bceqz	$fcc0, .LBB7_89
# %bb.87:
.Ltmp451:                               # EH_LABEL
	pcalau12i	$a0, %pc_hi20(.L.str.136)
	addi.d	$a1, $a0, %pc_lo12(.L.str.136)
	pcalau12i	$a0, %pc_hi20(.L.str.101)
	addi.d	$a2, $a0, %pc_lo12(.L.str.101)
	pcalau12i	$a0, %pc_hi20(.L__func__._Z16CheckTabularRateRK7Results)
	addi.d	$a3, $a0, %pc_lo12(.L__func__._Z16CheckTabularRateRK7Results)
	addi.d	$a0, $sp, 64
	ori	$a4, $zero, 420
	pcaddu18i	$ra, %call36(_ZN9benchmark8internal12CheckHandlerC2EPKcS3_S3_i)
	jirl	$ra, $ra, 0
.Ltmp452:                               # EH_LABEL
# %bb.88:
	ld.d	$s8, $sp, 64
	b	.LBB7_90
.LBB7_89:
	pcalau12i	$a0, %pc_hi20(_ZGVZN9benchmark8internal18GetNullLogInstanceEvE8null_log)
	ld.b	$a0, $a0, %pc_lo12(_ZGVZN9benchmark8internal18GetNullLogInstanceEvE8null_log)
	dbar	20
	pcalau12i	$a1, %pc_hi20(_ZZN9benchmark8internal18GetNullLogInstanceEvE8null_log)
	addi.d	$s8, $a1, %pc_lo12(_ZZN9benchmark8internal18GetNullLogInstanceEvE8null_log)
	beqz	$a0, .LBB7_525
.LBB7_90:                               # %_ZN9benchmark8internal18GetNullLogInstanceEv.exit471
	ld.d	$a0, $s8, 0
	beqz	$a0, .LBB7_122
# %bb.91:
.Ltmp453:                               # EH_LABEL
	pcalau12i	$a1, %pc_hi20(.L.str.102)
	addi.d	$a1, $a1, %pc_lo12(.L.str.102)
	ori	$a2, $zero, 1
	pcaddu18i	$ra, %call36(_ZSt16__ostream_insertIcSt11char_traitsIcEERSt13basic_ostreamIT_T0_ES6_PKS3_l)
	jirl	$ra, $ra, 0
.Ltmp454:                               # EH_LABEL
# %bb.92:                               # %_ZN9benchmark8internallsIA2_cEERNS0_7LogTypeES4_RKT_.exit474
	ld.d	$a0, $s8, 0
	beqz	$a0, .LBB7_122
# %bb.93:
.Ltmp455:                               # EH_LABEL
	pcalau12i	$a1, %pc_hi20(.L.str.101)
	addi.d	$a1, $a1, %pc_lo12(.L.str.101)
	ori	$a2, $zero, 148
	pcaddu18i	$ra, %call36(_ZSt16__ostream_insertIcSt11char_traitsIcEERSt13basic_ostreamIT_T0_ES6_PKS3_l)
	jirl	$ra, $ra, 0
.Ltmp456:                               # EH_LABEL
# %bb.94:                               # %_ZN9benchmark8internallsIA149_cEERNS0_7LogTypeES4_RKT_.exit477
	ld.d	$a0, $s8, 0
	beqz	$a0, .LBB7_122
# %bb.95:
.Ltmp457:                               # EH_LABEL
	pcalau12i	$a1, %pc_hi20(.L.str.103)
	addi.d	$a1, $a1, %pc_lo12(.L.str.103)
	ori	$a2, $zero, 1
	pcaddu18i	$ra, %call36(_ZSt16__ostream_insertIcSt11char_traitsIcEERSt13basic_ostreamIT_T0_ES6_PKS3_l)
	jirl	$ra, $ra, 0
.Ltmp458:                               # EH_LABEL
# %bb.96:                               # %_ZN9benchmark8internallsIA2_cEERNS0_7LogTypeES4_RKT_.exit480
	ld.d	$a0, $s8, 0
	beqz	$a0, .LBB7_122
# %bb.97:
.Ltmp460:                               # EH_LABEL
	ori	$a1, $zero, 420
	pcaddu18i	$ra, %call36(_ZNSolsEi)
	jirl	$ra, $ra, 0
.Ltmp461:                               # EH_LABEL
# %bb.98:                               # %_ZN9benchmark8internallsIiEERNS0_7LogTypeES3_RKT_.exit483
	ld.d	$a0, $s8, 0
	beqz	$a0, .LBB7_122
# %bb.99:
.Ltmp462:                               # EH_LABEL
	pcalau12i	$a1, %pc_hi20(.L.str.104)
	addi.d	$a1, $a1, %pc_lo12(.L.str.104)
	ori	$a2, $zero, 2
	pcaddu18i	$ra, %call36(_ZSt16__ostream_insertIcSt11char_traitsIcEERSt13basic_ostreamIT_T0_ES6_PKS3_l)
	jirl	$ra, $ra, 0
.Ltmp463:                               # EH_LABEL
# %bb.100:                              # %_ZN9benchmark8internallsIA3_cEERNS0_7LogTypeES4_RKT_.exit486
	ld.d	$a0, $s8, 0
	beqz	$a0, .LBB7_122
# %bb.101:
	ld.d	$a1, $fp, 0
	ld.d	$a2, $fp, 8
.Ltmp464:                               # EH_LABEL
	pcaddu18i	$ra, %call36(_ZSt16__ostream_insertIcSt11char_traitsIcEERSt13basic_ostreamIT_T0_ES6_PKS3_l)
	jirl	$ra, $ra, 0
.Ltmp465:                               # EH_LABEL
# %bb.102:                              # %_ZN9benchmark8internallsINSt7__cxx1112basic_stringIcSt11char_traitsIcESaIcEEEEERNS0_7LogTypeES9_RKT_.exit489
	ld.d	$a0, $s8, 0
	beqz	$a0, .LBB7_122
# %bb.103:
.Ltmp466:                               # EH_LABEL
	pcalau12i	$a1, %pc_hi20(.L.str.105)
	addi.d	$a1, $a1, %pc_lo12(.L.str.105)
	ori	$a2, $zero, 2
	pcaddu18i	$ra, %call36(_ZSt16__ostream_insertIcSt11char_traitsIcEERSt13basic_ostreamIT_T0_ES6_PKS3_l)
	jirl	$ra, $ra, 0
.Ltmp467:                               # EH_LABEL
# %bb.104:                              # %_ZN9benchmark8internallsIA3_cEERNS0_7LogTypeES4_RKT_.exit492
	ld.d	$a0, $s8, 0
	beqz	$a0, .LBB7_122
# %bb.105:
.Ltmp468:                               # EH_LABEL
	pcalau12i	$a1, %pc_hi20(.L.str.101)
	addi.d	$a1, $a1, %pc_lo12(.L.str.101)
	ori	$a2, $zero, 148
	pcaddu18i	$ra, %call36(_ZSt16__ostream_insertIcSt11char_traitsIcEERSt13basic_ostreamIT_T0_ES6_PKS3_l)
	jirl	$ra, $ra, 0
.Ltmp469:                               # EH_LABEL
# %bb.106:                              # %_ZN9benchmark8internallsIA149_cEERNS0_7LogTypeES4_RKT_.exit495
	ld.d	$a0, $s8, 0
	beqz	$a0, .LBB7_122
# %bb.107:
.Ltmp470:                               # EH_LABEL
	pcalau12i	$a1, %pc_hi20(.L.str.103)
	addi.d	$a1, $a1, %pc_lo12(.L.str.103)
	ori	$a2, $zero, 1
	pcaddu18i	$ra, %call36(_ZSt16__ostream_insertIcSt11char_traitsIcEERSt13basic_ostreamIT_T0_ES6_PKS3_l)
	jirl	$ra, $ra, 0
.Ltmp471:                               # EH_LABEL
# %bb.108:                              # %_ZN9benchmark8internallsIA2_cEERNS0_7LogTypeES4_RKT_.exit498
	ld.d	$a0, $s8, 0
	beqz	$a0, .LBB7_122
# %bb.109:
.Ltmp473:                               # EH_LABEL
	ori	$a1, $zero, 420
	pcaddu18i	$ra, %call36(_ZNSolsEi)
	jirl	$ra, $ra, 0
.Ltmp474:                               # EH_LABEL
# %bb.110:                              # %_ZN9benchmark8internallsIiEERNS0_7LogTypeES3_RKT_.exit501
	ld.d	$a0, $s8, 0
	beqz	$a0, .LBB7_122
# %bb.111:
.Ltmp475:                               # EH_LABEL
	pcalau12i	$a1, %pc_hi20(.L.str.104)
	addi.d	$a1, $a1, %pc_lo12(.L.str.104)
	ori	$a2, $zero, 2
	pcaddu18i	$ra, %call36(_ZSt16__ostream_insertIcSt11char_traitsIcEERSt13basic_ostreamIT_T0_ES6_PKS3_l)
	jirl	$ra, $ra, 0
.Ltmp476:                               # EH_LABEL
# %bb.112:                              # %_ZN9benchmark8internallsIA3_cEERNS0_7LogTypeES4_RKT_.exit504
	ld.d	$a0, $s8, 0
	beqz	$a0, .LBB7_122
# %bb.113:
.Ltmp477:                               # EH_LABEL
	pcalau12i	$a1, %pc_hi20(.L.str.106)
	addi.d	$a1, $a1, %pc_lo12(.L.str.106)
	ori	$a2, $zero, 10
	pcaddu18i	$ra, %call36(_ZSt16__ostream_insertIcSt11char_traitsIcEERSt13basic_ostreamIT_T0_ES6_PKS3_l)
	jirl	$ra, $ra, 0
.Ltmp478:                               # EH_LABEL
# %bb.114:                              # %_ZN9benchmark8internallsIA11_cEERNS0_7LogTypeES4_RKT_.exit507
	ld.d	$a0, $s8, 0
	beqz	$a0, .LBB7_122
# %bb.115:
.Ltmp479:                               # EH_LABEL
	pcalau12i	$a1, %pc_hi20(.L.str.130)
	addi.d	$a1, $a1, %pc_lo12(.L.str.130)
	ori	$a2, $zero, 6
	pcaddu18i	$ra, %call36(_ZSt16__ostream_insertIcSt11char_traitsIcEERSt13basic_ostreamIT_T0_ES6_PKS3_l)
	jirl	$ra, $ra, 0
.Ltmp480:                               # EH_LABEL
# %bb.116:                              # %_ZN9benchmark8internallsIA7_cEERNS0_7LogTypeES4_RKT_.exit510
	ld.d	$a0, $s8, 0
	beqz	$a0, .LBB7_122
# %bb.117:
.Ltmp481:                               # EH_LABEL
	pcalau12i	$a1, %pc_hi20(.L.str.108)
	addi.d	$a1, $a1, %pc_lo12(.L.str.108)
	ori	$a2, $zero, 1
	pcaddu18i	$ra, %call36(_ZSt16__ostream_insertIcSt11char_traitsIcEERSt13basic_ostreamIT_T0_ES6_PKS3_l)
	jirl	$ra, $ra, 0
.Ltmp482:                               # EH_LABEL
# %bb.118:                              # %_ZN9benchmark8internallsIA2_cEERNS0_7LogTypeES4_RKT_.exit513
	ld.d	$a0, $s8, 0
	beqz	$a0, .LBB7_122
# %bb.119:
.Ltmp483:                               # EH_LABEL
	pcalau12i	$a1, %pc_hi20(.L.str.22)
	addi.d	$a1, $a1, %pc_lo12(.L.str.22)
	ori	$a2, $zero, 3
	pcaddu18i	$ra, %call36(_ZSt16__ostream_insertIcSt11char_traitsIcEERSt13basic_ostreamIT_T0_ES6_PKS3_l)
	jirl	$ra, $ra, 0
.Ltmp484:                               # EH_LABEL
# %bb.120:                              # %_ZN9benchmark8internallsIA4_cEERNS0_7LogTypeES4_RKT_.exit516
	ld.d	$a0, $s8, 0
	beqz	$a0, .LBB7_122
# %bb.121:
.Ltmp485:                               # EH_LABEL
	pcalau12i	$a1, %pc_hi20(.L.str.109)
	addi.d	$a1, $a1, %pc_lo12(.L.str.109)
	ori	$a2, $zero, 1
	pcaddu18i	$ra, %call36(_ZSt16__ostream_insertIcSt11char_traitsIcEERSt13basic_ostreamIT_T0_ES6_PKS3_l)
	jirl	$ra, $ra, 0
.Ltmp486:                               # EH_LABEL
.LBB7_122:                              # %_ZN9benchmark8internallsIA2_cEERNS0_7LogTypeES4_RKT_.exit519
	st.d	$s1, $sp, 136
	st.h	$s6, $sp, 152
	st.b	$s7, $sp, 154
	ori	$a0, $zero, 3
	st.d	$a0, $sp, 144
	st.b	$zero, $sp, 155
.Ltmp488:                               # EH_LABEL
	addi.d	$a1, $sp, 136
	move	$a0, $fp
	pcaddu18i	$ra, %call36(_ZNK7Results5GetAsIdEET_RKNSt7__cxx1112basic_stringIcSt11char_traitsIcESaIcEEE)
	jirl	$ra, $ra, 0
.Ltmp489:                               # EH_LABEL
# %bb.123:                              # %_ZNK7Results12GetCounterAsIdEET_RKNSt7__cxx1112basic_stringIcSt11char_traitsIcESaIcEEE.exit525
	ld.d	$a0, $s8, 0
	beqz	$a0, .LBB7_151
# %bb.124:
.Ltmp490:                               # EH_LABEL
	pcaddu18i	$ra, %call36(_ZNSo9_M_insertIdEERSoT_)
	jirl	$ra, $ra, 0
.Ltmp491:                               # EH_LABEL
# %bb.125:                              # %_ZN9benchmark8internallsIdEERNS0_7LogTypeES3_RKT_.exit528
	ld.d	$a0, $s8, 0
	beqz	$a0, .LBB7_151
# %bb.126:
.Ltmp492:                               # EH_LABEL
	pcalau12i	$a1, %pc_hi20(.L.str.110)
	addi.d	$a1, $a1, %pc_lo12(.L.str.110)
	ori	$a2, $zero, 13
	pcaddu18i	$ra, %call36(_ZSt16__ostream_insertIcSt11char_traitsIcEERSt13basic_ostreamIT_T0_ES6_PKS3_l)
	jirl	$ra, $ra, 0
.Ltmp493:                               # EH_LABEL
# %bb.127:                              # %_ZN9benchmark8internallsIA14_cEERNS0_7LogTypeES4_RKT_.exit531
	ld.d	$a0, $s8, 0
	beqz	$a0, .LBB7_151
# %bb.128:
.Ltmp495:                               # EH_LABEL
	fmov.d	$fa0, $fs1
	pcaddu18i	$ra, %call36(_ZNSo9_M_insertIdEERSoT_)
	jirl	$ra, $ra, 0
.Ltmp496:                               # EH_LABEL
# %bb.129:                              # %_ZN9benchmark8internallsIdEERNS0_7LogTypeES3_RKT_.exit534
	ld.d	$a0, $s8, 0
	beqz	$a0, .LBB7_151
# %bb.130:
.Ltmp497:                               # EH_LABEL
	pcalau12i	$a1, %pc_hi20(.L.str.102)
	addi.d	$a1, $a1, %pc_lo12(.L.str.102)
	ori	$a2, $zero, 1
	pcaddu18i	$ra, %call36(_ZSt16__ostream_insertIcSt11char_traitsIcEERSt13basic_ostreamIT_T0_ES6_PKS3_l)
	jirl	$ra, $ra, 0
.Ltmp498:                               # EH_LABEL
# %bb.131:                              # %_ZN9benchmark8internallsIA2_cEERNS0_7LogTypeES4_RKT_.exit537
	ld.d	$a0, $s8, 0
	beqz	$a0, .LBB7_151
# %bb.132:
.Ltmp499:                               # EH_LABEL
	pcalau12i	$a1, %pc_hi20(.L.str.101)
	addi.d	$a1, $a1, %pc_lo12(.L.str.101)
	ori	$a2, $zero, 148
	pcaddu18i	$ra, %call36(_ZSt16__ostream_insertIcSt11char_traitsIcEERSt13basic_ostreamIT_T0_ES6_PKS3_l)
	jirl	$ra, $ra, 0
.Ltmp500:                               # EH_LABEL
# %bb.133:                              # %_ZN9benchmark8internallsIA149_cEERNS0_7LogTypeES4_RKT_.exit540
	ld.d	$a0, $s8, 0
	beqz	$a0, .LBB7_151
# %bb.134:
.Ltmp501:                               # EH_LABEL
	pcalau12i	$a1, %pc_hi20(.L.str.103)
	addi.d	$a1, $a1, %pc_lo12(.L.str.103)
	ori	$a2, $zero, 1
	pcaddu18i	$ra, %call36(_ZSt16__ostream_insertIcSt11char_traitsIcEERSt13basic_ostreamIT_T0_ES6_PKS3_l)
	jirl	$ra, $ra, 0
.Ltmp502:                               # EH_LABEL
# %bb.135:                              # %_ZN9benchmark8internallsIA2_cEERNS0_7LogTypeES4_RKT_.exit543
	ld.d	$a0, $s8, 0
	beqz	$a0, .LBB7_151
# %bb.136:
.Ltmp504:                               # EH_LABEL
	ori	$a1, $zero, 420
	pcaddu18i	$ra, %call36(_ZNSolsEi)
	jirl	$ra, $ra, 0
.Ltmp505:                               # EH_LABEL
# %bb.137:                              # %_ZN9benchmark8internallsIiEERNS0_7LogTypeES3_RKT_.exit546
	ld.d	$a0, $s8, 0
	beqz	$a0, .LBB7_151
# %bb.138:
.Ltmp506:                               # EH_LABEL
	pcalau12i	$a1, %pc_hi20(.L.str.104)
	addi.d	$a1, $a1, %pc_lo12(.L.str.104)
	ori	$a2, $zero, 2
	pcaddu18i	$ra, %call36(_ZSt16__ostream_insertIcSt11char_traitsIcEERSt13basic_ostreamIT_T0_ES6_PKS3_l)
	jirl	$ra, $ra, 0
.Ltmp507:                               # EH_LABEL
# %bb.139:                              # %_ZN9benchmark8internallsIA3_cEERNS0_7LogTypeES4_RKT_.exit549
	ld.d	$a0, $s8, 0
	beqz	$a0, .LBB7_151
# %bb.140:
.Ltmp508:                               # EH_LABEL
	pcalau12i	$a1, %pc_hi20(.L.str.131)
	addi.d	$a1, $a1, %pc_lo12(.L.str.131)
	ori	$a2, $zero, 18
	pcaddu18i	$ra, %call36(_ZSt16__ostream_insertIcSt11char_traitsIcEERSt13basic_ostreamIT_T0_ES6_PKS3_l)
	jirl	$ra, $ra, 0
.Ltmp509:                               # EH_LABEL
# %bb.141:                              # %_ZN9benchmark8internallsIA19_cEERNS0_7LogTypeES4_RKT_.exit552
	ld.d	$a0, $s8, 0
	beqz	$a0, .LBB7_151
# %bb.142:
.Ltmp511:                               # EH_LABEL
	fmov.d	$fa0, $fs0
	pcaddu18i	$ra, %call36(_ZNSo9_M_insertIdEERSoT_)
	jirl	$ra, $ra, 0
.Ltmp512:                               # EH_LABEL
# %bb.143:                              # %_ZN9benchmark8internallsIdEERNS0_7LogTypeES3_RKT_.exit555
	ld.d	$a0, $s8, 0
	beqz	$a0, .LBB7_151
# %bb.144:
.Ltmp513:                               # EH_LABEL
	pcalau12i	$a1, %pc_hi20(.L.str.132)
	addi.d	$a1, $a1, %pc_lo12(.L.str.132)
	ori	$a2, $zero, 2
	pcaddu18i	$ra, %call36(_ZSt16__ostream_insertIcSt11char_traitsIcEERSt13basic_ostreamIT_T0_ES6_PKS3_l)
	jirl	$ra, $ra, 0
.Ltmp514:                               # EH_LABEL
# %bb.145:                              # %_ZN9benchmark8internallsIA3_cEERNS0_7LogTypeES4_RKT_.exit558
	ld.d	$a0, $s8, 0
	beqz	$a0, .LBB7_151
# %bb.146:
.Ltmp516:                               # EH_LABEL
	pcalau12i	$a1, %pc_hi20(.LCPI7_1)
	fld.d	$fa0, $a1, %pc_lo12(.LCPI7_1)
	pcaddu18i	$ra, %call36(_ZNSo9_M_insertIdEERSoT_)
	jirl	$ra, $ra, 0
.Ltmp517:                               # EH_LABEL
# %bb.147:                              # %_ZN9benchmark8internallsIdEERNS0_7LogTypeES3_RKT_.exit561
	ld.d	$a0, $s8, 0
	beqz	$a0, .LBB7_151
# %bb.148:
.Ltmp518:                               # EH_LABEL
	pcalau12i	$a1, %pc_hi20(.L.str.133)
	addi.d	$a1, $a1, %pc_lo12(.L.str.133)
	ori	$a2, $zero, 4
	pcaddu18i	$ra, %call36(_ZSt16__ostream_insertIcSt11char_traitsIcEERSt13basic_ostreamIT_T0_ES6_PKS3_l)
	jirl	$ra, $ra, 0
.Ltmp519:                               # EH_LABEL
# %bb.149:                              # %_ZN9benchmark8internallsIA5_cEERNS0_7LogTypeES4_RKT_.exit564
	ld.d	$a0, $s8, 0
	beqz	$a0, .LBB7_151
# %bb.150:
.Ltmp520:                               # EH_LABEL
	pcalau12i	$a1, %pc_hi20(.L.str.134)
	addi.d	$a1, $a1, %pc_lo12(.L.str.134)
	ori	$a2, $zero, 14
	pcaddu18i	$ra, %call36(_ZSt16__ostream_insertIcSt11char_traitsIcEERSt13basic_ostreamIT_T0_ES6_PKS3_l)
	jirl	$ra, $ra, 0
.Ltmp521:                               # EH_LABEL
.LBB7_151:                              # %_ZN9benchmark8internallsIA15_cEERNS0_7LogTypeES4_RKT_.exit567
	st.d	$s2, $sp, 104
	st.h	$s6, $sp, 120
	st.b	$s7, $sp, 122
	ori	$a0, $zero, 3
	st.d	$a0, $sp, 112
	st.b	$zero, $sp, 123
.Ltmp523:                               # EH_LABEL
	addi.d	$a1, $sp, 104
	move	$a0, $fp
	pcaddu18i	$ra, %call36(_ZNK7Results5GetAsIdEET_RKNSt7__cxx1112basic_stringIcSt11char_traitsIcESaIcEEE)
	jirl	$ra, $ra, 0
.Ltmp524:                               # EH_LABEL
# %bb.152:                              # %_ZNK7Results12GetCounterAsIdEET_RKNSt7__cxx1112basic_stringIcSt11char_traitsIcESaIcEEE.exit573
	ld.d	$a0, $s8, 0
	beqz	$a0, .LBB7_156
# %bb.153:
	fsub.d	$fa0, $fa0, $fs1
.Ltmp525:                               # EH_LABEL
	pcaddu18i	$ra, %call36(_ZNSo9_M_insertIdEERSoT_)
	jirl	$ra, $ra, 0
.Ltmp526:                               # EH_LABEL
# %bb.154:                              # %_ZN9benchmark8internallsIdEERNS0_7LogTypeES3_RKT_.exit576
	ld.d	$a0, $s8, 0
	beqz	$a0, .LBB7_156
# %bb.155:
.Ltmp527:                               # EH_LABEL
	pcalau12i	$a1, %pc_hi20(.L.str.132)
	addi.d	$a1, $a1, %pc_lo12(.L.str.132)
	ori	$a2, $zero, 2
	pcaddu18i	$ra, %call36(_ZSt16__ostream_insertIcSt11char_traitsIcEERSt13basic_ostreamIT_T0_ES6_PKS3_l)
	jirl	$ra, $ra, 0
.Ltmp528:                               # EH_LABEL
.LBB7_156:                              # %_ZN9benchmark8internallsIA3_cEERNS0_7LogTypeES4_RKT_.exit579
	st.d	$s3, $sp, 72
	st.h	$s6, $sp, 88
	st.b	$s7, $sp, 90
	ori	$a0, $zero, 3
	st.d	$a0, $sp, 80
	st.b	$zero, $sp, 91
.Ltmp530:                               # EH_LABEL
	addi.d	$a1, $sp, 72
	move	$a0, $fp
	pcaddu18i	$ra, %call36(_ZNK7Results5GetAsIdEET_RKNSt7__cxx1112basic_stringIcSt11char_traitsIcESaIcEEE)
	jirl	$ra, $ra, 0
.Ltmp531:                               # EH_LABEL
# %bb.157:                              # %_ZNK7Results12GetCounterAsIdEET_RKNSt7__cxx1112basic_stringIcSt11char_traitsIcESaIcEEE.exit585
	ld.d	$a0, $s8, 0
	beqz	$a0, .LBB7_161
# %bb.158:
	fld.d	$fa1, $s5, %pc_lo12(.LCPI7_2)
	fsub.d	$fa0, $fa0, $fs1
	fabs.d	$fa2, $fs1
	fld.d	$fa3, $s4, %pc_lo12(.LCPI7_3)
	fcmp.clt.d	$fcc0, $fa1, $fa2
	fsel	$fa1, $fa1, $fs1, $fcc0
	fdiv.d	$fa0, $fa0, $fa1
	fmul.d	$fa0, $fa0, $fa3
.Ltmp532:                               # EH_LABEL
	pcaddu18i	$ra, %call36(_ZNSo9_M_insertIdEERSoT_)
	jirl	$ra, $ra, 0
.Ltmp533:                               # EH_LABEL
# %bb.159:                              # %_ZN9benchmark8internallsIdEERNS0_7LogTypeES3_RKT_.exit588
	ld.d	$a0, $s8, 0
	beqz	$a0, .LBB7_161
# %bb.160:
.Ltmp534:                               # EH_LABEL
	pcalau12i	$a1, %pc_hi20(.L.str.135)
	addi.d	$a1, $a1, %pc_lo12(.L.str.135)
	ori	$a2, $zero, 2
	pcaddu18i	$ra, %call36(_ZSt16__ostream_insertIcSt11char_traitsIcEERSt13basic_ostreamIT_T0_ES6_PKS3_l)
	jirl	$ra, $ra, 0
.Ltmp535:                               # EH_LABEL
.LBB7_161:                              # %_ZN9benchmark8internallsIA3_cEERNS0_7LogTypeES4_RKT_.exit591
	ld.d	$a0, $sp, 72
	beq	$a0, $s3, .LBB7_163
# %bb.162:                              # %_ZNKSt7__cxx1112basic_stringIcSt11char_traitsIcESaIcEE11_M_is_localEv.exit.i.i592
	ld.d	$a1, $sp, 88
	addi.d	$a1, $a1, 1
	pcaddu18i	$ra, %call36(_ZdlPvm)
	jirl	$ra, $ra, 0
.LBB7_163:                              # %_ZNSt7__cxx1112basic_stringIcSt11char_traitsIcESaIcEED2Ev.exit594
	ld.d	$a0, $sp, 104
	beq	$a0, $s2, .LBB7_165
# %bb.164:                              # %_ZNKSt7__cxx1112basic_stringIcSt11char_traitsIcESaIcEE11_M_is_localEv.exit.i.i595
	ld.d	$a1, $sp, 120
	addi.d	$a1, $a1, 1
	pcaddu18i	$ra, %call36(_ZdlPvm)
	jirl	$ra, $ra, 0
.LBB7_165:                              # %_ZNSt7__cxx1112basic_stringIcSt11char_traitsIcESaIcEED2Ev.exit597
	ld.d	$a0, $sp, 136
	beq	$a0, $s1, .LBB7_167
# %bb.166:                              # %_ZNKSt7__cxx1112basic_stringIcSt11char_traitsIcESaIcEE11_M_is_localEv.exit.i.i598
	ld.d	$a1, $sp, 152
	addi.d	$a1, $a1, 1
	pcaddu18i	$ra, %call36(_ZdlPvm)
	jirl	$ra, $ra, 0
.LBB7_167:                              # %_ZNSt7__cxx1112basic_stringIcSt11char_traitsIcESaIcEED2Ev.exit600
	fcmp.clt.d	$fcc0, $fs4, $fs0
	bceqz	$fcc0, .LBB7_513
# %bb.168:
	ld.d	$a0, $sp, 176
	beq	$a0, $s0, .LBB7_170
# %bb.169:                              # %_ZNKSt7__cxx1112basic_stringIcSt11char_traitsIcESaIcEE11_M_is_localEv.exit.i.i613
	ld.d	$a1, $sp, 192
	addi.d	$a1, $a1, 1
	pcaddu18i	$ra, %call36(_ZdlPvm)
	jirl	$ra, $ra, 0
.LBB7_170:                              # %_ZNSt7__cxx1112basic_stringIcSt11char_traitsIcESaIcEED2Ev.exit615
	st.d	$s0, $sp, 176
	pcalau12i	$a0, %pc_hi20(.L.str.23)
	addi.d	$a0, $a0, %pc_lo12(.L.str.23)
	ld.h	$s6, $a0, 0
	ld.b	$s7, $a0, 2
	st.h	$s6, $sp, 192
	st.b	$s7, $sp, 194
	ori	$a0, $zero, 3
	st.d	$a0, $sp, 184
	st.b	$zero, $sp, 195
.Ltmp537:                               # EH_LABEL
	addi.d	$a1, $sp, 176
	move	$a0, $fp
	pcaddu18i	$ra, %call36(_ZNK7Results5GetAsIdEET_RKNSt7__cxx1112basic_stringIcSt11char_traitsIcESaIcEEE)
	jirl	$ra, $ra, 0
.Ltmp538:                               # EH_LABEL
# %bb.171:                              # %_ZNK7Results12GetCounterAsIdEET_RKNSt7__cxx1112basic_stringIcSt11char_traitsIcESaIcEEE.exit621
	vldi	$vr1, -1008
	fdiv.d	$fs1, $fa1, $fs2
	fsub.d	$fa0, $fa0, $fs1
	fabs.d	$fs4, $fa0
	fmul.d	$fs0, $fs1, $fs3
	fcmp.cule.d	$fcc0, $fs0, $fs4
	movcf2gr	$a0, $fcc0
	st.d	$a0, $sp, 24
	bceqz	$fcc0, .LBB7_174
# %bb.172:
.Ltmp540:                               # EH_LABEL
	pcalau12i	$a0, %pc_hi20(.L.str.137)
	addi.d	$a1, $a0, %pc_lo12(.L.str.137)
	pcalau12i	$a0, %pc_hi20(.L.str.101)
	addi.d	$a2, $a0, %pc_lo12(.L.str.101)
	pcalau12i	$a0, %pc_hi20(.L__func__._Z16CheckTabularRateRK7Results)
	addi.d	$a3, $a0, %pc_lo12(.L__func__._Z16CheckTabularRateRK7Results)
	addi.d	$a0, $sp, 56
	ori	$a4, $zero, 421
	pcaddu18i	$ra, %call36(_ZN9benchmark8internal12CheckHandlerC2EPKcS3_S3_i)
	jirl	$ra, $ra, 0
.Ltmp541:                               # EH_LABEL
# %bb.173:
	ld.d	$s8, $sp, 56
	b	.LBB7_175
.LBB7_174:
	pcalau12i	$a0, %pc_hi20(_ZGVZN9benchmark8internal18GetNullLogInstanceEvE8null_log)
	ld.b	$a0, $a0, %pc_lo12(_ZGVZN9benchmark8internal18GetNullLogInstanceEvE8null_log)
	dbar	20
	pcalau12i	$a1, %pc_hi20(_ZZN9benchmark8internal18GetNullLogInstanceEvE8null_log)
	addi.d	$s8, $a1, %pc_lo12(_ZZN9benchmark8internal18GetNullLogInstanceEvE8null_log)
	beqz	$a0, .LBB7_527
.LBB7_175:                              # %_ZN9benchmark8internal18GetNullLogInstanceEv.exit623
	ld.d	$a0, $s8, 0
	beqz	$a0, .LBB7_207
# %bb.176:
.Ltmp542:                               # EH_LABEL
	pcalau12i	$a1, %pc_hi20(.L.str.102)
	addi.d	$a1, $a1, %pc_lo12(.L.str.102)
	ori	$a2, $zero, 1
	pcaddu18i	$ra, %call36(_ZSt16__ostream_insertIcSt11char_traitsIcEERSt13basic_ostreamIT_T0_ES6_PKS3_l)
	jirl	$ra, $ra, 0
.Ltmp543:                               # EH_LABEL
# %bb.177:                              # %_ZN9benchmark8internallsIA2_cEERNS0_7LogTypeES4_RKT_.exit626
	ld.d	$a0, $s8, 0
	beqz	$a0, .LBB7_207
# %bb.178:
.Ltmp544:                               # EH_LABEL
	pcalau12i	$a1, %pc_hi20(.L.str.101)
	addi.d	$a1, $a1, %pc_lo12(.L.str.101)
	ori	$a2, $zero, 148
	pcaddu18i	$ra, %call36(_ZSt16__ostream_insertIcSt11char_traitsIcEERSt13basic_ostreamIT_T0_ES6_PKS3_l)
	jirl	$ra, $ra, 0
.Ltmp545:                               # EH_LABEL
# %bb.179:                              # %_ZN9benchmark8internallsIA149_cEERNS0_7LogTypeES4_RKT_.exit629
	ld.d	$a0, $s8, 0
	beqz	$a0, .LBB7_207
# %bb.180:
.Ltmp546:                               # EH_LABEL
	pcalau12i	$a1, %pc_hi20(.L.str.103)
	addi.d	$a1, $a1, %pc_lo12(.L.str.103)
	ori	$a2, $zero, 1
	pcaddu18i	$ra, %call36(_ZSt16__ostream_insertIcSt11char_traitsIcEERSt13basic_ostreamIT_T0_ES6_PKS3_l)
	jirl	$ra, $ra, 0
.Ltmp547:                               # EH_LABEL
# %bb.181:                              # %_ZN9benchmark8internallsIA2_cEERNS0_7LogTypeES4_RKT_.exit632
	ld.d	$a0, $s8, 0
	beqz	$a0, .LBB7_207
# %bb.182:
.Ltmp549:                               # EH_LABEL
	ori	$a1, $zero, 421
	pcaddu18i	$ra, %call36(_ZNSolsEi)
	jirl	$ra, $ra, 0
.Ltmp550:                               # EH_LABEL
# %bb.183:                              # %_ZN9benchmark8internallsIiEERNS0_7LogTypeES3_RKT_.exit635
	ld.d	$a0, $s8, 0
	beqz	$a0, .LBB7_207
# %bb.184:
.Ltmp551:                               # EH_LABEL
	pcalau12i	$a1, %pc_hi20(.L.str.104)
	addi.d	$a1, $a1, %pc_lo12(.L.str.104)
	ori	$a2, $zero, 2
	pcaddu18i	$ra, %call36(_ZSt16__ostream_insertIcSt11char_traitsIcEERSt13basic_ostreamIT_T0_ES6_PKS3_l)
	jirl	$ra, $ra, 0
.Ltmp552:                               # EH_LABEL
# %bb.185:                              # %_ZN9benchmark8internallsIA3_cEERNS0_7LogTypeES4_RKT_.exit638
	ld.d	$a0, $s8, 0
	beqz	$a0, .LBB7_207
# %bb.186:
	ld.d	$a1, $fp, 0
	ld.d	$a2, $fp, 8
.Ltmp553:                               # EH_LABEL
	pcaddu18i	$ra, %call36(_ZSt16__ostream_insertIcSt11char_traitsIcEERSt13basic_ostreamIT_T0_ES6_PKS3_l)
	jirl	$ra, $ra, 0
.Ltmp554:                               # EH_LABEL
# %bb.187:                              # %_ZN9benchmark8internallsINSt7__cxx1112basic_stringIcSt11char_traitsIcESaIcEEEEERNS0_7LogTypeES9_RKT_.exit641
	ld.d	$a0, $s8, 0
	beqz	$a0, .LBB7_207
# %bb.188:
.Ltmp555:                               # EH_LABEL
	pcalau12i	$a1, %pc_hi20(.L.str.105)
	addi.d	$a1, $a1, %pc_lo12(.L.str.105)
	ori	$a2, $zero, 2
	pcaddu18i	$ra, %call36(_ZSt16__ostream_insertIcSt11char_traitsIcEERSt13basic_ostreamIT_T0_ES6_PKS3_l)
	jirl	$ra, $ra, 0
.Ltmp556:                               # EH_LABEL
# %bb.189:                              # %_ZN9benchmark8internallsIA3_cEERNS0_7LogTypeES4_RKT_.exit644
	ld.d	$a0, $s8, 0
	beqz	$a0, .LBB7_207
# %bb.190:
.Ltmp557:                               # EH_LABEL
	pcalau12i	$a1, %pc_hi20(.L.str.101)
	addi.d	$a1, $a1, %pc_lo12(.L.str.101)
	ori	$a2, $zero, 148
	pcaddu18i	$ra, %call36(_ZSt16__ostream_insertIcSt11char_traitsIcEERSt13basic_ostreamIT_T0_ES6_PKS3_l)
	jirl	$ra, $ra, 0
.Ltmp558:                               # EH_LABEL
# %bb.191:                              # %_ZN9benchmark8internallsIA149_cEERNS0_7LogTypeES4_RKT_.exit647
	ld.d	$a0, $s8, 0
	beqz	$a0, .LBB7_207
# %bb.192:
.Ltmp559:                               # EH_LABEL
	pcalau12i	$a1, %pc_hi20(.L.str.103)
	addi.d	$a1, $a1, %pc_lo12(.L.str.103)
	ori	$a2, $zero, 1
	pcaddu18i	$ra, %call36(_ZSt16__ostream_insertIcSt11char_traitsIcEERSt13basic_ostreamIT_T0_ES6_PKS3_l)
	jirl	$ra, $ra, 0
.Ltmp560:                               # EH_LABEL
# %bb.193:                              # %_ZN9benchmark8internallsIA2_cEERNS0_7LogTypeES4_RKT_.exit650
	ld.d	$a0, $s8, 0
	beqz	$a0, .LBB7_207
# %bb.194:
.Ltmp562:                               # EH_LABEL
	ori	$a1, $zero, 421
	pcaddu18i	$ra, %call36(_ZNSolsEi)
	jirl	$ra, $ra, 0
.Ltmp563:                               # EH_LABEL
# %bb.195:                              # %_ZN9benchmark8internallsIiEERNS0_7LogTypeES3_RKT_.exit653
	ld.d	$a0, $s8, 0
	beqz	$a0, .LBB7_207
# %bb.196:
.Ltmp564:                               # EH_LABEL
	pcalau12i	$a1, %pc_hi20(.L.str.104)
	addi.d	$a1, $a1, %pc_lo12(.L.str.104)
	ori	$a2, $zero, 2
	pcaddu18i	$ra, %call36(_ZSt16__ostream_insertIcSt11char_traitsIcEERSt13basic_ostreamIT_T0_ES6_PKS3_l)
	jirl	$ra, $ra, 0
.Ltmp565:                               # EH_LABEL
# %bb.197:                              # %_ZN9benchmark8internallsIA3_cEERNS0_7LogTypeES4_RKT_.exit656
	ld.d	$a0, $s8, 0
	beqz	$a0, .LBB7_207
# %bb.198:
.Ltmp566:                               # EH_LABEL
	pcalau12i	$a1, %pc_hi20(.L.str.106)
	addi.d	$a1, $a1, %pc_lo12(.L.str.106)
	ori	$a2, $zero, 10
	pcaddu18i	$ra, %call36(_ZSt16__ostream_insertIcSt11char_traitsIcEERSt13basic_ostreamIT_T0_ES6_PKS3_l)
	jirl	$ra, $ra, 0
.Ltmp567:                               # EH_LABEL
# %bb.199:                              # %_ZN9benchmark8internallsIA11_cEERNS0_7LogTypeES4_RKT_.exit659
	ld.d	$a0, $s8, 0
	beqz	$a0, .LBB7_207
# %bb.200:
.Ltmp568:                               # EH_LABEL
	pcalau12i	$a1, %pc_hi20(.L.str.130)
	addi.d	$a1, $a1, %pc_lo12(.L.str.130)
	ori	$a2, $zero, 6
	pcaddu18i	$ra, %call36(_ZSt16__ostream_insertIcSt11char_traitsIcEERSt13basic_ostreamIT_T0_ES6_PKS3_l)
	jirl	$ra, $ra, 0
.Ltmp569:                               # EH_LABEL
# %bb.201:                              # %_ZN9benchmark8internallsIA7_cEERNS0_7LogTypeES4_RKT_.exit662
	ld.d	$a0, $s8, 0
	beqz	$a0, .LBB7_207
# %bb.202:
.Ltmp570:                               # EH_LABEL
	pcalau12i	$a1, %pc_hi20(.L.str.108)
	addi.d	$a1, $a1, %pc_lo12(.L.str.108)
	ori	$a2, $zero, 1
	pcaddu18i	$ra, %call36(_ZSt16__ostream_insertIcSt11char_traitsIcEERSt13basic_ostreamIT_T0_ES6_PKS3_l)
	jirl	$ra, $ra, 0
.Ltmp571:                               # EH_LABEL
# %bb.203:                              # %_ZN9benchmark8internallsIA2_cEERNS0_7LogTypeES4_RKT_.exit665
	ld.d	$a0, $s8, 0
	beqz	$a0, .LBB7_207
# %bb.204:
.Ltmp572:                               # EH_LABEL
	pcalau12i	$a1, %pc_hi20(.L.str.23)
	addi.d	$a1, $a1, %pc_lo12(.L.str.23)
	ori	$a2, $zero, 3
	pcaddu18i	$ra, %call36(_ZSt16__ostream_insertIcSt11char_traitsIcEERSt13basic_ostreamIT_T0_ES6_PKS3_l)
	jirl	$ra, $ra, 0
.Ltmp573:                               # EH_LABEL
# %bb.205:                              # %_ZN9benchmark8internallsIA4_cEERNS0_7LogTypeES4_RKT_.exit668
	ld.d	$a0, $s8, 0
	beqz	$a0, .LBB7_207
# %bb.206:
.Ltmp574:                               # EH_LABEL
	pcalau12i	$a1, %pc_hi20(.L.str.109)
	addi.d	$a1, $a1, %pc_lo12(.L.str.109)
	ori	$a2, $zero, 1
	pcaddu18i	$ra, %call36(_ZSt16__ostream_insertIcSt11char_traitsIcEERSt13basic_ostreamIT_T0_ES6_PKS3_l)
	jirl	$ra, $ra, 0
.Ltmp575:                               # EH_LABEL
.LBB7_207:                              # %_ZN9benchmark8internallsIA2_cEERNS0_7LogTypeES4_RKT_.exit671
	st.d	$s1, $sp, 136
	st.h	$s6, $sp, 152
	st.b	$s7, $sp, 154
	ori	$a0, $zero, 3
	st.d	$a0, $sp, 144
	st.b	$zero, $sp, 155
.Ltmp577:                               # EH_LABEL
	addi.d	$a1, $sp, 136
	move	$a0, $fp
	pcaddu18i	$ra, %call36(_ZNK7Results5GetAsIdEET_RKNSt7__cxx1112basic_stringIcSt11char_traitsIcESaIcEEE)
	jirl	$ra, $ra, 0
.Ltmp578:                               # EH_LABEL
# %bb.208:                              # %_ZNK7Results12GetCounterAsIdEET_RKNSt7__cxx1112basic_stringIcSt11char_traitsIcESaIcEEE.exit677
	ld.d	$a0, $s8, 0
	beqz	$a0, .LBB7_236
# %bb.209:
.Ltmp579:                               # EH_LABEL
	pcaddu18i	$ra, %call36(_ZNSo9_M_insertIdEERSoT_)
	jirl	$ra, $ra, 0
.Ltmp580:                               # EH_LABEL
# %bb.210:                              # %_ZN9benchmark8internallsIdEERNS0_7LogTypeES3_RKT_.exit680
	ld.d	$a0, $s8, 0
	beqz	$a0, .LBB7_236
# %bb.211:
.Ltmp581:                               # EH_LABEL
	pcalau12i	$a1, %pc_hi20(.L.str.110)
	addi.d	$a1, $a1, %pc_lo12(.L.str.110)
	ori	$a2, $zero, 13
	pcaddu18i	$ra, %call36(_ZSt16__ostream_insertIcSt11char_traitsIcEERSt13basic_ostreamIT_T0_ES6_PKS3_l)
	jirl	$ra, $ra, 0
.Ltmp582:                               # EH_LABEL
# %bb.212:                              # %_ZN9benchmark8internallsIA14_cEERNS0_7LogTypeES4_RKT_.exit683
	ld.d	$a0, $s8, 0
	beqz	$a0, .LBB7_236
# %bb.213:
.Ltmp584:                               # EH_LABEL
	fmov.d	$fa0, $fs1
	pcaddu18i	$ra, %call36(_ZNSo9_M_insertIdEERSoT_)
	jirl	$ra, $ra, 0
.Ltmp585:                               # EH_LABEL
# %bb.214:                              # %_ZN9benchmark8internallsIdEERNS0_7LogTypeES3_RKT_.exit686
	ld.d	$a0, $s8, 0
	beqz	$a0, .LBB7_236
# %bb.215:
.Ltmp586:                               # EH_LABEL
	pcalau12i	$a1, %pc_hi20(.L.str.102)
	addi.d	$a1, $a1, %pc_lo12(.L.str.102)
	ori	$a2, $zero, 1
	pcaddu18i	$ra, %call36(_ZSt16__ostream_insertIcSt11char_traitsIcEERSt13basic_ostreamIT_T0_ES6_PKS3_l)
	jirl	$ra, $ra, 0
.Ltmp587:                               # EH_LABEL
# %bb.216:                              # %_ZN9benchmark8internallsIA2_cEERNS0_7LogTypeES4_RKT_.exit689
	ld.d	$a0, $s8, 0
	beqz	$a0, .LBB7_236
# %bb.217:
.Ltmp588:                               # EH_LABEL
	pcalau12i	$a1, %pc_hi20(.L.str.101)
	addi.d	$a1, $a1, %pc_lo12(.L.str.101)
	ori	$a2, $zero, 148
	pcaddu18i	$ra, %call36(_ZSt16__ostream_insertIcSt11char_traitsIcEERSt13basic_ostreamIT_T0_ES6_PKS3_l)
	jirl	$ra, $ra, 0
.Ltmp589:                               # EH_LABEL
# %bb.218:                              # %_ZN9benchmark8internallsIA149_cEERNS0_7LogTypeES4_RKT_.exit692
	ld.d	$a0, $s8, 0
	beqz	$a0, .LBB7_236
# %bb.219:
.Ltmp590:                               # EH_LABEL
	pcalau12i	$a1, %pc_hi20(.L.str.103)
	addi.d	$a1, $a1, %pc_lo12(.L.str.103)
	ori	$a2, $zero, 1
	pcaddu18i	$ra, %call36(_ZSt16__ostream_insertIcSt11char_traitsIcEERSt13basic_ostreamIT_T0_ES6_PKS3_l)
	jirl	$ra, $ra, 0
.Ltmp591:                               # EH_LABEL
# %bb.220:                              # %_ZN9benchmark8internallsIA2_cEERNS0_7LogTypeES4_RKT_.exit695
	ld.d	$a0, $s8, 0
	beqz	$a0, .LBB7_236
# %bb.221:
.Ltmp593:                               # EH_LABEL
	ori	$a1, $zero, 421
	pcaddu18i	$ra, %call36(_ZNSolsEi)
	jirl	$ra, $ra, 0
.Ltmp594:                               # EH_LABEL
# %bb.222:                              # %_ZN9benchmark8internallsIiEERNS0_7LogTypeES3_RKT_.exit698
	ld.d	$a0, $s8, 0
	beqz	$a0, .LBB7_236
# %bb.223:
.Ltmp595:                               # EH_LABEL
	pcalau12i	$a1, %pc_hi20(.L.str.104)
	addi.d	$a1, $a1, %pc_lo12(.L.str.104)
	ori	$a2, $zero, 2
	pcaddu18i	$ra, %call36(_ZSt16__ostream_insertIcSt11char_traitsIcEERSt13basic_ostreamIT_T0_ES6_PKS3_l)
	jirl	$ra, $ra, 0
.Ltmp596:                               # EH_LABEL
# %bb.224:                              # %_ZN9benchmark8internallsIA3_cEERNS0_7LogTypeES4_RKT_.exit701
	ld.d	$a0, $s8, 0
	beqz	$a0, .LBB7_236
# %bb.225:
.Ltmp597:                               # EH_LABEL
	pcalau12i	$a1, %pc_hi20(.L.str.131)
	addi.d	$a1, $a1, %pc_lo12(.L.str.131)
	ori	$a2, $zero, 18
	pcaddu18i	$ra, %call36(_ZSt16__ostream_insertIcSt11char_traitsIcEERSt13basic_ostreamIT_T0_ES6_PKS3_l)
	jirl	$ra, $ra, 0
.Ltmp598:                               # EH_LABEL
# %bb.226:                              # %_ZN9benchmark8internallsIA19_cEERNS0_7LogTypeES4_RKT_.exit704
	ld.d	$a0, $s8, 0
	beqz	$a0, .LBB7_236
# %bb.227:
.Ltmp600:                               # EH_LABEL
	fmov.d	$fa0, $fs0
	pcaddu18i	$ra, %call36(_ZNSo9_M_insertIdEERSoT_)
	jirl	$ra, $ra, 0
.Ltmp601:                               # EH_LABEL
# %bb.228:                              # %_ZN9benchmark8internallsIdEERNS0_7LogTypeES3_RKT_.exit707
	ld.d	$a0, $s8, 0
	beqz	$a0, .LBB7_236
# %bb.229:
.Ltmp602:                               # EH_LABEL
	pcalau12i	$a1, %pc_hi20(.L.str.132)
	addi.d	$a1, $a1, %pc_lo12(.L.str.132)
	ori	$a2, $zero, 2
	pcaddu18i	$ra, %call36(_ZSt16__ostream_insertIcSt11char_traitsIcEERSt13basic_ostreamIT_T0_ES6_PKS3_l)
	jirl	$ra, $ra, 0
.Ltmp603:                               # EH_LABEL
# %bb.230:                              # %_ZN9benchmark8internallsIA3_cEERNS0_7LogTypeES4_RKT_.exit710
	ld.d	$a0, $s8, 0
	beqz	$a0, .LBB7_236
# %bb.231:
.Ltmp605:                               # EH_LABEL
	pcalau12i	$a1, %pc_hi20(.LCPI7_1)
	fld.d	$fa0, $a1, %pc_lo12(.LCPI7_1)
	pcaddu18i	$ra, %call36(_ZNSo9_M_insertIdEERSoT_)
	jirl	$ra, $ra, 0
.Ltmp606:                               # EH_LABEL
# %bb.232:                              # %_ZN9benchmark8internallsIdEERNS0_7LogTypeES3_RKT_.exit713
	ld.d	$a0, $s8, 0
	beqz	$a0, .LBB7_236
# %bb.233:
.Ltmp607:                               # EH_LABEL
	pcalau12i	$a1, %pc_hi20(.L.str.133)
	addi.d	$a1, $a1, %pc_lo12(.L.str.133)
	ori	$a2, $zero, 4
	pcaddu18i	$ra, %call36(_ZSt16__ostream_insertIcSt11char_traitsIcEERSt13basic_ostreamIT_T0_ES6_PKS3_l)
	jirl	$ra, $ra, 0
.Ltmp608:                               # EH_LABEL
# %bb.234:                              # %_ZN9benchmark8internallsIA5_cEERNS0_7LogTypeES4_RKT_.exit716
	ld.d	$a0, $s8, 0
	beqz	$a0, .LBB7_236
# %bb.235:
.Ltmp609:                               # EH_LABEL
	pcalau12i	$a1, %pc_hi20(.L.str.134)
	addi.d	$a1, $a1, %pc_lo12(.L.str.134)
	ori	$a2, $zero, 14
	pcaddu18i	$ra, %call36(_ZSt16__ostream_insertIcSt11char_traitsIcEERSt13basic_ostreamIT_T0_ES6_PKS3_l)
	jirl	$ra, $ra, 0
.Ltmp610:                               # EH_LABEL
.LBB7_236:                              # %_ZN9benchmark8internallsIA15_cEERNS0_7LogTypeES4_RKT_.exit719
	st.d	$s2, $sp, 104
	st.h	$s6, $sp, 120
	st.b	$s7, $sp, 122
	ori	$a0, $zero, 3
	st.d	$a0, $sp, 112
	st.b	$zero, $sp, 123
.Ltmp612:                               # EH_LABEL
	addi.d	$a1, $sp, 104
	move	$a0, $fp
	pcaddu18i	$ra, %call36(_ZNK7Results5GetAsIdEET_RKNSt7__cxx1112basic_stringIcSt11char_traitsIcESaIcEEE)
	jirl	$ra, $ra, 0
.Ltmp613:                               # EH_LABEL
# %bb.237:                              # %_ZNK7Results12GetCounterAsIdEET_RKNSt7__cxx1112basic_stringIcSt11char_traitsIcESaIcEEE.exit725
	ld.d	$a0, $s8, 0
	beqz	$a0, .LBB7_241
# %bb.238:
	fsub.d	$fa0, $fa0, $fs1
.Ltmp614:                               # EH_LABEL
	pcaddu18i	$ra, %call36(_ZNSo9_M_insertIdEERSoT_)
	jirl	$ra, $ra, 0
.Ltmp615:                               # EH_LABEL
# %bb.239:                              # %_ZN9benchmark8internallsIdEERNS0_7LogTypeES3_RKT_.exit728
	ld.d	$a0, $s8, 0
	beqz	$a0, .LBB7_241
# %bb.240:
.Ltmp616:                               # EH_LABEL
	pcalau12i	$a1, %pc_hi20(.L.str.132)
	addi.d	$a1, $a1, %pc_lo12(.L.str.132)
	ori	$a2, $zero, 2
	pcaddu18i	$ra, %call36(_ZSt16__ostream_insertIcSt11char_traitsIcEERSt13basic_ostreamIT_T0_ES6_PKS3_l)
	jirl	$ra, $ra, 0
.Ltmp617:                               # EH_LABEL
.LBB7_241:                              # %_ZN9benchmark8internallsIA3_cEERNS0_7LogTypeES4_RKT_.exit731
	st.d	$s3, $sp, 72
	st.h	$s6, $sp, 88
	st.b	$s7, $sp, 90
	ori	$a0, $zero, 3
	st.d	$a0, $sp, 80
	st.b	$zero, $sp, 91
.Ltmp619:                               # EH_LABEL
	addi.d	$a1, $sp, 72
	move	$a0, $fp
	pcaddu18i	$ra, %call36(_ZNK7Results5GetAsIdEET_RKNSt7__cxx1112basic_stringIcSt11char_traitsIcESaIcEEE)
	jirl	$ra, $ra, 0
.Ltmp620:                               # EH_LABEL
# %bb.242:                              # %_ZNK7Results12GetCounterAsIdEET_RKNSt7__cxx1112basic_stringIcSt11char_traitsIcESaIcEEE.exit737
	ld.d	$a0, $s8, 0
	beqz	$a0, .LBB7_246
# %bb.243:
	fld.d	$fa1, $s5, %pc_lo12(.LCPI7_2)
	fsub.d	$fa0, $fa0, $fs1
	fabs.d	$fa2, $fs1
	fld.d	$fa3, $s4, %pc_lo12(.LCPI7_3)
	fcmp.clt.d	$fcc0, $fa1, $fa2
	fsel	$fa1, $fa1, $fs1, $fcc0
	fdiv.d	$fa0, $fa0, $fa1
	fmul.d	$fa0, $fa0, $fa3
.Ltmp621:                               # EH_LABEL
	pcaddu18i	$ra, %call36(_ZNSo9_M_insertIdEERSoT_)
	jirl	$ra, $ra, 0
.Ltmp622:                               # EH_LABEL
# %bb.244:                              # %_ZN9benchmark8internallsIdEERNS0_7LogTypeES3_RKT_.exit740
	ld.d	$a0, $s8, 0
	beqz	$a0, .LBB7_246
# %bb.245:
.Ltmp623:                               # EH_LABEL
	pcalau12i	$a1, %pc_hi20(.L.str.135)
	addi.d	$a1, $a1, %pc_lo12(.L.str.135)
	ori	$a2, $zero, 2
	pcaddu18i	$ra, %call36(_ZSt16__ostream_insertIcSt11char_traitsIcEERSt13basic_ostreamIT_T0_ES6_PKS3_l)
	jirl	$ra, $ra, 0
.Ltmp624:                               # EH_LABEL
.LBB7_246:                              # %_ZN9benchmark8internallsIA3_cEERNS0_7LogTypeES4_RKT_.exit743
	ld.d	$a0, $sp, 72
	beq	$a0, $s3, .LBB7_248
# %bb.247:                              # %_ZNKSt7__cxx1112basic_stringIcSt11char_traitsIcESaIcEE11_M_is_localEv.exit.i.i744
	ld.d	$a1, $sp, 88
	addi.d	$a1, $a1, 1
	pcaddu18i	$ra, %call36(_ZdlPvm)
	jirl	$ra, $ra, 0
.LBB7_248:                              # %_ZNSt7__cxx1112basic_stringIcSt11char_traitsIcESaIcEED2Ev.exit746
	ld.d	$a0, $sp, 104
	beq	$a0, $s2, .LBB7_250
# %bb.249:                              # %_ZNKSt7__cxx1112basic_stringIcSt11char_traitsIcESaIcEE11_M_is_localEv.exit.i.i747
	ld.d	$a1, $sp, 120
	addi.d	$a1, $a1, 1
	pcaddu18i	$ra, %call36(_ZdlPvm)
	jirl	$ra, $ra, 0
.LBB7_250:                              # %_ZNSt7__cxx1112basic_stringIcSt11char_traitsIcESaIcEED2Ev.exit749
	ld.d	$a0, $sp, 136
	beq	$a0, $s1, .LBB7_252
# %bb.251:                              # %_ZNKSt7__cxx1112basic_stringIcSt11char_traitsIcESaIcEE11_M_is_localEv.exit.i.i750
	ld.d	$a1, $sp, 152
	addi.d	$a1, $a1, 1
	pcaddu18i	$ra, %call36(_ZdlPvm)
	jirl	$ra, $ra, 0
.LBB7_252:                              # %_ZNSt7__cxx1112basic_stringIcSt11char_traitsIcESaIcEED2Ev.exit752
	fcmp.clt.d	$fcc0, $fs4, $fs0
	bceqz	$fcc0, .LBB7_515
# %bb.253:
	ld.d	$a0, $sp, 176
	beq	$a0, $s0, .LBB7_255
# %bb.254:                              # %_ZNKSt7__cxx1112basic_stringIcSt11char_traitsIcESaIcEE11_M_is_localEv.exit.i.i765
	ld.d	$a1, $sp, 192
	addi.d	$a1, $a1, 1
	pcaddu18i	$ra, %call36(_ZdlPvm)
	jirl	$ra, $ra, 0
.LBB7_255:                              # %_ZNSt7__cxx1112basic_stringIcSt11char_traitsIcESaIcEED2Ev.exit767
	st.d	$s0, $sp, 176
	pcalau12i	$a0, %pc_hi20(.L.str.24)
	addi.d	$a0, $a0, %pc_lo12(.L.str.24)
	ld.h	$s6, $a0, 0
	ld.b	$s7, $a0, 2
	st.h	$s6, $sp, 192
	st.b	$s7, $sp, 194
	ori	$a0, $zero, 3
	st.d	$a0, $sp, 184
	st.b	$zero, $sp, 195
.Ltmp626:                               # EH_LABEL
	addi.d	$a1, $sp, 176
	move	$a0, $fp
	pcaddu18i	$ra, %call36(_ZNK7Results5GetAsIdEET_RKNSt7__cxx1112basic_stringIcSt11char_traitsIcESaIcEEE)
	jirl	$ra, $ra, 0
.Ltmp627:                               # EH_LABEL
# %bb.256:                              # %_ZNK7Results12GetCounterAsIdEET_RKNSt7__cxx1112basic_stringIcSt11char_traitsIcESaIcEEE.exit773
	vldi	$vr1, -992
	fdiv.d	$fs1, $fa1, $fs2
	fsub.d	$fa0, $fa0, $fs1
	fabs.d	$fs4, $fa0
	fmul.d	$fs0, $fs1, $fs3
	fcmp.cule.d	$fcc0, $fs0, $fs4
	movcf2gr	$a0, $fcc0
	st.d	$a0, $sp, 24
	bceqz	$fcc0, .LBB7_259
# %bb.257:
.Ltmp629:                               # EH_LABEL
	pcalau12i	$a0, %pc_hi20(.L.str.138)
	addi.d	$a1, $a0, %pc_lo12(.L.str.138)
	pcalau12i	$a0, %pc_hi20(.L.str.101)
	addi.d	$a2, $a0, %pc_lo12(.L.str.101)
	pcalau12i	$a0, %pc_hi20(.L__func__._Z16CheckTabularRateRK7Results)
	addi.d	$a3, $a0, %pc_lo12(.L__func__._Z16CheckTabularRateRK7Results)
	addi.d	$a0, $sp, 48
	ori	$a4, $zero, 422
	pcaddu18i	$ra, %call36(_ZN9benchmark8internal12CheckHandlerC2EPKcS3_S3_i)
	jirl	$ra, $ra, 0
.Ltmp630:                               # EH_LABEL
# %bb.258:
	ld.d	$s8, $sp, 48
	b	.LBB7_260
.LBB7_259:
	pcalau12i	$a0, %pc_hi20(_ZGVZN9benchmark8internal18GetNullLogInstanceEvE8null_log)
	ld.b	$a0, $a0, %pc_lo12(_ZGVZN9benchmark8internal18GetNullLogInstanceEvE8null_log)
	dbar	20
	pcalau12i	$a1, %pc_hi20(_ZZN9benchmark8internal18GetNullLogInstanceEvE8null_log)
	addi.d	$s8, $a1, %pc_lo12(_ZZN9benchmark8internal18GetNullLogInstanceEvE8null_log)
	beqz	$a0, .LBB7_529
.LBB7_260:                              # %_ZN9benchmark8internal18GetNullLogInstanceEv.exit775
	ld.d	$a0, $s8, 0
	beqz	$a0, .LBB7_292
# %bb.261:
.Ltmp631:                               # EH_LABEL
	pcalau12i	$a1, %pc_hi20(.L.str.102)
	addi.d	$a1, $a1, %pc_lo12(.L.str.102)
	ori	$a2, $zero, 1
	pcaddu18i	$ra, %call36(_ZSt16__ostream_insertIcSt11char_traitsIcEERSt13basic_ostreamIT_T0_ES6_PKS3_l)
	jirl	$ra, $ra, 0
.Ltmp632:                               # EH_LABEL
# %bb.262:                              # %_ZN9benchmark8internallsIA2_cEERNS0_7LogTypeES4_RKT_.exit778
	ld.d	$a0, $s8, 0
	beqz	$a0, .LBB7_292
# %bb.263:
.Ltmp633:                               # EH_LABEL
	pcalau12i	$a1, %pc_hi20(.L.str.101)
	addi.d	$a1, $a1, %pc_lo12(.L.str.101)
	ori	$a2, $zero, 148
	pcaddu18i	$ra, %call36(_ZSt16__ostream_insertIcSt11char_traitsIcEERSt13basic_ostreamIT_T0_ES6_PKS3_l)
	jirl	$ra, $ra, 0
.Ltmp634:                               # EH_LABEL
# %bb.264:                              # %_ZN9benchmark8internallsIA149_cEERNS0_7LogTypeES4_RKT_.exit781
	ld.d	$a0, $s8, 0
	beqz	$a0, .LBB7_292
# %bb.265:
.Ltmp635:                               # EH_LABEL
	pcalau12i	$a1, %pc_hi20(.L.str.103)
	addi.d	$a1, $a1, %pc_lo12(.L.str.103)
	ori	$a2, $zero, 1
	pcaddu18i	$ra, %call36(_ZSt16__ostream_insertIcSt11char_traitsIcEERSt13basic_ostreamIT_T0_ES6_PKS3_l)
	jirl	$ra, $ra, 0
.Ltmp636:                               # EH_LABEL
# %bb.266:                              # %_ZN9benchmark8internallsIA2_cEERNS0_7LogTypeES4_RKT_.exit784
	ld.d	$a0, $s8, 0
	beqz	$a0, .LBB7_292
# %bb.267:
.Ltmp638:                               # EH_LABEL
	ori	$a1, $zero, 422
	pcaddu18i	$ra, %call36(_ZNSolsEi)
	jirl	$ra, $ra, 0
.Ltmp639:                               # EH_LABEL
# %bb.268:                              # %_ZN9benchmark8internallsIiEERNS0_7LogTypeES3_RKT_.exit787
	ld.d	$a0, $s8, 0
	beqz	$a0, .LBB7_292
# %bb.269:
.Ltmp640:                               # EH_LABEL
	pcalau12i	$a1, %pc_hi20(.L.str.104)
	addi.d	$a1, $a1, %pc_lo12(.L.str.104)
	ori	$a2, $zero, 2
	pcaddu18i	$ra, %call36(_ZSt16__ostream_insertIcSt11char_traitsIcEERSt13basic_ostreamIT_T0_ES6_PKS3_l)
	jirl	$ra, $ra, 0
.Ltmp641:                               # EH_LABEL
# %bb.270:                              # %_ZN9benchmark8internallsIA3_cEERNS0_7LogTypeES4_RKT_.exit790
	ld.d	$a0, $s8, 0
	beqz	$a0, .LBB7_292
# %bb.271:
	ld.d	$a1, $fp, 0
	ld.d	$a2, $fp, 8
.Ltmp642:                               # EH_LABEL
	pcaddu18i	$ra, %call36(_ZSt16__ostream_insertIcSt11char_traitsIcEERSt13basic_ostreamIT_T0_ES6_PKS3_l)
	jirl	$ra, $ra, 0
.Ltmp643:                               # EH_LABEL
# %bb.272:                              # %_ZN9benchmark8internallsINSt7__cxx1112basic_stringIcSt11char_traitsIcESaIcEEEEERNS0_7LogTypeES9_RKT_.exit793
	ld.d	$a0, $s8, 0
	beqz	$a0, .LBB7_292
# %bb.273:
.Ltmp644:                               # EH_LABEL
	pcalau12i	$a1, %pc_hi20(.L.str.105)
	addi.d	$a1, $a1, %pc_lo12(.L.str.105)
	ori	$a2, $zero, 2
	pcaddu18i	$ra, %call36(_ZSt16__ostream_insertIcSt11char_traitsIcEERSt13basic_ostreamIT_T0_ES6_PKS3_l)
	jirl	$ra, $ra, 0
.Ltmp645:                               # EH_LABEL
# %bb.274:                              # %_ZN9benchmark8internallsIA3_cEERNS0_7LogTypeES4_RKT_.exit796
	ld.d	$a0, $s8, 0
	beqz	$a0, .LBB7_292
# %bb.275:
.Ltmp646:                               # EH_LABEL
	pcalau12i	$a1, %pc_hi20(.L.str.101)
	addi.d	$a1, $a1, %pc_lo12(.L.str.101)
	ori	$a2, $zero, 148
	pcaddu18i	$ra, %call36(_ZSt16__ostream_insertIcSt11char_traitsIcEERSt13basic_ostreamIT_T0_ES6_PKS3_l)
	jirl	$ra, $ra, 0
.Ltmp647:                               # EH_LABEL
# %bb.276:                              # %_ZN9benchmark8internallsIA149_cEERNS0_7LogTypeES4_RKT_.exit799
	ld.d	$a0, $s8, 0
	beqz	$a0, .LBB7_292
# %bb.277:
.Ltmp648:                               # EH_LABEL
	pcalau12i	$a1, %pc_hi20(.L.str.103)
	addi.d	$a1, $a1, %pc_lo12(.L.str.103)
	ori	$a2, $zero, 1
	pcaddu18i	$ra, %call36(_ZSt16__ostream_insertIcSt11char_traitsIcEERSt13basic_ostreamIT_T0_ES6_PKS3_l)
	jirl	$ra, $ra, 0
.Ltmp649:                               # EH_LABEL
# %bb.278:                              # %_ZN9benchmark8internallsIA2_cEERNS0_7LogTypeES4_RKT_.exit802
	ld.d	$a0, $s8, 0
	beqz	$a0, .LBB7_292
# %bb.279:
.Ltmp651:                               # EH_LABEL
	ori	$a1, $zero, 422
	pcaddu18i	$ra, %call36(_ZNSolsEi)
	jirl	$ra, $ra, 0
.Ltmp652:                               # EH_LABEL
# %bb.280:                              # %_ZN9benchmark8internallsIiEERNS0_7LogTypeES3_RKT_.exit805
	ld.d	$a0, $s8, 0
	beqz	$a0, .LBB7_292
# %bb.281:
.Ltmp653:                               # EH_LABEL
	pcalau12i	$a1, %pc_hi20(.L.str.104)
	addi.d	$a1, $a1, %pc_lo12(.L.str.104)
	ori	$a2, $zero, 2
	pcaddu18i	$ra, %call36(_ZSt16__ostream_insertIcSt11char_traitsIcEERSt13basic_ostreamIT_T0_ES6_PKS3_l)
	jirl	$ra, $ra, 0
.Ltmp654:                               # EH_LABEL
# %bb.282:                              # %_ZN9benchmark8internallsIA3_cEERNS0_7LogTypeES4_RKT_.exit808
	ld.d	$a0, $s8, 0
	beqz	$a0, .LBB7_292
# %bb.283:
.Ltmp655:                               # EH_LABEL
	pcalau12i	$a1, %pc_hi20(.L.str.106)
	addi.d	$a1, $a1, %pc_lo12(.L.str.106)
	ori	$a2, $zero, 10
	pcaddu18i	$ra, %call36(_ZSt16__ostream_insertIcSt11char_traitsIcEERSt13basic_ostreamIT_T0_ES6_PKS3_l)
	jirl	$ra, $ra, 0
.Ltmp656:                               # EH_LABEL
# %bb.284:                              # %_ZN9benchmark8internallsIA11_cEERNS0_7LogTypeES4_RKT_.exit811
	ld.d	$a0, $s8, 0
	beqz	$a0, .LBB7_292
# %bb.285:
.Ltmp657:                               # EH_LABEL
	pcalau12i	$a1, %pc_hi20(.L.str.130)
	addi.d	$a1, $a1, %pc_lo12(.L.str.130)
	ori	$a2, $zero, 6
	pcaddu18i	$ra, %call36(_ZSt16__ostream_insertIcSt11char_traitsIcEERSt13basic_ostreamIT_T0_ES6_PKS3_l)
	jirl	$ra, $ra, 0
.Ltmp658:                               # EH_LABEL
# %bb.286:                              # %_ZN9benchmark8internallsIA7_cEERNS0_7LogTypeES4_RKT_.exit814
	ld.d	$a0, $s8, 0
	beqz	$a0, .LBB7_292
# %bb.287:
.Ltmp659:                               # EH_LABEL
	pcalau12i	$a1, %pc_hi20(.L.str.108)
	addi.d	$a1, $a1, %pc_lo12(.L.str.108)
	ori	$a2, $zero, 1
	pcaddu18i	$ra, %call36(_ZSt16__ostream_insertIcSt11char_traitsIcEERSt13basic_ostreamIT_T0_ES6_PKS3_l)
	jirl	$ra, $ra, 0
.Ltmp660:                               # EH_LABEL
# %bb.288:                              # %_ZN9benchmark8internallsIA2_cEERNS0_7LogTypeES4_RKT_.exit817
	ld.d	$a0, $s8, 0
	beqz	$a0, .LBB7_292
# %bb.289:
.Ltmp661:                               # EH_LABEL
	pcalau12i	$a1, %pc_hi20(.L.str.24)
	addi.d	$a1, $a1, %pc_lo12(.L.str.24)
	ori	$a2, $zero, 3
	pcaddu18i	$ra, %call36(_ZSt16__ostream_insertIcSt11char_traitsIcEERSt13basic_ostreamIT_T0_ES6_PKS3_l)
	jirl	$ra, $ra, 0
.Ltmp662:                               # EH_LABEL
# %bb.290:                              # %_ZN9benchmark8internallsIA4_cEERNS0_7LogTypeES4_RKT_.exit820
	ld.d	$a0, $s8, 0
	beqz	$a0, .LBB7_292
# %bb.291:
.Ltmp663:                               # EH_LABEL
	pcalau12i	$a1, %pc_hi20(.L.str.109)
	addi.d	$a1, $a1, %pc_lo12(.L.str.109)
	ori	$a2, $zero, 1
	pcaddu18i	$ra, %call36(_ZSt16__ostream_insertIcSt11char_traitsIcEERSt13basic_ostreamIT_T0_ES6_PKS3_l)
	jirl	$ra, $ra, 0
.Ltmp664:                               # EH_LABEL
.LBB7_292:                              # %_ZN9benchmark8internallsIA2_cEERNS0_7LogTypeES4_RKT_.exit823
	st.d	$s1, $sp, 136
	st.h	$s6, $sp, 152
	st.b	$s7, $sp, 154
	ori	$a0, $zero, 3
	st.d	$a0, $sp, 144
	st.b	$zero, $sp, 155
.Ltmp666:                               # EH_LABEL
	addi.d	$a1, $sp, 136
	move	$a0, $fp
	pcaddu18i	$ra, %call36(_ZNK7Results5GetAsIdEET_RKNSt7__cxx1112basic_stringIcSt11char_traitsIcESaIcEEE)
	jirl	$ra, $ra, 0
.Ltmp667:                               # EH_LABEL
# %bb.293:                              # %_ZNK7Results12GetCounterAsIdEET_RKNSt7__cxx1112basic_stringIcSt11char_traitsIcESaIcEEE.exit829
	ld.d	$a0, $s8, 0
	beqz	$a0, .LBB7_321
# %bb.294:
.Ltmp668:                               # EH_LABEL
	pcaddu18i	$ra, %call36(_ZNSo9_M_insertIdEERSoT_)
	jirl	$ra, $ra, 0
.Ltmp669:                               # EH_LABEL
# %bb.295:                              # %_ZN9benchmark8internallsIdEERNS0_7LogTypeES3_RKT_.exit832
	ld.d	$a0, $s8, 0
	beqz	$a0, .LBB7_321
# %bb.296:
.Ltmp670:                               # EH_LABEL
	pcalau12i	$a1, %pc_hi20(.L.str.110)
	addi.d	$a1, $a1, %pc_lo12(.L.str.110)
	ori	$a2, $zero, 13
	pcaddu18i	$ra, %call36(_ZSt16__ostream_insertIcSt11char_traitsIcEERSt13basic_ostreamIT_T0_ES6_PKS3_l)
	jirl	$ra, $ra, 0
.Ltmp671:                               # EH_LABEL
# %bb.297:                              # %_ZN9benchmark8internallsIA14_cEERNS0_7LogTypeES4_RKT_.exit835
	ld.d	$a0, $s8, 0
	beqz	$a0, .LBB7_321
# %bb.298:
.Ltmp673:                               # EH_LABEL
	fmov.d	$fa0, $fs1
	pcaddu18i	$ra, %call36(_ZNSo9_M_insertIdEERSoT_)
	jirl	$ra, $ra, 0
.Ltmp674:                               # EH_LABEL
# %bb.299:                              # %_ZN9benchmark8internallsIdEERNS0_7LogTypeES3_RKT_.exit838
	ld.d	$a0, $s8, 0
	beqz	$a0, .LBB7_321
# %bb.300:
.Ltmp675:                               # EH_LABEL
	pcalau12i	$a1, %pc_hi20(.L.str.102)
	addi.d	$a1, $a1, %pc_lo12(.L.str.102)
	ori	$a2, $zero, 1
	pcaddu18i	$ra, %call36(_ZSt16__ostream_insertIcSt11char_traitsIcEERSt13basic_ostreamIT_T0_ES6_PKS3_l)
	jirl	$ra, $ra, 0
.Ltmp676:                               # EH_LABEL
# %bb.301:                              # %_ZN9benchmark8internallsIA2_cEERNS0_7LogTypeES4_RKT_.exit841
	ld.d	$a0, $s8, 0
	beqz	$a0, .LBB7_321
# %bb.302:
.Ltmp677:                               # EH_LABEL
	pcalau12i	$a1, %pc_hi20(.L.str.101)
	addi.d	$a1, $a1, %pc_lo12(.L.str.101)
	ori	$a2, $zero, 148
	pcaddu18i	$ra, %call36(_ZSt16__ostream_insertIcSt11char_traitsIcEERSt13basic_ostreamIT_T0_ES6_PKS3_l)
	jirl	$ra, $ra, 0
.Ltmp678:                               # EH_LABEL
# %bb.303:                              # %_ZN9benchmark8internallsIA149_cEERNS0_7LogTypeES4_RKT_.exit844
	ld.d	$a0, $s8, 0
	beqz	$a0, .LBB7_321
# %bb.304:
.Ltmp679:                               # EH_LABEL
	pcalau12i	$a1, %pc_hi20(.L.str.103)
	addi.d	$a1, $a1, %pc_lo12(.L.str.103)
	ori	$a2, $zero, 1
	pcaddu18i	$ra, %call36(_ZSt16__ostream_insertIcSt11char_traitsIcEERSt13basic_ostreamIT_T0_ES6_PKS3_l)
	jirl	$ra, $ra, 0
.Ltmp680:                               # EH_LABEL
# %bb.305:                              # %_ZN9benchmark8internallsIA2_cEERNS0_7LogTypeES4_RKT_.exit847
	ld.d	$a0, $s8, 0
	beqz	$a0, .LBB7_321
# %bb.306:
.Ltmp682:                               # EH_LABEL
	ori	$a1, $zero, 422
	pcaddu18i	$ra, %call36(_ZNSolsEi)
	jirl	$ra, $ra, 0
.Ltmp683:                               # EH_LABEL
# %bb.307:                              # %_ZN9benchmark8internallsIiEERNS0_7LogTypeES3_RKT_.exit850
	ld.d	$a0, $s8, 0
	beqz	$a0, .LBB7_321
# %bb.308:
.Ltmp684:                               # EH_LABEL
	pcalau12i	$a1, %pc_hi20(.L.str.104)
	addi.d	$a1, $a1, %pc_lo12(.L.str.104)
	ori	$a2, $zero, 2
	pcaddu18i	$ra, %call36(_ZSt16__ostream_insertIcSt11char_traitsIcEERSt13basic_ostreamIT_T0_ES6_PKS3_l)
	jirl	$ra, $ra, 0
.Ltmp685:                               # EH_LABEL
# %bb.309:                              # %_ZN9benchmark8internallsIA3_cEERNS0_7LogTypeES4_RKT_.exit853
	ld.d	$a0, $s8, 0
	beqz	$a0, .LBB7_321
# %bb.310:
.Ltmp686:                               # EH_LABEL
	pcalau12i	$a1, %pc_hi20(.L.str.131)
	addi.d	$a1, $a1, %pc_lo12(.L.str.131)
	ori	$a2, $zero, 18
	pcaddu18i	$ra, %call36(_ZSt16__ostream_insertIcSt11char_traitsIcEERSt13basic_ostreamIT_T0_ES6_PKS3_l)
	jirl	$ra, $ra, 0
.Ltmp687:                               # EH_LABEL
# %bb.311:                              # %_ZN9benchmark8internallsIA19_cEERNS0_7LogTypeES4_RKT_.exit856
	ld.d	$a0, $s8, 0
	beqz	$a0, .LBB7_321
# %bb.312:
.Ltmp689:                               # EH_LABEL
	fmov.d	$fa0, $fs0
	pcaddu18i	$ra, %call36(_ZNSo9_M_insertIdEERSoT_)
	jirl	$ra, $ra, 0
.Ltmp690:                               # EH_LABEL
# %bb.313:                              # %_ZN9benchmark8internallsIdEERNS0_7LogTypeES3_RKT_.exit859
	ld.d	$a0, $s8, 0
	beqz	$a0, .LBB7_321
# %bb.314:
.Ltmp691:                               # EH_LABEL
	pcalau12i	$a1, %pc_hi20(.L.str.132)
	addi.d	$a1, $a1, %pc_lo12(.L.str.132)
	ori	$a2, $zero, 2
	pcaddu18i	$ra, %call36(_ZSt16__ostream_insertIcSt11char_traitsIcEERSt13basic_ostreamIT_T0_ES6_PKS3_l)
	jirl	$ra, $ra, 0
.Ltmp692:                               # EH_LABEL
# %bb.315:                              # %_ZN9benchmark8internallsIA3_cEERNS0_7LogTypeES4_RKT_.exit862
	ld.d	$a0, $s8, 0
	beqz	$a0, .LBB7_321
# %bb.316:
.Ltmp694:                               # EH_LABEL
	pcalau12i	$a1, %pc_hi20(.LCPI7_1)
	fld.d	$fa0, $a1, %pc_lo12(.LCPI7_1)
	pcaddu18i	$ra, %call36(_ZNSo9_M_insertIdEERSoT_)
	jirl	$ra, $ra, 0
.Ltmp695:                               # EH_LABEL
# %bb.317:                              # %_ZN9benchmark8internallsIdEERNS0_7LogTypeES3_RKT_.exit865
	ld.d	$a0, $s8, 0
	beqz	$a0, .LBB7_321
# %bb.318:
.Ltmp696:                               # EH_LABEL
	pcalau12i	$a1, %pc_hi20(.L.str.133)
	addi.d	$a1, $a1, %pc_lo12(.L.str.133)
	ori	$a2, $zero, 4
	pcaddu18i	$ra, %call36(_ZSt16__ostream_insertIcSt11char_traitsIcEERSt13basic_ostreamIT_T0_ES6_PKS3_l)
	jirl	$ra, $ra, 0
.Ltmp697:                               # EH_LABEL
# %bb.319:                              # %_ZN9benchmark8internallsIA5_cEERNS0_7LogTypeES4_RKT_.exit868
	ld.d	$a0, $s8, 0
	beqz	$a0, .LBB7_321
# %bb.320:
.Ltmp698:                               # EH_LABEL
	pcalau12i	$a1, %pc_hi20(.L.str.134)
	addi.d	$a1, $a1, %pc_lo12(.L.str.134)
	ori	$a2, $zero, 14
	pcaddu18i	$ra, %call36(_ZSt16__ostream_insertIcSt11char_traitsIcEERSt13basic_ostreamIT_T0_ES6_PKS3_l)
	jirl	$ra, $ra, 0
.Ltmp699:                               # EH_LABEL
.LBB7_321:                              # %_ZN9benchmark8internallsIA15_cEERNS0_7LogTypeES4_RKT_.exit871
	st.d	$s2, $sp, 104
	st.h	$s6, $sp, 120
	st.b	$s7, $sp, 122
	ori	$a0, $zero, 3
	st.d	$a0, $sp, 112
	st.b	$zero, $sp, 123
.Ltmp701:                               # EH_LABEL
	addi.d	$a1, $sp, 104
	move	$a0, $fp
	pcaddu18i	$ra, %call36(_ZNK7Results5GetAsIdEET_RKNSt7__cxx1112basic_stringIcSt11char_traitsIcESaIcEEE)
	jirl	$ra, $ra, 0
.Ltmp702:                               # EH_LABEL
# %bb.322:                              # %_ZNK7Results12GetCounterAsIdEET_RKNSt7__cxx1112basic_stringIcSt11char_traitsIcESaIcEEE.exit877
	ld.d	$a0, $s8, 0
	beqz	$a0, .LBB7_326
# %bb.323:
	fsub.d	$fa0, $fa0, $fs1
.Ltmp703:                               # EH_LABEL
	pcaddu18i	$ra, %call36(_ZNSo9_M_insertIdEERSoT_)
	jirl	$ra, $ra, 0
.Ltmp704:                               # EH_LABEL
# %bb.324:                              # %_ZN9benchmark8internallsIdEERNS0_7LogTypeES3_RKT_.exit880
	ld.d	$a0, $s8, 0
	beqz	$a0, .LBB7_326
# %bb.325:
.Ltmp705:                               # EH_LABEL
	pcalau12i	$a1, %pc_hi20(.L.str.132)
	addi.d	$a1, $a1, %pc_lo12(.L.str.132)
	ori	$a2, $zero, 2
	pcaddu18i	$ra, %call36(_ZSt16__ostream_insertIcSt11char_traitsIcEERSt13basic_ostreamIT_T0_ES6_PKS3_l)
	jirl	$ra, $ra, 0
.Ltmp706:                               # EH_LABEL
.LBB7_326:                              # %_ZN9benchmark8internallsIA3_cEERNS0_7LogTypeES4_RKT_.exit883
	st.d	$s3, $sp, 72
	st.h	$s6, $sp, 88
	st.b	$s7, $sp, 90
	ori	$a0, $zero, 3
	st.d	$a0, $sp, 80
	st.b	$zero, $sp, 91
.Ltmp708:                               # EH_LABEL
	addi.d	$a1, $sp, 72
	move	$a0, $fp
	pcaddu18i	$ra, %call36(_ZNK7Results5GetAsIdEET_RKNSt7__cxx1112basic_stringIcSt11char_traitsIcESaIcEEE)
	jirl	$ra, $ra, 0
.Ltmp709:                               # EH_LABEL
# %bb.327:                              # %_ZNK7Results12GetCounterAsIdEET_RKNSt7__cxx1112basic_stringIcSt11char_traitsIcESaIcEEE.exit889
	ld.d	$a0, $s8, 0
	beqz	$a0, .LBB7_331
# %bb.328:
	fld.d	$fa1, $s5, %pc_lo12(.LCPI7_2)
	fsub.d	$fa0, $fa0, $fs1
	fabs.d	$fa2, $fs1
	fld.d	$fa3, $s4, %pc_lo12(.LCPI7_3)
	fcmp.clt.d	$fcc0, $fa1, $fa2
	fsel	$fa1, $fa1, $fs1, $fcc0
	fdiv.d	$fa0, $fa0, $fa1
	fmul.d	$fa0, $fa0, $fa3
.Ltmp710:                               # EH_LABEL
	pcaddu18i	$ra, %call36(_ZNSo9_M_insertIdEERSoT_)
	jirl	$ra, $ra, 0
.Ltmp711:                               # EH_LABEL
# %bb.329:                              # %_ZN9benchmark8internallsIdEERNS0_7LogTypeES3_RKT_.exit892
	ld.d	$a0, $s8, 0
	beqz	$a0, .LBB7_331
# %bb.330:
.Ltmp712:                               # EH_LABEL
	pcalau12i	$a1, %pc_hi20(.L.str.135)
	addi.d	$a1, $a1, %pc_lo12(.L.str.135)
	ori	$a2, $zero, 2
	pcaddu18i	$ra, %call36(_ZSt16__ostream_insertIcSt11char_traitsIcEERSt13basic_ostreamIT_T0_ES6_PKS3_l)
	jirl	$ra, $ra, 0
.Ltmp713:                               # EH_LABEL
.LBB7_331:                              # %_ZN9benchmark8internallsIA3_cEERNS0_7LogTypeES4_RKT_.exit895
	ld.d	$a0, $sp, 72
	beq	$a0, $s3, .LBB7_333
# %bb.332:                              # %_ZNKSt7__cxx1112basic_stringIcSt11char_traitsIcESaIcEE11_M_is_localEv.exit.i.i896
	ld.d	$a1, $sp, 88
	addi.d	$a1, $a1, 1
	pcaddu18i	$ra, %call36(_ZdlPvm)
	jirl	$ra, $ra, 0
.LBB7_333:                              # %_ZNSt7__cxx1112basic_stringIcSt11char_traitsIcESaIcEED2Ev.exit898
	ld.d	$a0, $sp, 104
	beq	$a0, $s2, .LBB7_335
# %bb.334:                              # %_ZNKSt7__cxx1112basic_stringIcSt11char_traitsIcESaIcEE11_M_is_localEv.exit.i.i899
	ld.d	$a1, $sp, 120
	addi.d	$a1, $a1, 1
	pcaddu18i	$ra, %call36(_ZdlPvm)
	jirl	$ra, $ra, 0
.LBB7_335:                              # %_ZNSt7__cxx1112basic_stringIcSt11char_traitsIcESaIcEED2Ev.exit901
	ld.d	$a0, $sp, 136
	beq	$a0, $s1, .LBB7_337
# %bb.336:                              # %_ZNKSt7__cxx1112basic_stringIcSt11char_traitsIcESaIcEE11_M_is_localEv.exit.i.i902
	ld.d	$a1, $sp, 152
	addi.d	$a1, $a1, 1
	pcaddu18i	$ra, %call36(_ZdlPvm)
	jirl	$ra, $ra, 0
.LBB7_337:                              # %_ZNSt7__cxx1112basic_stringIcSt11char_traitsIcESaIcEED2Ev.exit904
	fcmp.clt.d	$fcc0, $fs4, $fs0
	bceqz	$fcc0, .LBB7_517
# %bb.338:
	ld.d	$a0, $sp, 176
	beq	$a0, $s0, .LBB7_340
# %bb.339:                              # %_ZNKSt7__cxx1112basic_stringIcSt11char_traitsIcESaIcEE11_M_is_localEv.exit.i.i917
	ld.d	$a1, $sp, 192
	addi.d	$a1, $a1, 1
	pcaddu18i	$ra, %call36(_ZdlPvm)
	jirl	$ra, $ra, 0
.LBB7_340:                              # %_ZNSt7__cxx1112basic_stringIcSt11char_traitsIcESaIcEED2Ev.exit919
	st.d	$s0, $sp, 176
	lu12i.w	$a0, 403191
	ori	$s6, $a0, 582
	st.w	$s6, $sp, 192
	ori	$a0, $zero, 4
	st.d	$a0, $sp, 184
	st.b	$zero, $sp, 196
.Ltmp715:                               # EH_LABEL
	addi.d	$a1, $sp, 176
	move	$a0, $fp
	pcaddu18i	$ra, %call36(_ZNK7Results5GetAsIdEET_RKNSt7__cxx1112basic_stringIcSt11char_traitsIcESaIcEEE)
	jirl	$ra, $ra, 0
.Ltmp716:                               # EH_LABEL
# %bb.341:                              # %_ZNK7Results12GetCounterAsIdEET_RKNSt7__cxx1112basic_stringIcSt11char_traitsIcESaIcEEE.exit925
	vldi	$vr1, -976
	fdiv.d	$fs1, $fa1, $fs2
	fsub.d	$fa0, $fa0, $fs1
	fabs.d	$fs4, $fa0
	fmul.d	$fs0, $fs1, $fs3
	fcmp.cule.d	$fcc0, $fs0, $fs4
	movcf2gr	$a0, $fcc0
	st.d	$a0, $sp, 24
	bceqz	$fcc0, .LBB7_344
# %bb.342:
.Ltmp718:                               # EH_LABEL
	pcalau12i	$a0, %pc_hi20(.L.str.139)
	addi.d	$a1, $a0, %pc_lo12(.L.str.139)
	pcalau12i	$a0, %pc_hi20(.L.str.101)
	addi.d	$a2, $a0, %pc_lo12(.L.str.101)
	pcalau12i	$a0, %pc_hi20(.L__func__._Z16CheckTabularRateRK7Results)
	addi.d	$a3, $a0, %pc_lo12(.L__func__._Z16CheckTabularRateRK7Results)
	addi.d	$a0, $sp, 40
	ori	$a4, $zero, 423
	pcaddu18i	$ra, %call36(_ZN9benchmark8internal12CheckHandlerC2EPKcS3_S3_i)
	jirl	$ra, $ra, 0
.Ltmp719:                               # EH_LABEL
# %bb.343:
	ld.d	$s7, $sp, 40
	b	.LBB7_345
.LBB7_344:
	pcalau12i	$a0, %pc_hi20(_ZGVZN9benchmark8internal18GetNullLogInstanceEvE8null_log)
	ld.b	$a0, $a0, %pc_lo12(_ZGVZN9benchmark8internal18GetNullLogInstanceEvE8null_log)
	dbar	20
	pcalau12i	$a1, %pc_hi20(_ZZN9benchmark8internal18GetNullLogInstanceEvE8null_log)
	addi.d	$s7, $a1, %pc_lo12(_ZZN9benchmark8internal18GetNullLogInstanceEvE8null_log)
	beqz	$a0, .LBB7_531
.LBB7_345:                              # %_ZN9benchmark8internal18GetNullLogInstanceEv.exit927
	ld.d	$a0, $s7, 0
	beqz	$a0, .LBB7_377
# %bb.346:
.Ltmp720:                               # EH_LABEL
	pcalau12i	$a1, %pc_hi20(.L.str.102)
	addi.d	$a1, $a1, %pc_lo12(.L.str.102)
	ori	$a2, $zero, 1
	pcaddu18i	$ra, %call36(_ZSt16__ostream_insertIcSt11char_traitsIcEERSt13basic_ostreamIT_T0_ES6_PKS3_l)
	jirl	$ra, $ra, 0
.Ltmp721:                               # EH_LABEL
# %bb.347:                              # %_ZN9benchmark8internallsIA2_cEERNS0_7LogTypeES4_RKT_.exit930
	ld.d	$a0, $s7, 0
	beqz	$a0, .LBB7_377
# %bb.348:
.Ltmp722:                               # EH_LABEL
	pcalau12i	$a1, %pc_hi20(.L.str.101)
	addi.d	$a1, $a1, %pc_lo12(.L.str.101)
	ori	$a2, $zero, 148
	pcaddu18i	$ra, %call36(_ZSt16__ostream_insertIcSt11char_traitsIcEERSt13basic_ostreamIT_T0_ES6_PKS3_l)
	jirl	$ra, $ra, 0
.Ltmp723:                               # EH_LABEL
# %bb.349:                              # %_ZN9benchmark8internallsIA149_cEERNS0_7LogTypeES4_RKT_.exit933
	ld.d	$a0, $s7, 0
	beqz	$a0, .LBB7_377
# %bb.350:
.Ltmp724:                               # EH_LABEL
	pcalau12i	$a1, %pc_hi20(.L.str.103)
	addi.d	$a1, $a1, %pc_lo12(.L.str.103)
	ori	$a2, $zero, 1
	pcaddu18i	$ra, %call36(_ZSt16__ostream_insertIcSt11char_traitsIcEERSt13basic_ostreamIT_T0_ES6_PKS3_l)
	jirl	$ra, $ra, 0
.Ltmp725:                               # EH_LABEL
# %bb.351:                              # %_ZN9benchmark8internallsIA2_cEERNS0_7LogTypeES4_RKT_.exit936
	ld.d	$a0, $s7, 0
	beqz	$a0, .LBB7_377
# %bb.352:
.Ltmp727:                               # EH_LABEL
	ori	$a1, $zero, 423
	pcaddu18i	$ra, %call36(_ZNSolsEi)
	jirl	$ra, $ra, 0
.Ltmp728:                               # EH_LABEL
# %bb.353:                              # %_ZN9benchmark8internallsIiEERNS0_7LogTypeES3_RKT_.exit939
	ld.d	$a0, $s7, 0
	beqz	$a0, .LBB7_377
# %bb.354:
.Ltmp729:                               # EH_LABEL
	pcalau12i	$a1, %pc_hi20(.L.str.104)
	addi.d	$a1, $a1, %pc_lo12(.L.str.104)
	ori	$a2, $zero, 2
	pcaddu18i	$ra, %call36(_ZSt16__ostream_insertIcSt11char_traitsIcEERSt13basic_ostreamIT_T0_ES6_PKS3_l)
	jirl	$ra, $ra, 0
.Ltmp730:                               # EH_LABEL
# %bb.355:                              # %_ZN9benchmark8internallsIA3_cEERNS0_7LogTypeES4_RKT_.exit942
	ld.d	$a0, $s7, 0
	beqz	$a0, .LBB7_377
# %bb.356:
	ld.d	$a1, $fp, 0
	ld.d	$a2, $fp, 8
.Ltmp731:                               # EH_LABEL
	pcaddu18i	$ra, %call36(_ZSt16__ostream_insertIcSt11char_traitsIcEERSt13basic_ostreamIT_T0_ES6_PKS3_l)
	jirl	$ra, $ra, 0
.Ltmp732:                               # EH_LABEL
# %bb.357:                              # %_ZN9benchmark8internallsINSt7__cxx1112basic_stringIcSt11char_traitsIcESaIcEEEEERNS0_7LogTypeES9_RKT_.exit945
	ld.d	$a0, $s7, 0
	beqz	$a0, .LBB7_377
# %bb.358:
.Ltmp733:                               # EH_LABEL
	pcalau12i	$a1, %pc_hi20(.L.str.105)
	addi.d	$a1, $a1, %pc_lo12(.L.str.105)
	ori	$a2, $zero, 2
	pcaddu18i	$ra, %call36(_ZSt16__ostream_insertIcSt11char_traitsIcEERSt13basic_ostreamIT_T0_ES6_PKS3_l)
	jirl	$ra, $ra, 0
.Ltmp734:                               # EH_LABEL
# %bb.359:                              # %_ZN9benchmark8internallsIA3_cEERNS0_7LogTypeES4_RKT_.exit948
	ld.d	$a0, $s7, 0
	beqz	$a0, .LBB7_377
# %bb.360:
.Ltmp735:                               # EH_LABEL
	pcalau12i	$a1, %pc_hi20(.L.str.101)
	addi.d	$a1, $a1, %pc_lo12(.L.str.101)
	ori	$a2, $zero, 148
	pcaddu18i	$ra, %call36(_ZSt16__ostream_insertIcSt11char_traitsIcEERSt13basic_ostreamIT_T0_ES6_PKS3_l)
	jirl	$ra, $ra, 0
.Ltmp736:                               # EH_LABEL
# %bb.361:                              # %_ZN9benchmark8internallsIA149_cEERNS0_7LogTypeES4_RKT_.exit951
	ld.d	$a0, $s7, 0
	beqz	$a0, .LBB7_377
# %bb.362:
.Ltmp737:                               # EH_LABEL
	pcalau12i	$a1, %pc_hi20(.L.str.103)
	addi.d	$a1, $a1, %pc_lo12(.L.str.103)
	ori	$a2, $zero, 1
	pcaddu18i	$ra, %call36(_ZSt16__ostream_insertIcSt11char_traitsIcEERSt13basic_ostreamIT_T0_ES6_PKS3_l)
	jirl	$ra, $ra, 0
.Ltmp738:                               # EH_LABEL
# %bb.363:                              # %_ZN9benchmark8internallsIA2_cEERNS0_7LogTypeES4_RKT_.exit954
	ld.d	$a0, $s7, 0
	beqz	$a0, .LBB7_377
# %bb.364:
.Ltmp740:                               # EH_LABEL
	ori	$a1, $zero, 423
	pcaddu18i	$ra, %call36(_ZNSolsEi)
	jirl	$ra, $ra, 0
.Ltmp741:                               # EH_LABEL
# %bb.365:                              # %_ZN9benchmark8internallsIiEERNS0_7LogTypeES3_RKT_.exit957
	ld.d	$a0, $s7, 0
	beqz	$a0, .LBB7_377
# %bb.366:
.Ltmp742:                               # EH_LABEL
	pcalau12i	$a1, %pc_hi20(.L.str.104)
	addi.d	$a1, $a1, %pc_lo12(.L.str.104)
	ori	$a2, $zero, 2
	pcaddu18i	$ra, %call36(_ZSt16__ostream_insertIcSt11char_traitsIcEERSt13basic_ostreamIT_T0_ES6_PKS3_l)
	jirl	$ra, $ra, 0
.Ltmp743:                               # EH_LABEL
# %bb.367:                              # %_ZN9benchmark8internallsIA3_cEERNS0_7LogTypeES4_RKT_.exit960
	ld.d	$a0, $s7, 0
	beqz	$a0, .LBB7_377
# %bb.368:
.Ltmp744:                               # EH_LABEL
	pcalau12i	$a1, %pc_hi20(.L.str.106)
	addi.d	$a1, $a1, %pc_lo12(.L.str.106)
	ori	$a2, $zero, 10
	pcaddu18i	$ra, %call36(_ZSt16__ostream_insertIcSt11char_traitsIcEERSt13basic_ostreamIT_T0_ES6_PKS3_l)
	jirl	$ra, $ra, 0
.Ltmp745:                               # EH_LABEL
# %bb.369:                              # %_ZN9benchmark8internallsIA11_cEERNS0_7LogTypeES4_RKT_.exit963
	ld.d	$a0, $s7, 0
	beqz	$a0, .LBB7_377
# %bb.370:
.Ltmp746:                               # EH_LABEL
	pcalau12i	$a1, %pc_hi20(.L.str.130)
	addi.d	$a1, $a1, %pc_lo12(.L.str.130)
	ori	$a2, $zero, 6
	pcaddu18i	$ra, %call36(_ZSt16__ostream_insertIcSt11char_traitsIcEERSt13basic_ostreamIT_T0_ES6_PKS3_l)
	jirl	$ra, $ra, 0
.Ltmp747:                               # EH_LABEL
# %bb.371:                              # %_ZN9benchmark8internallsIA7_cEERNS0_7LogTypeES4_RKT_.exit966
	ld.d	$a0, $s7, 0
	beqz	$a0, .LBB7_377
# %bb.372:
.Ltmp748:                               # EH_LABEL
	pcalau12i	$a1, %pc_hi20(.L.str.108)
	addi.d	$a1, $a1, %pc_lo12(.L.str.108)
	ori	$a2, $zero, 1
	pcaddu18i	$ra, %call36(_ZSt16__ostream_insertIcSt11char_traitsIcEERSt13basic_ostreamIT_T0_ES6_PKS3_l)
	jirl	$ra, $ra, 0
.Ltmp749:                               # EH_LABEL
# %bb.373:                              # %_ZN9benchmark8internallsIA2_cEERNS0_7LogTypeES4_RKT_.exit969
	ld.d	$a0, $s7, 0
	beqz	$a0, .LBB7_377
# %bb.374:
.Ltmp750:                               # EH_LABEL
	pcalau12i	$a1, %pc_hi20(.L.str.25)
	addi.d	$a1, $a1, %pc_lo12(.L.str.25)
	ori	$a2, $zero, 4
	pcaddu18i	$ra, %call36(_ZSt16__ostream_insertIcSt11char_traitsIcEERSt13basic_ostreamIT_T0_ES6_PKS3_l)
	jirl	$ra, $ra, 0
.Ltmp751:                               # EH_LABEL
# %bb.375:                              # %_ZN9benchmark8internallsIA5_cEERNS0_7LogTypeES4_RKT_.exit972
	ld.d	$a0, $s7, 0
	beqz	$a0, .LBB7_377
# %bb.376:
.Ltmp752:                               # EH_LABEL
	pcalau12i	$a1, %pc_hi20(.L.str.109)
	addi.d	$a1, $a1, %pc_lo12(.L.str.109)
	ori	$a2, $zero, 1
	pcaddu18i	$ra, %call36(_ZSt16__ostream_insertIcSt11char_traitsIcEERSt13basic_ostreamIT_T0_ES6_PKS3_l)
	jirl	$ra, $ra, 0
.Ltmp753:                               # EH_LABEL
.LBB7_377:                              # %_ZN9benchmark8internallsIA2_cEERNS0_7LogTypeES4_RKT_.exit975
	st.d	$s1, $sp, 136
	st.w	$s6, $sp, 152
	ori	$a0, $zero, 4
	st.d	$a0, $sp, 144
	st.b	$zero, $sp, 156
.Ltmp755:                               # EH_LABEL
	addi.d	$a1, $sp, 136
	move	$a0, $fp
	pcaddu18i	$ra, %call36(_ZNK7Results5GetAsIdEET_RKNSt7__cxx1112basic_stringIcSt11char_traitsIcESaIcEEE)
	jirl	$ra, $ra, 0
.Ltmp756:                               # EH_LABEL
# %bb.378:                              # %_ZNK7Results12GetCounterAsIdEET_RKNSt7__cxx1112basic_stringIcSt11char_traitsIcESaIcEEE.exit981
	ld.d	$a0, $s7, 0
	beqz	$a0, .LBB7_406
# %bb.379:
.Ltmp757:                               # EH_LABEL
	pcaddu18i	$ra, %call36(_ZNSo9_M_insertIdEERSoT_)
	jirl	$ra, $ra, 0
.Ltmp758:                               # EH_LABEL
# %bb.380:                              # %_ZN9benchmark8internallsIdEERNS0_7LogTypeES3_RKT_.exit984
	ld.d	$a0, $s7, 0
	beqz	$a0, .LBB7_406
# %bb.381:
.Ltmp759:                               # EH_LABEL
	pcalau12i	$a1, %pc_hi20(.L.str.110)
	addi.d	$a1, $a1, %pc_lo12(.L.str.110)
	ori	$a2, $zero, 13
	pcaddu18i	$ra, %call36(_ZSt16__ostream_insertIcSt11char_traitsIcEERSt13basic_ostreamIT_T0_ES6_PKS3_l)
	jirl	$ra, $ra, 0
.Ltmp760:                               # EH_LABEL
# %bb.382:                              # %_ZN9benchmark8internallsIA14_cEERNS0_7LogTypeES4_RKT_.exit987
	ld.d	$a0, $s7, 0
	beqz	$a0, .LBB7_406
# %bb.383:
.Ltmp762:                               # EH_LABEL
	fmov.d	$fa0, $fs1
	pcaddu18i	$ra, %call36(_ZNSo9_M_insertIdEERSoT_)
	jirl	$ra, $ra, 0
.Ltmp763:                               # EH_LABEL
# %bb.384:                              # %_ZN9benchmark8internallsIdEERNS0_7LogTypeES3_RKT_.exit990
	ld.d	$a0, $s7, 0
	beqz	$a0, .LBB7_406
# %bb.385:
.Ltmp764:                               # EH_LABEL
	pcalau12i	$a1, %pc_hi20(.L.str.102)
	addi.d	$a1, $a1, %pc_lo12(.L.str.102)
	ori	$a2, $zero, 1
