	.file	"Bench.cpp"
	.text
	.globl	_ZN18CBenchmarkInStream4ReadEPvjPj # -- Begin function _ZN18CBenchmarkInStream4ReadEPvjPj
	.p2align	5
	.type	_ZN18CBenchmarkInStream4ReadEPvjPj,@function
_ZN18CBenchmarkInStream4ReadEPvjPj:     # @_ZN18CBenchmarkInStream4ReadEPvjPj
# %bb.0:
	ld.d	$a5, $a0, 32
	ld.d	$a4, $a0, 24
	sub.d	$a5, $a5, $a4
	sltu	$a6, $a2, $a5
	masknez	$a5, $a5, $a6
	maskeqz	$a2, $a2, $a6
	or	$a2, $a2, $a5
	srli.d	$a5, $a2, 20
	sltui	$a5, $a5, 1
	maskeqz	$a2, $a2, $a5
	lu12i.w	$a6, 256
	masknez	$a5, $a6, $a5
	or	$a2, $a2, $a5
	beqz	$a2, .LBB0_4
# %bb.1:                                # %.lr.ph
	move	$a4, $zero
	.p2align	4, , 16
.LBB0_2:                                # =>This Inner Loop Header: Depth=1
	ld.d	$a5, $a0, 16
	ld.d	$a6, $a0, 24
	add.d	$a5, $a5, $a6
	ldx.b	$a5, $a5, $a4
	stx.b	$a5, $a1, $a4
	addi.d	$a4, $a4, 1
	bne	$a2, $a4, .LBB0_2
# %bb.3:                                # %._crit_edge.loopexit
	ld.d	$a4, $a0, 24
.LBB0_4:                                # %._crit_edge
	add.d	$a1, $a4, $a2
	st.d	$a1, $a0, 24
	beqz	$a3, .LBB0_6
# %bb.5:
	st.w	$a2, $a3, 0
.LBB0_6:
	move	$a0, $zero
	ret
.Lfunc_end0:
	.size	_ZN18CBenchmarkInStream4ReadEPvjPj, .Lfunc_end0-_ZN18CBenchmarkInStream4ReadEPvjPj
                                        # -- End function
	.globl	_ZN19CBenchmarkOutStream5WriteEPKvjPj # -- Begin function _ZN19CBenchmarkOutStream5WriteEPKvjPj
	.p2align	5
	.type	_ZN19CBenchmarkOutStream5WriteEPKvjPj,@function
_ZN19CBenchmarkOutStream5WriteEPKvjPj:  # @_ZN19CBenchmarkOutStream5WriteEPKvjPj
# %bb.0:
	addi.d	$sp, $sp, -48
	st.d	$ra, $sp, 40                    # 8-byte Folded Spill
	st.d	$fp, $sp, 32                    # 8-byte Folded Spill
	st.d	$s0, $sp, 24                    # 8-byte Folded Spill
	st.d	$s1, $sp, 16                    # 8-byte Folded Spill
	st.d	$s2, $sp, 8                     # 8-byte Folded Spill
	move	$s1, $a0
	ld.d	$a0, $a0, 16
	ld.wu	$a4, $s1, 36
	move	$fp, $a3
	sub.d	$a0, $a0, $a4
	bstrpick.d	$a2, $a2, 31, 0
	sltu	$s2, $a0, $a2
	ld.d	$a3, $s1, 24
	maskeqz	$a0, $a0, $s2
	masknez	$a2, $a2, $s2
	or	$s0, $a0, $a2
	add.d	$a0, $a3, $a4
	move	$a2, $s0
	pcaddu18i	$ra, %call36(memcpy)
	jirl	$ra, $ra, 0
	ld.w	$a0, $s1, 36
	add.d	$a0, $a0, $s0
	st.w	$a0, $s1, 36
	beqz	$fp, .LBB1_2
# %bb.1:
	st.w	$s0, $fp, 0
.LBB1_2:
	lu12i.w	$a0, -524284
	ori	$a0, $a0, 5
	maskeqz	$a0, $a0, $s2
	ld.d	$s2, $sp, 8                     # 8-byte Folded Reload
	ld.d	$s1, $sp, 16                    # 8-byte Folded Reload
	ld.d	$s0, $sp, 24                    # 8-byte Folded Reload
	ld.d	$fp, $sp, 32                    # 8-byte Folded Reload
	ld.d	$ra, $sp, 40                    # 8-byte Folded Reload
	addi.d	$sp, $sp, 48
	ret
.Lfunc_end1:
	.size	_ZN19CBenchmarkOutStream5WriteEPKvjPj, .Lfunc_end1-_ZN19CBenchmarkOutStream5WriteEPKvjPj
                                        # -- End function
	.globl	_ZN13CCrcOutStream5WriteEPKvjPj # -- Begin function _ZN13CCrcOutStream5WriteEPKvjPj
	.p2align	5
	.type	_ZN13CCrcOutStream5WriteEPKvjPj,@function
_ZN13CCrcOutStream5WriteEPKvjPj:        # @_ZN13CCrcOutStream5WriteEPKvjPj
	.cfi_startproc
# %bb.0:
	addi.d	$sp, $sp, -32
	.cfi_def_cfa_offset 32
	st.d	$ra, $sp, 24                    # 8-byte Folded Spill
	st.d	$fp, $sp, 16                    # 8-byte Folded Spill
	st.d	$s0, $sp, 8                     # 8-byte Folded Spill
	st.d	$s1, $sp, 0                     # 8-byte Folded Spill
	.cfi_offset 1, -8
	.cfi_offset 22, -16
	.cfi_offset 23, -24
	.cfi_offset 24, -32
	move	$s1, $a0
	ld.w	$a0, $a0, 12
	move	$fp, $a3
	move	$s0, $a2
	bstrpick.d	$a2, $a2, 31, 0
	pcaddu18i	$ra, %call36(CrcUpdate)
	jirl	$ra, $ra, 0
	st.w	$a0, $s1, 12
	beqz	$fp, .LBB2_2
# %bb.1:
	st.w	$s0, $fp, 0
.LBB2_2:
	move	$a0, $zero
	ld.d	$s1, $sp, 0                     # 8-byte Folded Reload
	ld.d	$s0, $sp, 8                     # 8-byte Folded Reload
	ld.d	$fp, $sp, 16                    # 8-byte Folded Reload
	ld.d	$ra, $sp, 24                    # 8-byte Folded Reload
	addi.d	$sp, $sp, 32
	ret
.Lfunc_end2:
	.size	_ZN13CCrcOutStream5WriteEPKvjPj, .Lfunc_end2-_ZN13CCrcOutStream5WriteEPKvjPj
	.cfi_endproc
                                        # -- End function
	.globl	_ZN18CBenchProgressInfo12SetRatioInfoEPKyS1_ # -- Begin function _ZN18CBenchProgressInfo12SetRatioInfoEPKyS1_
	.p2align	5
	.type	_ZN18CBenchProgressInfo12SetRatioInfoEPKyS1_,@function
_ZN18CBenchProgressInfo12SetRatioInfoEPKyS1_: # @_ZN18CBenchProgressInfo12SetRatioInfoEPKyS1_
	.cfi_startproc
# %bb.0:
	addi.d	$sp, $sp, -128
	.cfi_def_cfa_offset 128
	st.d	$ra, $sp, 120                   # 8-byte Folded Spill
	st.d	$fp, $sp, 112                   # 8-byte Folded Spill
	st.d	$s0, $sp, 104                   # 8-byte Folded Spill
	st.d	$s1, $sp, 96                    # 8-byte Folded Spill
	st.d	$s2, $sp, 88                    # 8-byte Folded Spill
	st.d	$s3, $sp, 80                    # 8-byte Folded Spill
	.cfi_offset 1, -8
	.cfi_offset 22, -16
	.cfi_offset 23, -24
	.cfi_offset 24, -32
	.cfi_offset 25, -40
	.cfi_offset 26, -48
	move	$fp, $a0
	ld.d	$s3, $a0, 16
	move	$s1, $a2
	move	$s0, $a1
	move	$a0, $s3
	pcaddu18i	$ra, %call36(pthread_mutex_lock)
	jirl	$ra, $ra, 0
	ld.w	$s2, $s3, 40
	move	$a0, $s3
	pcaddu18i	$ra, %call36(pthread_mutex_unlock)
	jirl	$ra, $ra, 0
	beqz	$s2, .LBB3_2
.LBB3_1:
	move	$a0, $s2
	ld.d	$s3, $sp, 80                    # 8-byte Folded Reload
	ld.d	$s2, $sp, 88                    # 8-byte Folded Reload
	ld.d	$s1, $sp, 96                    # 8-byte Folded Reload
	ld.d	$s0, $sp, 104                   # 8-byte Folded Reload
	ld.d	$fp, $sp, 112                   # 8-byte Folded Reload
	ld.d	$ra, $sp, 120                   # 8-byte Folded Reload
	addi.d	$sp, $sp, 128
	ret
.LBB3_2:
	ld.d	$a0, $fp, 88
	beqz	$a0, .LBB3_5
# %bb.3:
	ld.d	$a0, $fp, 72
	vld	$vr0, $fp, 56
	ld.d	$a1, $fp, 40
	ld.d	$a2, $fp, 24
	st.d	$a0, $sp, 56
	vst	$vr0, $sp, 40
	st.d	$a1, $sp, 24
	st.d	$a2, $sp, 8
	lu12i.w	$a0, 244
	ori	$s2, $a0, 576
	st.d	$s2, $sp, 16
	st.d	$s2, $sp, 32
	addi.d	$a0, $sp, 64
	move	$a1, $zero
	pcaddu18i	$ra, %call36(gettimeofday)
	jirl	$ra, $ra, 0
	beqz	$a0, .LBB3_6
# %bb.4:
	move	$a0, $zero
	pcaddu18i	$ra, %call36(time)
	jirl	$ra, $ra, 0
	mul.d	$a0, $a0, $s2
	b	.LBB3_7
.LBB3_5:
	move	$s2, $zero
	b	.LBB3_1
.LBB3_6:
	ld.d	$a0, $sp, 64
	ld.d	$a1, $sp, 72
	mul.d	$a0, $a0, $s2
	add.d	$a0, $a0, $a1
.LBB3_7:                                # %_ZL13SetFinishTimeRK10CBenchInfoRS_.exit
	ld.d	$a1, $fp, 24
	sub.d	$a0, $a0, $a1
	st.d	$a0, $sp, 8
	pcaddu18i	$ra, %call36(clock)
	jirl	$ra, $ra, 0
	ld.d	$a1, $fp, 16
	ld.d	$a2, $fp, 40
	ld.bu	$a1, $a1, 44
	sub.d	$a0, $a0, $a2
	st.d	$a0, $sp, 24
	beqz	$a1, .LBB3_9
# %bb.8:
	ld.d	$a0, $fp, 88
	ld.d	$a1, $s0, 0
	ld.d	$a2, $s1, 0
	ld.d	$a3, $a0, 0
	st.d	$a1, $sp, 40
	st.d	$a2, $sp, 48
	ld.d	$a3, $a3, 0
	b	.LBB3_10
.LBB3_9:
	ld.d	$a1, $s1, 0
	ld.d	$a0, $fp, 88
	ld.d	$a2, $s0, 0
	vld	$vr0, $fp, 56
	vinsgr2vr.d	$vr1, $a1, 0
	ld.d	$a1, $a0, 0
	vinsgr2vr.d	$vr1, $a2, 1
	vadd.d	$vr0, $vr1, $vr0
	vst	$vr0, $sp, 40
	ld.d	$a3, $a1, 8
.LBB3_10:
	addi.d	$a1, $sp, 8
	move	$a2, $zero
	jirl	$ra, $a3, 0
	move	$s2, $a0
	beqz	$a0, .LBB3_1
# %bb.11:
	ld.d	$fp, $fp, 16
	move	$a0, $fp
	pcaddu18i	$ra, %call36(pthread_mutex_lock)
	jirl	$ra, $ra, 0
	st.w	$s2, $fp, 40
	move	$a0, $fp
	pcaddu18i	$ra, %call36(pthread_mutex_unlock)
	jirl	$ra, $ra, 0
	b	.LBB3_1
.Lfunc_end3:
	.size	_ZN18CBenchProgressInfo12SetRatioInfoEPKyS1_, .Lfunc_end3-_ZN18CBenchProgressInfo12SetRatioInfoEPKyS1_
	.cfi_endproc
                                        # -- End function
	.p2align	5                               # -- Begin function _ZL13SetFinishTimeRK10CBenchInfoRS_
	.type	_ZL13SetFinishTimeRK10CBenchInfoRS_,@function
_ZL13SetFinishTimeRK10CBenchInfoRS_:    # @_ZL13SetFinishTimeRK10CBenchInfoRS_
# %bb.0:
	addi.d	$sp, $sp, -48
	st.d	$ra, $sp, 40                    # 8-byte Folded Spill
	st.d	$fp, $sp, 32                    # 8-byte Folded Spill
	st.d	$s0, $sp, 24                    # 8-byte Folded Spill
	st.d	$s1, $sp, 16                    # 8-byte Folded Spill
	move	$fp, $a1
	move	$s0, $a0
	lu12i.w	$a0, 244
	ori	$s1, $a0, 576
	st.d	$s1, $a1, 8
	st.d	$s1, $a1, 24
	addi.d	$a0, $sp, 0
	move	$a1, $zero
	pcaddu18i	$ra, %call36(gettimeofday)
	jirl	$ra, $ra, 0
	beqz	$a0, .LBB4_2
# %bb.1:
	move	$a0, $zero
	pcaddu18i	$ra, %call36(time)
	jirl	$ra, $ra, 0
	mul.d	$a0, $a0, $s1
	b	.LBB4_3
.LBB4_2:
	ld.d	$a0, $sp, 0
	ld.d	$a1, $sp, 8
	mul.d	$a0, $a0, $s1
	add.d	$a0, $a0, $a1
.LBB4_3:                                # %_ZL12GetTimeCountv.exit
	ld.d	$a1, $s0, 0
	sub.d	$a0, $a0, $a1
	st.d	$a0, $fp, 0
	pcaddu18i	$ra, %call36(clock)
	jirl	$ra, $ra, 0
	ld.d	$a1, $s0, 16
	sub.d	$a0, $a0, $a1
	st.d	$a0, $fp, 16
	ld.d	$s1, $sp, 16                    # 8-byte Folded Reload
	ld.d	$s0, $sp, 24                    # 8-byte Folded Reload
	ld.d	$fp, $sp, 32                    # 8-byte Folded Reload
	ld.d	$ra, $sp, 40                    # 8-byte Folded Reload
	addi.d	$sp, $sp, 48
	ret
.Lfunc_end4:
	.size	_ZL13SetFinishTimeRK10CBenchInfoRS_, .Lfunc_end4-_ZL13SetFinishTimeRK10CBenchInfoRS_
                                        # -- End function
	.globl	_Z8GetUsageRK10CBenchInfo       # -- Begin function _Z8GetUsageRK10CBenchInfo
	.p2align	5
	.type	_Z8GetUsageRK10CBenchInfo,@function
_Z8GetUsageRK10CBenchInfo:              # @_Z8GetUsageRK10CBenchInfo
# %bb.0:
	ld.d	$a2, $a0, 16
	ld.d	$a4, $a0, 24
	ld.d	$a3, $a0, 8
	lu12i.w	$a1, 244
	ori	$a6, $a1, 577
	lu12i.w	$a5, 488
	bltu	$a2, $a6, .LBB5_3
# %bb.1:                                # %.lr.ph.i.preheader
	ori	$a7, $a5, 1153
	.p2align	4, , 16
.LBB5_2:                                # %.lr.ph.i
                                        # =>This Inner Loop Header: Depth=1
	move	$t0, $a2
	srli.d	$a2, $a2, 1
	srli.d	$a4, $a4, 1
	bltu	$a7, $t0, .LBB5_2
.LBB5_3:                                # %_ZL13NormalizeValsRyS_.exit
	ld.d	$a0, $a0, 0
	bltu	$a3, $a6, .LBB5_6
# %bb.4:                                # %.lr.ph.i4.preheader
	ori	$a5, $a5, 1153
	.p2align	4, , 16
.LBB5_5:                                # %.lr.ph.i4
                                        # =>This Inner Loop Header: Depth=1
	move	$a6, $a3
	srli.d	$a3, $a3, 1
	srli.d	$a0, $a0, 1
	bltu	$a5, $a6, .LBB5_5
.LBB5_6:                                # %_ZL13NormalizeValsRyS_.exit5
	ori	$a5, $zero, 1
	sltu	$a6, $a5, $a4
	masknez	$a7, $a5, $a6
	maskeqz	$a4, $a4, $a6
	or	$a4, $a4, $a7
	sltu	$a6, $a5, $a0
	masknez	$a5, $a5, $a6
	maskeqz	$a0, $a0, $a6
	or	$a0, $a0, $a5
	mul.d	$a2, $a2, $a3
	ori	$a1, $a1, 576
	mul.d	$a1, $a2, $a1
	div.du	$a1, $a1, $a4
	div.du	$a0, $a1, $a0
	ret
.Lfunc_end5:
	.size	_Z8GetUsageRK10CBenchInfo, .Lfunc_end5-_Z8GetUsageRK10CBenchInfo
                                        # -- End function
	.globl	_Z17GetRatingPerUsageRK10CBenchInfoy # -- Begin function _Z17GetRatingPerUsageRK10CBenchInfoy
	.p2align	5
	.type	_Z17GetRatingPerUsageRK10CBenchInfoy,@function
_Z17GetRatingPerUsageRK10CBenchInfoy:   # @_Z17GetRatingPerUsageRK10CBenchInfoy
# %bb.0:
	ld.d	$a2, $a0, 16
	ld.d	$a3, $a0, 24
	ld.d	$a4, $a0, 0
	lu12i.w	$a5, 244
	ori	$a6, $a5, 577
	lu12i.w	$a5, 488
	bltu	$a3, $a6, .LBB6_3
# %bb.1:                                # %.lr.ph.i.preheader
	ori	$a7, $a5, 1153
	.p2align	4, , 16
.LBB6_2:                                # %.lr.ph.i
                                        # =>This Inner Loop Header: Depth=1
	move	$t0, $a3
	srli.d	$a3, $a3, 1
	srli.d	$a2, $a2, 1
	bltu	$a7, $t0, .LBB6_2
.LBB6_3:                                # %_ZL13NormalizeValsRyS_.exit
	ld.d	$a0, $a0, 8
	bltu	$a4, $a6, .LBB6_6
# %bb.4:                                # %.lr.ph.i4.preheader
	ori	$a5, $a5, 1153
	.p2align	4, , 16
.LBB6_5:                                # %.lr.ph.i4
                                        # =>This Inner Loop Header: Depth=1
	move	$a6, $a4
	srli.d	$a4, $a4, 1
	srli.d	$a0, $a0, 1
	bltu	$a5, $a6, .LBB6_5
.LBB6_6:                                # %_ZL13NormalizeValsRyS_.exit5
	ori	$a5, $zero, 1
	sltu	$a6, $a5, $a0
	masknez	$a7, $a5, $a6
	maskeqz	$a0, $a0, $a6
	or	$a0, $a0, $a7
	sltu	$a6, $a5, $a2
	masknez	$a5, $a5, $a6
	maskeqz	$a2, $a2, $a6
	or	$a2, $a2, $a5
	mul.d	$a3, $a4, $a3
	div.du	$a0, $a3, $a0
	mul.d	$a0, $a0, $a1
	div.du	$a0, $a0, $a2
	ret
.Lfunc_end6:
	.size	_Z17GetRatingPerUsageRK10CBenchInfoy, .Lfunc_end6-_Z17GetRatingPerUsageRK10CBenchInfoy
                                        # -- End function
	.section	.rodata.cst32,"aM",@progbits,32
	.p2align	5, 0x0                          # -- Begin function _Z17GetCompressRatingjyyy
.LCPI7_0:
	.word	529                             # 0x211
	.word	531                             # 0x213
	.word	533                             # 0x215
	.word	535                             # 0x217
	.word	537                             # 0x219
	.word	539                             # 0x21b
	.word	541                             # 0x21d
	.word	543                             # 0x21f
.LCPI7_1:
	.word	513                             # 0x201
	.word	515                             # 0x203
	.word	517                             # 0x205
	.word	519                             # 0x207
	.word	521                             # 0x209
	.word	523                             # 0x20b
	.word	525                             # 0x20d
	.word	527                             # 0x20f
.LCPI7_2:
	.word	561                             # 0x231
	.word	563                             # 0x233
	.word	565                             # 0x235
	.word	567                             # 0x237
	.word	569                             # 0x239
	.word	571                             # 0x23b
	.word	573                             # 0x23d
	.word	575                             # 0x23f
.LCPI7_3:
	.word	545                             # 0x221
	.word	547                             # 0x223
	.word	549                             # 0x225
	.word	551                             # 0x227
	.word	553                             # 0x229
	.word	555                             # 0x22b
	.word	557                             # 0x22d
	.word	559                             # 0x22f
.LCPI7_4:
	.word	625                             # 0x271
	.word	627                             # 0x273
	.word	629                             # 0x275
	.word	631                             # 0x277
	.word	633                             # 0x279
	.word	635                             # 0x27b
	.word	637                             # 0x27d
	.word	639                             # 0x27f
.LCPI7_5:
	.word	609                             # 0x261
	.word	611                             # 0x263
	.word	613                             # 0x265
	.word	615                             # 0x267
	.word	617                             # 0x269
	.word	619                             # 0x26b
	.word	621                             # 0x26d
	.word	623                             # 0x26f
.LCPI7_6:
	.word	593                             # 0x251
	.word	595                             # 0x253
	.word	597                             # 0x255
	.word	599                             # 0x257
	.word	601                             # 0x259
	.word	603                             # 0x25b
	.word	605                             # 0x25d
	.word	607                             # 0x25f
.LCPI7_7:
	.word	577                             # 0x241
	.word	579                             # 0x243
	.word	581                             # 0x245
	.word	583                             # 0x247
	.word	585                             # 0x249
	.word	587                             # 0x24b
	.word	589                             # 0x24d
	.word	591                             # 0x24f
.LCPI7_8:
	.word	689                             # 0x2b1
	.word	691                             # 0x2b3
	.word	693                             # 0x2b5
	.word	695                             # 0x2b7
	.word	697                             # 0x2b9
	.word	699                             # 0x2bb
	.word	701                             # 0x2bd
	.word	703                             # 0x2bf
.LCPI7_9:
	.word	673                             # 0x2a1
	.word	675                             # 0x2a3
	.word	677                             # 0x2a5
	.word	679                             # 0x2a7
	.word	681                             # 0x2a9
	.word	683                             # 0x2ab
	.word	685                             # 0x2ad
	.word	687                             # 0x2af
.LCPI7_10:
	.word	657                             # 0x291
	.word	659                             # 0x293
	.word	661                             # 0x295
	.word	663                             # 0x297
	.word	665                             # 0x299
	.word	667                             # 0x29b
	.word	669                             # 0x29d
	.word	671                             # 0x29f
.LCPI7_11:
	.word	641                             # 0x281
	.word	643                             # 0x283
	.word	645                             # 0x285
	.word	647                             # 0x287
	.word	649                             # 0x289
	.word	651                             # 0x28b
	.word	653                             # 0x28d
	.word	655                             # 0x28f
.LCPI7_12:
	.word	753                             # 0x2f1
	.word	755                             # 0x2f3
	.word	757                             # 0x2f5
	.word	759                             # 0x2f7
	.word	761                             # 0x2f9
	.word	763                             # 0x2fb
	.word	765                             # 0x2fd
	.word	767                             # 0x2ff
.LCPI7_13:
	.word	737                             # 0x2e1
	.word	739                             # 0x2e3
	.word	741                             # 0x2e5
	.word	743                             # 0x2e7
	.word	745                             # 0x2e9
	.word	747                             # 0x2eb
	.word	749                             # 0x2ed
	.word	751                             # 0x2ef
.LCPI7_14:
	.word	721                             # 0x2d1
	.word	723                             # 0x2d3
	.word	725                             # 0x2d5
	.word	727                             # 0x2d7
	.word	729                             # 0x2d9
	.word	731                             # 0x2db
	.word	733                             # 0x2dd
	.word	735                             # 0x2df
.LCPI7_15:
	.word	705                             # 0x2c1
	.word	707                             # 0x2c3
	.word	709                             # 0x2c5
	.word	711                             # 0x2c7
	.word	713                             # 0x2c9
	.word	715                             # 0x2cb
	.word	717                             # 0x2cd
	.word	719                             # 0x2cf
.LCPI7_16:
	.word	817                             # 0x331
	.word	819                             # 0x333
	.word	821                             # 0x335
	.word	823                             # 0x337
	.word	825                             # 0x339
	.word	827                             # 0x33b
	.word	829                             # 0x33d
	.word	831                             # 0x33f
.LCPI7_17:
	.word	801                             # 0x321
	.word	803                             # 0x323
	.word	805                             # 0x325
	.word	807                             # 0x327
	.word	809                             # 0x329
	.word	811                             # 0x32b
	.word	813                             # 0x32d
	.word	815                             # 0x32f
.LCPI7_18:
	.word	785                             # 0x311
	.word	787                             # 0x313
	.word	789                             # 0x315
	.word	791                             # 0x317
	.word	793                             # 0x319
	.word	795                             # 0x31b
	.word	797                             # 0x31d
	.word	799                             # 0x31f
.LCPI7_19:
	.word	769                             # 0x301
	.word	771                             # 0x303
	.word	773                             # 0x305
	.word	775                             # 0x307
	.word	777                             # 0x309
	.word	779                             # 0x30b
	.word	781                             # 0x30d
	.word	783                             # 0x30f
.LCPI7_20:
	.word	881                             # 0x371
	.word	883                             # 0x373
	.word	885                             # 0x375
	.word	887                             # 0x377
	.word	889                             # 0x379
	.word	891                             # 0x37b
	.word	893                             # 0x37d
	.word	895                             # 0x37f
.LCPI7_21:
	.word	865                             # 0x361
	.word	867                             # 0x363
	.word	869                             # 0x365
	.word	871                             # 0x367
	.word	873                             # 0x369
	.word	875                             # 0x36b
	.word	877                             # 0x36d
	.word	879                             # 0x36f
.LCPI7_22:
	.word	849                             # 0x351
	.word	851                             # 0x353
	.word	853                             # 0x355
	.word	855                             # 0x357
	.word	857                             # 0x359
	.word	859                             # 0x35b
	.word	861                             # 0x35d
	.word	863                             # 0x35f
.LCPI7_23:
	.word	833                             # 0x341
	.word	835                             # 0x343
	.word	837                             # 0x345
	.word	839                             # 0x347
	.word	841                             # 0x349
	.word	843                             # 0x34b
	.word	845                             # 0x34d
	.word	847                             # 0x34f
.LCPI7_24:
	.word	945                             # 0x3b1
	.word	947                             # 0x3b3
	.word	949                             # 0x3b5
	.word	951                             # 0x3b7
	.word	953                             # 0x3b9
	.word	955                             # 0x3bb
	.word	957                             # 0x3bd
	.word	959                             # 0x3bf
.LCPI7_25:
	.word	929                             # 0x3a1
	.word	931                             # 0x3a3
	.word	933                             # 0x3a5
	.word	935                             # 0x3a7
	.word	937                             # 0x3a9
	.word	939                             # 0x3ab
	.word	941                             # 0x3ad
	.word	943                             # 0x3af
.LCPI7_26:
	.word	913                             # 0x391
	.word	915                             # 0x393
	.word	917                             # 0x395
	.word	919                             # 0x397
	.word	921                             # 0x399
	.word	923                             # 0x39b
	.word	925                             # 0x39d
	.word	927                             # 0x39f
.LCPI7_27:
	.word	897                             # 0x381
	.word	899                             # 0x383
	.word	901                             # 0x385
	.word	903                             # 0x387
	.word	905                             # 0x389
	.word	907                             # 0x38b
	.word	909                             # 0x38d
	.word	911                             # 0x38f
.LCPI7_28:
	.word	1009                            # 0x3f1
	.word	1011                            # 0x3f3
	.word	1013                            # 0x3f5
	.word	1015                            # 0x3f7
	.word	1017                            # 0x3f9
	.word	1019                            # 0x3fb
	.word	1021                            # 0x3fd
	.word	1023                            # 0x3ff
.LCPI7_29:
	.word	993                             # 0x3e1
	.word	995                             # 0x3e3
	.word	997                             # 0x3e5
	.word	999                             # 0x3e7
	.word	1001                            # 0x3e9
	.word	1003                            # 0x3eb
	.word	1005                            # 0x3ed
	.word	1007                            # 0x3ef
.LCPI7_30:
	.word	977                             # 0x3d1
	.word	979                             # 0x3d3
	.word	981                             # 0x3d5
	.word	983                             # 0x3d7
	.word	985                             # 0x3d9
	.word	987                             # 0x3db
	.word	989                             # 0x3dd
	.word	991                             # 0x3df
.LCPI7_31:
	.word	961                             # 0x3c1
	.word	963                             # 0x3c3
	.word	965                             # 0x3c5
	.word	967                             # 0x3c7
	.word	969                             # 0x3c9
	.word	971                             # 0x3cb
	.word	973                             # 0x3cd
	.word	975                             # 0x3cf
.LCPI7_32:
	.byte	32                              # 0x20
	.byte	31                              # 0x1f
	.byte	30                              # 0x1e
	.byte	29                              # 0x1d
	.byte	28                              # 0x1c
	.byte	27                              # 0x1b
	.byte	26                              # 0x1a
	.byte	25                              # 0x19
	.byte	24                              # 0x18
	.byte	23                              # 0x17
	.byte	22                              # 0x16
	.byte	21                              # 0x15
	.byte	20                              # 0x14
	.byte	19                              # 0x13
	.byte	18                              # 0x12
	.byte	17                              # 0x11
	.byte	16                              # 0x10
	.byte	15                              # 0xf
	.byte	14                              # 0xe
	.byte	13                              # 0xd
	.byte	12                              # 0xc
	.byte	11                              # 0xb
	.byte	10                              # 0xa
	.byte	9                               # 0x9
	.byte	8                               # 0x8
	.byte	7                               # 0x7
	.byte	6                               # 0x6
	.byte	5                               # 0x5
	.byte	4                               # 0x4
	.byte	3                               # 0x3
	.byte	2                               # 0x2
	.byte	1                               # 0x1
.LCPI7_33:
	.word	1057                            # 0x421
	.word	1061                            # 0x425
	.word	1065                            # 0x429
	.word	1069                            # 0x42d
	.word	1073                            # 0x431
	.word	1077                            # 0x435
	.word	1081                            # 0x439
	.word	1085                            # 0x43d
.LCPI7_34:
	.word	1025                            # 0x401
	.word	1029                            # 0x405
	.word	1033                            # 0x409
	.word	1037                            # 0x40d
	.word	1041                            # 0x411
	.word	1045                            # 0x415
	.word	1049                            # 0x419
	.word	1053                            # 0x41d
.LCPI7_35:
	.word	1121                            # 0x461
	.word	1125                            # 0x465
	.word	1129                            # 0x469
	.word	1133                            # 0x46d
	.word	1137                            # 0x471
	.word	1141                            # 0x475
	.word	1145                            # 0x479
	.word	1149                            # 0x47d
.LCPI7_36:
	.word	1089                            # 0x441
	.word	1093                            # 0x445
	.word	1097                            # 0x449
	.word	1101                            # 0x44d
	.word	1105                            # 0x451
	.word	1109                            # 0x455
	.word	1113                            # 0x459
	.word	1117                            # 0x45d
.LCPI7_37:
	.word	1249                            # 0x4e1
	.word	1253                            # 0x4e5
	.word	1257                            # 0x4e9
	.word	1261                            # 0x4ed
	.word	1265                            # 0x4f1
	.word	1269                            # 0x4f5
	.word	1273                            # 0x4f9
	.word	1277                            # 0x4fd
.LCPI7_38:
	.word	1217                            # 0x4c1
	.word	1221                            # 0x4c5
	.word	1225                            # 0x4c9
	.word	1229                            # 0x4cd
	.word	1233                            # 0x4d1
	.word	1237                            # 0x4d5
	.word	1241                            # 0x4d9
	.word	1245                            # 0x4dd
.LCPI7_39:
	.word	1185                            # 0x4a1
	.word	1189                            # 0x4a5
	.word	1193                            # 0x4a9
	.word	1197                            # 0x4ad
	.word	1201                            # 0x4b1
	.word	1205                            # 0x4b5
	.word	1209                            # 0x4b9
	.word	1213                            # 0x4bd
.LCPI7_40:
	.word	1153                            # 0x481
	.word	1157                            # 0x485
	.word	1161                            # 0x489
	.word	1165                            # 0x48d
	.word	1169                            # 0x491
	.word	1173                            # 0x495
	.word	1177                            # 0x499
	.word	1181                            # 0x49d
.LCPI7_41:
	.word	1377                            # 0x561
	.word	1381                            # 0x565
	.word	1385                            # 0x569
	.word	1389                            # 0x56d
	.word	1393                            # 0x571
	.word	1397                            # 0x575
	.word	1401                            # 0x579
	.word	1405                            # 0x57d
.LCPI7_42:
	.word	1345                            # 0x541
	.word	1349                            # 0x545
	.word	1353                            # 0x549
	.word	1357                            # 0x54d
	.word	1361                            # 0x551
	.word	1365                            # 0x555
	.word	1369                            # 0x559
	.word	1373                            # 0x55d
.LCPI7_43:
	.word	1313                            # 0x521
	.word	1317                            # 0x525
	.word	1321                            # 0x529
	.word	1325                            # 0x52d
	.word	1329                            # 0x531
	.word	1333                            # 0x535
	.word	1337                            # 0x539
	.word	1341                            # 0x53d
.LCPI7_44:
	.word	1281                            # 0x501
	.word	1285                            # 0x505
	.word	1289                            # 0x509
	.word	1293                            # 0x50d
	.word	1297                            # 0x511
	.word	1301                            # 0x515
	.word	1305                            # 0x519
	.word	1309                            # 0x51d
.LCPI7_45:
	.word	1505                            # 0x5e1
	.word	1509                            # 0x5e5
	.word	1513                            # 0x5e9
	.word	1517                            # 0x5ed
	.word	1521                            # 0x5f1
	.word	1525                            # 0x5f5
	.word	1529                            # 0x5f9
	.word	1533                            # 0x5fd
.LCPI7_46:
	.word	1473                            # 0x5c1
	.word	1477                            # 0x5c5
	.word	1481                            # 0x5c9
	.word	1485                            # 0x5cd
	.word	1489                            # 0x5d1
	.word	1493                            # 0x5d5
	.word	1497                            # 0x5d9
	.word	1501                            # 0x5dd
.LCPI7_47:
	.word	1441                            # 0x5a1
	.word	1445                            # 0x5a5
	.word	1449                            # 0x5a9
	.word	1453                            # 0x5ad
	.word	1457                            # 0x5b1
	.word	1461                            # 0x5b5
	.word	1465                            # 0x5b9
	.word	1469                            # 0x5bd
.LCPI7_48:
	.word	1409                            # 0x581
	.word	1413                            # 0x585
	.word	1417                            # 0x589
	.word	1421                            # 0x58d
	.word	1425                            # 0x591
	.word	1429                            # 0x595
	.word	1433                            # 0x599
	.word	1437                            # 0x59d
.LCPI7_49:
	.word	1633                            # 0x661
	.word	1637                            # 0x665
	.word	1641                            # 0x669
	.word	1645                            # 0x66d
	.word	1649                            # 0x671
	.word	1653                            # 0x675
	.word	1657                            # 0x679
	.word	1661                            # 0x67d
.LCPI7_50:
	.word	1601                            # 0x641
	.word	1605                            # 0x645
	.word	1609                            # 0x649
	.word	1613                            # 0x64d
	.word	1617                            # 0x651
	.word	1621                            # 0x655
	.word	1625                            # 0x659
	.word	1629                            # 0x65d
.LCPI7_51:
	.word	1569                            # 0x621
	.word	1573                            # 0x625
	.word	1577                            # 0x629
	.word	1581                            # 0x62d
	.word	1585                            # 0x631
	.word	1589                            # 0x635
	.word	1593                            # 0x639
	.word	1597                            # 0x63d
.LCPI7_52:
	.word	1537                            # 0x601
	.word	1541                            # 0x605
	.word	1545                            # 0x609
	.word	1549                            # 0x60d
	.word	1553                            # 0x611
	.word	1557                            # 0x615
	.word	1561                            # 0x619
	.word	1565                            # 0x61d
.LCPI7_53:
	.word	1761                            # 0x6e1
	.word	1765                            # 0x6e5
	.word	1769                            # 0x6e9
	.word	1773                            # 0x6ed
	.word	1777                            # 0x6f1
	.word	1781                            # 0x6f5
	.word	1785                            # 0x6f9
	.word	1789                            # 0x6fd
.LCPI7_54:
	.word	1729                            # 0x6c1
	.word	1733                            # 0x6c5
	.word	1737                            # 0x6c9
	.word	1741                            # 0x6cd
	.word	1745                            # 0x6d1
	.word	1749                            # 0x6d5
	.word	1753                            # 0x6d9
	.word	1757                            # 0x6dd
.LCPI7_55:
	.word	1697                            # 0x6a1
	.word	1701                            # 0x6a5
	.word	1705                            # 0x6a9
	.word	1709                            # 0x6ad
	.word	1713                            # 0x6b1
	.word	1717                            # 0x6b5
	.word	1721                            # 0x6b9
	.word	1725                            # 0x6bd
.LCPI7_56:
	.word	1665                            # 0x681
	.word	1669                            # 0x685
	.word	1673                            # 0x689
	.word	1677                            # 0x68d
	.word	1681                            # 0x691
	.word	1685                            # 0x695
	.word	1689                            # 0x699
	.word	1693                            # 0x69d
.LCPI7_57:
	.word	1889                            # 0x761
	.word	1893                            # 0x765
	.word	1897                            # 0x769
	.word	1901                            # 0x76d
	.word	1905                            # 0x771
	.word	1909                            # 0x775
	.word	1913                            # 0x779
	.word	1917                            # 0x77d
.LCPI7_58:
	.word	1857                            # 0x741
	.word	1861                            # 0x745
	.word	1865                            # 0x749
	.word	1869                            # 0x74d
	.word	1873                            # 0x751
	.word	1877                            # 0x755
	.word	1881                            # 0x759
	.word	1885                            # 0x75d
.LCPI7_59:
	.word	1825                            # 0x721
	.word	1829                            # 0x725
	.word	1833                            # 0x729
	.word	1837                            # 0x72d
	.word	1841                            # 0x731
	.word	1845                            # 0x735
	.word	1849                            # 0x739
	.word	1853                            # 0x73d
.LCPI7_60:
	.word	1793                            # 0x701
	.word	1797                            # 0x705
	.word	1801                            # 0x709
	.word	1805                            # 0x70d
	.word	1809                            # 0x711
	.word	1813                            # 0x715
	.word	1817                            # 0x719
	.word	1821                            # 0x71d
.LCPI7_61:
	.word	2017                            # 0x7e1
	.word	2021                            # 0x7e5
	.word	2025                            # 0x7e9
	.word	2029                            # 0x7ed
	.word	2033                            # 0x7f1
	.word	2037                            # 0x7f5
	.word	2041                            # 0x7f9
	.word	2045                            # 0x7fd
.LCPI7_62:
	.word	1985                            # 0x7c1
	.word	1989                            # 0x7c5
	.word	1993                            # 0x7c9
	.word	1997                            # 0x7cd
	.word	2001                            # 0x7d1
	.word	2005                            # 0x7d5
	.word	2009                            # 0x7d9
	.word	2013                            # 0x7dd
.LCPI7_63:
	.word	1953                            # 0x7a1
	.word	1957                            # 0x7a5
	.word	1961                            # 0x7a9
	.word	1965                            # 0x7ad
	.word	1969                            # 0x7b1
	.word	1973                            # 0x7b5
	.word	1977                            # 0x7b9
	.word	1981                            # 0x7bd
.LCPI7_64:
	.word	1921                            # 0x781
	.word	1925                            # 0x785
	.word	1929                            # 0x789
	.word	1933                            # 0x78d
	.word	1937                            # 0x791
	.word	1941                            # 0x795
	.word	1945                            # 0x799
	.word	1949                            # 0x79d
.LCPI7_65:
	.word	2113                            # 0x841
	.word	2121                            # 0x849
	.word	2129                            # 0x851
	.word	2137                            # 0x859
	.word	2145                            # 0x861
	.word	2153                            # 0x869
	.word	2161                            # 0x871
	.word	2169                            # 0x879
.LCPI7_66:
	.word	2049                            # 0x801
	.word	2057                            # 0x809
	.word	2065                            # 0x811
	.word	2073                            # 0x819
	.word	2081                            # 0x821
	.word	2089                            # 0x829
	.word	2097                            # 0x831
	.word	2105                            # 0x839
.LCPI7_67:
	.word	2241                            # 0x8c1
	.word	2249                            # 0x8c9
	.word	2257                            # 0x8d1
	.word	2265                            # 0x8d9
	.word	2273                            # 0x8e1
	.word	2281                            # 0x8e9
	.word	2289                            # 0x8f1
	.word	2297                            # 0x8f9
.LCPI7_68:
	.word	2177                            # 0x881
	.word	2185                            # 0x889
	.word	2193                            # 0x891
	.word	2201                            # 0x899
	.word	2209                            # 0x8a1
	.word	2217                            # 0x8a9
	.word	2225                            # 0x8b1
	.word	2233                            # 0x8b9
.LCPI7_69:
	.word	2497                            # 0x9c1
	.word	2505                            # 0x9c9
	.word	2513                            # 0x9d1
	.word	2521                            # 0x9d9
	.word	2529                            # 0x9e1
	.word	2537                            # 0x9e9
	.word	2545                            # 0x9f1
	.word	2553                            # 0x9f9
.LCPI7_70:
	.word	2433                            # 0x981
	.word	2441                            # 0x989
	.word	2449                            # 0x991
	.word	2457                            # 0x999
	.word	2465                            # 0x9a1
	.word	2473                            # 0x9a9
	.word	2481                            # 0x9b1
	.word	2489                            # 0x9b9
.LCPI7_71:
	.word	2369                            # 0x941
	.word	2377                            # 0x949
	.word	2385                            # 0x951
	.word	2393                            # 0x959
	.word	2401                            # 0x961
	.word	2409                            # 0x969
	.word	2417                            # 0x971
	.word	2425                            # 0x979
.LCPI7_72:
	.word	2305                            # 0x901
	.word	2313                            # 0x909
	.word	2321                            # 0x911
	.word	2329                            # 0x919
	.word	2337                            # 0x921
	.word	2345                            # 0x929
	.word	2353                            # 0x931
	.word	2361                            # 0x939
.LCPI7_73:
	.word	2753                            # 0xac1
	.word	2761                            # 0xac9
	.word	2769                            # 0xad1
	.word	2777                            # 0xad9
	.word	2785                            # 0xae1
	.word	2793                            # 0xae9
	.word	2801                            # 0xaf1
	.word	2809                            # 0xaf9
.LCPI7_74:
	.word	2689                            # 0xa81
	.word	2697                            # 0xa89
	.word	2705                            # 0xa91
	.word	2713                            # 0xa99
	.word	2721                            # 0xaa1
	.word	2729                            # 0xaa9
	.word	2737                            # 0xab1
	.word	2745                            # 0xab9
.LCPI7_75:
	.word	2625                            # 0xa41
	.word	2633                            # 0xa49
	.word	2641                            # 0xa51
	.word	2649                            # 0xa59
	.word	2657                            # 0xa61
	.word	2665                            # 0xa69
	.word	2673                            # 0xa71
	.word	2681                            # 0xa79
.LCPI7_76:
	.word	2561                            # 0xa01
	.word	2569                            # 0xa09
	.word	2577                            # 0xa11
	.word	2585                            # 0xa19
	.word	2593                            # 0xa21
	.word	2601                            # 0xa29
	.word	2609                            # 0xa31
	.word	2617                            # 0xa39
.LCPI7_77:
	.word	3009                            # 0xbc1
	.word	3017                            # 0xbc9
	.word	3025                            # 0xbd1
	.word	3033                            # 0xbd9
	.word	3041                            # 0xbe1
	.word	3049                            # 0xbe9
	.word	3057                            # 0xbf1
	.word	3065                            # 0xbf9
.LCPI7_78:
	.word	2945                            # 0xb81
	.word	2953                            # 0xb89
	.word	2961                            # 0xb91
	.word	2969                            # 0xb99
	.word	2977                            # 0xba1
	.word	2985                            # 0xba9
	.word	2993                            # 0xbb1
	.word	3001                            # 0xbb9
.LCPI7_79:
	.word	2881                            # 0xb41
	.word	2889                            # 0xb49
	.word	2897                            # 0xb51
	.word	2905                            # 0xb59
	.word	2913                            # 0xb61
	.word	2921                            # 0xb69
	.word	2929                            # 0xb71
	.word	2937                            # 0xb79
.LCPI7_80:
	.word	2817                            # 0xb01
	.word	2825                            # 0xb09
	.word	2833                            # 0xb11
	.word	2841                            # 0xb19
	.word	2849                            # 0xb21
	.word	2857                            # 0xb29
	.word	2865                            # 0xb31
	.word	2873                            # 0xb39
.LCPI7_81:
	.word	3265                            # 0xcc1
	.word	3273                            # 0xcc9
	.word	3281                            # 0xcd1
	.word	3289                            # 0xcd9
	.word	3297                            # 0xce1
	.word	3305                            # 0xce9
	.word	3313                            # 0xcf1
	.word	3321                            # 0xcf9
.LCPI7_82:
	.word	3201                            # 0xc81
	.word	3209                            # 0xc89
	.word	3217                            # 0xc91
	.word	3225                            # 0xc99
	.word	3233                            # 0xca1
	.word	3241                            # 0xca9
	.word	3249                            # 0xcb1
	.word	3257                            # 0xcb9
.LCPI7_83:
	.word	3137                            # 0xc41
	.word	3145                            # 0xc49
	.word	3153                            # 0xc51
	.word	3161                            # 0xc59
	.word	3169                            # 0xc61
	.word	3177                            # 0xc69
	.word	3185                            # 0xc71
	.word	3193                            # 0xc79
.LCPI7_84:
	.word	3073                            # 0xc01
	.word	3081                            # 0xc09
	.word	3089                            # 0xc11
	.word	3097                            # 0xc19
	.word	3105                            # 0xc21
	.word	3113                            # 0xc29
	.word	3121                            # 0xc31
	.word	3129                            # 0xc39
.LCPI7_85:
	.word	3521                            # 0xdc1
	.word	3529                            # 0xdc9
	.word	3537                            # 0xdd1
	.word	3545                            # 0xdd9
	.word	3553                            # 0xde1
	.word	3561                            # 0xde9
	.word	3569                            # 0xdf1
	.word	3577                            # 0xdf9
.LCPI7_86:
	.word	3457                            # 0xd81
	.word	3465                            # 0xd89
	.word	3473                            # 0xd91
	.word	3481                            # 0xd99
	.word	3489                            # 0xda1
	.word	3497                            # 0xda9
	.word	3505                            # 0xdb1
	.word	3513                            # 0xdb9
.LCPI7_87:
	.word	3393                            # 0xd41
	.word	3401                            # 0xd49
	.word	3409                            # 0xd51
	.word	3417                            # 0xd59
	.word	3425                            # 0xd61
	.word	3433                            # 0xd69
	.word	3441                            # 0xd71
	.word	3449                            # 0xd79
.LCPI7_88:
	.word	3329                            # 0xd01
	.word	3337                            # 0xd09
	.word	3345                            # 0xd11
	.word	3353                            # 0xd19
	.word	3361                            # 0xd21
	.word	3369                            # 0xd29
	.word	3377                            # 0xd31
	.word	3385                            # 0xd39
.LCPI7_89:
	.word	3777                            # 0xec1
	.word	3785                            # 0xec9
	.word	3793                            # 0xed1
	.word	3801                            # 0xed9
	.word	3809                            # 0xee1
	.word	3817                            # 0xee9
	.word	3825                            # 0xef1
	.word	3833                            # 0xef9
.LCPI7_90:
	.word	3713                            # 0xe81
	.word	3721                            # 0xe89
	.word	3729                            # 0xe91
	.word	3737                            # 0xe99
	.word	3745                            # 0xea1
	.word	3753                            # 0xea9
	.word	3761                            # 0xeb1
	.word	3769                            # 0xeb9
.LCPI7_91:
	.word	3649                            # 0xe41
	.word	3657                            # 0xe49
	.word	3665                            # 0xe51
	.word	3673                            # 0xe59
	.word	3681                            # 0xe61
	.word	3689                            # 0xe69
	.word	3697                            # 0xe71
	.word	3705                            # 0xe79
.LCPI7_92:
	.word	3585                            # 0xe01
	.word	3593                            # 0xe09
	.word	3601                            # 0xe11
	.word	3609                            # 0xe19
	.word	3617                            # 0xe21
	.word	3625                            # 0xe29
	.word	3633                            # 0xe31
	.word	3641                            # 0xe39
.LCPI7_93:
	.word	4033                            # 0xfc1
	.word	4041                            # 0xfc9
	.word	4049                            # 0xfd1
	.word	4057                            # 0xfd9
	.word	4065                            # 0xfe1
	.word	4073                            # 0xfe9
	.word	4081                            # 0xff1
	.word	4089                            # 0xff9
.LCPI7_94:
	.word	3969                            # 0xf81
	.word	3977                            # 0xf89
	.word	3985                            # 0xf91
	.word	3993                            # 0xf99
	.word	4001                            # 0xfa1
	.word	4009                            # 0xfa9
	.word	4017                            # 0xfb1
	.word	4025                            # 0xfb9
.LCPI7_95:
	.word	3905                            # 0xf41
	.word	3913                            # 0xf49
	.word	3921                            # 0xf51
	.word	3929                            # 0xf59
	.word	3937                            # 0xf61
	.word	3945                            # 0xf69
	.word	3953                            # 0xf71
	.word	3961                            # 0xf79
.LCPI7_96:
	.word	3841                            # 0xf01
	.word	3849                            # 0xf09
	.word	3857                            # 0xf11
	.word	3865                            # 0xf19
	.word	3873                            # 0xf21
	.word	3881                            # 0xf29
	.word	3889                            # 0xf31
	.word	3897                            # 0xf39
.LCPI7_97:
	.word	4225                            # 0x1081
	.word	4241                            # 0x1091
	.word	4257                            # 0x10a1
	.word	4273                            # 0x10b1
	.word	4289                            # 0x10c1
	.word	4305                            # 0x10d1
	.word	4321                            # 0x10e1
	.word	4337                            # 0x10f1
.LCPI7_98:
	.word	4097                            # 0x1001
	.word	4113                            # 0x1011
	.word	4129                            # 0x1021
	.word	4145                            # 0x1031
	.word	4161                            # 0x1041
	.word	4177                            # 0x1051
	.word	4193                            # 0x1061
	.word	4209                            # 0x1071
.LCPI7_99:
	.word	4481                            # 0x1181
	.word	4497                            # 0x1191
	.word	4513                            # 0x11a1
	.word	4529                            # 0x11b1
	.word	4545                            # 0x11c1
	.word	4561                            # 0x11d1
	.word	4577                            # 0x11e1
	.word	4593                            # 0x11f1
.LCPI7_100:
	.word	4353                            # 0x1101
	.word	4369                            # 0x1111
	.word	4385                            # 0x1121
	.word	4401                            # 0x1131
	.word	4417                            # 0x1141
	.word	4433                            # 0x1151
	.word	4449                            # 0x1161
	.word	4465                            # 0x1171
.LCPI7_101:
	.word	4993                            # 0x1381
	.word	5009                            # 0x1391
	.word	5025                            # 0x13a1
	.word	5041                            # 0x13b1
	.word	5057                            # 0x13c1
	.word	5073                            # 0x13d1
	.word	5089                            # 0x13e1
	.word	5105                            # 0x13f1
.LCPI7_102:
	.word	4865                            # 0x1301
	.word	4881                            # 0x1311
	.word	4897                            # 0x1321
	.word	4913                            # 0x1331
	.word	4929                            # 0x1341
	.word	4945                            # 0x1351
	.word	4961                            # 0x1361
	.word	4977                            # 0x1371
.LCPI7_103:
	.word	4737                            # 0x1281
	.word	4753                            # 0x1291
	.word	4769                            # 0x12a1
	.word	4785                            # 0x12b1
	.word	4801                            # 0x12c1
	.word	4817                            # 0x12d1
	.word	4833                            # 0x12e1
	.word	4849                            # 0x12f1
.LCPI7_104:
	.word	4609                            # 0x1201
	.word	4625                            # 0x1211
	.word	4641                            # 0x1221
	.word	4657                            # 0x1231
	.word	4673                            # 0x1241
	.word	4689                            # 0x1251
	.word	4705                            # 0x1261
	.word	4721                            # 0x1271
.LCPI7_105:
	.word	5505                            # 0x1581
	.word	5521                            # 0x1591
	.word	5537                            # 0x15a1
	.word	5553                            # 0x15b1
	.word	5569                            # 0x15c1
	.word	5585                            # 0x15d1
	.word	5601                            # 0x15e1
	.word	5617                            # 0x15f1
.LCPI7_106:
	.word	5377                            # 0x1501
	.word	5393                            # 0x1511
	.word	5409                            # 0x1521
	.word	5425                            # 0x1531
	.word	5441                            # 0x1541
	.word	5457                            # 0x1551
	.word	5473                            # 0x1561
	.word	5489                            # 0x1571
.LCPI7_107:
	.word	5249                            # 0x1481
	.word	5265                            # 0x1491
	.word	5281                            # 0x14a1
	.word	5297                            # 0x14b1
	.word	5313                            # 0x14c1
	.word	5329                            # 0x14d1
	.word	5345                            # 0x14e1
	.word	5361                            # 0x14f1
.LCPI7_108:
	.word	5121                            # 0x1401
	.word	5137                            # 0x1411
	.word	5153                            # 0x1421
	.word	5169                            # 0x1431
	.word	5185                            # 0x1441
	.word	5201                            # 0x1451
	.word	5217                            # 0x1461
	.word	5233                            # 0x1471
.LCPI7_109:
	.word	6017                            # 0x1781
	.word	6033                            # 0x1791
	.word	6049                            # 0x17a1
	.word	6065                            # 0x17b1
	.word	6081                            # 0x17c1
	.word	6097                            # 0x17d1
	.word	6113                            # 0x17e1
	.word	6129                            # 0x17f1
.LCPI7_110:
	.word	5889                            # 0x1701
	.word	5905                            # 0x1711
	.word	5921                            # 0x1721
	.word	5937                            # 0x1731
	.word	5953                            # 0x1741
	.word	5969                            # 0x1751
	.word	5985                            # 0x1761
	.word	6001                            # 0x1771
.LCPI7_111:
	.word	5761                            # 0x1681
	.word	5777                            # 0x1691
	.word	5793                            # 0x16a1
	.word	5809                            # 0x16b1
	.word	5825                            # 0x16c1
	.word	5841                            # 0x16d1
	.word	5857                            # 0x16e1
	.word	5873                            # 0x16f1
.LCPI7_112:
	.word	5633                            # 0x1601
	.word	5649                            # 0x1611
	.word	5665                            # 0x1621
	.word	5681                            # 0x1631
	.word	5697                            # 0x1641
	.word	5713                            # 0x1651
	.word	5729                            # 0x1661
	.word	5745                            # 0x1671
.LCPI7_113:
	.word	6529                            # 0x1981
	.word	6545                            # 0x1991
	.word	6561                            # 0x19a1
	.word	6577                            # 0x19b1
	.word	6593                            # 0x19c1
	.word	6609                            # 0x19d1
	.word	6625                            # 0x19e1
	.word	6641                            # 0x19f1
.LCPI7_114:
	.word	6401                            # 0x1901
	.word	6417                            # 0x1911
	.word	6433                            # 0x1921
	.word	6449                            # 0x1931
	.word	6465                            # 0x1941
	.word	6481                            # 0x1951
	.word	6497                            # 0x1961
	.word	6513                            # 0x1971
.LCPI7_115:
	.word	6273                            # 0x1881
	.word	6289                            # 0x1891
	.word	6305                            # 0x18a1
	.word	6321                            # 0x18b1
	.word	6337                            # 0x18c1
	.word	6353                            # 0x18d1
	.word	6369                            # 0x18e1
	.word	6385                            # 0x18f1
.LCPI7_116:
	.word	6145                            # 0x1801
	.word	6161                            # 0x1811
	.word	6177                            # 0x1821
	.word	6193                            # 0x1831
	.word	6209                            # 0x1841
	.word	6225                            # 0x1851
	.word	6241                            # 0x1861
	.word	6257                            # 0x1871
.LCPI7_117:
	.word	7041                            # 0x1b81
	.word	7057                            # 0x1b91
	.word	7073                            # 0x1ba1
	.word	7089                            # 0x1bb1
	.word	7105                            # 0x1bc1
	.word	7121                            # 0x1bd1
	.word	7137                            # 0x1be1
	.word	7153                            # 0x1bf1
.LCPI7_118:
	.word	6913                            # 0x1b01
	.word	6929                            # 0x1b11
	.word	6945                            # 0x1b21
	.word	6961                            # 0x1b31
	.word	6977                            # 0x1b41
	.word	6993                            # 0x1b51
	.word	7009                            # 0x1b61
	.word	7025                            # 0x1b71
.LCPI7_119:
	.word	6785                            # 0x1a81
	.word	6801                            # 0x1a91
	.word	6817                            # 0x1aa1
	.word	6833                            # 0x1ab1
	.word	6849                            # 0x1ac1
	.word	6865                            # 0x1ad1
	.word	6881                            # 0x1ae1
	.word	6897                            # 0x1af1
.LCPI7_120:
	.word	6657                            # 0x1a01
	.word	6673                            # 0x1a11
	.word	6689                            # 0x1a21
	.word	6705                            # 0x1a31
	.word	6721                            # 0x1a41
	.word	6737                            # 0x1a51
	.word	6753                            # 0x1a61
	.word	6769                            # 0x1a71
.LCPI7_121:
	.word	7553                            # 0x1d81
	.word	7569                            # 0x1d91
	.word	7585                            # 0x1da1
	.word	7601                            # 0x1db1
	.word	7617                            # 0x1dc1
	.word	7633                            # 0x1dd1
	.word	7649                            # 0x1de1
	.word	7665                            # 0x1df1
.LCPI7_122:
	.word	7425                            # 0x1d01
	.word	7441                            # 0x1d11
	.word	7457                            # 0x1d21
	.word	7473                            # 0x1d31
	.word	7489                            # 0x1d41
	.word	7505                            # 0x1d51
	.word	7521                            # 0x1d61
	.word	7537                            # 0x1d71
.LCPI7_123:
	.word	7297                            # 0x1c81
	.word	7313                            # 0x1c91
	.word	7329                            # 0x1ca1
	.word	7345                            # 0x1cb1
	.word	7361                            # 0x1cc1
	.word	7377                            # 0x1cd1
	.word	7393                            # 0x1ce1
	.word	7409                            # 0x1cf1
.LCPI7_124:
	.word	7169                            # 0x1c01
	.word	7185                            # 0x1c11
	.word	7201                            # 0x1c21
	.word	7217                            # 0x1c31
	.word	7233                            # 0x1c41
	.word	7249                            # 0x1c51
	.word	7265                            # 0x1c61
	.word	7281                            # 0x1c71
.LCPI7_125:
	.word	8065                            # 0x1f81
	.word	8081                            # 0x1f91
	.word	8097                            # 0x1fa1
	.word	8113                            # 0x1fb1
	.word	8129                            # 0x1fc1
	.word	8145                            # 0x1fd1
	.word	8161                            # 0x1fe1
	.word	8177                            # 0x1ff1
.LCPI7_126:
	.word	7937                            # 0x1f01
	.word	7953                            # 0x1f11
	.word	7969                            # 0x1f21
	.word	7985                            # 0x1f31
	.word	8001                            # 0x1f41
	.word	8017                            # 0x1f51
	.word	8033                            # 0x1f61
	.word	8049                            # 0x1f71
.LCPI7_127:
	.word	7809                            # 0x1e81
	.word	7825                            # 0x1e91
	.word	7841                            # 0x1ea1
	.word	7857                            # 0x1eb1
	.word	7873                            # 0x1ec1
	.word	7889                            # 0x1ed1
	.word	7905                            # 0x1ee1
	.word	7921                            # 0x1ef1
.LCPI7_128:
	.word	7681                            # 0x1e01
	.word	7697                            # 0x1e11
	.word	7713                            # 0x1e21
	.word	7729                            # 0x1e31
	.word	7745                            # 0x1e41
	.word	7761                            # 0x1e51
	.word	7777                            # 0x1e61
	.word	7793                            # 0x1e71
.LCPI7_129:
	.word	8449                            # 0x2101
	.word	8481                            # 0x2121
	.word	8513                            # 0x2141
	.word	8545                            # 0x2161
	.word	8577                            # 0x2181
	.word	8609                            # 0x21a1
	.word	8641                            # 0x21c1
	.word	8673                            # 0x21e1
.LCPI7_130:
	.word	8193                            # 0x2001
	.word	8225                            # 0x2021
	.word	8257                            # 0x2041
	.word	8289                            # 0x2061
	.word	8321                            # 0x2081
	.word	8353                            # 0x20a1
	.word	8385                            # 0x20c1
	.word	8417                            # 0x20e1
.LCPI7_131:
	.word	8961                            # 0x2301
	.word	8993                            # 0x2321
	.word	9025                            # 0x2341
	.word	9057                            # 0x2361
	.word	9089                            # 0x2381
	.word	9121                            # 0x23a1
	.word	9153                            # 0x23c1
	.word	9185                            # 0x23e1
.LCPI7_132:
	.word	8705                            # 0x2201
	.word	8737                            # 0x2221
	.word	8769                            # 0x2241
	.word	8801                            # 0x2261
	.word	8833                            # 0x2281
	.word	8865                            # 0x22a1
	.word	8897                            # 0x22c1
	.word	8929                            # 0x22e1
.LCPI7_133:
	.word	9985                            # 0x2701
	.word	10017                           # 0x2721
	.word	10049                           # 0x2741
	.word	10081                           # 0x2761
	.word	10113                           # 0x2781
	.word	10145                           # 0x27a1
	.word	10177                           # 0x27c1
	.word	10209                           # 0x27e1
.LCPI7_134:
	.word	9729                            # 0x2601
	.word	9761                            # 0x2621
	.word	9793                            # 0x2641
	.word	9825                            # 0x2661
	.word	9857                            # 0x2681
	.word	9889                            # 0x26a1
	.word	9921                            # 0x26c1
	.word	9953                            # 0x26e1
.LCPI7_135:
	.word	9473                            # 0x2501
	.word	9505                            # 0x2521
	.word	9537                            # 0x2541
	.word	9569                            # 0x2561
	.word	9601                            # 0x2581
	.word	9633                            # 0x25a1
	.word	9665                            # 0x25c1
	.word	9697                            # 0x25e1
.LCPI7_136:
	.word	9217                            # 0x2401
	.word	9249                            # 0x2421
	.word	9281                            # 0x2441
	.word	9313                            # 0x2461
	.word	9345                            # 0x2481
	.word	9377                            # 0x24a1
	.word	9409                            # 0x24c1
	.word	9441                            # 0x24e1
.LCPI7_137:
	.word	11009                           # 0x2b01
	.word	11041                           # 0x2b21
	.word	11073                           # 0x2b41
	.word	11105                           # 0x2b61
	.word	11137                           # 0x2b81
	.word	11169                           # 0x2ba1
	.word	11201                           # 0x2bc1
	.word	11233                           # 0x2be1
.LCPI7_138:
	.word	10753                           # 0x2a01
	.word	10785                           # 0x2a21
	.word	10817                           # 0x2a41
	.word	10849                           # 0x2a61
	.word	10881                           # 0x2a81
	.word	10913                           # 0x2aa1
	.word	10945                           # 0x2ac1
	.word	10977                           # 0x2ae1
.LCPI7_139:
	.word	10497                           # 0x2901
	.word	10529                           # 0x2921
	.word	10561                           # 0x2941
	.word	10593                           # 0x2961
	.word	10625                           # 0x2981
	.word	10657                           # 0x29a1
	.word	10689                           # 0x29c1
	.word	10721                           # 0x29e1
.LCPI7_140:
	.word	10241                           # 0x2801
	.word	10273                           # 0x2821
	.word	10305                           # 0x2841
	.word	10337                           # 0x2861
	.word	10369                           # 0x2881
	.word	10401                           # 0x28a1
	.word	10433                           # 0x28c1
	.word	10465                           # 0x28e1
.LCPI7_141:
	.word	12033                           # 0x2f01
	.word	12065                           # 0x2f21
	.word	12097                           # 0x2f41
	.word	12129                           # 0x2f61
	.word	12161                           # 0x2f81
	.word	12193                           # 0x2fa1
	.word	12225                           # 0x2fc1
	.word	12257                           # 0x2fe1
.LCPI7_142:
	.word	11777                           # 0x2e01
	.word	11809                           # 0x2e21
	.word	11841                           # 0x2e41
	.word	11873                           # 0x2e61
	.word	11905                           # 0x2e81
	.word	11937                           # 0x2ea1
	.word	11969                           # 0x2ec1
	.word	12001                           # 0x2ee1
.LCPI7_143:
	.word	11521                           # 0x2d01
	.word	11553                           # 0x2d21
	.word	11585                           # 0x2d41
	.word	11617                           # 0x2d61
	.word	11649                           # 0x2d81
	.word	11681                           # 0x2da1
	.word	11713                           # 0x2dc1
	.word	11745                           # 0x2de1
.LCPI7_144:
	.word	11265                           # 0x2c01
	.word	11297                           # 0x2c21
	.word	11329                           # 0x2c41
	.word	11361                           # 0x2c61
	.word	11393                           # 0x2c81
	.word	11425                           # 0x2ca1
	.word	11457                           # 0x2cc1
	.word	11489                           # 0x2ce1
.LCPI7_145:
	.word	13057                           # 0x3301
	.word	13089                           # 0x3321
	.word	13121                           # 0x3341
	.word	13153                           # 0x3361
	.word	13185                           # 0x3381
	.word	13217                           # 0x33a1
	.word	13249                           # 0x33c1
	.word	13281                           # 0x33e1
.LCPI7_146:
	.word	12801                           # 0x3201
	.word	12833                           # 0x3221
	.word	12865                           # 0x3241
	.word	12897                           # 0x3261
	.word	12929                           # 0x3281
	.word	12961                           # 0x32a1
	.word	12993                           # 0x32c1
	.word	13025                           # 0x32e1
.LCPI7_147:
	.word	12545                           # 0x3101
	.word	12577                           # 0x3121
	.word	12609                           # 0x3141
	.word	12641                           # 0x3161
	.word	12673                           # 0x3181
	.word	12705                           # 0x31a1
	.word	12737                           # 0x31c1
	.word	12769                           # 0x31e1
.LCPI7_148:
	.word	12289                           # 0x3001
	.word	12321                           # 0x3021
	.word	12353                           # 0x3041
	.word	12385                           # 0x3061
	.word	12417                           # 0x3081
	.word	12449                           # 0x30a1
	.word	12481                           # 0x30c1
	.word	12513                           # 0x30e1
.LCPI7_149:
	.word	14081                           # 0x3701
	.word	14113                           # 0x3721
	.word	14145                           # 0x3741
	.word	14177                           # 0x3761
	.word	14209                           # 0x3781
	.word	14241                           # 0x37a1
	.word	14273                           # 0x37c1
	.word	14305                           # 0x37e1
.LCPI7_150:
	.word	13825                           # 0x3601
	.word	13857                           # 0x3621
	.word	13889                           # 0x3641
	.word	13921                           # 0x3661
	.word	13953                           # 0x3681
	.word	13985                           # 0x36a1
	.word	14017                           # 0x36c1
	.word	14049                           # 0x36e1
.LCPI7_151:
	.word	13569                           # 0x3501
	.word	13601                           # 0x3521
	.word	13633                           # 0x3541
	.word	13665                           # 0x3561
	.word	13697                           # 0x3581
	.word	13729                           # 0x35a1
	.word	13761                           # 0x35c1
	.word	13793                           # 0x35e1
.LCPI7_152:
	.word	13313                           # 0x3401
	.word	13345                           # 0x3421
	.word	13377                           # 0x3441
	.word	13409                           # 0x3461
	.word	13441                           # 0x3481
	.word	13473                           # 0x34a1
	.word	13505                           # 0x34c1
	.word	13537                           # 0x34e1
.LCPI7_153:
	.word	15105                           # 0x3b01
	.word	15137                           # 0x3b21
	.word	15169                           # 0x3b41
	.word	15201                           # 0x3b61
	.word	15233                           # 0x3b81
	.word	15265                           # 0x3ba1
	.word	15297                           # 0x3bc1
	.word	15329                           # 0x3be1
.LCPI7_154:
	.word	14849                           # 0x3a01
	.word	14881                           # 0x3a21
	.word	14913                           # 0x3a41
	.word	14945                           # 0x3a61
	.word	14977                           # 0x3a81
	.word	15009                           # 0x3aa1
	.word	15041                           # 0x3ac1
	.word	15073                           # 0x3ae1
.LCPI7_155:
	.word	14593                           # 0x3901
	.word	14625                           # 0x3921
	.word	14657                           # 0x3941
	.word	14689                           # 0x3961
	.word	14721                           # 0x3981
	.word	14753                           # 0x39a1
	.word	14785                           # 0x39c1
	.word	14817                           # 0x39e1
.LCPI7_156:
	.word	14337                           # 0x3801
	.word	14369                           # 0x3821
	.word	14401                           # 0x3841
	.word	14433                           # 0x3861
	.word	14465                           # 0x3881
	.word	14497                           # 0x38a1
	.word	14529                           # 0x38c1
	.word	14561                           # 0x38e1
.LCPI7_157:
	.word	16129                           # 0x3f01
	.word	16161                           # 0x3f21
	.word	16193                           # 0x3f41
	.word	16225                           # 0x3f61
	.word	16257                           # 0x3f81
	.word	16289                           # 0x3fa1
	.word	16321                           # 0x3fc1
	.word	16353                           # 0x3fe1
.LCPI7_158:
	.word	15873                           # 0x3e01
	.word	15905                           # 0x3e21
	.word	15937                           # 0x3e41
	.word	15969                           # 0x3e61
	.word	16001                           # 0x3e81
	.word	16033                           # 0x3ea1
	.word	16065                           # 0x3ec1
	.word	16097                           # 0x3ee1
.LCPI7_159:
	.word	15617                           # 0x3d01
	.word	15649                           # 0x3d21
	.word	15681                           # 0x3d41
	.word	15713                           # 0x3d61
	.word	15745                           # 0x3d81
	.word	15777                           # 0x3da1
	.word	15809                           # 0x3dc1
	.word	15841                           # 0x3de1
.LCPI7_160:
	.word	15361                           # 0x3c01
	.word	15393                           # 0x3c21
	.word	15425                           # 0x3c41
	.word	15457                           # 0x3c61
	.word	15489                           # 0x3c81
	.word	15521                           # 0x3ca1
	.word	15553                           # 0x3cc1
	.word	15585                           # 0x3ce1
.LCPI7_161:
	.word	16897                           # 0x4201
	.word	16961                           # 0x4241
	.word	17025                           # 0x4281
	.word	17089                           # 0x42c1
	.word	17153                           # 0x4301
	.word	17217                           # 0x4341
	.word	17281                           # 0x4381
	.word	17345                           # 0x43c1
.LCPI7_162:
	.word	16385                           # 0x4001
	.word	16449                           # 0x4041
	.word	16513                           # 0x4081
	.word	16577                           # 0x40c1
	.word	16641                           # 0x4101
	.word	16705                           # 0x4141
	.word	16769                           # 0x4181
	.word	16833                           # 0x41c1
.LCPI7_163:
	.word	17921                           # 0x4601
	.word	17985                           # 0x4641
	.word	18049                           # 0x4681
	.word	18113                           # 0x46c1
	.word	18177                           # 0x4701
	.word	18241                           # 0x4741
	.word	18305                           # 0x4781
	.word	18369                           # 0x47c1
.LCPI7_164:
	.word	17409                           # 0x4401
	.word	17473                           # 0x4441
	.word	17537                           # 0x4481
	.word	17601                           # 0x44c1
	.word	17665                           # 0x4501
	.word	17729                           # 0x4541
	.word	17793                           # 0x4581
	.word	17857                           # 0x45c1
.LCPI7_165:
	.word	19969                           # 0x4e01
	.word	20033                           # 0x4e41
	.word	20097                           # 0x4e81
	.word	20161                           # 0x4ec1
	.word	20225                           # 0x4f01
	.word	20289                           # 0x4f41
	.word	20353                           # 0x4f81
	.word	20417                           # 0x4fc1
.LCPI7_166:
	.word	19457                           # 0x4c01
	.word	19521                           # 0x4c41
	.word	19585                           # 0x4c81
	.word	19649                           # 0x4cc1
	.word	19713                           # 0x4d01
	.word	19777                           # 0x4d41
	.word	19841                           # 0x4d81
	.word	19905                           # 0x4dc1
.LCPI7_167:
	.word	18945                           # 0x4a01
	.word	19009                           # 0x4a41
	.word	19073                           # 0x4a81
	.word	19137                           # 0x4ac1
	.word	19201                           # 0x4b01
	.word	19265                           # 0x4b41
	.word	19329                           # 0x4b81
	.word	19393                           # 0x4bc1
.LCPI7_168:
	.word	18433                           # 0x4801
	.word	18497                           # 0x4841
	.word	18561                           # 0x4881
	.word	18625                           # 0x48c1
	.word	18689                           # 0x4901
	.word	18753                           # 0x4941
	.word	18817                           # 0x4981
	.word	18881                           # 0x49c1
.LCPI7_169:
	.word	22017                           # 0x5601
	.word	22081                           # 0x5641
	.word	22145                           # 0x5681
	.word	22209                           # 0x56c1
	.word	22273                           # 0x5701
	.word	22337                           # 0x5741
	.word	22401                           # 0x5781
	.word	22465                           # 0x57c1
.LCPI7_170:
	.word	21505                           # 0x5401
	.word	21569                           # 0x5441
	.word	21633                           # 0x5481
	.word	21697                           # 0x54c1
	.word	21761                           # 0x5501
	.word	21825                           # 0x5541
	.word	21889                           # 0x5581
	.word	21953                           # 0x55c1
.LCPI7_171:
	.word	20993                           # 0x5201
	.word	21057                           # 0x5241
	.word	21121                           # 0x5281
	.word	21185                           # 0x52c1
	.word	21249                           # 0x5301
	.word	21313                           # 0x5341
	.word	21377                           # 0x5381
	.word	21441                           # 0x53c1
.LCPI7_172:
	.word	20481                           # 0x5001
	.word	20545                           # 0x5041
	.word	20609                           # 0x5081
	.word	20673                           # 0x50c1
	.word	20737                           # 0x5101
	.word	20801                           # 0x5141
	.word	20865                           # 0x5181
	.word	20929                           # 0x51c1
.LCPI7_173:
	.word	24065                           # 0x5e01
	.word	24129                           # 0x5e41
	.word	24193                           # 0x5e81
	.word	24257                           # 0x5ec1
	.word	24321                           # 0x5f01
	.word	24385                           # 0x5f41
	.word	24449                           # 0x5f81
	.word	24513                           # 0x5fc1
.LCPI7_174:
	.word	23553                           # 0x5c01
	.word	23617                           # 0x5c41
	.word	23681                           # 0x5c81
	.word	23745                           # 0x5cc1
	.word	23809                           # 0x5d01
	.word	23873                           # 0x5d41
	.word	23937                           # 0x5d81
	.word	24001                           # 0x5dc1
.LCPI7_175:
	.word	23041                           # 0x5a01
	.word	23105                           # 0x5a41
	.word	23169                           # 0x5a81
	.word	23233                           # 0x5ac1
	.word	23297                           # 0x5b01
	.word	23361                           # 0x5b41
	.word	23425                           # 0x5b81
	.word	23489                           # 0x5bc1
.LCPI7_176:
	.word	22529                           # 0x5801
	.word	22593                           # 0x5841
	.word	22657                           # 0x5881
	.word	22721                           # 0x58c1
	.word	22785                           # 0x5901
	.word	22849                           # 0x5941
	.word	22913                           # 0x5981
	.word	22977                           # 0x59c1
.LCPI7_177:
	.word	26113                           # 0x6601
	.word	26177                           # 0x6641
	.word	26241                           # 0x6681
	.word	26305                           # 0x66c1
	.word	26369                           # 0x6701
	.word	26433                           # 0x6741
	.word	26497                           # 0x6781
	.word	26561                           # 0x67c1
.LCPI7_178:
	.word	25601                           # 0x6401
	.word	25665                           # 0x6441
	.word	25729                           # 0x6481
	.word	25793                           # 0x64c1
	.word	25857                           # 0x6501
	.word	25921                           # 0x6541
	.word	25985                           # 0x6581
	.word	26049                           # 0x65c1
.LCPI7_179:
	.word	25089                           # 0x6201
	.word	25153                           # 0x6241
	.word	25217                           # 0x6281
	.word	25281                           # 0x62c1
	.word	25345                           # 0x6301
	.word	25409                           # 0x6341
	.word	25473                           # 0x6381
	.word	25537                           # 0x63c1
.LCPI7_180:
	.word	24577                           # 0x6001
	.word	24641                           # 0x6041
	.word	24705                           # 0x6081
	.word	24769                           # 0x60c1
	.word	24833                           # 0x6101
	.word	24897                           # 0x6141
	.word	24961                           # 0x6181
	.word	25025                           # 0x61c1
.LCPI7_181:
	.word	28161                           # 0x6e01
	.word	28225                           # 0x6e41
	.word	28289                           # 0x6e81
	.word	28353                           # 0x6ec1
	.word	28417                           # 0x6f01
	.word	28481                           # 0x6f41
	.word	28545                           # 0x6f81
	.word	28609                           # 0x6fc1
.LCPI7_182:
	.word	27649                           # 0x6c01
	.word	27713                           # 0x6c41
	.word	27777                           # 0x6c81
	.word	27841                           # 0x6cc1
	.word	27905                           # 0x6d01
	.word	27969                           # 0x6d41
	.word	28033                           # 0x6d81
	.word	28097                           # 0x6dc1
.LCPI7_183:
	.word	27137                           # 0x6a01
	.word	27201                           # 0x6a41
	.word	27265                           # 0x6a81
	.word	27329                           # 0x6ac1
	.word	27393                           # 0x6b01
	.word	27457                           # 0x6b41
	.word	27521                           # 0x6b81
	.word	27585                           # 0x6bc1
.LCPI7_184:
	.word	26625                           # 0x6801
	.word	26689                           # 0x6841
	.word	26753                           # 0x6881
	.word	26817                           # 0x68c1
	.word	26881                           # 0x6901
	.word	26945                           # 0x6941
	.word	27009                           # 0x6981
	.word	27073                           # 0x69c1
.LCPI7_185:
	.word	30209                           # 0x7601
	.word	30273                           # 0x7641
	.word	30337                           # 0x7681
	.word	30401                           # 0x76c1
	.word	30465                           # 0x7701
	.word	30529                           # 0x7741
	.word	30593                           # 0x7781
	.word	30657                           # 0x77c1
.LCPI7_186:
	.word	29697                           # 0x7401
	.word	29761                           # 0x7441
	.word	29825                           # 0x7481
	.word	29889                           # 0x74c1
	.word	29953                           # 0x7501
	.word	30017                           # 0x7541
	.word	30081                           # 0x7581
	.word	30145                           # 0x75c1
.LCPI7_187:
	.word	29185                           # 0x7201
	.word	29249                           # 0x7241
	.word	29313                           # 0x7281
	.word	29377                           # 0x72c1
	.word	29441                           # 0x7301
	.word	29505                           # 0x7341
	.word	29569                           # 0x7381
	.word	29633                           # 0x73c1
.LCPI7_188:
	.word	28673                           # 0x7001
	.word	28737                           # 0x7041
	.word	28801                           # 0x7081
	.word	28865                           # 0x70c1
	.word	28929                           # 0x7101
	.word	28993                           # 0x7141
	.word	29057                           # 0x7181
	.word	29121                           # 0x71c1
.LCPI7_189:
	.word	32257                           # 0x7e01
	.word	32321                           # 0x7e41
	.word	32385                           # 0x7e81
	.word	32449                           # 0x7ec1
	.word	32513                           # 0x7f01
	.word	32577                           # 0x7f41
	.word	32641                           # 0x7f81
	.word	32705                           # 0x7fc1
.LCPI7_190:
	.word	31745                           # 0x7c01
	.word	31809                           # 0x7c41
	.word	31873                           # 0x7c81
	.word	31937                           # 0x7cc1
	.word	32001                           # 0x7d01
	.word	32065                           # 0x7d41
	.word	32129                           # 0x7d81
	.word	32193                           # 0x7dc1
.LCPI7_191:
	.word	31233                           # 0x7a01
	.word	31297                           # 0x7a41
	.word	31361                           # 0x7a81
	.word	31425                           # 0x7ac1
	.word	31489                           # 0x7b01
	.word	31553                           # 0x7b41
	.word	31617                           # 0x7b81
	.word	31681                           # 0x7bc1
.LCPI7_192:
	.word	30721                           # 0x7801
	.word	30785                           # 0x7841
	.word	30849                           # 0x7881
	.word	30913                           # 0x78c1
	.word	30977                           # 0x7901
	.word	31041                           # 0x7941
	.word	31105                           # 0x7981
	.word	31169                           # 0x79c1
.LCPI7_193:
	.word	33793                           # 0x8401
	.word	33921                           # 0x8481
	.word	34049                           # 0x8501
	.word	34177                           # 0x8581
	.word	34305                           # 0x8601
	.word	34433                           # 0x8681
	.word	34561                           # 0x8701
	.word	34689                           # 0x8781
.LCPI7_194:
	.word	32769                           # 0x8001
	.word	32897                           # 0x8081
	.word	33025                           # 0x8101
	.word	33153                           # 0x8181
	.word	33281                           # 0x8201
	.word	33409                           # 0x8281
	.word	33537                           # 0x8301
	.word	33665                           # 0x8381
.LCPI7_195:
	.word	35841                           # 0x8c01
	.word	35969                           # 0x8c81
	.word	36097                           # 0x8d01
	.word	36225                           # 0x8d81
	.word	36353                           # 0x8e01
	.word	36481                           # 0x8e81
	.word	36609                           # 0x8f01
	.word	36737                           # 0x8f81
.LCPI7_196:
	.word	34817                           # 0x8801
	.word	34945                           # 0x8881
	.word	35073                           # 0x8901
	.word	35201                           # 0x8981
	.word	35329                           # 0x8a01
	.word	35457                           # 0x8a81
	.word	35585                           # 0x8b01
	.word	35713                           # 0x8b81
.LCPI7_197:
	.word	39937                           # 0x9c01
	.word	40065                           # 0x9c81
	.word	40193                           # 0x9d01
	.word	40321                           # 0x9d81
	.word	40449                           # 0x9e01
	.word	40577                           # 0x9e81
	.word	40705                           # 0x9f01
	.word	40833                           # 0x9f81
.LCPI7_198:
	.word	38913                           # 0x9801
	.word	39041                           # 0x9881
	.word	39169                           # 0x9901
	.word	39297                           # 0x9981
	.word	39425                           # 0x9a01
	.word	39553                           # 0x9a81
	.word	39681                           # 0x9b01
	.word	39809                           # 0x9b81
.LCPI7_199:
	.word	37889                           # 0x9401
	.word	38017                           # 0x9481
	.word	38145                           # 0x9501
	.word	38273                           # 0x9581
	.word	38401                           # 0x9601
	.word	38529                           # 0x9681
	.word	38657                           # 0x9701
	.word	38785                           # 0x9781
.LCPI7_200:
	.word	36865                           # 0x9001
	.word	36993                           # 0x9081
	.word	37121                           # 0x9101
	.word	37249                           # 0x9181
	.word	37377                           # 0x9201
	.word	37505                           # 0x9281
	.word	37633                           # 0x9301
	.word	37761                           # 0x9381
.LCPI7_201:
	.word	44033                           # 0xac01
	.word	44161                           # 0xac81
	.word	44289                           # 0xad01
	.word	44417                           # 0xad81
	.word	44545                           # 0xae01
	.word	44673                           # 0xae81
	.word	44801                           # 0xaf01
	.word	44929                           # 0xaf81
.LCPI7_202:
	.word	43009                           # 0xa801
	.word	43137                           # 0xa881
	.word	43265                           # 0xa901
	.word	43393                           # 0xa981
	.word	43521                           # 0xaa01
	.word	43649                           # 0xaa81
	.word	43777                           # 0xab01
	.word	43905                           # 0xab81
.LCPI7_203:
	.word	41985                           # 0xa401
	.word	42113                           # 0xa481
	.word	42241                           # 0xa501
	.word	42369                           # 0xa581
	.word	42497                           # 0xa601
	.word	42625                           # 0xa681
	.word	42753                           # 0xa701
	.word	42881                           # 0xa781
.LCPI7_204:
	.word	40961                           # 0xa001
	.word	41089                           # 0xa081
	.word	41217                           # 0xa101
	.word	41345                           # 0xa181
	.word	41473                           # 0xa201
	.word	41601                           # 0xa281
	.word	41729                           # 0xa301
	.word	41857                           # 0xa381
.LCPI7_205:
	.word	48129                           # 0xbc01
	.word	48257                           # 0xbc81
	.word	48385                           # 0xbd01
	.word	48513                           # 0xbd81
	.word	48641                           # 0xbe01
	.word	48769                           # 0xbe81
	.word	48897                           # 0xbf01
	.word	49025                           # 0xbf81
.LCPI7_206:
	.word	47105                           # 0xb801
	.word	47233                           # 0xb881
	.word	47361                           # 0xb901
	.word	47489                           # 0xb981
	.word	47617                           # 0xba01
	.word	47745                           # 0xba81
	.word	47873                           # 0xbb01
	.word	48001                           # 0xbb81
.LCPI7_207:
	.word	46081                           # 0xb401
	.word	46209                           # 0xb481
	.word	46337                           # 0xb501
	.word	46465                           # 0xb581
	.word	46593                           # 0xb601
	.word	46721                           # 0xb681
	.word	46849                           # 0xb701
	.word	46977                           # 0xb781
.LCPI7_208:
	.word	45057                           # 0xb001
	.word	45185                           # 0xb081
	.word	45313                           # 0xb101
	.word	45441                           # 0xb181
	.word	45569                           # 0xb201
	.word	45697                           # 0xb281
	.word	45825                           # 0xb301
	.word	45953                           # 0xb381
.LCPI7_209:
	.word	52225                           # 0xcc01
	.word	52353                           # 0xcc81
	.word	52481                           # 0xcd01
	.word	52609                           # 0xcd81
	.word	52737                           # 0xce01
	.word	52865                           # 0xce81
	.word	52993                           # 0xcf01
	.word	53121                           # 0xcf81
.LCPI7_210:
	.word	51201                           # 0xc801
	.word	51329                           # 0xc881
	.word	51457                           # 0xc901
	.word	51585                           # 0xc981
	.word	51713                           # 0xca01
	.word	51841                           # 0xca81
	.word	51969                           # 0xcb01
	.word	52097                           # 0xcb81
.LCPI7_211:
	.word	50177                           # 0xc401
	.word	50305                           # 0xc481
	.word	50433                           # 0xc501
	.word	50561                           # 0xc581
	.word	50689                           # 0xc601
	.word	50817                           # 0xc681
	.word	50945                           # 0xc701
	.word	51073                           # 0xc781
.LCPI7_212:
	.word	49153                           # 0xc001
	.word	49281                           # 0xc081
	.word	49409                           # 0xc101
	.word	49537                           # 0xc181
	.word	49665                           # 0xc201
	.word	49793                           # 0xc281
	.word	49921                           # 0xc301
	.word	50049                           # 0xc381
.LCPI7_213:
	.word	56321                           # 0xdc01
	.word	56449                           # 0xdc81
	.word	56577                           # 0xdd01
	.word	56705                           # 0xdd81
	.word	56833                           # 0xde01
	.word	56961                           # 0xde81
	.word	57089                           # 0xdf01
	.word	57217                           # 0xdf81
.LCPI7_214:
	.word	55297                           # 0xd801
	.word	55425                           # 0xd881
	.word	55553                           # 0xd901
	.word	55681                           # 0xd981
	.word	55809                           # 0xda01
	.word	55937                           # 0xda81
	.word	56065                           # 0xdb01
	.word	56193                           # 0xdb81
.LCPI7_215:
	.word	54273                           # 0xd401
	.word	54401                           # 0xd481
	.word	54529                           # 0xd501
	.word	54657                           # 0xd581
	.word	54785                           # 0xd601
	.word	54913                           # 0xd681
	.word	55041                           # 0xd701
	.word	55169                           # 0xd781
.LCPI7_216:
	.word	53249                           # 0xd001
	.word	53377                           # 0xd081
	.word	53505                           # 0xd101
	.word	53633                           # 0xd181
	.word	53761                           # 0xd201
	.word	53889                           # 0xd281
	.word	54017                           # 0xd301
	.word	54145                           # 0xd381
.LCPI7_217:
	.word	60417                           # 0xec01
	.word	60545                           # 0xec81
	.word	60673                           # 0xed01
	.word	60801                           # 0xed81
	.word	60929                           # 0xee01
	.word	61057                           # 0xee81
	.word	61185                           # 0xef01
	.word	61313                           # 0xef81
.LCPI7_218:
	.word	59393                           # 0xe801
	.word	59521                           # 0xe881
	.word	59649                           # 0xe901
	.word	59777                           # 0xe981
	.word	59905                           # 0xea01
	.word	60033                           # 0xea81
	.word	60161                           # 0xeb01
	.word	60289                           # 0xeb81
.LCPI7_219:
	.word	58369                           # 0xe401
	.word	58497                           # 0xe481
	.word	58625                           # 0xe501
	.word	58753                           # 0xe581
	.word	58881                           # 0xe601
	.word	59009                           # 0xe681
	.word	59137                           # 0xe701
	.word	59265                           # 0xe781
.LCPI7_220:
	.word	57345                           # 0xe001
	.word	57473                           # 0xe081
	.word	57601                           # 0xe101
	.word	57729                           # 0xe181
	.word	57857                           # 0xe201
	.word	57985                           # 0xe281
	.word	58113                           # 0xe301
	.word	58241                           # 0xe381
.LCPI7_221:
	.word	64513                           # 0xfc01
	.word	64641                           # 0xfc81
	.word	64769                           # 0xfd01
	.word	64897                           # 0xfd81
	.word	65025                           # 0xfe01
	.word	65153                           # 0xfe81
	.word	65281                           # 0xff01
	.word	65409                           # 0xff81
.LCPI7_222:
	.word	63489                           # 0xf801
	.word	63617                           # 0xf881
	.word	63745                           # 0xf901
	.word	63873                           # 0xf981
	.word	64001                           # 0xfa01
	.word	64129                           # 0xfa81
	.word	64257                           # 0xfb01
	.word	64385                           # 0xfb81
.LCPI7_223:
	.word	62465                           # 0xf401
	.word	62593                           # 0xf481
	.word	62721                           # 0xf501
	.word	62849                           # 0xf581
	.word	62977                           # 0xf601
	.word	63105                           # 0xf681
	.word	63233                           # 0xf701
	.word	63361                           # 0xf781
.LCPI7_224:
	.word	61441                           # 0xf001
	.word	61569                           # 0xf081
	.word	61697                           # 0xf101
	.word	61825                           # 0xf181
	.word	61953                           # 0xf201
	.word	62081                           # 0xf281
	.word	62209                           # 0xf301
	.word	62337                           # 0xf381
.LCPI7_225:
	.word	67585                           # 0x10801
	.word	67841                           # 0x10901
	.word	68097                           # 0x10a01
	.word	68353                           # 0x10b01
	.word	68609                           # 0x10c01
	.word	68865                           # 0x10d01
	.word	69121                           # 0x10e01
	.word	69377                           # 0x10f01
.LCPI7_226:
	.word	65537                           # 0x10001
	.word	65793                           # 0x10101
	.word	66049                           # 0x10201
	.word	66305                           # 0x10301
	.word	66561                           # 0x10401
	.word	66817                           # 0x10501
	.word	67073                           # 0x10601
	.word	67329                           # 0x10701
.LCPI7_227:
	.word	71681                           # 0x11801
	.word	71937                           # 0x11901
	.word	72193                           # 0x11a01
	.word	72449                           # 0x11b01
	.word	72705                           # 0x11c01
	.word	72961                           # 0x11d01
	.word	73217                           # 0x11e01
	.word	73473                           # 0x11f01
.LCPI7_228:
	.word	69633                           # 0x11001
	.word	69889                           # 0x11101
	.word	70145                           # 0x11201
	.word	70401                           # 0x11301
	.word	70657                           # 0x11401
	.word	70913                           # 0x11501
	.word	71169                           # 0x11601
	.word	71425                           # 0x11701
.LCPI7_229:
	.word	79873                           # 0x13801
	.word	80129                           # 0x13901
	.word	80385                           # 0x13a01
	.word	80641                           # 0x13b01
	.word	80897                           # 0x13c01
	.word	81153                           # 0x13d01
	.word	81409                           # 0x13e01
	.word	81665                           # 0x13f01
.LCPI7_230:
	.word	77825                           # 0x13001
	.word	78081                           # 0x13101
	.word	78337                           # 0x13201
	.word	78593                           # 0x13301
	.word	78849                           # 0x13401
	.word	79105                           # 0x13501
	.word	79361                           # 0x13601
	.word	79617                           # 0x13701
.LCPI7_231:
	.word	75777                           # 0x12801
	.word	76033                           # 0x12901
	.word	76289                           # 0x12a01
	.word	76545                           # 0x12b01
	.word	76801                           # 0x12c01
	.word	77057                           # 0x12d01
	.word	77313                           # 0x12e01
	.word	77569                           # 0x12f01
.LCPI7_232:
	.word	73729                           # 0x12001
	.word	73985                           # 0x12101
	.word	74241                           # 0x12201
	.word	74497                           # 0x12301
	.word	74753                           # 0x12401
	.word	75009                           # 0x12501
	.word	75265                           # 0x12601
	.word	75521                           # 0x12701
.LCPI7_233:
	.word	88065                           # 0x15801
	.word	88321                           # 0x15901
	.word	88577                           # 0x15a01
	.word	88833                           # 0x15b01
	.word	89089                           # 0x15c01
	.word	89345                           # 0x15d01
	.word	89601                           # 0x15e01
	.word	89857                           # 0x15f01
.LCPI7_234:
	.word	86017                           # 0x15001
	.word	86273                           # 0x15101
	.word	86529                           # 0x15201
	.word	86785                           # 0x15301
	.word	87041                           # 0x15401
	.word	87297                           # 0x15501
	.word	87553                           # 0x15601
	.word	87809                           # 0x15701
.LCPI7_235:
	.word	83969                           # 0x14801
	.word	84225                           # 0x14901
	.word	84481                           # 0x14a01
	.word	84737                           # 0x14b01
	.word	84993                           # 0x14c01
	.word	85249                           # 0x14d01
	.word	85505                           # 0x14e01
	.word	85761                           # 0x14f01
.LCPI7_236:
	.word	81921                           # 0x14001
	.word	82177                           # 0x14101
	.word	82433                           # 0x14201
	.word	82689                           # 0x14301
	.word	82945                           # 0x14401
	.word	83201                           # 0x14501
	.word	83457                           # 0x14601
	.word	83713                           # 0x14701
.LCPI7_237:
	.word	96257                           # 0x17801
	.word	96513                           # 0x17901
	.word	96769                           # 0x17a01
	.word	97025                           # 0x17b01
	.word	97281                           # 0x17c01
	.word	97537                           # 0x17d01
	.word	97793                           # 0x17e01
	.word	98049                           # 0x17f01
.LCPI7_238:
	.word	94209                           # 0x17001
	.word	94465                           # 0x17101
	.word	94721                           # 0x17201
	.word	94977                           # 0x17301
	.word	95233                           # 0x17401
	.word	95489                           # 0x17501
	.word	95745                           # 0x17601
	.word	96001                           # 0x17701
.LCPI7_239:
	.word	92161                           # 0x16801
	.word	92417                           # 0x16901
	.word	92673                           # 0x16a01
	.word	92929                           # 0x16b01
	.word	93185                           # 0x16c01
	.word	93441                           # 0x16d01
	.word	93697                           # 0x16e01
	.word	93953                           # 0x16f01
.LCPI7_240:
	.word	90113                           # 0x16001
	.word	90369                           # 0x16101
	.word	90625                           # 0x16201
	.word	90881                           # 0x16301
	.word	91137                           # 0x16401
	.word	91393                           # 0x16501
	.word	91649                           # 0x16601
	.word	91905                           # 0x16701
.LCPI7_241:
	.word	104449                          # 0x19801
	.word	104705                          # 0x19901
	.word	104961                          # 0x19a01
	.word	105217                          # 0x19b01
	.word	105473                          # 0x19c01
	.word	105729                          # 0x19d01
	.word	105985                          # 0x19e01
	.word	106241                          # 0x19f01
.LCPI7_242:
	.word	102401                          # 0x19001
	.word	102657                          # 0x19101
	.word	102913                          # 0x19201
	.word	103169                          # 0x19301
	.word	103425                          # 0x19401
	.word	103681                          # 0x19501
	.word	103937                          # 0x19601
	.word	104193                          # 0x19701
.LCPI7_243:
	.word	100353                          # 0x18801
	.word	100609                          # 0x18901
	.word	100865                          # 0x18a01
	.word	101121                          # 0x18b01
	.word	101377                          # 0x18c01
	.word	101633                          # 0x18d01
	.word	101889                          # 0x18e01
	.word	102145                          # 0x18f01
.LCPI7_244:
	.word	98305                           # 0x18001
	.word	98561                           # 0x18101
	.word	98817                           # 0x18201
	.word	99073                           # 0x18301
	.word	99329                           # 0x18401
	.word	99585                           # 0x18501
	.word	99841                           # 0x18601
	.word	100097                          # 0x18701
.LCPI7_245:
	.word	112641                          # 0x1b801
	.word	112897                          # 0x1b901
	.word	113153                          # 0x1ba01
	.word	113409                          # 0x1bb01
	.word	113665                          # 0x1bc01
	.word	113921                          # 0x1bd01
	.word	114177                          # 0x1be01
	.word	114433                          # 0x1bf01
.LCPI7_246:
	.word	110593                          # 0x1b001
	.word	110849                          # 0x1b101
	.word	111105                          # 0x1b201
	.word	111361                          # 0x1b301
	.word	111617                          # 0x1b401
	.word	111873                          # 0x1b501
	.word	112129                          # 0x1b601
	.word	112385                          # 0x1b701
.LCPI7_247:
	.word	108545                          # 0x1a801
	.word	108801                          # 0x1a901
	.word	109057                          # 0x1aa01
	.word	109313                          # 0x1ab01
	.word	109569                          # 0x1ac01
	.word	109825                          # 0x1ad01
	.word	110081                          # 0x1ae01
	.word	110337                          # 0x1af01
.LCPI7_248:
	.word	106497                          # 0x1a001
	.word	106753                          # 0x1a101
	.word	107009                          # 0x1a201
	.word	107265                          # 0x1a301
	.word	107521                          # 0x1a401
	.word	107777                          # 0x1a501
	.word	108033                          # 0x1a601
	.word	108289                          # 0x1a701
.LCPI7_249:
	.word	120833                          # 0x1d801
	.word	121089                          # 0x1d901
	.word	121345                          # 0x1da01
	.word	121601                          # 0x1db01
	.word	121857                          # 0x1dc01
	.word	122113                          # 0x1dd01
	.word	122369                          # 0x1de01
	.word	122625                          # 0x1df01
.LCPI7_250:
	.word	118785                          # 0x1d001
	.word	119041                          # 0x1d101
	.word	119297                          # 0x1d201
	.word	119553                          # 0x1d301
	.word	119809                          # 0x1d401
	.word	120065                          # 0x1d501
	.word	120321                          # 0x1d601
	.word	120577                          # 0x1d701
.LCPI7_251:
	.word	116737                          # 0x1c801
	.word	116993                          # 0x1c901
	.word	117249                          # 0x1ca01
	.word	117505                          # 0x1cb01
	.word	117761                          # 0x1cc01
	.word	118017                          # 0x1cd01
	.word	118273                          # 0x1ce01
	.word	118529                          # 0x1cf01
.LCPI7_252:
	.word	114689                          # 0x1c001
	.word	114945                          # 0x1c101
	.word	115201                          # 0x1c201
	.word	115457                          # 0x1c301
	.word	115713                          # 0x1c401
	.word	115969                          # 0x1c501
	.word	116225                          # 0x1c601
	.word	116481                          # 0x1c701
.LCPI7_253:
	.word	129025                          # 0x1f801
	.word	129281                          # 0x1f901
	.word	129537                          # 0x1fa01
	.word	129793                          # 0x1fb01
	.word	130049                          # 0x1fc01
	.word	130305                          # 0x1fd01
	.word	130561                          # 0x1fe01
	.word	130817                          # 0x1ff01
.LCPI7_254:
	.word	126977                          # 0x1f001
	.word	127233                          # 0x1f101
	.word	127489                          # 0x1f201
	.word	127745                          # 0x1f301
	.word	128001                          # 0x1f401
	.word	128257                          # 0x1f501
	.word	128513                          # 0x1f601
	.word	128769                          # 0x1f701
.LCPI7_255:
	.word	124929                          # 0x1e801
	.word	125185                          # 0x1e901
	.word	125441                          # 0x1ea01
	.word	125697                          # 0x1eb01
	.word	125953                          # 0x1ec01
	.word	126209                          # 0x1ed01
	.word	126465                          # 0x1ee01
	.word	126721                          # 0x1ef01
.LCPI7_256:
	.word	122881                          # 0x1e001
	.word	123137                          # 0x1e101
	.word	123393                          # 0x1e201
	.word	123649                          # 0x1e301
	.word	123905                          # 0x1e401
	.word	124161                          # 0x1e501
	.word	124417                          # 0x1e601
	.word	124673                          # 0x1e701
.LCPI7_257:
	.word	135169                          # 0x21001
	.word	135681                          # 0x21201
	.word	136193                          # 0x21401
	.word	136705                          # 0x21601
	.word	137217                          # 0x21801
	.word	137729                          # 0x21a01
	.word	138241                          # 0x21c01
	.word	138753                          # 0x21e01
.LCPI7_258:
	.word	131073                          # 0x20001
	.word	131585                          # 0x20201
	.word	132097                          # 0x20401
	.word	132609                          # 0x20601
	.word	133121                          # 0x20801
	.word	133633                          # 0x20a01
	.word	134145                          # 0x20c01
	.word	134657                          # 0x20e01
.LCPI7_259:
	.word	143361                          # 0x23001
	.word	143873                          # 0x23201
	.word	144385                          # 0x23401
	.word	144897                          # 0x23601
	.word	145409                          # 0x23801
	.word	145921                          # 0x23a01
	.word	146433                          # 0x23c01
	.word	146945                          # 0x23e01
.LCPI7_260:
	.word	139265                          # 0x22001
	.word	139777                          # 0x22201
	.word	140289                          # 0x22401
	.word	140801                          # 0x22601
	.word	141313                          # 0x22801
	.word	141825                          # 0x22a01
	.word	142337                          # 0x22c01
	.word	142849                          # 0x22e01
.LCPI7_261:
	.word	159745                          # 0x27001
	.word	160257                          # 0x27201
	.word	160769                          # 0x27401
	.word	161281                          # 0x27601
	.word	161793                          # 0x27801
	.word	162305                          # 0x27a01
	.word	162817                          # 0x27c01
	.word	163329                          # 0x27e01
.LCPI7_262:
	.word	155649                          # 0x26001
	.word	156161                          # 0x26201
	.word	156673                          # 0x26401
	.word	157185                          # 0x26601
	.word	157697                          # 0x26801
	.word	158209                          # 0x26a01
	.word	158721                          # 0x26c01
	.word	159233                          # 0x26e01
.LCPI7_263:
	.word	151553                          # 0x25001
	.word	152065                          # 0x25201
	.word	152577                          # 0x25401
	.word	153089                          # 0x25601
	.word	153601                          # 0x25801
	.word	154113                          # 0x25a01
	.word	154625                          # 0x25c01
	.word	155137                          # 0x25e01
.LCPI7_264:
	.word	147457                          # 0x24001
	.word	147969                          # 0x24201
	.word	148481                          # 0x24401
	.word	148993                          # 0x24601
	.word	149505                          # 0x24801
	.word	150017                          # 0x24a01
	.word	150529                          # 0x24c01
	.word	151041                          # 0x24e01
.LCPI7_265:
	.word	176129                          # 0x2b001
	.word	176641                          # 0x2b201
	.word	177153                          # 0x2b401
	.word	177665                          # 0x2b601
	.word	178177                          # 0x2b801
	.word	178689                          # 0x2ba01
	.word	179201                          # 0x2bc01
	.word	179713                          # 0x2be01
.LCPI7_266:
	.word	172033                          # 0x2a001
	.word	172545                          # 0x2a201
	.word	173057                          # 0x2a401
	.word	173569                          # 0x2a601
	.word	174081                          # 0x2a801
	.word	174593                          # 0x2aa01
	.word	175105                          # 0x2ac01
	.word	175617                          # 0x2ae01
.LCPI7_267:
	.word	167937                          # 0x29001
	.word	168449                          # 0x29201
	.word	168961                          # 0x29401
	.word	169473                          # 0x29601
	.word	169985                          # 0x29801
	.word	170497                          # 0x29a01
	.word	171009                          # 0x29c01
	.word	171521                          # 0x29e01
.LCPI7_268:
	.word	163841                          # 0x28001
	.word	164353                          # 0x28201
	.word	164865                          # 0x28401
	.word	165377                          # 0x28601
	.word	165889                          # 0x28801
	.word	166401                          # 0x28a01
	.word	166913                          # 0x28c01
	.word	167425                          # 0x28e01
.LCPI7_269:
	.word	192513                          # 0x2f001
	.word	193025                          # 0x2f201
	.word	193537                          # 0x2f401
	.word	194049                          # 0x2f601
	.word	194561                          # 0x2f801
	.word	195073                          # 0x2fa01
	.word	195585                          # 0x2fc01
	.word	196097                          # 0x2fe01
.LCPI7_270:
	.word	188417                          # 0x2e001
	.word	188929                          # 0x2e201
	.word	189441                          # 0x2e401
	.word	189953                          # 0x2e601
	.word	190465                          # 0x2e801
	.word	190977                          # 0x2ea01
	.word	191489                          # 0x2ec01
	.word	192001                          # 0x2ee01
.LCPI7_271:
	.word	184321                          # 0x2d001
	.word	184833                          # 0x2d201
	.word	185345                          # 0x2d401
	.word	185857                          # 0x2d601
	.word	186369                          # 0x2d801
	.word	186881                          # 0x2da01
	.word	187393                          # 0x2dc01
	.word	187905                          # 0x2de01
.LCPI7_272:
	.word	180225                          # 0x2c001
	.word	180737                          # 0x2c201
	.word	181249                          # 0x2c401
	.word	181761                          # 0x2c601
	.word	182273                          # 0x2c801
	.word	182785                          # 0x2ca01
	.word	183297                          # 0x2cc01
	.word	183809                          # 0x2ce01
.LCPI7_273:
	.word	208897                          # 0x33001
	.word	209409                          # 0x33201
	.word	209921                          # 0x33401
	.word	210433                          # 0x33601
	.word	210945                          # 0x33801
	.word	211457                          # 0x33a01
	.word	211969                          # 0x33c01
	.word	212481                          # 0x33e01
.LCPI7_274:
	.word	204801                          # 0x32001
	.word	205313                          # 0x32201
	.word	205825                          # 0x32401
	.word	206337                          # 0x32601
	.word	206849                          # 0x32801
	.word	207361                          # 0x32a01
	.word	207873                          # 0x32c01
	.word	208385                          # 0x32e01
.LCPI7_275:
	.word	200705                          # 0x31001
	.word	201217                          # 0x31201
	.word	201729                          # 0x31401
	.word	202241                          # 0x31601
	.word	202753                          # 0x31801
	.word	203265                          # 0x31a01
	.word	203777                          # 0x31c01
	.word	204289                          # 0x31e01
.LCPI7_276:
	.word	196609                          # 0x30001
	.word	197121                          # 0x30201
	.word	197633                          # 0x30401
	.word	198145                          # 0x30601
	.word	198657                          # 0x30801
	.word	199169                          # 0x30a01
	.word	199681                          # 0x30c01
	.word	200193                          # 0x30e01
.LCPI7_277:
	.word	225281                          # 0x37001
	.word	225793                          # 0x37201
	.word	226305                          # 0x37401
	.word	226817                          # 0x37601
	.word	227329                          # 0x37801
	.word	227841                          # 0x37a01
	.word	228353                          # 0x37c01
	.word	228865                          # 0x37e01
.LCPI7_278:
	.word	221185                          # 0x36001
	.word	221697                          # 0x36201
	.word	222209                          # 0x36401
	.word	222721                          # 0x36601
	.word	223233                          # 0x36801
	.word	223745                          # 0x36a01
	.word	224257                          # 0x36c01
	.word	224769                          # 0x36e01
.LCPI7_279:
	.word	217089                          # 0x35001
	.word	217601                          # 0x35201
	.word	218113                          # 0x35401
	.word	218625                          # 0x35601
	.word	219137                          # 0x35801
	.word	219649                          # 0x35a01
	.word	220161                          # 0x35c01
	.word	220673                          # 0x35e01
.LCPI7_280:
	.word	212993                          # 0x34001
	.word	213505                          # 0x34201
	.word	214017                          # 0x34401
	.word	214529                          # 0x34601
	.word	215041                          # 0x34801
	.word	215553                          # 0x34a01
	.word	216065                          # 0x34c01
	.word	216577                          # 0x34e01
.LCPI7_281:
	.word	241665                          # 0x3b001
	.word	242177                          # 0x3b201
	.word	242689                          # 0x3b401
	.word	243201                          # 0x3b601
	.word	243713                          # 0x3b801
	.word	244225                          # 0x3ba01
	.word	244737                          # 0x3bc01
	.word	245249                          # 0x3be01
.LCPI7_282:
	.word	237569                          # 0x3a001
	.word	238081                          # 0x3a201
	.word	238593                          # 0x3a401
	.word	239105                          # 0x3a601
	.word	239617                          # 0x3a801
	.word	240129                          # 0x3aa01
	.word	240641                          # 0x3ac01
	.word	241153                          # 0x3ae01
.LCPI7_283:
	.word	233473                          # 0x39001
	.word	233985                          # 0x39201
	.word	234497                          # 0x39401
	.word	235009                          # 0x39601
	.word	235521                          # 0x39801
	.word	236033                          # 0x39a01
	.word	236545                          # 0x39c01
	.word	237057                          # 0x39e01
.LCPI7_284:
	.word	229377                          # 0x38001
	.word	229889                          # 0x38201
	.word	230401                          # 0x38401
	.word	230913                          # 0x38601
	.word	231425                          # 0x38801
	.word	231937                          # 0x38a01
	.word	232449                          # 0x38c01
	.word	232961                          # 0x38e01
.LCPI7_285:
	.word	258049                          # 0x3f001
	.word	258561                          # 0x3f201
	.word	259073                          # 0x3f401
	.word	259585                          # 0x3f601
	.word	260097                          # 0x3f801
	.word	260609                          # 0x3fa01
	.word	261121                          # 0x3fc01
	.word	261633                          # 0x3fe01
.LCPI7_286:
	.word	253953                          # 0x3e001
	.word	254465                          # 0x3e201
	.word	254977                          # 0x3e401
	.word	255489                          # 0x3e601
	.word	256001                          # 0x3e801
	.word	256513                          # 0x3ea01
	.word	257025                          # 0x3ec01
	.word	257537                          # 0x3ee01
.LCPI7_287:
	.word	249857                          # 0x3d001
	.word	250369                          # 0x3d201
	.word	250881                          # 0x3d401
	.word	251393                          # 0x3d601
	.word	251905                          # 0x3d801
	.word	252417                          # 0x3da01
	.word	252929                          # 0x3dc01
	.word	253441                          # 0x3de01
.LCPI7_288:
	.word	245761                          # 0x3c001
	.word	246273                          # 0x3c201
	.word	246785                          # 0x3c401
	.word	247297                          # 0x3c601
	.word	247809                          # 0x3c801
	.word	248321                          # 0x3ca01
	.word	248833                          # 0x3cc01
	.word	249345                          # 0x3ce01
.LCPI7_289:
	.word	270337                          # 0x42001
	.word	271361                          # 0x42401
	.word	272385                          # 0x42801
	.word	273409                          # 0x42c01
	.word	274433                          # 0x43001
	.word	275457                          # 0x43401
	.word	276481                          # 0x43801
	.word	277505                          # 0x43c01
.LCPI7_290:
	.word	262145                          # 0x40001
	.word	263169                          # 0x40401
	.word	264193                          # 0x40801
	.word	265217                          # 0x40c01
	.word	266241                          # 0x41001
	.word	267265                          # 0x41401
	.word	268289                          # 0x41801
	.word	269313                          # 0x41c01
.LCPI7_291:
	.word	286721                          # 0x46001
	.word	287745                          # 0x46401
	.word	288769                          # 0x46801
	.word	289793                          # 0x46c01
	.word	290817                          # 0x47001
	.word	291841                          # 0x47401
	.word	292865                          # 0x47801
	.word	293889                          # 0x47c01
.LCPI7_292:
	.word	278529                          # 0x44001
	.word	279553                          # 0x44401
	.word	280577                          # 0x44801
	.word	281601                          # 0x44c01
	.word	282625                          # 0x45001
	.word	283649                          # 0x45401
	.word	284673                          # 0x45801
	.word	285697                          # 0x45c01
.LCPI7_293:
	.word	319489                          # 0x4e001
	.word	320513                          # 0x4e401
	.word	321537                          # 0x4e801
	.word	322561                          # 0x4ec01
	.word	323585                          # 0x4f001
	.word	324609                          # 0x4f401
	.word	325633                          # 0x4f801
	.word	326657                          # 0x4fc01
.LCPI7_294:
	.word	311297                          # 0x4c001
	.word	312321                          # 0x4c401
	.word	313345                          # 0x4c801
	.word	314369                          # 0x4cc01
	.word	315393                          # 0x4d001
	.word	316417                          # 0x4d401
	.word	317441                          # 0x4d801
	.word	318465                          # 0x4dc01
.LCPI7_295:
	.word	303105                          # 0x4a001
	.word	304129                          # 0x4a401
	.word	305153                          # 0x4a801
	.word	306177                          # 0x4ac01
	.word	307201                          # 0x4b001
	.word	308225                          # 0x4b401
	.word	309249                          # 0x4b801
	.word	310273                          # 0x4bc01
.LCPI7_296:
	.word	294913                          # 0x48001
	.word	295937                          # 0x48401
	.word	296961                          # 0x48801
	.word	297985                          # 0x48c01
	.word	299009                          # 0x49001
	.word	300033                          # 0x49401
	.word	301057                          # 0x49801
	.word	302081                          # 0x49c01
.LCPI7_297:
	.word	352257                          # 0x56001
	.word	353281                          # 0x56401
	.word	354305                          # 0x56801
	.word	355329                          # 0x56c01
	.word	356353                          # 0x57001
	.word	357377                          # 0x57401
	.word	358401                          # 0x57801
	.word	359425                          # 0x57c01
.LCPI7_298:
	.word	344065                          # 0x54001
	.word	345089                          # 0x54401
	.word	346113                          # 0x54801
	.word	347137                          # 0x54c01
	.word	348161                          # 0x55001
	.word	349185                          # 0x55401
	.word	350209                          # 0x55801
	.word	351233                          # 0x55c01
.LCPI7_299:
	.word	335873                          # 0x52001
	.word	336897                          # 0x52401
	.word	337921                          # 0x52801
	.word	338945                          # 0x52c01
	.word	339969                          # 0x53001
	.word	340993                          # 0x53401
	.word	342017                          # 0x53801
	.word	343041                          # 0x53c01
.LCPI7_300:
	.word	327681                          # 0x50001
	.word	328705                          # 0x50401
	.word	329729                          # 0x50801
	.word	330753                          # 0x50c01
	.word	331777                          # 0x51001
	.word	332801                          # 0x51401
	.word	333825                          # 0x51801
	.word	334849                          # 0x51c01
.LCPI7_301:
	.word	385025                          # 0x5e001
	.word	386049                          # 0x5e401
	.word	387073                          # 0x5e801
	.word	388097                          # 0x5ec01
	.word	389121                          # 0x5f001
	.word	390145                          # 0x5f401
	.word	391169                          # 0x5f801
	.word	392193                          # 0x5fc01
.LCPI7_302:
	.word	376833                          # 0x5c001
	.word	377857                          # 0x5c401
	.word	378881                          # 0x5c801
	.word	379905                          # 0x5cc01
	.word	380929                          # 0x5d001
	.word	381953                          # 0x5d401
	.word	382977                          # 0x5d801
	.word	384001                          # 0x5dc01
.LCPI7_303:
	.word	368641                          # 0x5a001
	.word	369665                          # 0x5a401
	.word	370689                          # 0x5a801
	.word	371713                          # 0x5ac01
	.word	372737                          # 0x5b001
	.word	373761                          # 0x5b401
	.word	374785                          # 0x5b801
	.word	375809                          # 0x5bc01
.LCPI7_304:
	.word	360449                          # 0x58001
	.word	361473                          # 0x58401
	.word	362497                          # 0x58801
	.word	363521                          # 0x58c01
	.word	364545                          # 0x59001
	.word	365569                          # 0x59401
	.word	366593                          # 0x59801
	.word	367617                          # 0x59c01
.LCPI7_305:
	.word	417793                          # 0x66001
	.word	418817                          # 0x66401
	.word	419841                          # 0x66801
	.word	420865                          # 0x66c01
	.word	421889                          # 0x67001
	.word	422913                          # 0x67401
	.word	423937                          # 0x67801
	.word	424961                          # 0x67c01
.LCPI7_306:
	.word	409601                          # 0x64001
	.word	410625                          # 0x64401
	.word	411649                          # 0x64801
	.word	412673                          # 0x64c01
	.word	413697                          # 0x65001
	.word	414721                          # 0x65401
	.word	415745                          # 0x65801
	.word	416769                          # 0x65c01
.LCPI7_307:
	.word	401409                          # 0x62001
	.word	402433                          # 0x62401
	.word	403457                          # 0x62801
	.word	404481                          # 0x62c01
	.word	405505                          # 0x63001
	.word	406529                          # 0x63401
	.word	407553                          # 0x63801
	.word	408577                          # 0x63c01
.LCPI7_308:
	.word	393217                          # 0x60001
	.word	394241                          # 0x60401
	.word	395265                          # 0x60801
	.word	396289                          # 0x60c01
	.word	397313                          # 0x61001
	.word	398337                          # 0x61401
	.word	399361                          # 0x61801
	.word	400385                          # 0x61c01
.LCPI7_309:
	.word	450561                          # 0x6e001
	.word	451585                          # 0x6e401
	.word	452609                          # 0x6e801
	.word	453633                          # 0x6ec01
	.word	454657                          # 0x6f001
	.word	455681                          # 0x6f401
	.word	456705                          # 0x6f801
	.word	457729                          # 0x6fc01
.LCPI7_310:
	.word	442369                          # 0x6c001
	.word	443393                          # 0x6c401
	.word	444417                          # 0x6c801
	.word	445441                          # 0x6cc01
	.word	446465                          # 0x6d001
	.word	447489                          # 0x6d401
	.word	448513                          # 0x6d801
	.word	449537                          # 0x6dc01
.LCPI7_311:
	.word	434177                          # 0x6a001
	.word	435201                          # 0x6a401
	.word	436225                          # 0x6a801
	.word	437249                          # 0x6ac01
	.word	438273                          # 0x6b001
	.word	439297                          # 0x6b401
	.word	440321                          # 0x6b801
	.word	441345                          # 0x6bc01
.LCPI7_312:
	.word	425985                          # 0x68001
	.word	427009                          # 0x68401
	.word	428033                          # 0x68801
	.word	429057                          # 0x68c01
	.word	430081                          # 0x69001
	.word	431105                          # 0x69401
	.word	432129                          # 0x69801
	.word	433153                          # 0x69c01
.LCPI7_313:
	.word	483329                          # 0x76001
	.word	484353                          # 0x76401
	.word	485377                          # 0x76801
	.word	486401                          # 0x76c01
	.word	487425                          # 0x77001
	.word	488449                          # 0x77401
	.word	489473                          # 0x77801
	.word	490497                          # 0x77c01
.LCPI7_314:
	.word	475137                          # 0x74001
	.word	476161                          # 0x74401
	.word	477185                          # 0x74801
	.word	478209                          # 0x74c01
	.word	479233                          # 0x75001
	.word	480257                          # 0x75401
	.word	481281                          # 0x75801
	.word	482305                          # 0x75c01
.LCPI7_315:
	.word	466945                          # 0x72001
	.word	467969                          # 0x72401
	.word	468993                          # 0x72801
	.word	470017                          # 0x72c01
	.word	471041                          # 0x73001
	.word	472065                          # 0x73401
	.word	473089                          # 0x73801
	.word	474113                          # 0x73c01
.LCPI7_316:
	.word	458753                          # 0x70001
	.word	459777                          # 0x70401
	.word	460801                          # 0x70801
	.word	461825                          # 0x70c01
	.word	462849                          # 0x71001
	.word	463873                          # 0x71401
	.word	464897                          # 0x71801
	.word	465921                          # 0x71c01
.LCPI7_317:
	.word	516097                          # 0x7e001
	.word	517121                          # 0x7e401
	.word	518145                          # 0x7e801
	.word	519169                          # 0x7ec01
	.word	520193                          # 0x7f001
	.word	521217                          # 0x7f401
	.word	522241                          # 0x7f801
	.word	523265                          # 0x7fc01
.LCPI7_318:
	.word	507905                          # 0x7c001
	.word	508929                          # 0x7c401
	.word	509953                          # 0x7c801
	.word	510977                          # 0x7cc01
	.word	512001                          # 0x7d001
	.word	513025                          # 0x7d401
	.word	514049                          # 0x7d801
	.word	515073                          # 0x7dc01
.LCPI7_319:
	.word	499713                          # 0x7a001
	.word	500737                          # 0x7a401
	.word	501761                          # 0x7a801
	.word	502785                          # 0x7ac01
	.word	503809                          # 0x7b001
	.word	504833                          # 0x7b401
	.word	505857                          # 0x7b801
	.word	506881                          # 0x7bc01
.LCPI7_320:
	.word	491521                          # 0x78001
	.word	492545                          # 0x78401
	.word	493569                          # 0x78801
	.word	494593                          # 0x78c01
	.word	495617                          # 0x79001
	.word	496641                          # 0x79401
	.word	497665                          # 0x79801
	.word	498689                          # 0x79c01
.LCPI7_321:
	.word	540673                          # 0x84001
	.word	542721                          # 0x84801
	.word	544769                          # 0x85001
	.word	546817                          # 0x85801
	.word	548865                          # 0x86001
	.word	550913                          # 0x86801
	.word	552961                          # 0x87001
	.word	555009                          # 0x87801
.LCPI7_322:
	.word	524289                          # 0x80001
	.word	526337                          # 0x80801
	.word	528385                          # 0x81001
	.word	530433                          # 0x81801
	.word	532481                          # 0x82001
	.word	534529                          # 0x82801
	.word	536577                          # 0x83001
	.word	538625                          # 0x83801
.LCPI7_323:
	.word	573441                          # 0x8c001
	.word	575489                          # 0x8c801
	.word	577537                          # 0x8d001
	.word	579585                          # 0x8d801
	.word	581633                          # 0x8e001
	.word	583681                          # 0x8e801
	.word	585729                          # 0x8f001
	.word	587777                          # 0x8f801
.LCPI7_324:
	.word	557057                          # 0x88001
	.word	559105                          # 0x88801
	.word	561153                          # 0x89001
	.word	563201                          # 0x89801
	.word	565249                          # 0x8a001
	.word	567297                          # 0x8a801
	.word	569345                          # 0x8b001
	.word	571393                          # 0x8b801
.LCPI7_325:
	.word	638977                          # 0x9c001
	.word	641025                          # 0x9c801
	.word	643073                          # 0x9d001
	.word	645121                          # 0x9d801
	.word	647169                          # 0x9e001
	.word	649217                          # 0x9e801
	.word	651265                          # 0x9f001
	.word	653313                          # 0x9f801
.LCPI7_326:
	.word	622593                          # 0x98001
	.word	624641                          # 0x98801
	.word	626689                          # 0x99001
	.word	628737                          # 0x99801
	.word	630785                          # 0x9a001
	.word	632833                          # 0x9a801
	.word	634881                          # 0x9b001
	.word	636929                          # 0x9b801
.LCPI7_327:
	.word	606209                          # 0x94001
	.word	608257                          # 0x94801
	.word	610305                          # 0x95001
	.word	612353                          # 0x95801
	.word	614401                          # 0x96001
	.word	616449                          # 0x96801
	.word	618497                          # 0x97001
	.word	620545                          # 0x97801
.LCPI7_328:
	.word	589825                          # 0x90001
	.word	591873                          # 0x90801
	.word	593921                          # 0x91001
	.word	595969                          # 0x91801
	.word	598017                          # 0x92001
	.word	600065                          # 0x92801
	.word	602113                          # 0x93001
	.word	604161                          # 0x93801
.LCPI7_329:
	.word	704513                          # 0xac001
	.word	706561                          # 0xac801
	.word	708609                          # 0xad001
	.word	710657                          # 0xad801
	.word	712705                          # 0xae001
	.word	714753                          # 0xae801
	.word	716801                          # 0xaf001
	.word	718849                          # 0xaf801
.LCPI7_330:
	.word	688129                          # 0xa8001
	.word	690177                          # 0xa8801
	.word	692225                          # 0xa9001
	.word	694273                          # 0xa9801
	.word	696321                          # 0xaa001
	.word	698369                          # 0xaa801
	.word	700417                          # 0xab001
	.word	702465                          # 0xab801
.LCPI7_331:
	.word	671745                          # 0xa4001
	.word	673793                          # 0xa4801
	.word	675841                          # 0xa5001
	.word	677889                          # 0xa5801
	.word	679937                          # 0xa6001
	.word	681985                          # 0xa6801
	.word	684033                          # 0xa7001
	.word	686081                          # 0xa7801
.LCPI7_332:
	.word	655361                          # 0xa0001
	.word	657409                          # 0xa0801
	.word	659457                          # 0xa1001
	.word	661505                          # 0xa1801
	.word	663553                          # 0xa2001
	.word	665601                          # 0xa2801
	.word	667649                          # 0xa3001
	.word	669697                          # 0xa3801
.LCPI7_333:
	.word	770049                          # 0xbc001
	.word	772097                          # 0xbc801
	.word	774145                          # 0xbd001
	.word	776193                          # 0xbd801
	.word	778241                          # 0xbe001
	.word	780289                          # 0xbe801
	.word	782337                          # 0xbf001
	.word	784385                          # 0xbf801
.LCPI7_334:
	.word	753665                          # 0xb8001
	.word	755713                          # 0xb8801
	.word	757761                          # 0xb9001
	.word	759809                          # 0xb9801
	.word	761857                          # 0xba001
	.word	763905                          # 0xba801
	.word	765953                          # 0xbb001
	.word	768001                          # 0xbb801
.LCPI7_335:
	.word	737281                          # 0xb4001
	.word	739329                          # 0xb4801
	.word	741377                          # 0xb5001
	.word	743425                          # 0xb5801
	.word	745473                          # 0xb6001
	.word	747521                          # 0xb6801
	.word	749569                          # 0xb7001
	.word	751617                          # 0xb7801
.LCPI7_336:
	.word	720897                          # 0xb0001
	.word	722945                          # 0xb0801
	.word	724993                          # 0xb1001
	.word	727041                          # 0xb1801
	.word	729089                          # 0xb2001
	.word	731137                          # 0xb2801
	.word	733185                          # 0xb3001
	.word	735233                          # 0xb3801
.LCPI7_337:
	.word	835585                          # 0xcc001
	.word	837633                          # 0xcc801
	.word	839681                          # 0xcd001
	.word	841729                          # 0xcd801
	.word	843777                          # 0xce001
	.word	845825                          # 0xce801
	.word	847873                          # 0xcf001
	.word	849921                          # 0xcf801
.LCPI7_338:
	.word	819201                          # 0xc8001
	.word	821249                          # 0xc8801
	.word	823297                          # 0xc9001
	.word	825345                          # 0xc9801
	.word	827393                          # 0xca001
	.word	829441                          # 0xca801
	.word	831489                          # 0xcb001
	.word	833537                          # 0xcb801
.LCPI7_339:
	.word	802817                          # 0xc4001
	.word	804865                          # 0xc4801
	.word	806913                          # 0xc5001
	.word	808961                          # 0xc5801
	.word	811009                          # 0xc6001
	.word	813057                          # 0xc6801
	.word	815105                          # 0xc7001
	.word	817153                          # 0xc7801
.LCPI7_340:
	.word	786433                          # 0xc0001
	.word	788481                          # 0xc0801
	.word	790529                          # 0xc1001
	.word	792577                          # 0xc1801
	.word	794625                          # 0xc2001
	.word	796673                          # 0xc2801
	.word	798721                          # 0xc3001
	.word	800769                          # 0xc3801
.LCPI7_341:
	.word	901121                          # 0xdc001
	.word	903169                          # 0xdc801
	.word	905217                          # 0xdd001
	.word	907265                          # 0xdd801
	.word	909313                          # 0xde001
	.word	911361                          # 0xde801
	.word	913409                          # 0xdf001
	.word	915457                          # 0xdf801
.LCPI7_342:
	.word	884737                          # 0xd8001
	.word	886785                          # 0xd8801
	.word	888833                          # 0xd9001
	.word	890881                          # 0xd9801
	.word	892929                          # 0xda001
	.word	894977                          # 0xda801
	.word	897025                          # 0xdb001
	.word	899073                          # 0xdb801
.LCPI7_343:
	.word	868353                          # 0xd4001
	.word	870401                          # 0xd4801
	.word	872449                          # 0xd5001
	.word	874497                          # 0xd5801
	.word	876545                          # 0xd6001
	.word	878593                          # 0xd6801
	.word	880641                          # 0xd7001
	.word	882689                          # 0xd7801
.LCPI7_344:
	.word	851969                          # 0xd0001
	.word	854017                          # 0xd0801
	.word	856065                          # 0xd1001
	.word	858113                          # 0xd1801
	.word	860161                          # 0xd2001
	.word	862209                          # 0xd2801
	.word	864257                          # 0xd3001
	.word	866305                          # 0xd3801
.LCPI7_345:
	.word	966657                          # 0xec001
	.word	968705                          # 0xec801
	.word	970753                          # 0xed001
	.word	972801                          # 0xed801
	.word	974849                          # 0xee001
	.word	976897                          # 0xee801
	.word	978945                          # 0xef001
	.word	980993                          # 0xef801
.LCPI7_346:
	.word	950273                          # 0xe8001
	.word	952321                          # 0xe8801
	.word	954369                          # 0xe9001
	.word	956417                          # 0xe9801
	.word	958465                          # 0xea001
	.word	960513                          # 0xea801
	.word	962561                          # 0xeb001
	.word	964609                          # 0xeb801
.LCPI7_347:
	.word	933889                          # 0xe4001
	.word	935937                          # 0xe4801
	.word	937985                          # 0xe5001
	.word	940033                          # 0xe5801
	.word	942081                          # 0xe6001
	.word	944129                          # 0xe6801
	.word	946177                          # 0xe7001
	.word	948225                          # 0xe7801
.LCPI7_348:
	.word	917505                          # 0xe0001
	.word	919553                          # 0xe0801
	.word	921601                          # 0xe1001
	.word	923649                          # 0xe1801
	.word	925697                          # 0xe2001
	.word	927745                          # 0xe2801
	.word	929793                          # 0xe3001
	.word	931841                          # 0xe3801
.LCPI7_349:
	.word	1032193                         # 0xfc001
	.word	1034241                         # 0xfc801
	.word	1036289                         # 0xfd001
	.word	1038337                         # 0xfd801
	.word	1040385                         # 0xfe001
	.word	1042433                         # 0xfe801
	.word	1044481                         # 0xff001
	.word	1046529                         # 0xff801
.LCPI7_350:
	.word	1015809                         # 0xf8001
	.word	1017857                         # 0xf8801
	.word	1019905                         # 0xf9001
	.word	1021953                         # 0xf9801
	.word	1024001                         # 0xfa001
	.word	1026049                         # 0xfa801
	.word	1028097                         # 0xfb001
	.word	1030145                         # 0xfb801
.LCPI7_351:
	.word	999425                          # 0xf4001
	.word	1001473                         # 0xf4801
	.word	1003521                         # 0xf5001
	.word	1005569                         # 0xf5801
	.word	1007617                         # 0xf6001
	.word	1009665                         # 0xf6801
	.word	1011713                         # 0xf7001
	.word	1013761                         # 0xf7801
.LCPI7_352:
	.word	983041                          # 0xf0001
	.word	985089                          # 0xf0801
	.word	987137                          # 0xf1001
	.word	989185                          # 0xf1801
	.word	991233                          # 0xf2001
	.word	993281                          # 0xf2801
	.word	995329                          # 0xf3001
	.word	997377                          # 0xf3801
.LCPI7_353:
	.word	1081345                         # 0x108001
	.word	1085441                         # 0x109001
	.word	1089537                         # 0x10a001
	.word	1093633                         # 0x10b001
	.word	1097729                         # 0x10c001
	.word	1101825                         # 0x10d001
	.word	1105921                         # 0x10e001
	.word	1110017                         # 0x10f001
.LCPI7_354:
	.word	1048577                         # 0x100001
	.word	1052673                         # 0x101001
	.word	1056769                         # 0x102001
	.word	1060865                         # 0x103001
	.word	1064961                         # 0x104001
	.word	1069057                         # 0x105001
	.word	1073153                         # 0x106001
	.word	1077249                         # 0x107001
.LCPI7_355:
	.word	1146881                         # 0x118001
	.word	1150977                         # 0x119001
	.word	1155073                         # 0x11a001
	.word	1159169                         # 0x11b001
	.word	1163265                         # 0x11c001
	.word	1167361                         # 0x11d001
	.word	1171457                         # 0x11e001
	.word	1175553                         # 0x11f001
.LCPI7_356:
	.word	1114113                         # 0x110001
	.word	1118209                         # 0x111001
	.word	1122305                         # 0x112001
	.word	1126401                         # 0x113001
	.word	1130497                         # 0x114001
	.word	1134593                         # 0x115001
	.word	1138689                         # 0x116001
	.word	1142785                         # 0x117001
.LCPI7_357:
	.word	1277953                         # 0x138001
	.word	1282049                         # 0x139001
	.word	1286145                         # 0x13a001
	.word	1290241                         # 0x13b001
	.word	1294337                         # 0x13c001
	.word	1298433                         # 0x13d001
	.word	1302529                         # 0x13e001
	.word	1306625                         # 0x13f001
.LCPI7_358:
	.word	1245185                         # 0x130001
	.word	1249281                         # 0x131001
	.word	1253377                         # 0x132001
	.word	1257473                         # 0x133001
	.word	1261569                         # 0x134001
	.word	1265665                         # 0x135001
	.word	1269761                         # 0x136001
	.word	1273857                         # 0x137001
.LCPI7_359:
	.word	1212417                         # 0x128001
	.word	1216513                         # 0x129001
	.word	1220609                         # 0x12a001
	.word	1224705                         # 0x12b001
	.word	1228801                         # 0x12c001
	.word	1232897                         # 0x12d001
	.word	1236993                         # 0x12e001
	.word	1241089                         # 0x12f001
.LCPI7_360:
	.word	1179649                         # 0x120001
	.word	1183745                         # 0x121001
	.word	1187841                         # 0x122001
	.word	1191937                         # 0x123001
	.word	1196033                         # 0x124001
	.word	1200129                         # 0x125001
	.word	1204225                         # 0x126001
	.word	1208321                         # 0x127001
.LCPI7_361:
	.word	1409025                         # 0x158001
	.word	1413121                         # 0x159001
	.word	1417217                         # 0x15a001
	.word	1421313                         # 0x15b001
	.word	1425409                         # 0x15c001
	.word	1429505                         # 0x15d001
	.word	1433601                         # 0x15e001
	.word	1437697                         # 0x15f001
.LCPI7_362:
	.word	1376257                         # 0x150001
	.word	1380353                         # 0x151001
	.word	1384449                         # 0x152001
	.word	1388545                         # 0x153001
	.word	1392641                         # 0x154001
	.word	1396737                         # 0x155001
	.word	1400833                         # 0x156001
	.word	1404929                         # 0x157001
.LCPI7_363:
	.word	1343489                         # 0x148001
	.word	1347585                         # 0x149001
	.word	1351681                         # 0x14a001
	.word	1355777                         # 0x14b001
	.word	1359873                         # 0x14c001
	.word	1363969                         # 0x14d001
	.word	1368065                         # 0x14e001
	.word	1372161                         # 0x14f001
.LCPI7_364:
	.word	1310721                         # 0x140001
	.word	1314817                         # 0x141001
	.word	1318913                         # 0x142001
	.word	1323009                         # 0x143001
	.word	1327105                         # 0x144001
	.word	1331201                         # 0x145001
	.word	1335297                         # 0x146001
	.word	1339393                         # 0x147001
.LCPI7_365:
	.word	1540097                         # 0x178001
	.word	1544193                         # 0x179001
	.word	1548289                         # 0x17a001
	.word	1552385                         # 0x17b001
	.word	1556481                         # 0x17c001
	.word	1560577                         # 0x17d001
	.word	1564673                         # 0x17e001
	.word	1568769                         # 0x17f001
.LCPI7_366:
	.word	1507329                         # 0x170001
	.word	1511425                         # 0x171001
	.word	1515521                         # 0x172001
	.word	1519617                         # 0x173001
	.word	1523713                         # 0x174001
	.word	1527809                         # 0x175001
	.word	1531905                         # 0x176001
	.word	1536001                         # 0x177001
.LCPI7_367:
	.word	1474561                         # 0x168001
	.word	1478657                         # 0x169001
	.word	1482753                         # 0x16a001
	.word	1486849                         # 0x16b001
	.word	1490945                         # 0x16c001
	.word	1495041                         # 0x16d001
	.word	1499137                         # 0x16e001
	.word	1503233                         # 0x16f001
.LCPI7_368:
	.word	1441793                         # 0x160001
	.word	1445889                         # 0x161001
	.word	1449985                         # 0x162001
	.word	1454081                         # 0x163001
	.word	1458177                         # 0x164001
	.word	1462273                         # 0x165001
	.word	1466369                         # 0x166001
	.word	1470465                         # 0x167001
.LCPI7_369:
	.word	1671169                         # 0x198001
	.word	1675265                         # 0x199001
	.word	1679361                         # 0x19a001
	.word	1683457                         # 0x19b001
	.word	1687553                         # 0x19c001
	.word	1691649                         # 0x19d001
	.word	1695745                         # 0x19e001
	.word	1699841                         # 0x19f001
.LCPI7_370:
	.word	1638401                         # 0x190001
	.word	1642497                         # 0x191001
	.word	1646593                         # 0x192001
	.word	1650689                         # 0x193001
	.word	1654785                         # 0x194001
	.word	1658881                         # 0x195001
	.word	1662977                         # 0x196001
	.word	1667073                         # 0x197001
.LCPI7_371:
	.word	1605633                         # 0x188001
	.word	1609729                         # 0x189001
	.word	1613825                         # 0x18a001
	.word	1617921                         # 0x18b001
	.word	1622017                         # 0x18c001
	.word	1626113                         # 0x18d001
	.word	1630209                         # 0x18e001
	.word	1634305                         # 0x18f001
.LCPI7_372:
	.word	1572865                         # 0x180001
	.word	1576961                         # 0x181001
	.word	1581057                         # 0x182001
	.word	1585153                         # 0x183001
	.word	1589249                         # 0x184001
	.word	1593345                         # 0x185001
	.word	1597441                         # 0x186001
	.word	1601537                         # 0x187001
.LCPI7_373:
	.word	1802241                         # 0x1b8001
	.word	1806337                         # 0x1b9001
	.word	1810433                         # 0x1ba001
	.word	1814529                         # 0x1bb001
	.word	1818625                         # 0x1bc001
	.word	1822721                         # 0x1bd001
	.word	1826817                         # 0x1be001
	.word	1830913                         # 0x1bf001
.LCPI7_374:
	.word	1769473                         # 0x1b0001
	.word	1773569                         # 0x1b1001
	.word	1777665                         # 0x1b2001
	.word	1781761                         # 0x1b3001
	.word	1785857                         # 0x1b4001
	.word	1789953                         # 0x1b5001
	.word	1794049                         # 0x1b6001
	.word	1798145                         # 0x1b7001
.LCPI7_375:
	.word	1736705                         # 0x1a8001
	.word	1740801                         # 0x1a9001
	.word	1744897                         # 0x1aa001
	.word	1748993                         # 0x1ab001
	.word	1753089                         # 0x1ac001
	.word	1757185                         # 0x1ad001
	.word	1761281                         # 0x1ae001
	.word	1765377                         # 0x1af001
.LCPI7_376:
	.word	1703937                         # 0x1a0001
	.word	1708033                         # 0x1a1001
	.word	1712129                         # 0x1a2001
	.word	1716225                         # 0x1a3001
	.word	1720321                         # 0x1a4001
	.word	1724417                         # 0x1a5001
	.word	1728513                         # 0x1a6001
	.word	1732609                         # 0x1a7001
.LCPI7_377:
	.word	1933313                         # 0x1d8001
	.word	1937409                         # 0x1d9001
	.word	1941505                         # 0x1da001
	.word	1945601                         # 0x1db001
	.word	1949697                         # 0x1dc001
	.word	1953793                         # 0x1dd001
	.word	1957889                         # 0x1de001
	.word	1961985                         # 0x1df001
.LCPI7_378:
	.word	1900545                         # 0x1d0001
	.word	1904641                         # 0x1d1001
	.word	1908737                         # 0x1d2001
	.word	1912833                         # 0x1d3001
	.word	1916929                         # 0x1d4001
	.word	1921025                         # 0x1d5001
	.word	1925121                         # 0x1d6001
	.word	1929217                         # 0x1d7001
.LCPI7_379:
	.word	1867777                         # 0x1c8001
	.word	1871873                         # 0x1c9001
	.word	1875969                         # 0x1ca001
	.word	1880065                         # 0x1cb001
	.word	1884161                         # 0x1cc001
	.word	1888257                         # 0x1cd001
	.word	1892353                         # 0x1ce001
	.word	1896449                         # 0x1cf001
.LCPI7_380:
	.word	1835009                         # 0x1c0001
	.word	1839105                         # 0x1c1001
	.word	1843201                         # 0x1c2001
	.word	1847297                         # 0x1c3001
	.word	1851393                         # 0x1c4001
	.word	1855489                         # 0x1c5001
	.word	1859585                         # 0x1c6001
	.word	1863681                         # 0x1c7001
.LCPI7_381:
	.word	2064385                         # 0x1f8001
	.word	2068481                         # 0x1f9001
	.word	2072577                         # 0x1fa001
	.word	2076673                         # 0x1fb001
	.word	2080769                         # 0x1fc001
	.word	2084865                         # 0x1fd001
	.word	2088961                         # 0x1fe001
	.word	2093057                         # 0x1ff001
.LCPI7_382:
	.word	2031617                         # 0x1f0001
	.word	2035713                         # 0x1f1001
	.word	2039809                         # 0x1f2001
	.word	2043905                         # 0x1f3001
	.word	2048001                         # 0x1f4001
	.word	2052097                         # 0x1f5001
	.word	2056193                         # 0x1f6001
	.word	2060289                         # 0x1f7001
.LCPI7_383:
	.word	1998849                         # 0x1e8001
	.word	2002945                         # 0x1e9001
	.word	2007041                         # 0x1ea001
	.word	2011137                         # 0x1eb001
	.word	2015233                         # 0x1ec001
	.word	2019329                         # 0x1ed001
	.word	2023425                         # 0x1ee001
	.word	2027521                         # 0x1ef001
.LCPI7_384:
	.word	1966081                         # 0x1e0001
	.word	1970177                         # 0x1e1001
	.word	1974273                         # 0x1e2001
	.word	1978369                         # 0x1e3001
	.word	1982465                         # 0x1e4001
	.word	1986561                         # 0x1e5001
	.word	1990657                         # 0x1e6001
	.word	1994753                         # 0x1e7001
.LCPI7_385:
	.word	2162689                         # 0x210001
	.word	2170881                         # 0x212001
	.word	2179073                         # 0x214001
	.word	2187265                         # 0x216001
	.word	2195457                         # 0x218001
	.word	2203649                         # 0x21a001
	.word	2211841                         # 0x21c001
	.word	2220033                         # 0x21e001
.LCPI7_386:
	.word	2097153                         # 0x200001
	.word	2105345                         # 0x202001
	.word	2113537                         # 0x204001
	.word	2121729                         # 0x206001
	.word	2129921                         # 0x208001
	.word	2138113                         # 0x20a001
	.word	2146305                         # 0x20c001
	.word	2154497                         # 0x20e001
.LCPI7_387:
	.word	2293761                         # 0x230001
	.word	2301953                         # 0x232001
	.word	2310145                         # 0x234001
	.word	2318337                         # 0x236001
	.word	2326529                         # 0x238001
	.word	2334721                         # 0x23a001
	.word	2342913                         # 0x23c001
	.word	2351105                         # 0x23e001
.LCPI7_388:
	.word	2228225                         # 0x220001
	.word	2236417                         # 0x222001
	.word	2244609                         # 0x224001
	.word	2252801                         # 0x226001
	.word	2260993                         # 0x228001
	.word	2269185                         # 0x22a001
	.word	2277377                         # 0x22c001
	.word	2285569                         # 0x22e001
.LCPI7_389:
	.word	2555905                         # 0x270001
	.word	2564097                         # 0x272001
	.word	2572289                         # 0x274001
	.word	2580481                         # 0x276001
	.word	2588673                         # 0x278001
	.word	2596865                         # 0x27a001
	.word	2605057                         # 0x27c001
	.word	2613249                         # 0x27e001
.LCPI7_390:
	.word	2490369                         # 0x260001
	.word	2498561                         # 0x262001
	.word	2506753                         # 0x264001
	.word	2514945                         # 0x266001
	.word	2523137                         # 0x268001
	.word	2531329                         # 0x26a001
	.word	2539521                         # 0x26c001
	.word	2547713                         # 0x26e001
.LCPI7_391:
	.word	2424833                         # 0x250001
	.word	2433025                         # 0x252001
	.word	2441217                         # 0x254001
	.word	2449409                         # 0x256001
	.word	2457601                         # 0x258001
	.word	2465793                         # 0x25a001
	.word	2473985                         # 0x25c001
	.word	2482177                         # 0x25e001
.LCPI7_392:
	.word	2359297                         # 0x240001
	.word	2367489                         # 0x242001
	.word	2375681                         # 0x244001
	.word	2383873                         # 0x246001
	.word	2392065                         # 0x248001
	.word	2400257                         # 0x24a001
	.word	2408449                         # 0x24c001
	.word	2416641                         # 0x24e001
.LCPI7_393:
	.word	2818049                         # 0x2b0001
	.word	2826241                         # 0x2b2001
	.word	2834433                         # 0x2b4001
	.word	2842625                         # 0x2b6001
	.word	2850817                         # 0x2b8001
	.word	2859009                         # 0x2ba001
	.word	2867201                         # 0x2bc001
	.word	2875393                         # 0x2be001
.LCPI7_394:
	.word	2752513                         # 0x2a0001
	.word	2760705                         # 0x2a2001
	.word	2768897                         # 0x2a4001
	.word	2777089                         # 0x2a6001
	.word	2785281                         # 0x2a8001
	.word	2793473                         # 0x2aa001
	.word	2801665                         # 0x2ac001
	.word	2809857                         # 0x2ae001
.LCPI7_395:
	.word	2686977                         # 0x290001
	.word	2695169                         # 0x292001
	.word	2703361                         # 0x294001
	.word	2711553                         # 0x296001
	.word	2719745                         # 0x298001
	.word	2727937                         # 0x29a001
	.word	2736129                         # 0x29c001
	.word	2744321                         # 0x29e001
.LCPI7_396:
	.word	2621441                         # 0x280001
	.word	2629633                         # 0x282001
	.word	2637825                         # 0x284001
	.word	2646017                         # 0x286001
	.word	2654209                         # 0x288001
	.word	2662401                         # 0x28a001
	.word	2670593                         # 0x28c001
	.word	2678785                         # 0x28e001
.LCPI7_397:
	.word	3080193                         # 0x2f0001
	.word	3088385                         # 0x2f2001
	.word	3096577                         # 0x2f4001
	.word	3104769                         # 0x2f6001
	.word	3112961                         # 0x2f8001
	.word	3121153                         # 0x2fa001
	.word	3129345                         # 0x2fc001
	.word	3137537                         # 0x2fe001
.LCPI7_398:
	.word	3014657                         # 0x2e0001
	.word	3022849                         # 0x2e2001
	.word	3031041                         # 0x2e4001
	.word	3039233                         # 0x2e6001
	.word	3047425                         # 0x2e8001
	.word	3055617                         # 0x2ea001
	.word	3063809                         # 0x2ec001
	.word	3072001                         # 0x2ee001
.LCPI7_399:
	.word	2949121                         # 0x2d0001
	.word	2957313                         # 0x2d2001
	.word	2965505                         # 0x2d4001
	.word	2973697                         # 0x2d6001
	.word	2981889                         # 0x2d8001
	.word	2990081                         # 0x2da001
	.word	2998273                         # 0x2dc001
	.word	3006465                         # 0x2de001
.LCPI7_400:
	.word	2883585                         # 0x2c0001
	.word	2891777                         # 0x2c2001
	.word	2899969                         # 0x2c4001
	.word	2908161                         # 0x2c6001
	.word	2916353                         # 0x2c8001
	.word	2924545                         # 0x2ca001
	.word	2932737                         # 0x2cc001
	.word	2940929                         # 0x2ce001
.LCPI7_401:
	.word	3342337                         # 0x330001
	.word	3350529                         # 0x332001
	.word	3358721                         # 0x334001
	.word	3366913                         # 0x336001
	.word	3375105                         # 0x338001
	.word	3383297                         # 0x33a001
	.word	3391489                         # 0x33c001
	.word	3399681                         # 0x33e001
.LCPI7_402:
	.word	3276801                         # 0x320001
	.word	3284993                         # 0x322001
	.word	3293185                         # 0x324001
	.word	3301377                         # 0x326001
	.word	3309569                         # 0x328001
	.word	3317761                         # 0x32a001
	.word	3325953                         # 0x32c001
	.word	3334145                         # 0x32e001
.LCPI7_403:
	.word	3211265                         # 0x310001
	.word	3219457                         # 0x312001
	.word	3227649                         # 0x314001
	.word	3235841                         # 0x316001
	.word	3244033                         # 0x318001
	.word	3252225                         # 0x31a001
	.word	3260417                         # 0x31c001
	.word	3268609                         # 0x31e001
.LCPI7_404:
	.word	3145729                         # 0x300001
	.word	3153921                         # 0x302001
	.word	3162113                         # 0x304001
	.word	3170305                         # 0x306001
	.word	3178497                         # 0x308001
	.word	3186689                         # 0x30a001
	.word	3194881                         # 0x30c001
	.word	3203073                         # 0x30e001
.LCPI7_405:
	.word	3604481                         # 0x370001
	.word	3612673                         # 0x372001
	.word	3620865                         # 0x374001
	.word	3629057                         # 0x376001
	.word	3637249                         # 0x378001
	.word	3645441                         # 0x37a001
	.word	3653633                         # 0x37c001
	.word	3661825                         # 0x37e001
.LCPI7_406:
	.word	3538945                         # 0x360001
	.word	3547137                         # 0x362001
	.word	3555329                         # 0x364001
	.word	3563521                         # 0x366001
	.word	3571713                         # 0x368001
	.word	3579905                         # 0x36a001
	.word	3588097                         # 0x36c001
	.word	3596289                         # 0x36e001
.LCPI7_407:
	.word	3473409                         # 0x350001
	.word	3481601                         # 0x352001
	.word	3489793                         # 0x354001
	.word	3497985                         # 0x356001
	.word	3506177                         # 0x358001
	.word	3514369                         # 0x35a001
	.word	3522561                         # 0x35c001
	.word	3530753                         # 0x35e001
.LCPI7_408:
	.word	3407873                         # 0x340001
	.word	3416065                         # 0x342001
	.word	3424257                         # 0x344001
	.word	3432449                         # 0x346001
	.word	3440641                         # 0x348001
	.word	3448833                         # 0x34a001
	.word	3457025                         # 0x34c001
	.word	3465217                         # 0x34e001
.LCPI7_409:
	.word	3866625                         # 0x3b0001
	.word	3874817                         # 0x3b2001
	.word	3883009                         # 0x3b4001
	.word	3891201                         # 0x3b6001
	.word	3899393                         # 0x3b8001
	.word	3907585                         # 0x3ba001
	.word	3915777                         # 0x3bc001
	.word	3923969                         # 0x3be001
.LCPI7_410:
	.word	3801089                         # 0x3a0001
	.word	3809281                         # 0x3a2001
	.word	3817473                         # 0x3a4001
	.word	3825665                         # 0x3a6001
	.word	3833857                         # 0x3a8001
	.word	3842049                         # 0x3aa001
	.word	3850241                         # 0x3ac001
	.word	3858433                         # 0x3ae001
.LCPI7_411:
	.word	3735553                         # 0x390001
	.word	3743745                         # 0x392001
	.word	3751937                         # 0x394001
	.word	3760129                         # 0x396001
	.word	3768321                         # 0x398001
	.word	3776513                         # 0x39a001
	.word	3784705                         # 0x39c001
	.word	3792897                         # 0x39e001
.LCPI7_412:
	.word	3670017                         # 0x380001
	.word	3678209                         # 0x382001
	.word	3686401                         # 0x384001
	.word	3694593                         # 0x386001
	.word	3702785                         # 0x388001
	.word	3710977                         # 0x38a001
	.word	3719169                         # 0x38c001
	.word	3727361                         # 0x38e001
.LCPI7_413:
	.word	4128769                         # 0x3f0001
	.word	4136961                         # 0x3f2001
	.word	4145153                         # 0x3f4001
	.word	4153345                         # 0x3f6001
	.word	4161537                         # 0x3f8001
	.word	4169729                         # 0x3fa001
	.word	4177921                         # 0x3fc001
	.word	4186113                         # 0x3fe001
.LCPI7_414:
	.word	4063233                         # 0x3e0001
	.word	4071425                         # 0x3e2001
	.word	4079617                         # 0x3e4001
	.word	4087809                         # 0x3e6001
	.word	4096001                         # 0x3e8001
	.word	4104193                         # 0x3ea001
	.word	4112385                         # 0x3ec001
	.word	4120577                         # 0x3ee001
.LCPI7_415:
	.word	3997697                         # 0x3d0001
	.word	4005889                         # 0x3d2001
	.word	4014081                         # 0x3d4001
	.word	4022273                         # 0x3d6001
	.word	4030465                         # 0x3d8001
	.word	4038657                         # 0x3da001
	.word	4046849                         # 0x3dc001
	.word	4055041                         # 0x3de001
.LCPI7_416:
	.word	3932161                         # 0x3c0001
	.word	3940353                         # 0x3c2001
	.word	3948545                         # 0x3c4001
	.word	3956737                         # 0x3c6001
	.word	3964929                         # 0x3c8001
	.word	3973121                         # 0x3ca001
	.word	3981313                         # 0x3cc001
	.word	3989505                         # 0x3ce001
.LCPI7_417:
	.word	4325377                         # 0x420001
	.word	4341761                         # 0x424001
	.word	4358145                         # 0x428001
	.word	4374529                         # 0x42c001
	.word	4390913                         # 0x430001
	.word	4407297                         # 0x434001
	.word	4423681                         # 0x438001
	.word	4440065                         # 0x43c001
.LCPI7_418:
	.word	4194305                         # 0x400001
	.word	4210689                         # 0x404001
	.word	4227073                         # 0x408001
	.word	4243457                         # 0x40c001
	.word	4259841                         # 0x410001
	.word	4276225                         # 0x414001
	.word	4292609                         # 0x418001
	.word	4308993                         # 0x41c001
.LCPI7_419:
	.word	4587521                         # 0x460001
	.word	4603905                         # 0x464001
	.word	4620289                         # 0x468001
	.word	4636673                         # 0x46c001
	.word	4653057                         # 0x470001
	.word	4669441                         # 0x474001
	.word	4685825                         # 0x478001
	.word	4702209                         # 0x47c001
.LCPI7_420:
	.word	4456449                         # 0x440001
	.word	4472833                         # 0x444001
	.word	4489217                         # 0x448001
	.word	4505601                         # 0x44c001
	.word	4521985                         # 0x450001
	.word	4538369                         # 0x454001
	.word	4554753                         # 0x458001
	.word	4571137                         # 0x45c001
.LCPI7_421:
	.word	5111809                         # 0x4e0001
	.word	5128193                         # 0x4e4001
	.word	5144577                         # 0x4e8001
	.word	5160961                         # 0x4ec001
	.word	5177345                         # 0x4f0001
	.word	5193729                         # 0x4f4001
	.word	5210113                         # 0x4f8001
	.word	5226497                         # 0x4fc001
.LCPI7_422:
	.word	4980737                         # 0x4c0001
	.word	4997121                         # 0x4c4001
	.word	5013505                         # 0x4c8001
	.word	5029889                         # 0x4cc001
	.word	5046273                         # 0x4d0001
	.word	5062657                         # 0x4d4001
	.word	5079041                         # 0x4d8001
	.word	5095425                         # 0x4dc001
.LCPI7_423:
	.word	4849665                         # 0x4a0001
	.word	4866049                         # 0x4a4001
	.word	4882433                         # 0x4a8001
	.word	4898817                         # 0x4ac001
	.word	4915201                         # 0x4b0001
	.word	4931585                         # 0x4b4001
	.word	4947969                         # 0x4b8001
	.word	4964353                         # 0x4bc001
.LCPI7_424:
	.word	4718593                         # 0x480001
	.word	4734977                         # 0x484001
	.word	4751361                         # 0x488001
	.word	4767745                         # 0x48c001
	.word	4784129                         # 0x490001
	.word	4800513                         # 0x494001
	.word	4816897                         # 0x498001
	.word	4833281                         # 0x49c001
.LCPI7_425:
	.word	5636097                         # 0x560001
	.word	5652481                         # 0x564001
	.word	5668865                         # 0x568001
	.word	5685249                         # 0x56c001
	.word	5701633                         # 0x570001
	.word	5718017                         # 0x574001
	.word	5734401                         # 0x578001
	.word	5750785                         # 0x57c001
.LCPI7_426:
	.word	5505025                         # 0x540001
	.word	5521409                         # 0x544001
	.word	5537793                         # 0x548001
	.word	5554177                         # 0x54c001
	.word	5570561                         # 0x550001
	.word	5586945                         # 0x554001
	.word	5603329                         # 0x558001
	.word	5619713                         # 0x55c001
.LCPI7_427:
	.word	5373953                         # 0x520001
	.word	5390337                         # 0x524001
	.word	5406721                         # 0x528001
	.word	5423105                         # 0x52c001
	.word	5439489                         # 0x530001
	.word	5455873                         # 0x534001
	.word	5472257                         # 0x538001
	.word	5488641                         # 0x53c001
.LCPI7_428:
	.word	5242881                         # 0x500001
	.word	5259265                         # 0x504001
	.word	5275649                         # 0x508001
	.word	5292033                         # 0x50c001
	.word	5308417                         # 0x510001
	.word	5324801                         # 0x514001
	.word	5341185                         # 0x518001
	.word	5357569                         # 0x51c001
.LCPI7_429:
	.word	6160385                         # 0x5e0001
	.word	6176769                         # 0x5e4001
	.word	6193153                         # 0x5e8001
	.word	6209537                         # 0x5ec001
	.word	6225921                         # 0x5f0001
	.word	6242305                         # 0x5f4001
	.word	6258689                         # 0x5f8001
	.word	6275073                         # 0x5fc001
.LCPI7_430:
	.word	6029313                         # 0x5c0001
	.word	6045697                         # 0x5c4001
	.word	6062081                         # 0x5c8001
	.word	6078465                         # 0x5cc001
	.word	6094849                         # 0x5d0001
	.word	6111233                         # 0x5d4001
	.word	6127617                         # 0x5d8001
	.word	6144001                         # 0x5dc001
.LCPI7_431:
	.word	5898241                         # 0x5a0001
	.word	5914625                         # 0x5a4001
	.word	5931009                         # 0x5a8001
	.word	5947393                         # 0x5ac001
	.word	5963777                         # 0x5b0001
	.word	5980161                         # 0x5b4001
	.word	5996545                         # 0x5b8001
	.word	6012929                         # 0x5bc001
.LCPI7_432:
	.word	5767169                         # 0x580001
	.word	5783553                         # 0x584001
	.word	5799937                         # 0x588001
	.word	5816321                         # 0x58c001
	.word	5832705                         # 0x590001
	.word	5849089                         # 0x594001
	.word	5865473                         # 0x598001
	.word	5881857                         # 0x59c001
.LCPI7_433:
	.word	6684673                         # 0x660001
	.word	6701057                         # 0x664001
	.word	6717441                         # 0x668001
	.word	6733825                         # 0x66c001
	.word	6750209                         # 0x670001
	.word	6766593                         # 0x674001
	.word	6782977                         # 0x678001
	.word	6799361                         # 0x67c001
.LCPI7_434:
	.word	6553601                         # 0x640001
	.word	6569985                         # 0x644001
	.word	6586369                         # 0x648001
	.word	6602753                         # 0x64c001
	.word	6619137                         # 0x650001
	.word	6635521                         # 0x654001
	.word	6651905                         # 0x658001
	.word	6668289                         # 0x65c001
.LCPI7_435:
	.word	6422529                         # 0x620001
	.word	6438913                         # 0x624001
	.word	6455297                         # 0x628001
	.word	6471681                         # 0x62c001
	.word	6488065                         # 0x630001
	.word	6504449                         # 0x634001
	.word	6520833                         # 0x638001
	.word	6537217                         # 0x63c001
.LCPI7_436:
	.word	6291457                         # 0x600001
	.word	6307841                         # 0x604001
	.word	6324225                         # 0x608001
	.word	6340609                         # 0x60c001
	.word	6356993                         # 0x610001
	.word	6373377                         # 0x614001
	.word	6389761                         # 0x618001
	.word	6406145                         # 0x61c001
.LCPI7_437:
	.word	7208961                         # 0x6e0001
	.word	7225345                         # 0x6e4001
	.word	7241729                         # 0x6e8001
	.word	7258113                         # 0x6ec001
	.word	7274497                         # 0x6f0001
	.word	7290881                         # 0x6f4001
	.word	7307265                         # 0x6f8001
	.word	7323649                         # 0x6fc001
.LCPI7_438:
	.word	7077889                         # 0x6c0001
	.word	7094273                         # 0x6c4001
	.word	7110657                         # 0x6c8001
	.word	7127041                         # 0x6cc001
	.word	7143425                         # 0x6d0001
	.word	7159809                         # 0x6d4001
	.word	7176193                         # 0x6d8001
	.word	7192577                         # 0x6dc001
.LCPI7_439:
	.word	6946817                         # 0x6a0001
	.word	6963201                         # 0x6a4001
	.word	6979585                         # 0x6a8001
	.word	6995969                         # 0x6ac001
	.word	7012353                         # 0x6b0001
	.word	7028737                         # 0x6b4001
	.word	7045121                         # 0x6b8001
	.word	7061505                         # 0x6bc001
.LCPI7_440:
	.word	6815745                         # 0x680001
	.word	6832129                         # 0x684001
	.word	6848513                         # 0x688001
	.word	6864897                         # 0x68c001
	.word	6881281                         # 0x690001
	.word	6897665                         # 0x694001
	.word	6914049                         # 0x698001
	.word	6930433                         # 0x69c001
.LCPI7_441:
	.word	7733249                         # 0x760001
	.word	7749633                         # 0x764001
	.word	7766017                         # 0x768001
	.word	7782401                         # 0x76c001
	.word	7798785                         # 0x770001
	.word	7815169                         # 0x774001
	.word	7831553                         # 0x778001
	.word	7847937                         # 0x77c001
.LCPI7_442:
	.word	7602177                         # 0x740001
	.word	7618561                         # 0x744001
	.word	7634945                         # 0x748001
	.word	7651329                         # 0x74c001
	.word	7667713                         # 0x750001
	.word	7684097                         # 0x754001
	.word	7700481                         # 0x758001
	.word	7716865                         # 0x75c001
.LCPI7_443:
	.word	7471105                         # 0x720001
	.word	7487489                         # 0x724001
	.word	7503873                         # 0x728001
	.word	7520257                         # 0x72c001
	.word	7536641                         # 0x730001
	.word	7553025                         # 0x734001
	.word	7569409                         # 0x738001
	.word	7585793                         # 0x73c001
.LCPI7_444:
	.word	7340033                         # 0x700001
	.word	7356417                         # 0x704001
	.word	7372801                         # 0x708001
	.word	7389185                         # 0x70c001
	.word	7405569                         # 0x710001
	.word	7421953                         # 0x714001
	.word	7438337                         # 0x718001
	.word	7454721                         # 0x71c001
.LCPI7_445:
	.word	8257537                         # 0x7e0001
	.word	8273921                         # 0x7e4001
	.word	8290305                         # 0x7e8001
	.word	8306689                         # 0x7ec001
	.word	8323073                         # 0x7f0001
	.word	8339457                         # 0x7f4001
	.word	8355841                         # 0x7f8001
	.word	8372225                         # 0x7fc001
.LCPI7_446:
	.word	8126465                         # 0x7c0001
	.word	8142849                         # 0x7c4001
	.word	8159233                         # 0x7c8001
	.word	8175617                         # 0x7cc001
	.word	8192001                         # 0x7d0001
	.word	8208385                         # 0x7d4001
	.word	8224769                         # 0x7d8001
	.word	8241153                         # 0x7dc001
.LCPI7_447:
	.word	7995393                         # 0x7a0001
	.word	8011777                         # 0x7a4001
	.word	8028161                         # 0x7a8001
	.word	8044545                         # 0x7ac001
	.word	8060929                         # 0x7b0001
	.word	8077313                         # 0x7b4001
	.word	8093697                         # 0x7b8001
	.word	8110081                         # 0x7bc001
.LCPI7_448:
	.word	7864321                         # 0x780001
	.word	7880705                         # 0x784001
	.word	7897089                         # 0x788001
	.word	7913473                         # 0x78c001
	.word	7929857                         # 0x790001
	.word	7946241                         # 0x794001
	.word	7962625                         # 0x798001
	.word	7979009                         # 0x79c001
.LCPI7_449:
	.word	8650753                         # 0x840001
	.word	8683521                         # 0x848001
	.word	8716289                         # 0x850001
	.word	8749057                         # 0x858001
	.word	8781825                         # 0x860001
	.word	8814593                         # 0x868001
	.word	8847361                         # 0x870001
	.word	8880129                         # 0x878001
.LCPI7_450:
	.word	8388609                         # 0x800001
	.word	8421377                         # 0x808001
	.word	8454145                         # 0x810001
	.word	8486913                         # 0x818001
	.word	8519681                         # 0x820001
	.word	8552449                         # 0x828001
	.word	8585217                         # 0x830001
	.word	8617985                         # 0x838001
.LCPI7_451:
	.word	9175041                         # 0x8c0001
	.word	9207809                         # 0x8c8001
	.word	9240577                         # 0x8d0001
	.word	9273345                         # 0x8d8001
	.word	9306113                         # 0x8e0001
	.word	9338881                         # 0x8e8001
	.word	9371649                         # 0x8f0001
	.word	9404417                         # 0x8f8001
.LCPI7_452:
	.word	8912897                         # 0x880001
	.word	8945665                         # 0x888001
	.word	8978433                         # 0x890001
	.word	9011201                         # 0x898001
	.word	9043969                         # 0x8a0001
	.word	9076737                         # 0x8a8001
	.word	9109505                         # 0x8b0001
	.word	9142273                         # 0x8b8001
.LCPI7_453:
	.word	10223617                        # 0x9c0001
	.word	10256385                        # 0x9c8001
	.word	10289153                        # 0x9d0001
	.word	10321921                        # 0x9d8001
	.word	10354689                        # 0x9e0001
	.word	10387457                        # 0x9e8001
	.word	10420225                        # 0x9f0001
	.word	10452993                        # 0x9f8001
.LCPI7_454:
	.word	9961473                         # 0x980001
	.word	9994241                         # 0x988001
	.word	10027009                        # 0x990001
	.word	10059777                        # 0x998001
	.word	10092545                        # 0x9a0001
	.word	10125313                        # 0x9a8001
	.word	10158081                        # 0x9b0001
	.word	10190849                        # 0x9b8001
.LCPI7_455:
	.word	9699329                         # 0x940001
	.word	9732097                         # 0x948001
	.word	9764865                         # 0x950001
	.word	9797633                         # 0x958001
	.word	9830401                         # 0x960001
	.word	9863169                         # 0x968001
	.word	9895937                         # 0x970001
	.word	9928705                         # 0x978001
.LCPI7_456:
	.word	9437185                         # 0x900001
	.word	9469953                         # 0x908001
	.word	9502721                         # 0x910001
	.word	9535489                         # 0x918001
	.word	9568257                         # 0x920001
	.word	9601025                         # 0x928001
	.word	9633793                         # 0x930001
	.word	9666561                         # 0x938001
.LCPI7_457:
	.word	11272193                        # 0xac0001
	.word	11304961                        # 0xac8001
	.word	11337729                        # 0xad0001
	.word	11370497                        # 0xad8001
	.word	11403265                        # 0xae0001
	.word	11436033                        # 0xae8001
	.word	11468801                        # 0xaf0001
	.word	11501569                        # 0xaf8001
.LCPI7_458:
	.word	11010049                        # 0xa80001
	.word	11042817                        # 0xa88001
	.word	11075585                        # 0xa90001
	.word	11108353                        # 0xa98001
	.word	11141121                        # 0xaa0001
	.word	11173889                        # 0xaa8001
	.word	11206657                        # 0xab0001
	.word	11239425                        # 0xab8001
.LCPI7_459:
	.word	10747905                        # 0xa40001
	.word	10780673                        # 0xa48001
	.word	10813441                        # 0xa50001
	.word	10846209                        # 0xa58001
	.word	10878977                        # 0xa60001
	.word	10911745                        # 0xa68001
	.word	10944513                        # 0xa70001
	.word	10977281                        # 0xa78001
.LCPI7_460:
	.word	10485761                        # 0xa00001
	.word	10518529                        # 0xa08001
	.word	10551297                        # 0xa10001
	.word	10584065                        # 0xa18001
	.word	10616833                        # 0xa20001
	.word	10649601                        # 0xa28001
	.word	10682369                        # 0xa30001
	.word	10715137                        # 0xa38001
.LCPI7_461:
	.word	12320769                        # 0xbc0001
	.word	12353537                        # 0xbc8001
	.word	12386305                        # 0xbd0001
	.word	12419073                        # 0xbd8001
	.word	12451841                        # 0xbe0001
	.word	12484609                        # 0xbe8001
	.word	12517377                        # 0xbf0001
	.word	12550145                        # 0xbf8001
.LCPI7_462:
	.word	12058625                        # 0xb80001
	.word	12091393                        # 0xb88001
	.word	12124161                        # 0xb90001
	.word	12156929                        # 0xb98001
	.word	12189697                        # 0xba0001
	.word	12222465                        # 0xba8001
	.word	12255233                        # 0xbb0001
	.word	12288001                        # 0xbb8001
.LCPI7_463:
	.word	11796481                        # 0xb40001
	.word	11829249                        # 0xb48001
	.word	11862017                        # 0xb50001
	.word	11894785                        # 0xb58001
	.word	11927553                        # 0xb60001
	.word	11960321                        # 0xb68001
	.word	11993089                        # 0xb70001
	.word	12025857                        # 0xb78001
.LCPI7_464:
	.word	11534337                        # 0xb00001
	.word	11567105                        # 0xb08001
	.word	11599873                        # 0xb10001
	.word	11632641                        # 0xb18001
	.word	11665409                        # 0xb20001
	.word	11698177                        # 0xb28001
	.word	11730945                        # 0xb30001
	.word	11763713                        # 0xb38001
.LCPI7_465:
	.word	13369345                        # 0xcc0001
	.word	13402113                        # 0xcc8001
	.word	13434881                        # 0xcd0001
	.word	13467649                        # 0xcd8001
	.word	13500417                        # 0xce0001
	.word	13533185                        # 0xce8001
	.word	13565953                        # 0xcf0001
	.word	13598721                        # 0xcf8001
.LCPI7_466:
	.word	13107201                        # 0xc80001
	.word	13139969                        # 0xc88001
	.word	13172737                        # 0xc90001
	.word	13205505                        # 0xc98001
	.word	13238273                        # 0xca0001
	.word	13271041                        # 0xca8001
	.word	13303809                        # 0xcb0001
	.word	13336577                        # 0xcb8001
.LCPI7_467:
	.word	12845057                        # 0xc40001
	.word	12877825                        # 0xc48001
	.word	12910593                        # 0xc50001
	.word	12943361                        # 0xc58001
	.word	12976129                        # 0xc60001
	.word	13008897                        # 0xc68001
	.word	13041665                        # 0xc70001
	.word	13074433                        # 0xc78001
.LCPI7_468:
	.word	12582913                        # 0xc00001
	.word	12615681                        # 0xc08001
	.word	12648449                        # 0xc10001
	.word	12681217                        # 0xc18001
	.word	12713985                        # 0xc20001
	.word	12746753                        # 0xc28001
	.word	12779521                        # 0xc30001
	.word	12812289                        # 0xc38001
.LCPI7_469:
	.word	14417921                        # 0xdc0001
	.word	14450689                        # 0xdc8001
	.word	14483457                        # 0xdd0001
	.word	14516225                        # 0xdd8001
	.word	14548993                        # 0xde0001
	.word	14581761                        # 0xde8001
	.word	14614529                        # 0xdf0001
	.word	14647297                        # 0xdf8001
.LCPI7_470:
	.word	14155777                        # 0xd80001
	.word	14188545                        # 0xd88001
	.word	14221313                        # 0xd90001
	.word	14254081                        # 0xd98001
	.word	14286849                        # 0xda0001
	.word	14319617                        # 0xda8001
	.word	14352385                        # 0xdb0001
	.word	14385153                        # 0xdb8001
.LCPI7_471:
	.word	13893633                        # 0xd40001
	.word	13926401                        # 0xd48001
	.word	13959169                        # 0xd50001
	.word	13991937                        # 0xd58001
	.word	14024705                        # 0xd60001
	.word	14057473                        # 0xd68001
	.word	14090241                        # 0xd70001
	.word	14123009                        # 0xd78001
.LCPI7_472:
	.word	13631489                        # 0xd00001
	.word	13664257                        # 0xd08001
	.word	13697025                        # 0xd10001
	.word	13729793                        # 0xd18001
	.word	13762561                        # 0xd20001
	.word	13795329                        # 0xd28001
	.word	13828097                        # 0xd30001
	.word	13860865                        # 0xd38001
.LCPI7_473:
	.word	15466497                        # 0xec0001
	.word	15499265                        # 0xec8001
	.word	15532033                        # 0xed0001
	.word	15564801                        # 0xed8001
	.word	15597569                        # 0xee0001
	.word	15630337                        # 0xee8001
	.word	15663105                        # 0xef0001
	.word	15695873                        # 0xef8001
.LCPI7_474:
	.word	15204353                        # 0xe80001
	.word	15237121                        # 0xe88001
	.word	15269889                        # 0xe90001
	.word	15302657                        # 0xe98001
	.word	15335425                        # 0xea0001
	.word	15368193                        # 0xea8001
	.word	15400961                        # 0xeb0001
	.word	15433729                        # 0xeb8001
.LCPI7_475:
	.word	14942209                        # 0xe40001
	.word	14974977                        # 0xe48001
	.word	15007745                        # 0xe50001
	.word	15040513                        # 0xe58001
	.word	15073281                        # 0xe60001
	.word	15106049                        # 0xe68001
	.word	15138817                        # 0xe70001
	.word	15171585                        # 0xe78001
.LCPI7_476:
	.word	14680065                        # 0xe00001
	.word	14712833                        # 0xe08001
	.word	14745601                        # 0xe10001
	.word	14778369                        # 0xe18001
	.word	14811137                        # 0xe20001
	.word	14843905                        # 0xe28001
	.word	14876673                        # 0xe30001
	.word	14909441                        # 0xe38001
.LCPI7_477:
	.word	16515073                        # 0xfc0001
	.word	16547841                        # 0xfc8001
	.word	16580609                        # 0xfd0001
	.word	16613377                        # 0xfd8001
	.word	16646145                        # 0xfe0001
	.word	16678913                        # 0xfe8001
	.word	16711681                        # 0xff0001
	.word	16744449                        # 0xff8001
.LCPI7_478:
	.word	16252929                        # 0xf80001
	.word	16285697                        # 0xf88001
	.word	16318465                        # 0xf90001
	.word	16351233                        # 0xf98001
	.word	16384001                        # 0xfa0001
	.word	16416769                        # 0xfa8001
	.word	16449537                        # 0xfb0001
	.word	16482305                        # 0xfb8001
.LCPI7_479:
	.word	15990785                        # 0xf40001
	.word	16023553                        # 0xf48001
	.word	16056321                        # 0xf50001
	.word	16089089                        # 0xf58001
	.word	16121857                        # 0xf60001
	.word	16154625                        # 0xf68001
	.word	16187393                        # 0xf70001
	.word	16220161                        # 0xf78001
.LCPI7_480:
	.word	15728641                        # 0xf00001
	.word	15761409                        # 0xf08001
	.word	15794177                        # 0xf10001
	.word	15826945                        # 0xf18001
	.word	15859713                        # 0xf20001
	.word	15892481                        # 0xf28001
	.word	15925249                        # 0xf30001
	.word	15958017                        # 0xf38001
.LCPI7_481:
	.word	17301505                        # 0x1080001
	.word	17367041                        # 0x1090001
	.word	17432577                        # 0x10a0001
	.word	17498113                        # 0x10b0001
	.word	17563649                        # 0x10c0001
	.word	17629185                        # 0x10d0001
	.word	17694721                        # 0x10e0001
	.word	17760257                        # 0x10f0001
.LCPI7_482:
	.word	16777217                        # 0x1000001
	.word	16842753                        # 0x1010001
	.word	16908289                        # 0x1020001
	.word	16973825                        # 0x1030001
	.word	17039361                        # 0x1040001
	.word	17104897                        # 0x1050001
	.word	17170433                        # 0x1060001
	.word	17235969                        # 0x1070001
.LCPI7_483:
	.word	18350081                        # 0x1180001
	.word	18415617                        # 0x1190001
	.word	18481153                        # 0x11a0001
	.word	18546689                        # 0x11b0001
	.word	18612225                        # 0x11c0001
	.word	18677761                        # 0x11d0001
	.word	18743297                        # 0x11e0001
	.word	18808833                        # 0x11f0001
.LCPI7_484:
	.word	17825793                        # 0x1100001
	.word	17891329                        # 0x1110001
	.word	17956865                        # 0x1120001
	.word	18022401                        # 0x1130001
	.word	18087937                        # 0x1140001
	.word	18153473                        # 0x1150001
	.word	18219009                        # 0x1160001
	.word	18284545                        # 0x1170001
.LCPI7_485:
	.word	20447233                        # 0x1380001
	.word	20512769                        # 0x1390001
	.word	20578305                        # 0x13a0001
	.word	20643841                        # 0x13b0001
	.word	20709377                        # 0x13c0001
	.word	20774913                        # 0x13d0001
	.word	20840449                        # 0x13e0001
	.word	20905985                        # 0x13f0001
.LCPI7_486:
	.word	19922945                        # 0x1300001
	.word	19988481                        # 0x1310001
	.word	20054017                        # 0x1320001
	.word	20119553                        # 0x1330001
	.word	20185089                        # 0x1340001
	.word	20250625                        # 0x1350001
	.word	20316161                        # 0x1360001
	.word	20381697                        # 0x1370001
.LCPI7_487:
	.word	19398657                        # 0x1280001
	.word	19464193                        # 0x1290001
	.word	19529729                        # 0x12a0001
	.word	19595265                        # 0x12b0001
	.word	19660801                        # 0x12c0001
	.word	19726337                        # 0x12d0001
	.word	19791873                        # 0x12e0001
	.word	19857409                        # 0x12f0001
.LCPI7_488:
	.word	18874369                        # 0x1200001
	.word	18939905                        # 0x1210001
	.word	19005441                        # 0x1220001
	.word	19070977                        # 0x1230001
	.word	19136513                        # 0x1240001
	.word	19202049                        # 0x1250001
	.word	19267585                        # 0x1260001
	.word	19333121                        # 0x1270001
.LCPI7_489:
	.word	22544385                        # 0x1580001
	.word	22609921                        # 0x1590001
	.word	22675457                        # 0x15a0001
	.word	22740993                        # 0x15b0001
	.word	22806529                        # 0x15c0001
	.word	22872065                        # 0x15d0001
	.word	22937601                        # 0x15e0001
	.word	23003137                        # 0x15f0001
.LCPI7_490:
	.word	22020097                        # 0x1500001
	.word	22085633                        # 0x1510001
	.word	22151169                        # 0x1520001
	.word	22216705                        # 0x1530001
	.word	22282241                        # 0x1540001
	.word	22347777                        # 0x1550001
	.word	22413313                        # 0x1560001
	.word	22478849                        # 0x1570001
.LCPI7_491:
	.word	21495809                        # 0x1480001
	.word	21561345                        # 0x1490001
	.word	21626881                        # 0x14a0001
	.word	21692417                        # 0x14b0001
	.word	21757953                        # 0x14c0001
	.word	21823489                        # 0x14d0001
	.word	21889025                        # 0x14e0001
	.word	21954561                        # 0x14f0001
.LCPI7_492:
	.word	20971521                        # 0x1400001
	.word	21037057                        # 0x1410001
	.word	21102593                        # 0x1420001
	.word	21168129                        # 0x1430001
	.word	21233665                        # 0x1440001
	.word	21299201                        # 0x1450001
	.word	21364737                        # 0x1460001
	.word	21430273                        # 0x1470001
.LCPI7_493:
	.word	24641537                        # 0x1780001
	.word	24707073                        # 0x1790001
	.word	24772609                        # 0x17a0001
	.word	24838145                        # 0x17b0001
	.word	24903681                        # 0x17c0001
	.word	24969217                        # 0x17d0001
	.word	25034753                        # 0x17e0001
	.word	25100289                        # 0x17f0001
.LCPI7_494:
	.word	24117249                        # 0x1700001
	.word	24182785                        # 0x1710001
	.word	24248321                        # 0x1720001
	.word	24313857                        # 0x1730001
	.word	24379393                        # 0x1740001
	.word	24444929                        # 0x1750001
	.word	24510465                        # 0x1760001
	.word	24576001                        # 0x1770001
.LCPI7_495:
	.word	23592961                        # 0x1680001
	.word	23658497                        # 0x1690001
	.word	23724033                        # 0x16a0001
	.word	23789569                        # 0x16b0001
	.word	23855105                        # 0x16c0001
	.word	23920641                        # 0x16d0001
	.word	23986177                        # 0x16e0001
	.word	24051713                        # 0x16f0001
.LCPI7_496:
	.word	23068673                        # 0x1600001
	.word	23134209                        # 0x1610001
	.word	23199745                        # 0x1620001
	.word	23265281                        # 0x1630001
	.word	23330817                        # 0x1640001
	.word	23396353                        # 0x1650001
	.word	23461889                        # 0x1660001
	.word	23527425                        # 0x1670001
.LCPI7_497:
	.word	26738689                        # 0x1980001
	.word	26804225                        # 0x1990001
	.word	26869761                        # 0x19a0001
	.word	26935297                        # 0x19b0001
	.word	27000833                        # 0x19c0001
	.word	27066369                        # 0x19d0001
	.word	27131905                        # 0x19e0001
	.word	27197441                        # 0x19f0001
.LCPI7_498:
	.word	26214401                        # 0x1900001
	.word	26279937                        # 0x1910001
	.word	26345473                        # 0x1920001
	.word	26411009                        # 0x1930001
	.word	26476545                        # 0x1940001
	.word	26542081                        # 0x1950001
	.word	26607617                        # 0x1960001
	.word	26673153                        # 0x1970001
.LCPI7_499:
	.word	25690113                        # 0x1880001
	.word	25755649                        # 0x1890001
	.word	25821185                        # 0x18a0001
	.word	25886721                        # 0x18b0001
	.word	25952257                        # 0x18c0001
	.word	26017793                        # 0x18d0001
	.word	26083329                        # 0x18e0001
	.word	26148865                        # 0x18f0001
.LCPI7_500:
	.word	25165825                        # 0x1800001
	.word	25231361                        # 0x1810001
	.word	25296897                        # 0x1820001
	.word	25362433                        # 0x1830001
	.word	25427969                        # 0x1840001
	.word	25493505                        # 0x1850001
	.word	25559041                        # 0x1860001
	.word	25624577                        # 0x1870001
.LCPI7_501:
	.word	28835841                        # 0x1b80001
	.word	28901377                        # 0x1b90001
	.word	28966913                        # 0x1ba0001
	.word	29032449                        # 0x1bb0001
	.word	29097985                        # 0x1bc0001
	.word	29163521                        # 0x1bd0001
	.word	29229057                        # 0x1be0001
	.word	29294593                        # 0x1bf0001
.LCPI7_502:
	.word	28311553                        # 0x1b00001
	.word	28377089                        # 0x1b10001
	.word	28442625                        # 0x1b20001
	.word	28508161                        # 0x1b30001
	.word	28573697                        # 0x1b40001
	.word	28639233                        # 0x1b50001
	.word	28704769                        # 0x1b60001
	.word	28770305                        # 0x1b70001
.LCPI7_503:
	.word	27787265                        # 0x1a80001
	.word	27852801                        # 0x1a90001
	.word	27918337                        # 0x1aa0001
	.word	27983873                        # 0x1ab0001
	.word	28049409                        # 0x1ac0001
	.word	28114945                        # 0x1ad0001
	.word	28180481                        # 0x1ae0001
	.word	28246017                        # 0x1af0001
.LCPI7_504:
	.word	27262977                        # 0x1a00001
	.word	27328513                        # 0x1a10001
	.word	27394049                        # 0x1a20001
	.word	27459585                        # 0x1a30001
	.word	27525121                        # 0x1a40001
	.word	27590657                        # 0x1a50001
	.word	27656193                        # 0x1a60001
	.word	27721729                        # 0x1a70001
.LCPI7_505:
	.word	30932993                        # 0x1d80001
	.word	30998529                        # 0x1d90001
	.word	31064065                        # 0x1da0001
	.word	31129601                        # 0x1db0001
	.word	31195137                        # 0x1dc0001
	.word	31260673                        # 0x1dd0001
	.word	31326209                        # 0x1de0001
	.word	31391745                        # 0x1df0001
.LCPI7_506:
	.word	30408705                        # 0x1d00001
	.word	30474241                        # 0x1d10001
	.word	30539777                        # 0x1d20001
	.word	30605313                        # 0x1d30001
	.word	30670849                        # 0x1d40001
	.word	30736385                        # 0x1d50001
	.word	30801921                        # 0x1d60001
	.word	30867457                        # 0x1d70001
.LCPI7_507:
	.word	29884417                        # 0x1c80001
	.word	29949953                        # 0x1c90001
	.word	30015489                        # 0x1ca0001
	.word	30081025                        # 0x1cb0001
	.word	30146561                        # 0x1cc0001
	.word	30212097                        # 0x1cd0001
	.word	30277633                        # 0x1ce0001
	.word	30343169                        # 0x1cf0001
.LCPI7_508:
	.word	29360129                        # 0x1c00001
	.word	29425665                        # 0x1c10001
	.word	29491201                        # 0x1c20001
	.word	29556737                        # 0x1c30001
	.word	29622273                        # 0x1c40001
	.word	29687809                        # 0x1c50001
	.word	29753345                        # 0x1c60001
	.word	29818881                        # 0x1c70001
.LCPI7_509:
	.word	33030145                        # 0x1f80001
	.word	33095681                        # 0x1f90001
	.word	33161217                        # 0x1fa0001
	.word	33226753                        # 0x1fb0001
	.word	33292289                        # 0x1fc0001
	.word	33357825                        # 0x1fd0001
	.word	33423361                        # 0x1fe0001
	.word	33488897                        # 0x1ff0001
.LCPI7_510:
	.word	32505857                        # 0x1f00001
	.word	32571393                        # 0x1f10001
	.word	32636929                        # 0x1f20001
	.word	32702465                        # 0x1f30001
	.word	32768001                        # 0x1f40001
	.word	32833537                        # 0x1f50001
	.word	32899073                        # 0x1f60001
	.word	32964609                        # 0x1f70001
.LCPI7_511:
	.word	31981569                        # 0x1e80001
	.word	32047105                        # 0x1e90001
	.word	32112641                        # 0x1ea0001
	.word	32178177                        # 0x1eb0001
	.word	32243713                        # 0x1ec0001
	.word	32309249                        # 0x1ed0001
	.word	32374785                        # 0x1ee0001
	.word	32440321                        # 0x1ef0001
.LCPI7_512:
	.word	31457281                        # 0x1e00001
	.word	31522817                        # 0x1e10001
	.word	31588353                        # 0x1e20001
	.word	31653889                        # 0x1e30001
	.word	31719425                        # 0x1e40001
	.word	31784961                        # 0x1e50001
	.word	31850497                        # 0x1e60001
	.word	31916033                        # 0x1e70001
.LCPI7_513:
	.word	34603009                        # 0x2100001
	.word	34734081                        # 0x2120001
	.word	34865153                        # 0x2140001
	.word	34996225                        # 0x2160001
	.word	35127297                        # 0x2180001
	.word	35258369                        # 0x21a0001
	.word	35389441                        # 0x21c0001
	.word	35520513                        # 0x21e0001
.LCPI7_514:
	.word	33554433                        # 0x2000001
	.word	33685505                        # 0x2020001
	.word	33816577                        # 0x2040001
	.word	33947649                        # 0x2060001
	.word	34078721                        # 0x2080001
	.word	34209793                        # 0x20a0001
	.word	34340865                        # 0x20c0001
	.word	34471937                        # 0x20e0001
.LCPI7_515:
	.word	36700161                        # 0x2300001
	.word	36831233                        # 0x2320001
	.word	36962305                        # 0x2340001
	.word	37093377                        # 0x2360001
	.word	37224449                        # 0x2380001
	.word	37355521                        # 0x23a0001
	.word	37486593                        # 0x23c0001
	.word	37617665                        # 0x23e0001
.LCPI7_516:
	.word	35651585                        # 0x2200001
	.word	35782657                        # 0x2220001
	.word	35913729                        # 0x2240001
	.word	36044801                        # 0x2260001
	.word	36175873                        # 0x2280001
	.word	36306945                        # 0x22a0001
	.word	36438017                        # 0x22c0001
	.word	36569089                        # 0x22e0001
.LCPI7_517:
	.word	40894465                        # 0x2700001
	.word	41025537                        # 0x2720001
	.word	41156609                        # 0x2740001
	.word	41287681                        # 0x2760001
	.word	41418753                        # 0x2780001
	.word	41549825                        # 0x27a0001
	.word	41680897                        # 0x27c0001
	.word	41811969                        # 0x27e0001
.LCPI7_518:
	.word	39845889                        # 0x2600001
	.word	39976961                        # 0x2620001
	.word	40108033                        # 0x2640001
	.word	40239105                        # 0x2660001
	.word	40370177                        # 0x2680001
	.word	40501249                        # 0x26a0001
	.word	40632321                        # 0x26c0001
	.word	40763393                        # 0x26e0001
.LCPI7_519:
	.word	38797313                        # 0x2500001
	.word	38928385                        # 0x2520001
	.word	39059457                        # 0x2540001
	.word	39190529                        # 0x2560001
	.word	39321601                        # 0x2580001
	.word	39452673                        # 0x25a0001
	.word	39583745                        # 0x25c0001
	.word	39714817                        # 0x25e0001
.LCPI7_520:
	.word	37748737                        # 0x2400001
	.word	37879809                        # 0x2420001
	.word	38010881                        # 0x2440001
	.word	38141953                        # 0x2460001
	.word	38273025                        # 0x2480001
	.word	38404097                        # 0x24a0001
	.word	38535169                        # 0x24c0001
	.word	38666241                        # 0x24e0001
.LCPI7_521:
	.word	45088769                        # 0x2b00001
	.word	45219841                        # 0x2b20001
	.word	45350913                        # 0x2b40001
	.word	45481985                        # 0x2b60001
	.word	45613057                        # 0x2b80001
	.word	45744129                        # 0x2ba0001
	.word	45875201                        # 0x2bc0001
	.word	46006273                        # 0x2be0001
.LCPI7_522:
	.word	44040193                        # 0x2a00001
	.word	44171265                        # 0x2a20001
	.word	44302337                        # 0x2a40001
	.word	44433409                        # 0x2a60001
	.word	44564481                        # 0x2a80001
	.word	44695553                        # 0x2aa0001
	.word	44826625                        # 0x2ac0001
	.word	44957697                        # 0x2ae0001
.LCPI7_523:
	.word	42991617                        # 0x2900001
	.word	43122689                        # 0x2920001
	.word	43253761                        # 0x2940001
	.word	43384833                        # 0x2960001
	.word	43515905                        # 0x2980001
	.word	43646977                        # 0x29a0001
	.word	43778049                        # 0x29c0001
	.word	43909121                        # 0x29e0001
.LCPI7_524:
	.word	41943041                        # 0x2800001
	.word	42074113                        # 0x2820001
	.word	42205185                        # 0x2840001
	.word	42336257                        # 0x2860001
	.word	42467329                        # 0x2880001
	.word	42598401                        # 0x28a0001
	.word	42729473                        # 0x28c0001
	.word	42860545                        # 0x28e0001
.LCPI7_525:
	.word	49283073                        # 0x2f00001
	.word	49414145                        # 0x2f20001
	.word	49545217                        # 0x2f40001
	.word	49676289                        # 0x2f60001
	.word	49807361                        # 0x2f80001
	.word	49938433                        # 0x2fa0001
	.word	50069505                        # 0x2fc0001
	.word	50200577                        # 0x2fe0001
.LCPI7_526:
	.word	48234497                        # 0x2e00001
	.word	48365569                        # 0x2e20001
	.word	48496641                        # 0x2e40001
	.word	48627713                        # 0x2e60001
	.word	48758785                        # 0x2e80001
	.word	48889857                        # 0x2ea0001
	.word	49020929                        # 0x2ec0001
	.word	49152001                        # 0x2ee0001
.LCPI7_527:
	.word	47185921                        # 0x2d00001
	.word	47316993                        # 0x2d20001
	.word	47448065                        # 0x2d40001
	.word	47579137                        # 0x2d60001
	.word	47710209                        # 0x2d80001
	.word	47841281                        # 0x2da0001
	.word	47972353                        # 0x2dc0001
	.word	48103425                        # 0x2de0001
.LCPI7_528:
	.word	46137345                        # 0x2c00001
	.word	46268417                        # 0x2c20001
	.word	46399489                        # 0x2c40001
	.word	46530561                        # 0x2c60001
	.word	46661633                        # 0x2c80001
	.word	46792705                        # 0x2ca0001
	.word	46923777                        # 0x2cc0001
	.word	47054849                        # 0x2ce0001
.LCPI7_529:
	.word	53477377                        # 0x3300001
	.word	53608449                        # 0x3320001
	.word	53739521                        # 0x3340001
	.word	53870593                        # 0x3360001
	.word	54001665                        # 0x3380001
	.word	54132737                        # 0x33a0001
	.word	54263809                        # 0x33c0001
	.word	54394881                        # 0x33e0001
.LCPI7_530:
	.word	52428801                        # 0x3200001
	.word	52559873                        # 0x3220001
	.word	52690945                        # 0x3240001
	.word	52822017                        # 0x3260001
	.word	52953089                        # 0x3280001
	.word	53084161                        # 0x32a0001
	.word	53215233                        # 0x32c0001
	.word	53346305                        # 0x32e0001
.LCPI7_531:
	.word	51380225                        # 0x3100001
	.word	51511297                        # 0x3120001
	.word	51642369                        # 0x3140001
	.word	51773441                        # 0x3160001
	.word	51904513                        # 0x3180001
	.word	52035585                        # 0x31a0001
	.word	52166657                        # 0x31c0001
	.word	52297729                        # 0x31e0001
.LCPI7_532:
	.word	50331649                        # 0x3000001
	.word	50462721                        # 0x3020001
	.word	50593793                        # 0x3040001
	.word	50724865                        # 0x3060001
	.word	50855937                        # 0x3080001
	.word	50987009                        # 0x30a0001
	.word	51118081                        # 0x30c0001
	.word	51249153                        # 0x30e0001
.LCPI7_533:
	.word	57671681                        # 0x3700001
	.word	57802753                        # 0x3720001
	.word	57933825                        # 0x3740001
	.word	58064897                        # 0x3760001
	.word	58195969                        # 0x3780001
	.word	58327041                        # 0x37a0001
	.word	58458113                        # 0x37c0001
	.word	58589185                        # 0x37e0001
.LCPI7_534:
	.word	56623105                        # 0x3600001
	.word	56754177                        # 0x3620001
	.word	56885249                        # 0x3640001
	.word	57016321                        # 0x3660001
	.word	57147393                        # 0x3680001
	.word	57278465                        # 0x36a0001
	.word	57409537                        # 0x36c0001
	.word	57540609                        # 0x36e0001
.LCPI7_535:
	.word	55574529                        # 0x3500001
	.word	55705601                        # 0x3520001
	.word	55836673                        # 0x3540001
	.word	55967745                        # 0x3560001
	.word	56098817                        # 0x3580001
	.word	56229889                        # 0x35a0001
	.word	56360961                        # 0x35c0001
	.word	56492033                        # 0x35e0001
.LCPI7_536:
	.word	54525953                        # 0x3400001
	.word	54657025                        # 0x3420001
	.word	54788097                        # 0x3440001
	.word	54919169                        # 0x3460001
	.word	55050241                        # 0x3480001
	.word	55181313                        # 0x34a0001
	.word	55312385                        # 0x34c0001
	.word	55443457                        # 0x34e0001
.LCPI7_537:
	.word	61865985                        # 0x3b00001
	.word	61997057                        # 0x3b20001
	.word	62128129                        # 0x3b40001
	.word	62259201                        # 0x3b60001
	.word	62390273                        # 0x3b80001
	.word	62521345                        # 0x3ba0001
	.word	62652417                        # 0x3bc0001
	.word	62783489                        # 0x3be0001
.LCPI7_538:
	.word	60817409                        # 0x3a00001
	.word	60948481                        # 0x3a20001
	.word	61079553                        # 0x3a40001
	.word	61210625                        # 0x3a60001
	.word	61341697                        # 0x3a80001
	.word	61472769                        # 0x3aa0001
	.word	61603841                        # 0x3ac0001
	.word	61734913                        # 0x3ae0001
.LCPI7_539:
	.word	59768833                        # 0x3900001
	.word	59899905                        # 0x3920001
	.word	60030977                        # 0x3940001
	.word	60162049                        # 0x3960001
	.word	60293121                        # 0x3980001
	.word	60424193                        # 0x39a0001
	.word	60555265                        # 0x39c0001
	.word	60686337                        # 0x39e0001
.LCPI7_540:
	.word	58720257                        # 0x3800001
	.word	58851329                        # 0x3820001
	.word	58982401                        # 0x3840001
	.word	59113473                        # 0x3860001
	.word	59244545                        # 0x3880001
	.word	59375617                        # 0x38a0001
	.word	59506689                        # 0x38c0001
	.word	59637761                        # 0x38e0001
.LCPI7_541:
	.word	66060289                        # 0x3f00001
	.word	66191361                        # 0x3f20001
	.word	66322433                        # 0x3f40001
	.word	66453505                        # 0x3f60001
	.word	66584577                        # 0x3f80001
	.word	66715649                        # 0x3fa0001
	.word	66846721                        # 0x3fc0001
	.word	66977793                        # 0x3fe0001
.LCPI7_542:
	.word	65011713                        # 0x3e00001
	.word	65142785                        # 0x3e20001
	.word	65273857                        # 0x3e40001
	.word	65404929                        # 0x3e60001
	.word	65536001                        # 0x3e80001
	.word	65667073                        # 0x3ea0001
	.word	65798145                        # 0x3ec0001
	.word	65929217                        # 0x3ee0001
.LCPI7_543:
	.word	63963137                        # 0x3d00001
	.word	64094209                        # 0x3d20001
	.word	64225281                        # 0x3d40001
	.word	64356353                        # 0x3d60001
	.word	64487425                        # 0x3d80001
	.word	64618497                        # 0x3da0001
	.word	64749569                        # 0x3dc0001
	.word	64880641                        # 0x3de0001
.LCPI7_544:
	.word	62914561                        # 0x3c00001
	.word	63045633                        # 0x3c20001
	.word	63176705                        # 0x3c40001
	.word	63307777                        # 0x3c60001
	.word	63438849                        # 0x3c80001
	.word	63569921                        # 0x3ca0001
	.word	63700993                        # 0x3cc0001
	.word	63832065                        # 0x3ce0001
.LCPI7_545:
	.word	69206017                        # 0x4200001
	.word	69468161                        # 0x4240001
	.word	69730305                        # 0x4280001
	.word	69992449                        # 0x42c0001
	.word	70254593                        # 0x4300001
	.word	70516737                        # 0x4340001
	.word	70778881                        # 0x4380001
	.word	71041025                        # 0x43c0001
.LCPI7_546:
	.word	67108865                        # 0x4000001
	.word	67371009                        # 0x4040001
	.word	67633153                        # 0x4080001
	.word	67895297                        # 0x40c0001
	.word	68157441                        # 0x4100001
	.word	68419585                        # 0x4140001
	.word	68681729                        # 0x4180001
	.word	68943873                        # 0x41c0001
.LCPI7_547:
	.word	73400321                        # 0x4600001
	.word	73662465                        # 0x4640001
	.word	73924609                        # 0x4680001
	.word	74186753                        # 0x46c0001
	.word	74448897                        # 0x4700001
	.word	74711041                        # 0x4740001
	.word	74973185                        # 0x4780001
	.word	75235329                        # 0x47c0001
.LCPI7_548:
	.word	71303169                        # 0x4400001
	.word	71565313                        # 0x4440001
	.word	71827457                        # 0x4480001
	.word	72089601                        # 0x44c0001
	.word	72351745                        # 0x4500001
	.word	72613889                        # 0x4540001
	.word	72876033                        # 0x4580001
	.word	73138177                        # 0x45c0001
.LCPI7_549:
	.word	81788929                        # 0x4e00001
	.word	82051073                        # 0x4e40001
	.word	82313217                        # 0x4e80001
	.word	82575361                        # 0x4ec0001
	.word	82837505                        # 0x4f00001
	.word	83099649                        # 0x4f40001
	.word	83361793                        # 0x4f80001
	.word	83623937                        # 0x4fc0001
.LCPI7_550:
	.word	79691777                        # 0x4c00001
	.word	79953921                        # 0x4c40001
	.word	80216065                        # 0x4c80001
	.word	80478209                        # 0x4cc0001
	.word	80740353                        # 0x4d00001
	.word	81002497                        # 0x4d40001
	.word	81264641                        # 0x4d80001
	.word	81526785                        # 0x4dc0001
.LCPI7_551:
	.word	77594625                        # 0x4a00001
	.word	77856769                        # 0x4a40001
	.word	78118913                        # 0x4a80001
	.word	78381057                        # 0x4ac0001
	.word	78643201                        # 0x4b00001
	.word	78905345                        # 0x4b40001
	.word	79167489                        # 0x4b80001
	.word	79429633                        # 0x4bc0001
.LCPI7_552:
	.word	75497473                        # 0x4800001
	.word	75759617                        # 0x4840001
	.word	76021761                        # 0x4880001
	.word	76283905                        # 0x48c0001
	.word	76546049                        # 0x4900001
	.word	76808193                        # 0x4940001
	.word	77070337                        # 0x4980001
	.word	77332481                        # 0x49c0001
.LCPI7_553:
	.word	90177537                        # 0x5600001
	.word	90439681                        # 0x5640001
	.word	90701825                        # 0x5680001
	.word	90963969                        # 0x56c0001
	.word	91226113                        # 0x5700001
	.word	91488257                        # 0x5740001
	.word	91750401                        # 0x5780001
	.word	92012545                        # 0x57c0001
.LCPI7_554:
	.word	88080385                        # 0x5400001
	.word	88342529                        # 0x5440001
	.word	88604673                        # 0x5480001
	.word	88866817                        # 0x54c0001
	.word	89128961                        # 0x5500001
	.word	89391105                        # 0x5540001
	.word	89653249                        # 0x5580001
	.word	89915393                        # 0x55c0001
.LCPI7_555:
	.word	85983233                        # 0x5200001
	.word	86245377                        # 0x5240001
	.word	86507521                        # 0x5280001
	.word	86769665                        # 0x52c0001
	.word	87031809                        # 0x5300001
	.word	87293953                        # 0x5340001
	.word	87556097                        # 0x5380001
	.word	87818241                        # 0x53c0001
.LCPI7_556:
	.word	83886081                        # 0x5000001
	.word	84148225                        # 0x5040001
	.word	84410369                        # 0x5080001
	.word	84672513                        # 0x50c0001
	.word	84934657                        # 0x5100001
	.word	85196801                        # 0x5140001
	.word	85458945                        # 0x5180001
	.word	85721089                        # 0x51c0001
.LCPI7_557:
	.word	98566145                        # 0x5e00001
	.word	98828289                        # 0x5e40001
	.word	99090433                        # 0x5e80001
	.word	99352577                        # 0x5ec0001
	.word	99614721                        # 0x5f00001
	.word	99876865                        # 0x5f40001
	.word	100139009                       # 0x5f80001
	.word	100401153                       # 0x5fc0001
.LCPI7_558:
	.word	96468993                        # 0x5c00001
	.word	96731137                        # 0x5c40001
	.word	96993281                        # 0x5c80001
	.word	97255425                        # 0x5cc0001
	.word	97517569                        # 0x5d00001
	.word	97779713                        # 0x5d40001
	.word	98041857                        # 0x5d80001
	.word	98304001                        # 0x5dc0001
.LCPI7_559:
	.word	94371841                        # 0x5a00001
	.word	94633985                        # 0x5a40001
	.word	94896129                        # 0x5a80001
	.word	95158273                        # 0x5ac0001
	.word	95420417                        # 0x5b00001
	.word	95682561                        # 0x5b40001
	.word	95944705                        # 0x5b80001
	.word	96206849                        # 0x5bc0001
.LCPI7_560:
	.word	92274689                        # 0x5800001
	.word	92536833                        # 0x5840001
	.word	92798977                        # 0x5880001
	.word	93061121                        # 0x58c0001
	.word	93323265                        # 0x5900001
	.word	93585409                        # 0x5940001
	.word	93847553                        # 0x5980001
	.word	94109697                        # 0x59c0001
.LCPI7_561:
	.word	106954753                       # 0x6600001
	.word	107216897                       # 0x6640001
	.word	107479041                       # 0x6680001
	.word	107741185                       # 0x66c0001
	.word	108003329                       # 0x6700001
	.word	108265473                       # 0x6740001
	.word	108527617                       # 0x6780001
	.word	108789761                       # 0x67c0001
.LCPI7_562:
	.word	104857601                       # 0x6400001
	.word	105119745                       # 0x6440001
	.word	105381889                       # 0x6480001
	.word	105644033                       # 0x64c0001
	.word	105906177                       # 0x6500001
	.word	106168321                       # 0x6540001
	.word	106430465                       # 0x6580001
	.word	106692609                       # 0x65c0001
.LCPI7_563:
	.word	102760449                       # 0x6200001
	.word	103022593                       # 0x6240001
	.word	103284737                       # 0x6280001
	.word	103546881                       # 0x62c0001
	.word	103809025                       # 0x6300001
	.word	104071169                       # 0x6340001
	.word	104333313                       # 0x6380001
	.word	104595457                       # 0x63c0001
.LCPI7_564:
	.word	100663297                       # 0x6000001
	.word	100925441                       # 0x6040001
	.word	101187585                       # 0x6080001
	.word	101449729                       # 0x60c0001
	.word	101711873                       # 0x6100001
	.word	101974017                       # 0x6140001
	.word	102236161                       # 0x6180001
	.word	102498305                       # 0x61c0001
.LCPI7_565:
	.word	115343361                       # 0x6e00001
	.word	115605505                       # 0x6e40001
	.word	115867649                       # 0x6e80001
	.word	116129793                       # 0x6ec0001
	.word	116391937                       # 0x6f00001
	.word	116654081                       # 0x6f40001
	.word	116916225                       # 0x6f80001
	.word	117178369                       # 0x6fc0001
.LCPI7_566:
	.word	113246209                       # 0x6c00001
	.word	113508353                       # 0x6c40001
	.word	113770497                       # 0x6c80001
	.word	114032641                       # 0x6cc0001
	.word	114294785                       # 0x6d00001
	.word	114556929                       # 0x6d40001
	.word	114819073                       # 0x6d80001
	.word	115081217                       # 0x6dc0001
.LCPI7_567:
	.word	111149057                       # 0x6a00001
	.word	111411201                       # 0x6a40001
	.word	111673345                       # 0x6a80001
	.word	111935489                       # 0x6ac0001
	.word	112197633                       # 0x6b00001
	.word	112459777                       # 0x6b40001
	.word	112721921                       # 0x6b80001
	.word	112984065                       # 0x6bc0001
.LCPI7_568:
	.word	109051905                       # 0x6800001
	.word	109314049                       # 0x6840001
	.word	109576193                       # 0x6880001
	.word	109838337                       # 0x68c0001
	.word	110100481                       # 0x6900001
	.word	110362625                       # 0x6940001
	.word	110624769                       # 0x6980001
	.word	110886913                       # 0x69c0001
.LCPI7_569:
	.word	123731969                       # 0x7600001
	.word	123994113                       # 0x7640001
	.word	124256257                       # 0x7680001
	.word	124518401                       # 0x76c0001
	.word	124780545                       # 0x7700001
	.word	125042689                       # 0x7740001
	.word	125304833                       # 0x7780001
	.word	125566977                       # 0x77c0001
.LCPI7_570:
	.word	121634817                       # 0x7400001
	.word	121896961                       # 0x7440001
	.word	122159105                       # 0x7480001
	.word	122421249                       # 0x74c0001
	.word	122683393                       # 0x7500001
	.word	122945537                       # 0x7540001
	.word	123207681                       # 0x7580001
	.word	123469825                       # 0x75c0001
.LCPI7_571:
	.word	119537665                       # 0x7200001
	.word	119799809                       # 0x7240001
	.word	120061953                       # 0x7280001
	.word	120324097                       # 0x72c0001
	.word	120586241                       # 0x7300001
	.word	120848385                       # 0x7340001
	.word	121110529                       # 0x7380001
	.word	121372673                       # 0x73c0001
.LCPI7_572:
	.word	117440513                       # 0x7000001
	.word	117702657                       # 0x7040001
	.word	117964801                       # 0x7080001
	.word	118226945                       # 0x70c0001
	.word	118489089                       # 0x7100001
	.word	118751233                       # 0x7140001
	.word	119013377                       # 0x7180001
	.word	119275521                       # 0x71c0001
.LCPI7_573:
	.word	132120577                       # 0x7e00001
	.word	132382721                       # 0x7e40001
	.word	132644865                       # 0x7e80001
	.word	132907009                       # 0x7ec0001
	.word	133169153                       # 0x7f00001
	.word	133431297                       # 0x7f40001
	.word	133693441                       # 0x7f80001
	.word	133955585                       # 0x7fc0001
.LCPI7_574:
	.word	130023425                       # 0x7c00001
	.word	130285569                       # 0x7c40001
	.word	130547713                       # 0x7c80001
	.word	130809857                       # 0x7cc0001
	.word	131072001                       # 0x7d00001
	.word	131334145                       # 0x7d40001
	.word	131596289                       # 0x7d80001
	.word	131858433                       # 0x7dc0001
.LCPI7_575:
	.word	127926273                       # 0x7a00001
	.word	128188417                       # 0x7a40001
	.word	128450561                       # 0x7a80001
	.word	128712705                       # 0x7ac0001
	.word	128974849                       # 0x7b00001
	.word	129236993                       # 0x7b40001
	.word	129499137                       # 0x7b80001
	.word	129761281                       # 0x7bc0001
.LCPI7_576:
	.word	125829121                       # 0x7800001
	.word	126091265                       # 0x7840001
	.word	126353409                       # 0x7880001
	.word	126615553                       # 0x78c0001
	.word	126877697                       # 0x7900001
	.word	127139841                       # 0x7940001
	.word	127401985                       # 0x7980001
	.word	127664129                       # 0x79c0001
.LCPI7_577:
	.word	138412033                       # 0x8400001
	.word	138936321                       # 0x8480001
	.word	139460609                       # 0x8500001
	.word	139984897                       # 0x8580001
	.word	140509185                       # 0x8600001
	.word	141033473                       # 0x8680001
	.word	141557761                       # 0x8700001
	.word	142082049                       # 0x8780001
.LCPI7_578:
	.word	134217729                       # 0x8000001
	.word	134742017                       # 0x8080001
	.word	135266305                       # 0x8100001
	.word	135790593                       # 0x8180001
	.word	136314881                       # 0x8200001
	.word	136839169                       # 0x8280001
	.word	137363457                       # 0x8300001
	.word	137887745                       # 0x8380001
.LCPI7_579:
	.word	146800641                       # 0x8c00001
	.word	147324929                       # 0x8c80001
	.word	147849217                       # 0x8d00001
	.word	148373505                       # 0x8d80001
	.word	148897793                       # 0x8e00001
	.word	149422081                       # 0x8e80001
	.word	149946369                       # 0x8f00001
	.word	150470657                       # 0x8f80001
.LCPI7_580:
	.word	142606337                       # 0x8800001
	.word	143130625                       # 0x8880001
	.word	143654913                       # 0x8900001
	.word	144179201                       # 0x8980001
	.word	144703489                       # 0x8a00001
	.word	145227777                       # 0x8a80001
	.word	145752065                       # 0x8b00001
	.word	146276353                       # 0x8b80001
.LCPI7_581:
	.word	163577857                       # 0x9c00001
	.word	164102145                       # 0x9c80001
	.word	164626433                       # 0x9d00001
	.word	165150721                       # 0x9d80001
	.word	165675009                       # 0x9e00001
	.word	166199297                       # 0x9e80001
	.word	166723585                       # 0x9f00001
	.word	167247873                       # 0x9f80001
.LCPI7_582:
	.word	159383553                       # 0x9800001
	.word	159907841                       # 0x9880001
	.word	160432129                       # 0x9900001
	.word	160956417                       # 0x9980001
	.word	161480705                       # 0x9a00001
	.word	162004993                       # 0x9a80001
	.word	162529281                       # 0x9b00001
	.word	163053569                       # 0x9b80001
.LCPI7_583:
	.word	155189249                       # 0x9400001
	.word	155713537                       # 0x9480001
	.word	156237825                       # 0x9500001
	.word	156762113                       # 0x9580001
	.word	157286401                       # 0x9600001
	.word	157810689                       # 0x9680001
	.word	158334977                       # 0x9700001
	.word	158859265                       # 0x9780001
.LCPI7_584:
	.word	150994945                       # 0x9000001
	.word	151519233                       # 0x9080001
	.word	152043521                       # 0x9100001
	.word	152567809                       # 0x9180001
	.word	153092097                       # 0x9200001
	.word	153616385                       # 0x9280001
	.word	154140673                       # 0x9300001
	.word	154664961                       # 0x9380001
.LCPI7_585:
	.word	180355073                       # 0xac00001
	.word	180879361                       # 0xac80001
	.word	181403649                       # 0xad00001
