	.file	"early-exit.cpp"
                                        # Start of file scope inline assembly
	.globl	_ZSt21ios_base_library_initv

                                        # End of file scope inline assembly
	.text
	.globl	main                            # -- Begin function main
	.p2align	5
	.type	main,@function
main:                                   # @main
.Lfunc_begin0:
	.cfi_startproc
	.cfi_personality 155, DW.ref.__gxx_personality_v0
	.cfi_lsda 27, .Lexception0
# %bb.0:
	addi.d	$sp, $sp, -2032
	.cfi_def_cfa_offset 2032
	st.d	$ra, $sp, 2024                  # 8-byte Folded Spill
	st.d	$fp, $sp, 2016                  # 8-byte Folded Spill
	st.d	$s0, $sp, 2008                  # 8-byte Folded Spill
	st.d	$s1, $sp, 2000                  # 8-byte Folded Spill
	st.d	$s2, $sp, 1992                  # 8-byte Folded Spill
	st.d	$s3, $sp, 1984                  # 8-byte Folded Spill
	st.d	$s4, $sp, 1976                  # 8-byte Folded Spill
	st.d	$s5, $sp, 1968                  # 8-byte Folded Spill
	st.d	$s6, $sp, 1960                  # 8-byte Folded Spill
	st.d	$s7, $sp, 1952                  # 8-byte Folded Spill
	st.d	$s8, $sp, 1944                  # 8-byte Folded Spill
	.cfi_offset 1, -8
	.cfi_offset 22, -16
	.cfi_offset 23, -24
	.cfi_offset 24, -32
	.cfi_offset 25, -40
	.cfi_offset 26, -48
	.cfi_offset 27, -56
	.cfi_offset 28, -64
	.cfi_offset 29, -72
	.cfi_offset 30, -80
	.cfi_offset 31, -88
	addi.d	$sp, $sp, -448
	.cfi_def_cfa_offset 2480
	vrepli.b	$vr0, 0
	ori	$a0, $zero, 2152
	add.d	$a0, $sp, $a0
	vst	$vr0, $a0, 0
	pcalau12i	$a0, %pc_hi20(_ZNSt17_Function_handlerIFjSt8functionIFvPiEEEZ4mainE3$_0E9_M_invokeERKSt9_Any_dataOS3_)
	addi.d	$a0, $a0, %pc_lo12(_ZNSt17_Function_handlerIFjSt8functionIFvPiEEEZ4mainE3$_0E9_M_invokeERKSt9_Any_dataOS3_)
	ori	$a1, $zero, 2176
	add.d	$a1, $sp, $a1
	st.d	$a0, $a1, 0
	pcalau12i	$a0, %pc_hi20(_ZNSt17_Function_handlerIFjSt8functionIFvPiEEEZ4mainE3$_0E10_M_managerERSt9_Any_dataRKS7_St18_Manager_operation)
	addi.d	$a0, $a0, %pc_lo12(_ZNSt17_Function_handlerIFjSt8functionIFvPiEEEZ4mainE3$_0E10_M_managerERSt9_Any_dataRKS7_St18_Manager_operation)
	ori	$a1, $zero, 2168
	add.d	$a1, $sp, $a1
	st.d	$a0, $a1, 0
	ori	$a0, $zero, 2120
	add.d	$a0, $sp, $a0
	vst	$vr0, $a0, 0
	pcalau12i	$a0, %pc_hi20(_ZNSt17_Function_handlerIFjSt8functionIFvPiEEEZ4mainE3$_1E9_M_invokeERKSt9_Any_dataOS3_)
	addi.d	$a0, $a0, %pc_lo12(_ZNSt17_Function_handlerIFjSt8functionIFvPiEEEZ4mainE3$_1E9_M_invokeERKSt9_Any_dataOS3_)
	ori	$a1, $zero, 2144
	add.d	$a1, $sp, $a1
	st.d	$a0, $a1, 0
	pcalau12i	$a0, %pc_hi20(_ZNSt17_Function_handlerIFjSt8functionIFvPiEEEZ4mainE3$_1E10_M_managerERSt9_Any_dataRKS7_St18_Manager_operation)
	addi.d	$a0, $a0, %pc_lo12(_ZNSt17_Function_handlerIFjSt8functionIFvPiEEEZ4mainE3$_1E10_M_managerERSt9_Any_dataRKS7_St18_Manager_operation)
	ori	$a1, $zero, 2136
	add.d	$a1, $sp, $a1
	st.d	$a0, $a1, 0
	ori	$a0, $zero, 2088
	add.d	$a0, $sp, $a0
	vst	$vr0, $a0, 0
	pcalau12i	$a0, %pc_hi20(_ZNSt17_Function_handlerIFjSt8functionIFvPiEEEZ4mainE3$_2E9_M_invokeERKSt9_Any_dataOS3_)
	addi.d	$a0, $a0, %pc_lo12(_ZNSt17_Function_handlerIFjSt8functionIFvPiEEEZ4mainE3$_2E9_M_invokeERKSt9_Any_dataOS3_)
	ori	$a1, $zero, 2112
	add.d	$a1, $sp, $a1
	st.d	$a0, $a1, 0
	pcalau12i	$a0, %pc_hi20(_ZNSt17_Function_handlerIFjSt8functionIFvPiEEEZ4mainE3$_2E10_M_managerERSt9_Any_dataRKS7_St18_Manager_operation)
	addi.d	$a0, $a0, %pc_lo12(_ZNSt17_Function_handlerIFjSt8functionIFvPiEEEZ4mainE3$_2E10_M_managerERSt9_Any_dataRKS7_St18_Manager_operation)
	ori	$a1, $zero, 2104
	add.d	$a1, $sp, $a1
	st.d	$a0, $a1, 0
	ori	$a0, $zero, 2056
	add.d	$a0, $sp, $a0
	vst	$vr0, $a0, 0
	pcalau12i	$a0, %pc_hi20(_ZNSt17_Function_handlerIFjSt8functionIFvPiEEEZ4mainE3$_3E9_M_invokeERKSt9_Any_dataOS3_)
	addi.d	$a0, $a0, %pc_lo12(_ZNSt17_Function_handlerIFjSt8functionIFvPiEEEZ4mainE3$_3E9_M_invokeERKSt9_Any_dataOS3_)
	ori	$a1, $zero, 2080
	add.d	$a1, $sp, $a1
	st.d	$a0, $a1, 0
	pcalau12i	$a0, %pc_hi20(_ZNSt17_Function_handlerIFjSt8functionIFvPiEEEZ4mainE3$_3E10_M_managerERSt9_Any_dataRKS7_St18_Manager_operation)
	addi.d	$a0, $a0, %pc_lo12(_ZNSt17_Function_handlerIFjSt8functionIFvPiEEEZ4mainE3$_3E10_M_managerERSt9_Any_dataRKS7_St18_Manager_operation)
	ori	$a1, $zero, 2072
	add.d	$a1, $sp, $a1
	st.d	$a0, $a1, 0
	vst	$vr0, $sp, 80                   # 16-byte Folded Spill
	vst	$vr0, $sp, 2024
	pcalau12i	$a0, %pc_hi20(_ZNSt17_Function_handlerIFjSt8functionIFvPiEEEZ4mainE3$_4E9_M_invokeERKSt9_Any_dataOS3_)
	addi.d	$a0, $a0, %pc_lo12(_ZNSt17_Function_handlerIFjSt8functionIFvPiEEEZ4mainE3$_4E9_M_invokeERKSt9_Any_dataOS3_)
	ori	$a1, $zero, 2048
	add.d	$a1, $sp, $a1
	st.d	$a0, $a1, 0
	pcalau12i	$a0, %pc_hi20(_ZNSt17_Function_handlerIFjSt8functionIFvPiEEEZ4mainE3$_4E10_M_managerERSt9_Any_dataRKS7_St18_Manager_operation)
	addi.d	$a0, $a0, %pc_lo12(_ZNSt17_Function_handlerIFjSt8functionIFvPiEEEZ4mainE3$_4E10_M_managerERSt9_Any_dataRKS7_St18_Manager_operation)
	st.d	$a0, $sp, 2040
.Ltmp0:                                 # EH_LABEL
	pcalau12i	$a0, %pc_hi20(.L.str)
	addi.d	$a5, $a0, %pc_lo12(.L.str)
	ori	$a0, $zero, 2152
	add.d	$a0, $sp, $a0
	ori	$a1, $zero, 2120
	add.d	$a1, $sp, $a1
	ori	$a2, $zero, 2088
	add.d	$a2, $sp, $a2
	ori	$a3, $zero, 2056
	add.d	$a3, $sp, $a3
	addi.d	$a4, $sp, 2024
	pcaddu18i	$ra, %call36(_ZL19checkVectorFunctionIiEvSt8functionIFjS0_IFvPT_EEEES6_S6_S6_S6_PKc)
	jirl	$ra, $ra, 0
.Ltmp1:                                 # EH_LABEL
# %bb.1:
	ld.d	$a3, $sp, 2040
	beqz	$a3, .LBB0_3
# %bb.2:
.Ltmp18:                                # EH_LABEL
	addi.d	$a0, $sp, 2024
	addi.d	$a1, $sp, 2024
	ori	$a2, $zero, 3
	jirl	$ra, $a3, 0
.Ltmp19:                                # EH_LABEL
.LBB0_3:                                # %_ZNSt14_Function_baseD2Ev.exit
	ori	$a0, $zero, 2072
	add.d	$a0, $sp, $a0
	ld.d	$a3, $a0, 0
	beqz	$a3, .LBB0_5
# %bb.4:
.Ltmp21:                                # EH_LABEL
	ori	$a0, $zero, 2056
	add.d	$a0, $sp, $a0
	ori	$a1, $zero, 2056
	add.d	$a1, $sp, $a1
	ori	$a2, $zero, 3
	jirl	$ra, $a3, 0
.Ltmp22:                                # EH_LABEL
.LBB0_5:                                # %_ZNSt14_Function_baseD2Ev.exit4
	ori	$a0, $zero, 2104
	add.d	$a0, $sp, $a0
	ld.d	$a3, $a0, 0
	beqz	$a3, .LBB0_7
# %bb.6:
.Ltmp24:                                # EH_LABEL
	ori	$a0, $zero, 2088
	add.d	$a0, $sp, $a0
	ori	$a1, $zero, 2088
	add.d	$a1, $sp, $a1
	ori	$a2, $zero, 3
	jirl	$ra, $a3, 0
.Ltmp25:                                # EH_LABEL
.LBB0_7:                                # %_ZNSt14_Function_baseD2Ev.exit6
	ori	$a0, $zero, 2136
	add.d	$a0, $sp, $a0
	ld.d	$a3, $a0, 0
	beqz	$a3, .LBB0_9
# %bb.8:
.Ltmp27:                                # EH_LABEL
	ori	$a0, $zero, 2120
	add.d	$a0, $sp, $a0
	ori	$a1, $zero, 2120
	add.d	$a1, $sp, $a1
	ori	$a2, $zero, 3
	jirl	$ra, $a3, 0
.Ltmp28:                                # EH_LABEL
.LBB0_9:                                # %_ZNSt14_Function_baseD2Ev.exit8
	ori	$a0, $zero, 2168
	add.d	$a0, $sp, $a0
	ld.d	$a3, $a0, 0
	beqz	$a3, .LBB0_11
# %bb.10:
.Ltmp30:                                # EH_LABEL
	ori	$a0, $zero, 2152
	add.d	$a0, $sp, $a0
	ori	$a1, $zero, 2152
	add.d	$a1, $sp, $a1
	ori	$a2, $zero, 3
	jirl	$ra, $a3, 0
.Ltmp31:                                # EH_LABEL
.LBB0_11:                               # %_ZNSt14_Function_baseD2Ev.exit10
	vld	$vr0, $sp, 80                   # 16-byte Folded Reload
	vst	$vr0, $sp, 1992
	pcalau12i	$a0, %pc_hi20(_ZNSt17_Function_handlerIFjSt8functionIFvPiEEEZ4mainE3$_5E9_M_invokeERKSt9_Any_dataOS3_)
	addi.d	$a0, $a0, %pc_lo12(_ZNSt17_Function_handlerIFjSt8functionIFvPiEEEZ4mainE3$_5E9_M_invokeERKSt9_Any_dataOS3_)
	st.d	$a0, $sp, 2016
	pcalau12i	$a0, %pc_hi20(_ZNSt17_Function_handlerIFjSt8functionIFvPiEEEZ4mainE3$_5E10_M_managerERSt9_Any_dataRKS7_St18_Manager_operation)
	addi.d	$a0, $a0, %pc_lo12(_ZNSt17_Function_handlerIFjSt8functionIFvPiEEEZ4mainE3$_5E10_M_managerERSt9_Any_dataRKS7_St18_Manager_operation)
	st.d	$a0, $sp, 2008
	vst	$vr0, $sp, 1960
	pcalau12i	$a0, %pc_hi20(_ZNSt17_Function_handlerIFjSt8functionIFvPiEEEZ4mainE3$_6E9_M_invokeERKSt9_Any_dataOS3_)
	addi.d	$a0, $a0, %pc_lo12(_ZNSt17_Function_handlerIFjSt8functionIFvPiEEEZ4mainE3$_6E9_M_invokeERKSt9_Any_dataOS3_)
	st.d	$a0, $sp, 1984
	pcalau12i	$a0, %pc_hi20(_ZNSt17_Function_handlerIFjSt8functionIFvPiEEEZ4mainE3$_6E10_M_managerERSt9_Any_dataRKS7_St18_Manager_operation)
	addi.d	$a0, $a0, %pc_lo12(_ZNSt17_Function_handlerIFjSt8functionIFvPiEEEZ4mainE3$_6E10_M_managerERSt9_Any_dataRKS7_St18_Manager_operation)
	st.d	$a0, $sp, 1976
	vst	$vr0, $sp, 1928
	pcalau12i	$a0, %pc_hi20(_ZNSt17_Function_handlerIFjSt8functionIFvPiEEEZ4mainE3$_7E9_M_invokeERKSt9_Any_dataOS3_)
	addi.d	$a0, $a0, %pc_lo12(_ZNSt17_Function_handlerIFjSt8functionIFvPiEEEZ4mainE3$_7E9_M_invokeERKSt9_Any_dataOS3_)
	st.d	$a0, $sp, 1952
	pcalau12i	$a0, %pc_hi20(_ZNSt17_Function_handlerIFjSt8functionIFvPiEEEZ4mainE3$_7E10_M_managerERSt9_Any_dataRKS7_St18_Manager_operation)
	addi.d	$a0, $a0, %pc_lo12(_ZNSt17_Function_handlerIFjSt8functionIFvPiEEEZ4mainE3$_7E10_M_managerERSt9_Any_dataRKS7_St18_Manager_operation)
	st.d	$a0, $sp, 1944
	vst	$vr0, $sp, 1896
	pcalau12i	$a0, %pc_hi20(_ZNSt17_Function_handlerIFjSt8functionIFvPiEEEZ4mainE3$_8E9_M_invokeERKSt9_Any_dataOS3_)
	addi.d	$a0, $a0, %pc_lo12(_ZNSt17_Function_handlerIFjSt8functionIFvPiEEEZ4mainE3$_8E9_M_invokeERKSt9_Any_dataOS3_)
	st.d	$a0, $sp, 1920
	pcalau12i	$a0, %pc_hi20(_ZNSt17_Function_handlerIFjSt8functionIFvPiEEEZ4mainE3$_8E10_M_managerERSt9_Any_dataRKS7_St18_Manager_operation)
	addi.d	$a0, $a0, %pc_lo12(_ZNSt17_Function_handlerIFjSt8functionIFvPiEEEZ4mainE3$_8E10_M_managerERSt9_Any_dataRKS7_St18_Manager_operation)
	st.d	$a0, $sp, 1912
	vst	$vr0, $sp, 1864
	pcalau12i	$a0, %pc_hi20(_ZNSt17_Function_handlerIFjSt8functionIFvPiEEEZ4mainE3$_9E9_M_invokeERKSt9_Any_dataOS3_)
	addi.d	$a0, $a0, %pc_lo12(_ZNSt17_Function_handlerIFjSt8functionIFvPiEEEZ4mainE3$_9E9_M_invokeERKSt9_Any_dataOS3_)
	st.d	$a0, $sp, 1888
	pcalau12i	$a0, %pc_hi20(_ZNSt17_Function_handlerIFjSt8functionIFvPiEEEZ4mainE3$_9E10_M_managerERSt9_Any_dataRKS7_St18_Manager_operation)
	addi.d	$a0, $a0, %pc_lo12(_ZNSt17_Function_handlerIFjSt8functionIFvPiEEEZ4mainE3$_9E10_M_managerERSt9_Any_dataRKS7_St18_Manager_operation)
	st.d	$a0, $sp, 1880
.Ltmp33:                                # EH_LABEL
	pcalau12i	$a0, %pc_hi20(.L.str.1)
	addi.d	$a5, $a0, %pc_lo12(.L.str.1)
	addi.d	$a0, $sp, 1992
	addi.d	$a1, $sp, 1960
	addi.d	$a2, $sp, 1928
	addi.d	$a3, $sp, 1896
	addi.d	$a4, $sp, 1864
	pcaddu18i	$ra, %call36(_ZL19checkVectorFunctionIiEvSt8functionIFjS0_IFvPT_EEEES6_S6_S6_S6_PKc)
	jirl	$ra, $ra, 0
.Ltmp34:                                # EH_LABEL
# %bb.12:
	ld.d	$a3, $sp, 1880
	beqz	$a3, .LBB0_14
# %bb.13:
.Ltmp51:                                # EH_LABEL
	addi.d	$a0, $sp, 1864
	addi.d	$a1, $sp, 1864
	ori	$a2, $zero, 3
	jirl	$ra, $a3, 0
.Ltmp52:                                # EH_LABEL
.LBB0_14:                               # %_ZNSt14_Function_baseD2Ev.exit12
	ld.d	$a3, $sp, 1912
	beqz	$a3, .LBB0_16
# %bb.15:
.Ltmp54:                                # EH_LABEL
	addi.d	$a0, $sp, 1896
	addi.d	$a1, $sp, 1896
	ori	$a2, $zero, 3
	jirl	$ra, $a3, 0
.Ltmp55:                                # EH_LABEL
.LBB0_16:                               # %_ZNSt14_Function_baseD2Ev.exit14
	ld.d	$a3, $sp, 1944
	beqz	$a3, .LBB0_18
# %bb.17:
.Ltmp57:                                # EH_LABEL
	addi.d	$a0, $sp, 1928
	addi.d	$a1, $sp, 1928
	ori	$a2, $zero, 3
	jirl	$ra, $a3, 0
.Ltmp58:                                # EH_LABEL
.LBB0_18:                               # %_ZNSt14_Function_baseD2Ev.exit16
	ld.d	$a3, $sp, 1976
	beqz	$a3, .LBB0_20
# %bb.19:
.Ltmp60:                                # EH_LABEL
	addi.d	$a0, $sp, 1960
	addi.d	$a1, $sp, 1960
	ori	$a2, $zero, 3
	jirl	$ra, $a3, 0
.Ltmp61:                                # EH_LABEL
.LBB0_20:                               # %_ZNSt14_Function_baseD2Ev.exit18
	ld.d	$a3, $sp, 2008
	beqz	$a3, .LBB0_22
# %bb.21:
.Ltmp63:                                # EH_LABEL
	addi.d	$a0, $sp, 1992
	addi.d	$a1, $sp, 1992
	ori	$a2, $zero, 3
	jirl	$ra, $a3, 0
.Ltmp64:                                # EH_LABEL
.LBB0_22:                               # %_ZNSt14_Function_baseD2Ev.exit20
	vld	$vr0, $sp, 80                   # 16-byte Folded Reload
	vst	$vr0, $sp, 1832
	pcalau12i	$a0, %pc_hi20(_ZNSt17_Function_handlerIFjSt8functionIFvPiS1_S1_EEEZ4mainE4$_10E9_M_invokeERKSt9_Any_dataOS3_)
	addi.d	$a0, $a0, %pc_lo12(_ZNSt17_Function_handlerIFjSt8functionIFvPiS1_S1_EEEZ4mainE4$_10E9_M_invokeERKSt9_Any_dataOS3_)
	st.d	$a0, $sp, 1856
	pcalau12i	$a0, %pc_hi20(_ZNSt17_Function_handlerIFjSt8functionIFvPiS1_S1_EEEZ4mainE4$_10E10_M_managerERSt9_Any_dataRKS7_St18_Manager_operation)
	addi.d	$a0, $a0, %pc_lo12(_ZNSt17_Function_handlerIFjSt8functionIFvPiS1_S1_EEEZ4mainE4$_10E10_M_managerERSt9_Any_dataRKS7_St18_Manager_operation)
	st.d	$a0, $sp, 1848
	vst	$vr0, $sp, 1800
	pcalau12i	$a0, %pc_hi20(_ZNSt17_Function_handlerIFjSt8functionIFvPiS1_S1_EEEZ4mainE4$_11E9_M_invokeERKSt9_Any_dataOS3_)
	addi.d	$a0, $a0, %pc_lo12(_ZNSt17_Function_handlerIFjSt8functionIFvPiS1_S1_EEEZ4mainE4$_11E9_M_invokeERKSt9_Any_dataOS3_)
	st.d	$a0, $sp, 1824
	pcalau12i	$a0, %pc_hi20(_ZNSt17_Function_handlerIFjSt8functionIFvPiS1_S1_EEEZ4mainE4$_11E10_M_managerERSt9_Any_dataRKS7_St18_Manager_operation)
	addi.d	$a0, $a0, %pc_lo12(_ZNSt17_Function_handlerIFjSt8functionIFvPiS1_S1_EEEZ4mainE4$_11E10_M_managerERSt9_Any_dataRKS7_St18_Manager_operation)
	st.d	$a0, $sp, 1816
	vst	$vr0, $sp, 1768
	pcalau12i	$a0, %pc_hi20(_ZNSt17_Function_handlerIFjSt8functionIFvPiS1_S1_EEEZ4mainE4$_12E9_M_invokeERKSt9_Any_dataOS3_)
	addi.d	$a0, $a0, %pc_lo12(_ZNSt17_Function_handlerIFjSt8functionIFvPiS1_S1_EEEZ4mainE4$_12E9_M_invokeERKSt9_Any_dataOS3_)
	st.d	$a0, $sp, 1792
	pcalau12i	$a0, %pc_hi20(_ZNSt17_Function_handlerIFjSt8functionIFvPiS1_S1_EEEZ4mainE4$_12E10_M_managerERSt9_Any_dataRKS7_St18_Manager_operation)
	addi.d	$a0, $a0, %pc_lo12(_ZNSt17_Function_handlerIFjSt8functionIFvPiS1_S1_EEEZ4mainE4$_12E10_M_managerERSt9_Any_dataRKS7_St18_Manager_operation)
	st.d	$a0, $sp, 1784
	vst	$vr0, $sp, 1736
	pcalau12i	$a0, %pc_hi20(_ZNSt17_Function_handlerIFjSt8functionIFvPiS1_S1_EEEZ4mainE4$_13E9_M_invokeERKSt9_Any_dataOS3_)
	addi.d	$a0, $a0, %pc_lo12(_ZNSt17_Function_handlerIFjSt8functionIFvPiS1_S1_EEEZ4mainE4$_13E9_M_invokeERKSt9_Any_dataOS3_)
	st.d	$a0, $sp, 1760
	pcalau12i	$a0, %pc_hi20(_ZNSt17_Function_handlerIFjSt8functionIFvPiS1_S1_EEEZ4mainE4$_13E10_M_managerERSt9_Any_dataRKS7_St18_Manager_operation)
	addi.d	$a0, $a0, %pc_lo12(_ZNSt17_Function_handlerIFjSt8functionIFvPiS1_S1_EEEZ4mainE4$_13E10_M_managerERSt9_Any_dataRKS7_St18_Manager_operation)
	st.d	$a0, $sp, 1752
	vst	$vr0, $sp, 1704
	pcalau12i	$a0, %pc_hi20(_ZNSt17_Function_handlerIFjSt8functionIFvPiS1_S1_EEEZ4mainE4$_14E9_M_invokeERKSt9_Any_dataOS3_)
	addi.d	$a0, $a0, %pc_lo12(_ZNSt17_Function_handlerIFjSt8functionIFvPiS1_S1_EEEZ4mainE4$_14E9_M_invokeERKSt9_Any_dataOS3_)
	st.d	$a0, $sp, 1728
	pcalau12i	$a0, %pc_hi20(_ZNSt17_Function_handlerIFjSt8functionIFvPiS1_S1_EEEZ4mainE4$_14E10_M_managerERSt9_Any_dataRKS7_St18_Manager_operation)
	addi.d	$a0, $a0, %pc_lo12(_ZNSt17_Function_handlerIFjSt8functionIFvPiS1_S1_EEEZ4mainE4$_14E10_M_managerERSt9_Any_dataRKS7_St18_Manager_operation)
	st.d	$a0, $sp, 1720
.Ltmp66:                                # EH_LABEL
	pcalau12i	$a0, %pc_hi20(.L.str.2)
	addi.d	$a5, $a0, %pc_lo12(.L.str.2)
	addi.d	$a0, $sp, 1832
	addi.d	$a1, $sp, 1800
	addi.d	$a2, $sp, 1768
	addi.d	$a3, $sp, 1736
	addi.d	$a4, $sp, 1704
	pcaddu18i	$ra, %call36(_ZL24checkVectorFunctionMultiIiLj2ELj512ELj3ELj3ELj513EEvSt8functionIFjS0_IFvPT_S2_S2_EEEES6_S6_S6_S6_PKc)
	jirl	$ra, $ra, 0
.Ltmp67:                                # EH_LABEL
# %bb.23:
	ld.d	$a3, $sp, 1720
	beqz	$a3, .LBB0_25
# %bb.24:
.Ltmp84:                                # EH_LABEL
	addi.d	$a0, $sp, 1704
	addi.d	$a1, $sp, 1704
	ori	$a2, $zero, 3
	jirl	$ra, $a3, 0
.Ltmp85:                                # EH_LABEL
.LBB0_25:                               # %_ZNSt14_Function_baseD2Ev.exit22
	ld.d	$a3, $sp, 1752
	beqz	$a3, .LBB0_27
# %bb.26:
.Ltmp87:                                # EH_LABEL
	addi.d	$a0, $sp, 1736
	addi.d	$a1, $sp, 1736
	ori	$a2, $zero, 3
	jirl	$ra, $a3, 0
.Ltmp88:                                # EH_LABEL
.LBB0_27:                               # %_ZNSt14_Function_baseD2Ev.exit24
	ld.d	$a3, $sp, 1784
	beqz	$a3, .LBB0_29
# %bb.28:
.Ltmp90:                                # EH_LABEL
	addi.d	$a0, $sp, 1768
	addi.d	$a1, $sp, 1768
	ori	$a2, $zero, 3
	jirl	$ra, $a3, 0
.Ltmp91:                                # EH_LABEL
.LBB0_29:                               # %_ZNSt14_Function_baseD2Ev.exit26
	ld.d	$a3, $sp, 1816
	beqz	$a3, .LBB0_31
# %bb.30:
.Ltmp93:                                # EH_LABEL
	addi.d	$a0, $sp, 1800
	addi.d	$a1, $sp, 1800
	ori	$a2, $zero, 3
	jirl	$ra, $a3, 0
.Ltmp94:                                # EH_LABEL
.LBB0_31:                               # %_ZNSt14_Function_baseD2Ev.exit28
	ld.d	$a3, $sp, 1848
	beqz	$a3, .LBB0_33
# %bb.32:
.Ltmp96:                                # EH_LABEL
	addi.d	$a0, $sp, 1832
	addi.d	$a1, $sp, 1832
	ori	$a2, $zero, 3
	jirl	$ra, $a3, 0
.Ltmp97:                                # EH_LABEL
.LBB0_33:                               # %_ZNSt14_Function_baseD2Ev.exit30
	vld	$vr0, $sp, 80                   # 16-byte Folded Reload
	vst	$vr0, $sp, 1672
	pcalau12i	$a0, %pc_hi20(_ZNSt17_Function_handlerIFjSt8functionIFvPiS1_S1_EEEZ4mainE4$_15E9_M_invokeERKSt9_Any_dataOS3_)
	addi.d	$a0, $a0, %pc_lo12(_ZNSt17_Function_handlerIFjSt8functionIFvPiS1_S1_EEEZ4mainE4$_15E9_M_invokeERKSt9_Any_dataOS3_)
	st.d	$a0, $sp, 1696
	pcalau12i	$a0, %pc_hi20(_ZNSt17_Function_handlerIFjSt8functionIFvPiS1_S1_EEEZ4mainE4$_15E10_M_managerERSt9_Any_dataRKS7_St18_Manager_operation)
	addi.d	$a0, $a0, %pc_lo12(_ZNSt17_Function_handlerIFjSt8functionIFvPiS1_S1_EEEZ4mainE4$_15E10_M_managerERSt9_Any_dataRKS7_St18_Manager_operation)
	st.d	$a0, $sp, 1688
	vst	$vr0, $sp, 1640
	pcalau12i	$a0, %pc_hi20(_ZNSt17_Function_handlerIFjSt8functionIFvPiS1_S1_EEEZ4mainE4$_16E9_M_invokeERKSt9_Any_dataOS3_)
	addi.d	$a0, $a0, %pc_lo12(_ZNSt17_Function_handlerIFjSt8functionIFvPiS1_S1_EEEZ4mainE4$_16E9_M_invokeERKSt9_Any_dataOS3_)
	st.d	$a0, $sp, 1664
	pcalau12i	$a0, %pc_hi20(_ZNSt17_Function_handlerIFjSt8functionIFvPiS1_S1_EEEZ4mainE4$_16E10_M_managerERSt9_Any_dataRKS7_St18_Manager_operation)
	addi.d	$a0, $a0, %pc_lo12(_ZNSt17_Function_handlerIFjSt8functionIFvPiS1_S1_EEEZ4mainE4$_16E10_M_managerERSt9_Any_dataRKS7_St18_Manager_operation)
	st.d	$a0, $sp, 1656
	vst	$vr0, $sp, 1608
	pcalau12i	$a0, %pc_hi20(_ZNSt17_Function_handlerIFjSt8functionIFvPiS1_S1_EEEZ4mainE4$_17E9_M_invokeERKSt9_Any_dataOS3_)
	addi.d	$a0, $a0, %pc_lo12(_ZNSt17_Function_handlerIFjSt8functionIFvPiS1_S1_EEEZ4mainE4$_17E9_M_invokeERKSt9_Any_dataOS3_)
	st.d	$a0, $sp, 1632
	pcalau12i	$a0, %pc_hi20(_ZNSt17_Function_handlerIFjSt8functionIFvPiS1_S1_EEEZ4mainE4$_17E10_M_managerERSt9_Any_dataRKS7_St18_Manager_operation)
	addi.d	$a0, $a0, %pc_lo12(_ZNSt17_Function_handlerIFjSt8functionIFvPiS1_S1_EEEZ4mainE4$_17E10_M_managerERSt9_Any_dataRKS7_St18_Manager_operation)
	st.d	$a0, $sp, 1624
	vst	$vr0, $sp, 1576
	pcalau12i	$a0, %pc_hi20(_ZNSt17_Function_handlerIFjSt8functionIFvPiS1_S1_EEEZ4mainE4$_18E9_M_invokeERKSt9_Any_dataOS3_)
	addi.d	$a0, $a0, %pc_lo12(_ZNSt17_Function_handlerIFjSt8functionIFvPiS1_S1_EEEZ4mainE4$_18E9_M_invokeERKSt9_Any_dataOS3_)
	st.d	$a0, $sp, 1600
	pcalau12i	$a0, %pc_hi20(_ZNSt17_Function_handlerIFjSt8functionIFvPiS1_S1_EEEZ4mainE4$_18E10_M_managerERSt9_Any_dataRKS7_St18_Manager_operation)
	addi.d	$a0, $a0, %pc_lo12(_ZNSt17_Function_handlerIFjSt8functionIFvPiS1_S1_EEEZ4mainE4$_18E10_M_managerERSt9_Any_dataRKS7_St18_Manager_operation)
	st.d	$a0, $sp, 1592
	vst	$vr0, $sp, 1544
	pcalau12i	$a0, %pc_hi20(_ZNSt17_Function_handlerIFjSt8functionIFvPiS1_S1_EEEZ4mainE4$_19E9_M_invokeERKSt9_Any_dataOS3_)
	addi.d	$a0, $a0, %pc_lo12(_ZNSt17_Function_handlerIFjSt8functionIFvPiS1_S1_EEEZ4mainE4$_19E9_M_invokeERKSt9_Any_dataOS3_)
	st.d	$a0, $sp, 1568
	pcalau12i	$a0, %pc_hi20(_ZNSt17_Function_handlerIFjSt8functionIFvPiS1_S1_EEEZ4mainE4$_19E10_M_managerERSt9_Any_dataRKS7_St18_Manager_operation)
	addi.d	$a0, $a0, %pc_lo12(_ZNSt17_Function_handlerIFjSt8functionIFvPiS1_S1_EEEZ4mainE4$_19E10_M_managerERSt9_Any_dataRKS7_St18_Manager_operation)
	st.d	$a0, $sp, 1560
.Ltmp99:                                # EH_LABEL
	pcalau12i	$a0, %pc_hi20(.L.str.3)
	addi.d	$a5, $a0, %pc_lo12(.L.str.3)
	addi.d	$a0, $sp, 1672
	addi.d	$a1, $sp, 1640
	addi.d	$a2, $sp, 1608
	addi.d	$a3, $sp, 1576
	addi.d	$a4, $sp, 1544
	pcaddu18i	$ra, %call36(_ZL24checkVectorFunctionMultiIiLj2ELj512ELj3ELj3ELj513EEvSt8functionIFjS0_IFvPT_S2_S2_EEEES6_S6_S6_S6_PKc)
	jirl	$ra, $ra, 0
.Ltmp100:                               # EH_LABEL
# %bb.34:
	ld.d	$a3, $sp, 1560
	beqz	$a3, .LBB0_36
# %bb.35:
.Ltmp117:                               # EH_LABEL
	addi.d	$a0, $sp, 1544
	addi.d	$a1, $sp, 1544
	ori	$a2, $zero, 3
	jirl	$ra, $a3, 0
.Ltmp118:                               # EH_LABEL
.LBB0_36:                               # %_ZNSt14_Function_baseD2Ev.exit32
	ld.d	$a3, $sp, 1592
	beqz	$a3, .LBB0_38
# %bb.37:
.Ltmp120:                               # EH_LABEL
	addi.d	$a0, $sp, 1576
	addi.d	$a1, $sp, 1576
	ori	$a2, $zero, 3
	jirl	$ra, $a3, 0
.Ltmp121:                               # EH_LABEL
.LBB0_38:                               # %_ZNSt14_Function_baseD2Ev.exit34
	ld.d	$a3, $sp, 1624
	beqz	$a3, .LBB0_40
# %bb.39:
.Ltmp123:                               # EH_LABEL
	addi.d	$a0, $sp, 1608
	addi.d	$a1, $sp, 1608
	ori	$a2, $zero, 3
	jirl	$ra, $a3, 0
.Ltmp124:                               # EH_LABEL
.LBB0_40:                               # %_ZNSt14_Function_baseD2Ev.exit36
	ld.d	$a3, $sp, 1656
	beqz	$a3, .LBB0_42
# %bb.41:
.Ltmp126:                               # EH_LABEL
	addi.d	$a0, $sp, 1640
	addi.d	$a1, $sp, 1640
	ori	$a2, $zero, 3
	jirl	$ra, $a3, 0
.Ltmp127:                               # EH_LABEL
.LBB0_42:                               # %_ZNSt14_Function_baseD2Ev.exit38
	ld.d	$a3, $sp, 1688
	beqz	$a3, .LBB0_44
# %bb.43:
.Ltmp129:                               # EH_LABEL
	addi.d	$a0, $sp, 1672
	addi.d	$a1, $sp, 1672
	ori	$a2, $zero, 3
	jirl	$ra, $a3, 0
.Ltmp130:                               # EH_LABEL
.LBB0_44:                               # %_ZNSt14_Function_baseD2Ev.exit40
	vld	$vr0, $sp, 80                   # 16-byte Folded Reload
	vst	$vr0, $sp, 1512
	pcalau12i	$a0, %pc_hi20(_ZNSt17_Function_handlerIFjSt8functionIFvPiS1_S1_EEEZ4mainE4$_20E9_M_invokeERKSt9_Any_dataOS3_)
	addi.d	$a0, $a0, %pc_lo12(_ZNSt17_Function_handlerIFjSt8functionIFvPiS1_S1_EEEZ4mainE4$_20E9_M_invokeERKSt9_Any_dataOS3_)
	st.d	$a0, $sp, 1536
	pcalau12i	$a0, %pc_hi20(_ZNSt17_Function_handlerIFjSt8functionIFvPiS1_S1_EEEZ4mainE4$_20E10_M_managerERSt9_Any_dataRKS7_St18_Manager_operation)
	addi.d	$a0, $a0, %pc_lo12(_ZNSt17_Function_handlerIFjSt8functionIFvPiS1_S1_EEEZ4mainE4$_20E10_M_managerERSt9_Any_dataRKS7_St18_Manager_operation)
	st.d	$a0, $sp, 1528
	vst	$vr0, $sp, 1480
	pcalau12i	$a0, %pc_hi20(_ZNSt17_Function_handlerIFjSt8functionIFvPiS1_S1_EEEZ4mainE4$_21E9_M_invokeERKSt9_Any_dataOS3_)
	addi.d	$a0, $a0, %pc_lo12(_ZNSt17_Function_handlerIFjSt8functionIFvPiS1_S1_EEEZ4mainE4$_21E9_M_invokeERKSt9_Any_dataOS3_)
	st.d	$a0, $sp, 1504
	pcalau12i	$a0, %pc_hi20(_ZNSt17_Function_handlerIFjSt8functionIFvPiS1_S1_EEEZ4mainE4$_21E10_M_managerERSt9_Any_dataRKS7_St18_Manager_operation)
	addi.d	$a0, $a0, %pc_lo12(_ZNSt17_Function_handlerIFjSt8functionIFvPiS1_S1_EEEZ4mainE4$_21E10_M_managerERSt9_Any_dataRKS7_St18_Manager_operation)
	st.d	$a0, $sp, 1496
	vst	$vr0, $sp, 1448
	pcalau12i	$a0, %pc_hi20(_ZNSt17_Function_handlerIFjSt8functionIFvPiS1_S1_EEEZ4mainE4$_22E9_M_invokeERKSt9_Any_dataOS3_)
	addi.d	$a0, $a0, %pc_lo12(_ZNSt17_Function_handlerIFjSt8functionIFvPiS1_S1_EEEZ4mainE4$_22E9_M_invokeERKSt9_Any_dataOS3_)
	st.d	$a0, $sp, 1472
	pcalau12i	$a0, %pc_hi20(_ZNSt17_Function_handlerIFjSt8functionIFvPiS1_S1_EEEZ4mainE4$_22E10_M_managerERSt9_Any_dataRKS7_St18_Manager_operation)
	addi.d	$a0, $a0, %pc_lo12(_ZNSt17_Function_handlerIFjSt8functionIFvPiS1_S1_EEEZ4mainE4$_22E10_M_managerERSt9_Any_dataRKS7_St18_Manager_operation)
	st.d	$a0, $sp, 1464
	vst	$vr0, $sp, 1416
	pcalau12i	$a0, %pc_hi20(_ZNSt17_Function_handlerIFjSt8functionIFvPiS1_S1_EEEZ4mainE4$_23E9_M_invokeERKSt9_Any_dataOS3_)
	addi.d	$a0, $a0, %pc_lo12(_ZNSt17_Function_handlerIFjSt8functionIFvPiS1_S1_EEEZ4mainE4$_23E9_M_invokeERKSt9_Any_dataOS3_)
	st.d	$a0, $sp, 1440
	pcalau12i	$a0, %pc_hi20(_ZNSt17_Function_handlerIFjSt8functionIFvPiS1_S1_EEEZ4mainE4$_23E10_M_managerERSt9_Any_dataRKS7_St18_Manager_operation)
	addi.d	$a0, $a0, %pc_lo12(_ZNSt17_Function_handlerIFjSt8functionIFvPiS1_S1_EEEZ4mainE4$_23E10_M_managerERSt9_Any_dataRKS7_St18_Manager_operation)
	st.d	$a0, $sp, 1432
	vst	$vr0, $sp, 1384
	pcalau12i	$a0, %pc_hi20(_ZNSt17_Function_handlerIFjSt8functionIFvPiS1_S1_EEEZ4mainE4$_24E9_M_invokeERKSt9_Any_dataOS3_)
	addi.d	$a0, $a0, %pc_lo12(_ZNSt17_Function_handlerIFjSt8functionIFvPiS1_S1_EEEZ4mainE4$_24E9_M_invokeERKSt9_Any_dataOS3_)
	st.d	$a0, $sp, 1408
	pcalau12i	$a0, %pc_hi20(_ZNSt17_Function_handlerIFjSt8functionIFvPiS1_S1_EEEZ4mainE4$_24E10_M_managerERSt9_Any_dataRKS7_St18_Manager_operation)
	addi.d	$a0, $a0, %pc_lo12(_ZNSt17_Function_handlerIFjSt8functionIFvPiS1_S1_EEEZ4mainE4$_24E10_M_managerERSt9_Any_dataRKS7_St18_Manager_operation)
	st.d	$a0, $sp, 1400
.Ltmp132:                               # EH_LABEL
	pcalau12i	$a0, %pc_hi20(.L.str.4)
	addi.d	$a5, $a0, %pc_lo12(.L.str.4)
	addi.d	$a0, $sp, 1512
	addi.d	$a1, $sp, 1480
	addi.d	$a2, $sp, 1448
	addi.d	$a3, $sp, 1416
	addi.d	$a4, $sp, 1384
	pcaddu18i	$ra, %call36(_ZL24checkVectorFunctionMultiIiLj2ELj512ELj3ELj3ELj513EEvSt8functionIFjS0_IFvPT_S2_S2_EEEES6_S6_S6_S6_PKc)
	jirl	$ra, $ra, 0
.Ltmp133:                               # EH_LABEL
# %bb.45:
	ld.d	$a3, $sp, 1400
	beqz	$a3, .LBB0_47
# %bb.46:
.Ltmp150:                               # EH_LABEL
	addi.d	$a0, $sp, 1384
	addi.d	$a1, $sp, 1384
	ori	$a2, $zero, 3
	jirl	$ra, $a3, 0
.Ltmp151:                               # EH_LABEL
.LBB0_47:                               # %_ZNSt14_Function_baseD2Ev.exit42
	ld.d	$a3, $sp, 1432
	beqz	$a3, .LBB0_49
# %bb.48:
.Ltmp153:                               # EH_LABEL
	addi.d	$a0, $sp, 1416
	addi.d	$a1, $sp, 1416
	ori	$a2, $zero, 3
	jirl	$ra, $a3, 0
.Ltmp154:                               # EH_LABEL
.LBB0_49:                               # %_ZNSt14_Function_baseD2Ev.exit44
	ld.d	$a3, $sp, 1464
	beqz	$a3, .LBB0_51
# %bb.50:
.Ltmp156:                               # EH_LABEL
	addi.d	$a0, $sp, 1448
	addi.d	$a1, $sp, 1448
	ori	$a2, $zero, 3
	jirl	$ra, $a3, 0
.Ltmp157:                               # EH_LABEL
.LBB0_51:                               # %_ZNSt14_Function_baseD2Ev.exit46
	ld.d	$a3, $sp, 1496
	beqz	$a3, .LBB0_53
# %bb.52:
.Ltmp159:                               # EH_LABEL
	addi.d	$a0, $sp, 1480
	addi.d	$a1, $sp, 1480
	ori	$a2, $zero, 3
	jirl	$ra, $a3, 0
.Ltmp160:                               # EH_LABEL
.LBB0_53:                               # %_ZNSt14_Function_baseD2Ev.exit48
	ld.d	$a3, $sp, 1528
	beqz	$a3, .LBB0_55
# %bb.54:
.Ltmp162:                               # EH_LABEL
	addi.d	$a0, $sp, 1512
	addi.d	$a1, $sp, 1512
	ori	$a2, $zero, 3
	jirl	$ra, $a3, 0
.Ltmp163:                               # EH_LABEL
.LBB0_55:                               # %_ZNSt14_Function_baseD2Ev.exit50
	vld	$vr0, $sp, 80                   # 16-byte Folded Reload
	vst	$vr0, $sp, 1352
	pcalau12i	$a0, %pc_hi20(_ZNSt17_Function_handlerIFjSt8functionIFvPiS1_S1_EEEZ4mainE4$_25E9_M_invokeERKSt9_Any_dataOS3_)
	addi.d	$a0, $a0, %pc_lo12(_ZNSt17_Function_handlerIFjSt8functionIFvPiS1_S1_EEEZ4mainE4$_25E9_M_invokeERKSt9_Any_dataOS3_)
	st.d	$a0, $sp, 1376
	pcalau12i	$a0, %pc_hi20(_ZNSt17_Function_handlerIFjSt8functionIFvPiS1_S1_EEEZ4mainE4$_25E10_M_managerERSt9_Any_dataRKS7_St18_Manager_operation)
	addi.d	$a0, $a0, %pc_lo12(_ZNSt17_Function_handlerIFjSt8functionIFvPiS1_S1_EEEZ4mainE4$_25E10_M_managerERSt9_Any_dataRKS7_St18_Manager_operation)
	st.d	$a0, $sp, 1368
	vst	$vr0, $sp, 1320
	pcalau12i	$a0, %pc_hi20(_ZNSt17_Function_handlerIFjSt8functionIFvPiS1_S1_EEEZ4mainE4$_26E9_M_invokeERKSt9_Any_dataOS3_)
	addi.d	$a0, $a0, %pc_lo12(_ZNSt17_Function_handlerIFjSt8functionIFvPiS1_S1_EEEZ4mainE4$_26E9_M_invokeERKSt9_Any_dataOS3_)
	st.d	$a0, $sp, 1344
	pcalau12i	$a0, %pc_hi20(_ZNSt17_Function_handlerIFjSt8functionIFvPiS1_S1_EEEZ4mainE4$_26E10_M_managerERSt9_Any_dataRKS7_St18_Manager_operation)
	addi.d	$a0, $a0, %pc_lo12(_ZNSt17_Function_handlerIFjSt8functionIFvPiS1_S1_EEEZ4mainE4$_26E10_M_managerERSt9_Any_dataRKS7_St18_Manager_operation)
	st.d	$a0, $sp, 1336
	vst	$vr0, $sp, 1288
	pcalau12i	$a0, %pc_hi20(_ZNSt17_Function_handlerIFjSt8functionIFvPiS1_S1_EEEZ4mainE4$_27E9_M_invokeERKSt9_Any_dataOS3_)
	addi.d	$a0, $a0, %pc_lo12(_ZNSt17_Function_handlerIFjSt8functionIFvPiS1_S1_EEEZ4mainE4$_27E9_M_invokeERKSt9_Any_dataOS3_)
	st.d	$a0, $sp, 1312
	pcalau12i	$a0, %pc_hi20(_ZNSt17_Function_handlerIFjSt8functionIFvPiS1_S1_EEEZ4mainE4$_27E10_M_managerERSt9_Any_dataRKS7_St18_Manager_operation)
	addi.d	$a0, $a0, %pc_lo12(_ZNSt17_Function_handlerIFjSt8functionIFvPiS1_S1_EEEZ4mainE4$_27E10_M_managerERSt9_Any_dataRKS7_St18_Manager_operation)
	st.d	$a0, $sp, 1304
	vst	$vr0, $sp, 1256
	pcalau12i	$a0, %pc_hi20(_ZNSt17_Function_handlerIFjSt8functionIFvPiS1_S1_EEEZ4mainE4$_28E9_M_invokeERKSt9_Any_dataOS3_)
	addi.d	$a0, $a0, %pc_lo12(_ZNSt17_Function_handlerIFjSt8functionIFvPiS1_S1_EEEZ4mainE4$_28E9_M_invokeERKSt9_Any_dataOS3_)
	st.d	$a0, $sp, 1280
	pcalau12i	$a0, %pc_hi20(_ZNSt17_Function_handlerIFjSt8functionIFvPiS1_S1_EEEZ4mainE4$_28E10_M_managerERSt9_Any_dataRKS7_St18_Manager_operation)
	addi.d	$a0, $a0, %pc_lo12(_ZNSt17_Function_handlerIFjSt8functionIFvPiS1_S1_EEEZ4mainE4$_28E10_M_managerERSt9_Any_dataRKS7_St18_Manager_operation)
	st.d	$a0, $sp, 1272
	vst	$vr0, $sp, 1224
	pcalau12i	$a0, %pc_hi20(_ZNSt17_Function_handlerIFjSt8functionIFvPiS1_S1_EEEZ4mainE4$_29E9_M_invokeERKSt9_Any_dataOS3_)
	addi.d	$a0, $a0, %pc_lo12(_ZNSt17_Function_handlerIFjSt8functionIFvPiS1_S1_EEEZ4mainE4$_29E9_M_invokeERKSt9_Any_dataOS3_)
	st.d	$a0, $sp, 1248
	pcalau12i	$a0, %pc_hi20(_ZNSt17_Function_handlerIFjSt8functionIFvPiS1_S1_EEEZ4mainE4$_29E10_M_managerERSt9_Any_dataRKS7_St18_Manager_operation)
	addi.d	$a0, $a0, %pc_lo12(_ZNSt17_Function_handlerIFjSt8functionIFvPiS1_S1_EEEZ4mainE4$_29E10_M_managerERSt9_Any_dataRKS7_St18_Manager_operation)
	st.d	$a0, $sp, 1240
.Ltmp165:                               # EH_LABEL
	pcalau12i	$a0, %pc_hi20(.L.str.5)
	addi.d	$a5, $a0, %pc_lo12(.L.str.5)
	addi.d	$a0, $sp, 1352
	addi.d	$a1, $sp, 1320
	addi.d	$a2, $sp, 1288
	addi.d	$a3, $sp, 1256
	addi.d	$a4, $sp, 1224
	pcaddu18i	$ra, %call36(_ZL24checkVectorFunctionMultiIiLj3ELj512ELj17ELj17ELj17EEvSt8functionIFjS0_IFvPT_S2_S2_EEEES6_S6_S6_S6_PKc)
	jirl	$ra, $ra, 0
.Ltmp166:                               # EH_LABEL
# %bb.56:
	ld.d	$a3, $sp, 1240
	beqz	$a3, .LBB0_58
# %bb.57:
.Ltmp183:                               # EH_LABEL
	addi.d	$a0, $sp, 1224
	addi.d	$a1, $sp, 1224
	ori	$a2, $zero, 3
	jirl	$ra, $a3, 0
.Ltmp184:                               # EH_LABEL
.LBB0_58:                               # %_ZNSt14_Function_baseD2Ev.exit52
	ld.d	$a3, $sp, 1272
	beqz	$a3, .LBB0_60
# %bb.59:
.Ltmp186:                               # EH_LABEL
	addi.d	$a0, $sp, 1256
	addi.d	$a1, $sp, 1256
	ori	$a2, $zero, 3
	jirl	$ra, $a3, 0
.Ltmp187:                               # EH_LABEL
.LBB0_60:                               # %_ZNSt14_Function_baseD2Ev.exit54
	ld.d	$a3, $sp, 1304
	beqz	$a3, .LBB0_62
# %bb.61:
.Ltmp189:                               # EH_LABEL
	addi.d	$a0, $sp, 1288
	addi.d	$a1, $sp, 1288
	ori	$a2, $zero, 3
	jirl	$ra, $a3, 0
.Ltmp190:                               # EH_LABEL
.LBB0_62:                               # %_ZNSt14_Function_baseD2Ev.exit56
	ld.d	$a3, $sp, 1336
	beqz	$a3, .LBB0_64
# %bb.63:
.Ltmp192:                               # EH_LABEL
	addi.d	$a0, $sp, 1320
	addi.d	$a1, $sp, 1320
	ori	$a2, $zero, 3
	jirl	$ra, $a3, 0
.Ltmp193:                               # EH_LABEL
.LBB0_64:                               # %_ZNSt14_Function_baseD2Ev.exit58
	ld.d	$a3, $sp, 1368
	beqz	$a3, .LBB0_66
# %bb.65:
.Ltmp195:                               # EH_LABEL
	addi.d	$a0, $sp, 1352
	addi.d	$a1, $sp, 1352
	ori	$a2, $zero, 3
	jirl	$ra, $a3, 0
.Ltmp196:                               # EH_LABEL
.LBB0_66:                               # %_ZNSt14_Function_baseD2Ev.exit60
	vld	$vr0, $sp, 80                   # 16-byte Folded Reload
	vst	$vr0, $sp, 1192
	pcalau12i	$a0, %pc_hi20(_ZNSt17_Function_handlerIFjSt8functionIFvPiS1_S1_EEEZ4mainE4$_30E9_M_invokeERKSt9_Any_dataOS3_)
	addi.d	$a0, $a0, %pc_lo12(_ZNSt17_Function_handlerIFjSt8functionIFvPiS1_S1_EEEZ4mainE4$_30E9_M_invokeERKSt9_Any_dataOS3_)
	st.d	$a0, $sp, 1216
	pcalau12i	$a0, %pc_hi20(_ZNSt17_Function_handlerIFjSt8functionIFvPiS1_S1_EEEZ4mainE4$_30E10_M_managerERSt9_Any_dataRKS7_St18_Manager_operation)
	addi.d	$a0, $a0, %pc_lo12(_ZNSt17_Function_handlerIFjSt8functionIFvPiS1_S1_EEEZ4mainE4$_30E10_M_managerERSt9_Any_dataRKS7_St18_Manager_operation)
	st.d	$a0, $sp, 1208
	vst	$vr0, $sp, 1160
	pcalau12i	$a0, %pc_hi20(_ZNSt17_Function_handlerIFjSt8functionIFvPiS1_S1_EEEZ4mainE4$_31E9_M_invokeERKSt9_Any_dataOS3_)
	addi.d	$a0, $a0, %pc_lo12(_ZNSt17_Function_handlerIFjSt8functionIFvPiS1_S1_EEEZ4mainE4$_31E9_M_invokeERKSt9_Any_dataOS3_)
	st.d	$a0, $sp, 1184
	pcalau12i	$a0, %pc_hi20(_ZNSt17_Function_handlerIFjSt8functionIFvPiS1_S1_EEEZ4mainE4$_31E10_M_managerERSt9_Any_dataRKS7_St18_Manager_operation)
	addi.d	$a0, $a0, %pc_lo12(_ZNSt17_Function_handlerIFjSt8functionIFvPiS1_S1_EEEZ4mainE4$_31E10_M_managerERSt9_Any_dataRKS7_St18_Manager_operation)
	st.d	$a0, $sp, 1176
	vst	$vr0, $sp, 1128
	pcalau12i	$a0, %pc_hi20(_ZNSt17_Function_handlerIFjSt8functionIFvPiS1_S1_EEEZ4mainE4$_32E9_M_invokeERKSt9_Any_dataOS3_)
	addi.d	$a0, $a0, %pc_lo12(_ZNSt17_Function_handlerIFjSt8functionIFvPiS1_S1_EEEZ4mainE4$_32E9_M_invokeERKSt9_Any_dataOS3_)
	st.d	$a0, $sp, 1152
	pcalau12i	$a0, %pc_hi20(_ZNSt17_Function_handlerIFjSt8functionIFvPiS1_S1_EEEZ4mainE4$_32E10_M_managerERSt9_Any_dataRKS7_St18_Manager_operation)
	addi.d	$a0, $a0, %pc_lo12(_ZNSt17_Function_handlerIFjSt8functionIFvPiS1_S1_EEEZ4mainE4$_32E10_M_managerERSt9_Any_dataRKS7_St18_Manager_operation)
	st.d	$a0, $sp, 1144
	vst	$vr0, $sp, 1096
	pcalau12i	$a0, %pc_hi20(_ZNSt17_Function_handlerIFjSt8functionIFvPiS1_S1_EEEZ4mainE4$_33E9_M_invokeERKSt9_Any_dataOS3_)
	addi.d	$a0, $a0, %pc_lo12(_ZNSt17_Function_handlerIFjSt8functionIFvPiS1_S1_EEEZ4mainE4$_33E9_M_invokeERKSt9_Any_dataOS3_)
	st.d	$a0, $sp, 1120
	pcalau12i	$a0, %pc_hi20(_ZNSt17_Function_handlerIFjSt8functionIFvPiS1_S1_EEEZ4mainE4$_33E10_M_managerERSt9_Any_dataRKS7_St18_Manager_operation)
	addi.d	$a0, $a0, %pc_lo12(_ZNSt17_Function_handlerIFjSt8functionIFvPiS1_S1_EEEZ4mainE4$_33E10_M_managerERSt9_Any_dataRKS7_St18_Manager_operation)
	st.d	$a0, $sp, 1112
	vst	$vr0, $sp, 1064
	pcalau12i	$a0, %pc_hi20(_ZNSt17_Function_handlerIFjSt8functionIFvPiS1_S1_EEEZ4mainE4$_34E9_M_invokeERKSt9_Any_dataOS3_)
	addi.d	$a0, $a0, %pc_lo12(_ZNSt17_Function_handlerIFjSt8functionIFvPiS1_S1_EEEZ4mainE4$_34E9_M_invokeERKSt9_Any_dataOS3_)
	st.d	$a0, $sp, 1088
	pcalau12i	$a0, %pc_hi20(_ZNSt17_Function_handlerIFjSt8functionIFvPiS1_S1_EEEZ4mainE4$_34E10_M_managerERSt9_Any_dataRKS7_St18_Manager_operation)
	addi.d	$a0, $a0, %pc_lo12(_ZNSt17_Function_handlerIFjSt8functionIFvPiS1_S1_EEEZ4mainE4$_34E10_M_managerERSt9_Any_dataRKS7_St18_Manager_operation)
	st.d	$a0, $sp, 1080
.Ltmp198:                               # EH_LABEL
	pcalau12i	$a0, %pc_hi20(.L.str.6)
	addi.d	$a5, $a0, %pc_lo12(.L.str.6)
	addi.d	$a0, $sp, 1192
	addi.d	$a1, $sp, 1160
	addi.d	$a2, $sp, 1128
	addi.d	$a3, $sp, 1096
	addi.d	$a4, $sp, 1064
	pcaddu18i	$ra, %call36(_ZL24checkVectorFunctionMultiIiLj3ELj512ELj17ELj17ELj17EEvSt8functionIFjS0_IFvPT_S2_S2_EEEES6_S6_S6_S6_PKc)
	jirl	$ra, $ra, 0
.Ltmp199:                               # EH_LABEL
# %bb.67:
	ld.d	$a3, $sp, 1080
	beqz	$a3, .LBB0_69
# %bb.68:
.Ltmp216:                               # EH_LABEL
	addi.d	$a0, $sp, 1064
	addi.d	$a1, $sp, 1064
	ori	$a2, $zero, 3
	jirl	$ra, $a3, 0
.Ltmp217:                               # EH_LABEL
.LBB0_69:                               # %_ZNSt14_Function_baseD2Ev.exit62
	ld.d	$a3, $sp, 1112
	beqz	$a3, .LBB0_71
# %bb.70:
.Ltmp219:                               # EH_LABEL
	addi.d	$a0, $sp, 1096
	addi.d	$a1, $sp, 1096
	ori	$a2, $zero, 3
	jirl	$ra, $a3, 0
.Ltmp220:                               # EH_LABEL
.LBB0_71:                               # %_ZNSt14_Function_baseD2Ev.exit64
	ld.d	$a3, $sp, 1144
	beqz	$a3, .LBB0_73
# %bb.72:
.Ltmp222:                               # EH_LABEL
	addi.d	$a0, $sp, 1128
	addi.d	$a1, $sp, 1128
	ori	$a2, $zero, 3
	jirl	$ra, $a3, 0
.Ltmp223:                               # EH_LABEL
.LBB0_73:                               # %_ZNSt14_Function_baseD2Ev.exit66
	ld.d	$a3, $sp, 1176
	beqz	$a3, .LBB0_75
# %bb.74:
.Ltmp225:                               # EH_LABEL
	addi.d	$a0, $sp, 1160
	addi.d	$a1, $sp, 1160
	ori	$a2, $zero, 3
	jirl	$ra, $a3, 0
.Ltmp226:                               # EH_LABEL
.LBB0_75:                               # %_ZNSt14_Function_baseD2Ev.exit68
	ld.d	$a3, $sp, 1208
	beqz	$a3, .LBB0_77
# %bb.76:
.Ltmp228:                               # EH_LABEL
	addi.d	$a0, $sp, 1192
	addi.d	$a1, $sp, 1192
	ori	$a2, $zero, 3
	jirl	$ra, $a3, 0
.Ltmp229:                               # EH_LABEL
.LBB0_77:                               # %_ZNSt14_Function_baseD2Ev.exit70
	vld	$vr0, $sp, 80                   # 16-byte Folded Reload
	vst	$vr0, $sp, 1032
	pcalau12i	$a0, %pc_hi20(_ZNSt17_Function_handlerIFjSt8functionIFvPiS1_S1_EEEZ4mainE4$_35E9_M_invokeERKSt9_Any_dataOS3_)
	addi.d	$a0, $a0, %pc_lo12(_ZNSt17_Function_handlerIFjSt8functionIFvPiS1_S1_EEEZ4mainE4$_35E9_M_invokeERKSt9_Any_dataOS3_)
	st.d	$a0, $sp, 1056
	pcalau12i	$a0, %pc_hi20(_ZNSt17_Function_handlerIFjSt8functionIFvPiS1_S1_EEEZ4mainE4$_35E10_M_managerERSt9_Any_dataRKS7_St18_Manager_operation)
	addi.d	$a0, $a0, %pc_lo12(_ZNSt17_Function_handlerIFjSt8functionIFvPiS1_S1_EEEZ4mainE4$_35E10_M_managerERSt9_Any_dataRKS7_St18_Manager_operation)
	st.d	$a0, $sp, 1048
	vst	$vr0, $sp, 1000
	pcalau12i	$a0, %pc_hi20(_ZNSt17_Function_handlerIFjSt8functionIFvPiS1_S1_EEEZ4mainE4$_36E9_M_invokeERKSt9_Any_dataOS3_)
	addi.d	$a0, $a0, %pc_lo12(_ZNSt17_Function_handlerIFjSt8functionIFvPiS1_S1_EEEZ4mainE4$_36E9_M_invokeERKSt9_Any_dataOS3_)
	st.d	$a0, $sp, 1024
	pcalau12i	$a0, %pc_hi20(_ZNSt17_Function_handlerIFjSt8functionIFvPiS1_S1_EEEZ4mainE4$_36E10_M_managerERSt9_Any_dataRKS7_St18_Manager_operation)
	addi.d	$a0, $a0, %pc_lo12(_ZNSt17_Function_handlerIFjSt8functionIFvPiS1_S1_EEEZ4mainE4$_36E10_M_managerERSt9_Any_dataRKS7_St18_Manager_operation)
	st.d	$a0, $sp, 1016
	vst	$vr0, $sp, 968
	pcalau12i	$a0, %pc_hi20(_ZNSt17_Function_handlerIFjSt8functionIFvPiS1_S1_EEEZ4mainE4$_37E9_M_invokeERKSt9_Any_dataOS3_)
	addi.d	$a0, $a0, %pc_lo12(_ZNSt17_Function_handlerIFjSt8functionIFvPiS1_S1_EEEZ4mainE4$_37E9_M_invokeERKSt9_Any_dataOS3_)
	st.d	$a0, $sp, 992
	pcalau12i	$a0, %pc_hi20(_ZNSt17_Function_handlerIFjSt8functionIFvPiS1_S1_EEEZ4mainE4$_37E10_M_managerERSt9_Any_dataRKS7_St18_Manager_operation)
	addi.d	$a0, $a0, %pc_lo12(_ZNSt17_Function_handlerIFjSt8functionIFvPiS1_S1_EEEZ4mainE4$_37E10_M_managerERSt9_Any_dataRKS7_St18_Manager_operation)
	st.d	$a0, $sp, 984
	vst	$vr0, $sp, 936
	pcalau12i	$a0, %pc_hi20(_ZNSt17_Function_handlerIFjSt8functionIFvPiS1_S1_EEEZ4mainE4$_38E9_M_invokeERKSt9_Any_dataOS3_)
	addi.d	$a0, $a0, %pc_lo12(_ZNSt17_Function_handlerIFjSt8functionIFvPiS1_S1_EEEZ4mainE4$_38E9_M_invokeERKSt9_Any_dataOS3_)
	st.d	$a0, $sp, 960
	pcalau12i	$a0, %pc_hi20(_ZNSt17_Function_handlerIFjSt8functionIFvPiS1_S1_EEEZ4mainE4$_38E10_M_managerERSt9_Any_dataRKS7_St18_Manager_operation)
	addi.d	$a0, $a0, %pc_lo12(_ZNSt17_Function_handlerIFjSt8functionIFvPiS1_S1_EEEZ4mainE4$_38E10_M_managerERSt9_Any_dataRKS7_St18_Manager_operation)
	st.d	$a0, $sp, 952
	vst	$vr0, $sp, 904
	pcalau12i	$a0, %pc_hi20(_ZNSt17_Function_handlerIFjSt8functionIFvPiS1_S1_EEEZ4mainE4$_39E9_M_invokeERKSt9_Any_dataOS3_)
	addi.d	$a0, $a0, %pc_lo12(_ZNSt17_Function_handlerIFjSt8functionIFvPiS1_S1_EEEZ4mainE4$_39E9_M_invokeERKSt9_Any_dataOS3_)
	st.d	$a0, $sp, 928
	pcalau12i	$a0, %pc_hi20(_ZNSt17_Function_handlerIFjSt8functionIFvPiS1_S1_EEEZ4mainE4$_39E10_M_managerERSt9_Any_dataRKS7_St18_Manager_operation)
	addi.d	$a0, $a0, %pc_lo12(_ZNSt17_Function_handlerIFjSt8functionIFvPiS1_S1_EEEZ4mainE4$_39E10_M_managerERSt9_Any_dataRKS7_St18_Manager_operation)
	st.d	$a0, $sp, 920
.Ltmp231:                               # EH_LABEL
	pcalau12i	$a0, %pc_hi20(.L.str.7)
	addi.d	$a5, $a0, %pc_lo12(.L.str.7)
	addi.d	$a0, $sp, 1032
	addi.d	$a1, $sp, 1000
	addi.d	$a2, $sp, 968
	addi.d	$a3, $sp, 936
	addi.d	$a4, $sp, 904
	pcaddu18i	$ra, %call36(_ZL24checkVectorFunctionMultiIiLj2ELj511ELj3ELj3ELj512EEvSt8functionIFjS0_IFvPT_S2_S2_EEEES6_S6_S6_S6_PKc)
	jirl	$ra, $ra, 0
.Ltmp232:                               # EH_LABEL
# %bb.78:
	ld.d	$a3, $sp, 920
	beqz	$a3, .LBB0_80
# %bb.79:
.Ltmp249:                               # EH_LABEL
	addi.d	$a0, $sp, 904
	addi.d	$a1, $sp, 904
	ori	$a2, $zero, 3
	jirl	$ra, $a3, 0
.Ltmp250:                               # EH_LABEL
.LBB0_80:                               # %_ZNSt14_Function_baseD2Ev.exit72
	ld.d	$a3, $sp, 952
	beqz	$a3, .LBB0_82
# %bb.81:
.Ltmp252:                               # EH_LABEL
	addi.d	$a0, $sp, 936
	addi.d	$a1, $sp, 936
	ori	$a2, $zero, 3
	jirl	$ra, $a3, 0
.Ltmp253:                               # EH_LABEL
.LBB0_82:                               # %_ZNSt14_Function_baseD2Ev.exit74
	ld.d	$a3, $sp, 984
	beqz	$a3, .LBB0_84
# %bb.83:
.Ltmp255:                               # EH_LABEL
	addi.d	$a0, $sp, 968
	addi.d	$a1, $sp, 968
	ori	$a2, $zero, 3
	jirl	$ra, $a3, 0
.Ltmp256:                               # EH_LABEL
.LBB0_84:                               # %_ZNSt14_Function_baseD2Ev.exit76
	ld.d	$a3, $sp, 1016
	beqz	$a3, .LBB0_86
# %bb.85:
.Ltmp258:                               # EH_LABEL
	addi.d	$a0, $sp, 1000
	addi.d	$a1, $sp, 1000
	ori	$a2, $zero, 3
	jirl	$ra, $a3, 0
.Ltmp259:                               # EH_LABEL
.LBB0_86:                               # %_ZNSt14_Function_baseD2Ev.exit78
	ld.d	$a3, $sp, 1048
	beqz	$a3, .LBB0_88
# %bb.87:
.Ltmp261:                               # EH_LABEL
	addi.d	$a0, $sp, 1032
	addi.d	$a1, $sp, 1032
	ori	$a2, $zero, 3
	jirl	$ra, $a3, 0
.Ltmp262:                               # EH_LABEL
.LBB0_88:                               # %_ZNSt14_Function_baseD2Ev.exit80
	vld	$vr0, $sp, 80                   # 16-byte Folded Reload
	vst	$vr0, $sp, 872
	pcalau12i	$a0, %pc_hi20(_ZNSt17_Function_handlerIFjSt8functionIFvPiS1_S1_EEEZ4mainE4$_40E9_M_invokeERKSt9_Any_dataOS3_)
	addi.d	$a0, $a0, %pc_lo12(_ZNSt17_Function_handlerIFjSt8functionIFvPiS1_S1_EEEZ4mainE4$_40E9_M_invokeERKSt9_Any_dataOS3_)
	st.d	$a0, $sp, 896
	pcalau12i	$a0, %pc_hi20(_ZNSt17_Function_handlerIFjSt8functionIFvPiS1_S1_EEEZ4mainE4$_40E10_M_managerERSt9_Any_dataRKS7_St18_Manager_operation)
	addi.d	$a0, $a0, %pc_lo12(_ZNSt17_Function_handlerIFjSt8functionIFvPiS1_S1_EEEZ4mainE4$_40E10_M_managerERSt9_Any_dataRKS7_St18_Manager_operation)
	st.d	$a0, $sp, 888
	vst	$vr0, $sp, 840
	pcalau12i	$a0, %pc_hi20(_ZNSt17_Function_handlerIFjSt8functionIFvPiS1_S1_EEEZ4mainE4$_41E9_M_invokeERKSt9_Any_dataOS3_)
	addi.d	$a0, $a0, %pc_lo12(_ZNSt17_Function_handlerIFjSt8functionIFvPiS1_S1_EEEZ4mainE4$_41E9_M_invokeERKSt9_Any_dataOS3_)
	st.d	$a0, $sp, 864
	pcalau12i	$a0, %pc_hi20(_ZNSt17_Function_handlerIFjSt8functionIFvPiS1_S1_EEEZ4mainE4$_41E10_M_managerERSt9_Any_dataRKS7_St18_Manager_operation)
	addi.d	$a0, $a0, %pc_lo12(_ZNSt17_Function_handlerIFjSt8functionIFvPiS1_S1_EEEZ4mainE4$_41E10_M_managerERSt9_Any_dataRKS7_St18_Manager_operation)
	st.d	$a0, $sp, 856
	vst	$vr0, $sp, 808
	pcalau12i	$a0, %pc_hi20(_ZNSt17_Function_handlerIFjSt8functionIFvPiS1_S1_EEEZ4mainE4$_42E9_M_invokeERKSt9_Any_dataOS3_)
	addi.d	$a0, $a0, %pc_lo12(_ZNSt17_Function_handlerIFjSt8functionIFvPiS1_S1_EEEZ4mainE4$_42E9_M_invokeERKSt9_Any_dataOS3_)
	st.d	$a0, $sp, 832
	pcalau12i	$a0, %pc_hi20(_ZNSt17_Function_handlerIFjSt8functionIFvPiS1_S1_EEEZ4mainE4$_42E10_M_managerERSt9_Any_dataRKS7_St18_Manager_operation)
	addi.d	$a0, $a0, %pc_lo12(_ZNSt17_Function_handlerIFjSt8functionIFvPiS1_S1_EEEZ4mainE4$_42E10_M_managerERSt9_Any_dataRKS7_St18_Manager_operation)
	st.d	$a0, $sp, 824
	vst	$vr0, $sp, 776
	pcalau12i	$a0, %pc_hi20(_ZNSt17_Function_handlerIFjSt8functionIFvPiS1_S1_EEEZ4mainE4$_43E9_M_invokeERKSt9_Any_dataOS3_)
	addi.d	$a0, $a0, %pc_lo12(_ZNSt17_Function_handlerIFjSt8functionIFvPiS1_S1_EEEZ4mainE4$_43E9_M_invokeERKSt9_Any_dataOS3_)
	st.d	$a0, $sp, 800
	pcalau12i	$a0, %pc_hi20(_ZNSt17_Function_handlerIFjSt8functionIFvPiS1_S1_EEEZ4mainE4$_43E10_M_managerERSt9_Any_dataRKS7_St18_Manager_operation)
	addi.d	$a0, $a0, %pc_lo12(_ZNSt17_Function_handlerIFjSt8functionIFvPiS1_S1_EEEZ4mainE4$_43E10_M_managerERSt9_Any_dataRKS7_St18_Manager_operation)
	st.d	$a0, $sp, 792
	vst	$vr0, $sp, 744
	pcalau12i	$a0, %pc_hi20(_ZNSt17_Function_handlerIFjSt8functionIFvPiS1_S1_EEEZ4mainE4$_44E9_M_invokeERKSt9_Any_dataOS3_)
	addi.d	$a0, $a0, %pc_lo12(_ZNSt17_Function_handlerIFjSt8functionIFvPiS1_S1_EEEZ4mainE4$_44E9_M_invokeERKSt9_Any_dataOS3_)
	st.d	$a0, $sp, 768
	pcalau12i	$a0, %pc_hi20(_ZNSt17_Function_handlerIFjSt8functionIFvPiS1_S1_EEEZ4mainE4$_44E10_M_managerERSt9_Any_dataRKS7_St18_Manager_operation)
	addi.d	$a0, $a0, %pc_lo12(_ZNSt17_Function_handlerIFjSt8functionIFvPiS1_S1_EEEZ4mainE4$_44E10_M_managerERSt9_Any_dataRKS7_St18_Manager_operation)
	st.d	$a0, $sp, 760
.Ltmp264:                               # EH_LABEL
	pcalau12i	$a0, %pc_hi20(.L.str.8)
	addi.d	$a5, $a0, %pc_lo12(.L.str.8)
	addi.d	$a0, $sp, 872
	addi.d	$a1, $sp, 840
	addi.d	$a2, $sp, 808
	addi.d	$a3, $sp, 776
	addi.d	$a4, $sp, 744
	pcaddu18i	$ra, %call36(_ZL24checkVectorFunctionMultiIiLj2ELj511ELj3ELj3ELj512EEvSt8functionIFjS0_IFvPT_S2_S2_EEEES6_S6_S6_S6_PKc)
	jirl	$ra, $ra, 0
.Ltmp265:                               # EH_LABEL
# %bb.89:
	ld.d	$a3, $sp, 760
	beqz	$a3, .LBB0_91
# %bb.90:
.Ltmp282:                               # EH_LABEL
	addi.d	$a0, $sp, 744
	addi.d	$a1, $sp, 744
	ori	$a2, $zero, 3
	jirl	$ra, $a3, 0
.Ltmp283:                               # EH_LABEL
.LBB0_91:                               # %_ZNSt14_Function_baseD2Ev.exit82
	ld.d	$a3, $sp, 792
	beqz	$a3, .LBB0_93
# %bb.92:
.Ltmp285:                               # EH_LABEL
	addi.d	$a0, $sp, 776
	addi.d	$a1, $sp, 776
	ori	$a2, $zero, 3
	jirl	$ra, $a3, 0
.Ltmp286:                               # EH_LABEL
.LBB0_93:                               # %_ZNSt14_Function_baseD2Ev.exit84
	ld.d	$a3, $sp, 824
	beqz	$a3, .LBB0_95
# %bb.94:
.Ltmp288:                               # EH_LABEL
	addi.d	$a0, $sp, 808
	addi.d	$a1, $sp, 808
	ori	$a2, $zero, 3
	jirl	$ra, $a3, 0
.Ltmp289:                               # EH_LABEL
.LBB0_95:                               # %_ZNSt14_Function_baseD2Ev.exit86
	ld.d	$a3, $sp, 856
	beqz	$a3, .LBB0_97
# %bb.96:
.Ltmp291:                               # EH_LABEL
	addi.d	$a0, $sp, 840
	addi.d	$a1, $sp, 840
	ori	$a2, $zero, 3
	jirl	$ra, $a3, 0
.Ltmp292:                               # EH_LABEL
.LBB0_97:                               # %_ZNSt14_Function_baseD2Ev.exit88
	ld.d	$a3, $sp, 888
	beqz	$a3, .LBB0_99
# %bb.98:
.Ltmp294:                               # EH_LABEL
	addi.d	$a0, $sp, 872
	addi.d	$a1, $sp, 872
	ori	$a2, $zero, 3
	jirl	$ra, $a3, 0
.Ltmp295:                               # EH_LABEL
.LBB0_99:                               # %_ZNSt14_Function_baseD2Ev.exit90
	vld	$vr0, $sp, 80                   # 16-byte Folded Reload
	vst	$vr0, $sp, 712
	pcalau12i	$a0, %pc_hi20(_ZNSt17_Function_handlerIFjSt8functionIFvPiS1_S1_EEEZ4mainE4$_45E9_M_invokeERKSt9_Any_dataOS3_)
	addi.d	$a0, $a0, %pc_lo12(_ZNSt17_Function_handlerIFjSt8functionIFvPiS1_S1_EEEZ4mainE4$_45E9_M_invokeERKSt9_Any_dataOS3_)
	st.d	$a0, $sp, 736
	pcalau12i	$a0, %pc_hi20(_ZNSt17_Function_handlerIFjSt8functionIFvPiS1_S1_EEEZ4mainE4$_45E10_M_managerERSt9_Any_dataRKS7_St18_Manager_operation)
	addi.d	$a0, $a0, %pc_lo12(_ZNSt17_Function_handlerIFjSt8functionIFvPiS1_S1_EEEZ4mainE4$_45E10_M_managerERSt9_Any_dataRKS7_St18_Manager_operation)
	st.d	$a0, $sp, 728
	vst	$vr0, $sp, 680
	pcalau12i	$a0, %pc_hi20(_ZNSt17_Function_handlerIFjSt8functionIFvPiS1_S1_EEEZ4mainE4$_46E9_M_invokeERKSt9_Any_dataOS3_)
	addi.d	$a0, $a0, %pc_lo12(_ZNSt17_Function_handlerIFjSt8functionIFvPiS1_S1_EEEZ4mainE4$_46E9_M_invokeERKSt9_Any_dataOS3_)
	st.d	$a0, $sp, 704
	pcalau12i	$a0, %pc_hi20(_ZNSt17_Function_handlerIFjSt8functionIFvPiS1_S1_EEEZ4mainE4$_46E10_M_managerERSt9_Any_dataRKS7_St18_Manager_operation)
	addi.d	$a0, $a0, %pc_lo12(_ZNSt17_Function_handlerIFjSt8functionIFvPiS1_S1_EEEZ4mainE4$_46E10_M_managerERSt9_Any_dataRKS7_St18_Manager_operation)
	st.d	$a0, $sp, 696
	vst	$vr0, $sp, 648
	pcalau12i	$a0, %pc_hi20(_ZNSt17_Function_handlerIFjSt8functionIFvPiS1_S1_EEEZ4mainE4$_47E9_M_invokeERKSt9_Any_dataOS3_)
	addi.d	$a0, $a0, %pc_lo12(_ZNSt17_Function_handlerIFjSt8functionIFvPiS1_S1_EEEZ4mainE4$_47E9_M_invokeERKSt9_Any_dataOS3_)
	st.d	$a0, $sp, 672
	pcalau12i	$a0, %pc_hi20(_ZNSt17_Function_handlerIFjSt8functionIFvPiS1_S1_EEEZ4mainE4$_47E10_M_managerERSt9_Any_dataRKS7_St18_Manager_operation)
	addi.d	$a0, $a0, %pc_lo12(_ZNSt17_Function_handlerIFjSt8functionIFvPiS1_S1_EEEZ4mainE4$_47E10_M_managerERSt9_Any_dataRKS7_St18_Manager_operation)
	st.d	$a0, $sp, 664
	vst	$vr0, $sp, 616
	pcalau12i	$a0, %pc_hi20(_ZNSt17_Function_handlerIFjSt8functionIFvPiS1_S1_EEEZ4mainE4$_48E9_M_invokeERKSt9_Any_dataOS3_)
	addi.d	$a0, $a0, %pc_lo12(_ZNSt17_Function_handlerIFjSt8functionIFvPiS1_S1_EEEZ4mainE4$_48E9_M_invokeERKSt9_Any_dataOS3_)
	st.d	$a0, $sp, 640
	pcalau12i	$a0, %pc_hi20(_ZNSt17_Function_handlerIFjSt8functionIFvPiS1_S1_EEEZ4mainE4$_48E10_M_managerERSt9_Any_dataRKS7_St18_Manager_operation)
	addi.d	$a0, $a0, %pc_lo12(_ZNSt17_Function_handlerIFjSt8functionIFvPiS1_S1_EEEZ4mainE4$_48E10_M_managerERSt9_Any_dataRKS7_St18_Manager_operation)
	st.d	$a0, $sp, 632
	vst	$vr0, $sp, 584
	pcalau12i	$a0, %pc_hi20(_ZNSt17_Function_handlerIFjSt8functionIFvPiS1_S1_EEEZ4mainE4$_49E9_M_invokeERKSt9_Any_dataOS3_)
	addi.d	$a0, $a0, %pc_lo12(_ZNSt17_Function_handlerIFjSt8functionIFvPiS1_S1_EEEZ4mainE4$_49E9_M_invokeERKSt9_Any_dataOS3_)
	st.d	$a0, $sp, 608
	pcalau12i	$a0, %pc_hi20(_ZNSt17_Function_handlerIFjSt8functionIFvPiS1_S1_EEEZ4mainE4$_49E10_M_managerERSt9_Any_dataRKS7_St18_Manager_operation)
	addi.d	$a0, $a0, %pc_lo12(_ZNSt17_Function_handlerIFjSt8functionIFvPiS1_S1_EEEZ4mainE4$_49E10_M_managerERSt9_Any_dataRKS7_St18_Manager_operation)
	st.d	$a0, $sp, 600
.Ltmp297:                               # EH_LABEL
	pcalau12i	$a0, %got_pc_hi20(_ZSt4cout)
	ld.d	$a0, $a0, %got_pc_lo12(_ZSt4cout)
	pcalau12i	$a1, %pc_hi20(.L.str.13)
	addi.d	$a1, $a1, %pc_lo12(.L.str.13)
	ori	$a2, $zero, 9
	pcaddu18i	$ra, %call36(_ZSt16__ostream_insertIcSt11char_traitsIcEERSt13basic_ostreamIT_T0_ES6_PKS3_l)
	jirl	$ra, $ra, 0
.Ltmp298:                               # EH_LABEL
# %bb.100:                              # %.noexc
.Ltmp299:                               # EH_LABEL
	pcalau12i	$a0, %got_pc_hi20(_ZSt4cout)
	ld.d	$a0, $a0, %got_pc_lo12(_ZSt4cout)
	pcalau12i	$a1, %pc_hi20(.L.str.9)
	addi.d	$a1, $a1, %pc_lo12(.L.str.9)
	ori	$a2, $zero, 32
	pcaddu18i	$ra, %call36(_ZSt16__ostream_insertIcSt11char_traitsIcEERSt13basic_ostreamIT_T0_ES6_PKS3_l)
	jirl	$ra, $ra, 0
.Ltmp300:                               # EH_LABEL
# %bb.101:                              # %.noexc91
.Ltmp301:                               # EH_LABEL
	pcalau12i	$a0, %got_pc_hi20(_ZSt4cout)
	ld.d	$a0, $a0, %got_pc_lo12(_ZSt4cout)
	pcalau12i	$a1, %pc_hi20(.L.str.14)
	addi.d	$a1, $a1, %pc_lo12(.L.str.14)
	ori	$a2, $zero, 1
	pcaddu18i	$ra, %call36(_ZSt16__ostream_insertIcSt11char_traitsIcEERSt13basic_ostreamIT_T0_ES6_PKS3_l)
	jirl	$ra, $ra, 0
.Ltmp302:                               # EH_LABEL
# %bb.102:                              # %.noexc92
	ld.d	$a3, $sp, 696
	xvrepli.b	$xr0, 0
	xvst	$xr0, $sp, 48                   # 32-byte Folded Spill
	ori	$a0, $zero, 2232
	add.d	$a0, $sp, $a0
	xvst	$xr0, $a0, 0
	beqz	$a3, .LBB0_105
# %bb.103:
.Ltmp304:                               # EH_LABEL
	ori	$a0, $zero, 2232
	add.d	$a0, $sp, $a0
	addi.d	$a1, $sp, 680
	ori	$a2, $zero, 2
	jirl	$ra, $a3, 0
.Ltmp305:                               # EH_LABEL
# %bb.104:
	vld	$vr0, $sp, 696
	ori	$a0, $zero, 2248
	add.d	$a0, $sp, $a0
	vst	$vr0, $a0, 0
.LBB0_105:
	pcalau12i	$a0, %pc_hi20(.L.str.15)
	addi.d	$a0, $a0, %pc_lo12(.L.str.15)
	ld.d	$a3, $sp, 664
	st.d	$a0, $sp, 40                    # 8-byte Folded Spill
	ori	$a1, $zero, 2264
	add.d	$a1, $sp, $a1
	st.d	$a0, $a1, 0
	ori	$a0, $zero, 2272
	add.d	$s0, $sp, $a0
	xvld	$xr0, $sp, 48                   # 32-byte Folded Reload
	ori	$a0, $zero, 2272
	add.d	$a0, $sp, $a0
	xvst	$xr0, $a0, 0
	beqz	$a3, .LBB0_108
# %bb.106:
.Ltmp310:                               # EH_LABEL
	addi.d	$a1, $sp, 648
	ori	$a2, $zero, 2
	move	$a0, $s0
	jirl	$ra, $a3, 0
.Ltmp311:                               # EH_LABEL
# %bb.107:
	vld	$vr0, $sp, 664
	ori	$a0, $zero, 2288
	add.d	$a0, $sp, $a0
	vst	$vr0, $a0, 0
.LBB0_108:
	pcalau12i	$a0, %pc_hi20(.L.str.16)
	addi.d	$a0, $a0, %pc_lo12(.L.str.16)
	ld.d	$a3, $sp, 632
	st.d	$a0, $sp, 32                    # 8-byte Folded Spill
	ori	$a1, $zero, 2304
	add.d	$a1, $sp, $a1
	st.d	$a0, $a1, 0
	xvld	$xr0, $sp, 48                   # 32-byte Folded Reload
	ori	$a0, $zero, 2312
	add.d	$a0, $sp, $a0
	xvst	$xr0, $a0, 0
	beqz	$a3, .LBB0_111
# %bb.109:
.Ltmp316:                               # EH_LABEL
	addi.d	$a1, $sp, 616
	ori	$a2, $zero, 2
	ori	$a0, $zero, 2312
	add.d	$a0, $sp, $a0
	jirl	$ra, $a3, 0
.Ltmp317:                               # EH_LABEL
# %bb.110:
	vld	$vr0, $sp, 632
	ori	$a0, $zero, 2328
	add.d	$a0, $sp, $a0
	vst	$vr0, $a0, 0
.LBB0_111:
	pcalau12i	$a0, %pc_hi20(.L.str.17)
	addi.d	$a0, $a0, %pc_lo12(.L.str.17)
	ld.d	$a3, $sp, 600
	st.d	$a0, $sp, 24                    # 8-byte Folded Spill
	ori	$a1, $zero, 2344
	add.d	$a1, $sp, $a1
	st.d	$a0, $a1, 0
	xvld	$xr0, $sp, 48                   # 32-byte Folded Reload
	ori	$a0, $zero, 2352
	add.d	$a0, $sp, $a0
	xvst	$xr0, $a0, 0
	beqz	$a3, .LBB0_114
# %bb.112:
.Ltmp322:                               # EH_LABEL
	addi.d	$a1, $sp, 584
	ori	$a2, $zero, 2
	ori	$a0, $zero, 2352
	add.d	$a0, $sp, $a0
	jirl	$ra, $a3, 0
.Ltmp323:                               # EH_LABEL
# %bb.113:
	vld	$vr0, $sp, 600
	ori	$a0, $zero, 2368
	add.d	$a0, $sp, $a0
	vst	$vr0, $a0, 0
.LBB0_114:                              # %_ZSt9make_pairIRSt8functionIFjS0_IFvPiS1_S1_EEEERA16_KcESt4pairINSt25__strip_reference_wrapperINSt5decayIT_E4typeEE6__typeENSB_INSC_IT0_E4typeEE6__typeEEOSD_OSI_.exit.i
	pcalau12i	$a0, %pc_hi20(.L.str.18)
	addi.d	$a0, $a0, %pc_lo12(.L.str.18)
	st.d	$a0, $sp, 16                    # 8-byte Folded Spill
	ori	$a1, $zero, 2384
	add.d	$a1, $sp, $a1
	st.d	$a0, $a1, 0
	pcalau12i	$a0, %pc_hi20(_ZNSt17_Function_handlerIFvPiS0_S0_EZL24checkVectorFunctionMultiIiLj3ELj511ELj17ELj17ELj17EEvSt8functionIFjS3_IFvPT_S5_S5_EEEES9_S9_S9_S9_PKcEUlS0_S0_S0_E_E9_M_invokeERKSt9_Any_dataOS0_SH_SH_)
	addi.d	$s7, $a0, %pc_lo12(_ZNSt17_Function_handlerIFvPiS0_S0_EZL24checkVectorFunctionMultiIiLj3ELj511ELj17ELj17ELj17EEvSt8functionIFjS3_IFvPT_S5_S5_EEEES9_S9_S9_S9_PKcEUlS0_S0_S0_E_E9_M_invokeERKSt9_Any_dataOS0_SH_SH_)
	pcalau12i	$a0, %pc_hi20(_ZNSt17_Function_handlerIFvPiS0_S0_EZL24checkVectorFunctionMultiIiLj3ELj511ELj17ELj17ELj17EEvSt8functionIFjS3_IFvPT_S5_S5_EEEES9_S9_S9_S9_PKcEUlS0_S0_S0_E_E10_M_managerERSt9_Any_dataRKSE_St18_Manager_operation)
	addi.d	$s8, $a0, %pc_lo12(_ZNSt17_Function_handlerIFvPiS0_S0_EZL24checkVectorFunctionMultiIiLj3ELj511ELj17ELj17ELj17EEvSt8functionIFjS3_IFvPT_S5_S5_EEEES9_S9_S9_S9_PKcEUlS0_S0_S0_E_E10_M_managerERSt9_Any_dataRKSE_St18_Manager_operation)
	move	$a1, $zero
	ori	$s1, $zero, 495
	.p2align	4, , 16
.LBB0_115:                              # %.preheader14.i
                                        # =>This Loop Header: Depth=1
                                        #     Child Loop BB0_116 Depth 2
                                        #       Child Loop BB0_117 Depth 3
	move	$a0, $zero
	move	$s5, $a1
	.p2align	4, , 16
.LBB0_116:                              # %.preheader8.i
                                        #   Parent Loop BB0_115 Depth=1
                                        # =>  This Loop Header: Depth=2
                                        #       Child Loop BB0_117 Depth 3
	move	$fp, $zero
	move	$s4, $a0
	addi.d	$s2, $zero, -17
	.p2align	4, , 16
.LBB0_117:                              #   Parent Loop BB0_115 Depth=1
                                        #     Parent Loop BB0_116 Depth=2
                                        # =>    This Inner Loop Header: Depth=3
	addi.w	$s2, $s2, 17
	ori	$a0, $zero, 2216
	add.d	$a0, $sp, $a0
	st.w	$s5, $a0, 0
	ori	$a0, $zero, 2220
	add.d	$a0, $sp, $a0
	st.w	$s4, $a0, 0
	ori	$a0, $zero, 2224
	add.d	$a0, $sp, $a0
	st.w	$s2, $a0, 0
	ori	$a0, $zero, 2216
	add.d	$a0, $sp, $a0
	ld.d	$a0, $a0, 0
	ori	$a1, $zero, 2196
	add.d	$a1, $sp, $a1
	st.w	$zero, $a1, 0
	ld.d	$a1, $sp, 728
	ori	$a2, $zero, 2192
	add.d	$a2, $sp, $a2
	st.w	$s2, $a2, 0
	ori	$a2, $zero, 2184
	add.d	$a2, $sp, $a2
	st.d	$a0, $a2, 0
	ori	$a0, $zero, 2208
	add.d	$a0, $sp, $a0
	st.d	$s7, $a0, 0
	ori	$a0, $zero, 2200
	add.d	$a0, $sp, $a0
	st.d	$s8, $a0, 0
	beqz	$a1, .LBB0_243
# %bb.118:                              #   in Loop: Header=BB0_117 Depth=3
	ld.d	$a2, $sp, 736
.Ltmp331:                               # EH_LABEL
	addi.d	$a0, $sp, 712
	ori	$a1, $zero, 2184
	add.d	$a1, $sp, $a1
	jirl	$ra, $a2, 0
.Ltmp332:                               # EH_LABEL
# %bb.119:                              # %_ZNKSt8functionIFjS_IFvPiS0_S0_EEEEclES2_.exit.i
                                        #   in Loop: Header=BB0_117 Depth=3
	move	$s3, $a0
	ori	$a0, $zero, 2200
	add.d	$a0, $sp, $a0
	ld.d	$a3, $a0, 0
	beqz	$a3, .LBB0_121
# %bb.120:                              #   in Loop: Header=BB0_117 Depth=3
.Ltmp334:                               # EH_LABEL
	ori	$a0, $zero, 2184
	add.d	$a0, $sp, $a0
	ori	$a1, $zero, 2184
	add.d	$a1, $sp, $a1
	ori	$a2, $zero, 3
	jirl	$ra, $a3, 0
.Ltmp335:                               # EH_LABEL
.LBB0_121:                              # %_ZNSt14_Function_baseD2Ev.exit.i
                                        #   in Loop: Header=BB0_117 Depth=3
.Ltmp337:                               # EH_LABEL
	ori	$a0, $zero, 2232
	add.d	$a0, $sp, $a0
	ori	$a1, $zero, 2216
	add.d	$a1, $sp, $a1
	pcaddu18i	$ra, %call36(_ZL18callThroughOptnoneIRKSt8functionIFjS0_IFvPiS1_S1_EEEEJRZL24checkVectorFunctionMultiIiLj3ELj511ELj17ELj17ELj17EEvS0_IFjS0_IFvPT_SA_SA_EEEESE_SE_SE_SE_PKcEUlS1_S1_S1_E_EEDaOS9_DpOT0_)
	jirl	$ra, $ra, 0
.Ltmp338:                               # EH_LABEL
# %bb.122:                              #   in Loop: Header=BB0_117 Depth=3
	move	$s6, $a0
	bne	$s3, $a0, .LBB0_246
# %bb.123:                              #   in Loop: Header=BB0_117 Depth=3
.Ltmp339:                               # EH_LABEL
	ori	$a0, $zero, 2216
	add.d	$a1, $sp, $a0
	move	$a0, $s0
	pcaddu18i	$ra, %call36(_ZL18callThroughOptnoneIRKSt8functionIFjS0_IFvPiS1_S1_EEEEJRZL24checkVectorFunctionMultiIiLj3ELj511ELj17ELj17ELj17EEvS0_IFjS0_IFvPT_SA_SA_EEEESE_SE_SE_SE_PKcEUlS1_S1_S1_E_EEDaOS9_DpOT0_)
	jirl	$ra, $ra, 0
.Ltmp340:                               # EH_LABEL
# %bb.124:                              #   in Loop: Header=BB0_117 Depth=3
	move	$s6, $a0
	bne	$s3, $a0, .LBB0_248
# %bb.125:                              #   in Loop: Header=BB0_117 Depth=3
.Ltmp341:                               # EH_LABEL
	ori	$a0, $zero, 2216
	add.d	$a1, $sp, $a0
	ori	$a0, $zero, 2312
	add.d	$a0, $sp, $a0
	pcaddu18i	$ra, %call36(_ZL18callThroughOptnoneIRKSt8functionIFjS0_IFvPiS1_S1_EEEEJRZL24checkVectorFunctionMultiIiLj3ELj511ELj17ELj17ELj17EEvS0_IFjS0_IFvPT_SA_SA_EEEESE_SE_SE_SE_PKcEUlS1_S1_S1_E_EEDaOS9_DpOT0_)
	jirl	$ra, $ra, 0
.Ltmp342:                               # EH_LABEL
# %bb.126:                              #   in Loop: Header=BB0_117 Depth=3
	move	$s6, $a0
	bne	$s3, $a0, .LBB0_245
# %bb.127:                              #   in Loop: Header=BB0_117 Depth=3
.Ltmp343:                               # EH_LABEL
	ori	$a0, $zero, 2216
	add.d	$a1, $sp, $a0
	ori	$a0, $zero, 2352
	add.d	$a0, $sp, $a0
	pcaddu18i	$ra, %call36(_ZL18callThroughOptnoneIRKSt8functionIFjS0_IFvPiS1_S1_EEEEJRZL24checkVectorFunctionMultiIiLj3ELj511ELj17ELj17ELj17EEvS0_IFjS0_IFvPT_SA_SA_EEEESE_SE_SE_SE_PKcEUlS1_S1_S1_E_EEDaOS9_DpOT0_)
	jirl	$ra, $ra, 0
.Ltmp344:                               # EH_LABEL
# %bb.128:                              #   in Loop: Header=BB0_117 Depth=3
	move	$s6, $a0
	bne	$s3, $a0, .LBB0_242
# %bb.129:                              #   in Loop: Header=BB0_117 Depth=3
	addi.d	$fp, $fp, 17
	bltu	$s2, $s1, .LBB0_117
# %bb.130:                              #   in Loop: Header=BB0_116 Depth=2
	addi.w	$a0, $s4, 17
	bltu	$s4, $s1, .LBB0_116
# %bb.131:                              #   in Loop: Header=BB0_115 Depth=1
	addi.w	$a1, $s5, 17
	bltu	$s5, $s1, .LBB0_115
# %bb.132:
.Ltmp375:                               # EH_LABEL
	addi.d	$a0, $sp, 712
	ori	$a1, $zero, 2216
	add.d	$a1, $sp, $a1
	pcaddu18i	$ra, %call36(_ZL18callThroughOptnoneIRSt8functionIFjS0_IFvPiS1_S1_EEEEJRZL24checkVectorFunctionMultiIiLj3ELj511ELj17ELj17ELj17EEvS0_IFjS0_IFvPT_S9_S9_EEEESD_SD_SD_SD_PKcEUlS1_S1_S1_E0_EEDaOS8_DpOT0_)
	jirl	$ra, $ra, 0
.Ltmp376:                               # EH_LABEL
# %bb.133:                              # %.preheader.preheader.i
.Ltmp378:                               # EH_LABEL
	move	$fp, $a0
	ori	$a0, $zero, 2232
	add.d	$a0, $sp, $a0
	ori	$a1, $zero, 2216
	add.d	$a1, $sp, $a1
	ori	$a2, $zero, 2232
	add.d	$s1, $sp, $a2
	pcaddu18i	$ra, %call36(_ZL18callThroughOptnoneIRKSt8functionIFjS0_IFvPiS1_S1_EEEEJRZL24checkVectorFunctionMultiIiLj3ELj511ELj17ELj17ELj17EEvS0_IFjS0_IFvPT_SA_SA_EEEESE_SE_SE_SE_PKcEUlS1_S1_S1_E0_EEDaOS9_DpOT0_)
	jirl	$ra, $ra, 0
.Ltmp379:                               # EH_LABEL
# %bb.134:
	move	$s3, $a0
	bne	$fp, $a0, .LBB0_287
# %bb.135:                              # %.preheader.1.i
.Ltmp380:                               # EH_LABEL
	ori	$a0, $zero, 2216
	add.d	$a1, $sp, $a0
	move	$a0, $s0
	pcaddu18i	$ra, %call36(_ZL18callThroughOptnoneIRKSt8functionIFjS0_IFvPiS1_S1_EEEEJRZL24checkVectorFunctionMultiIiLj3ELj511ELj17ELj17ELj17EEvS0_IFjS0_IFvPT_SA_SA_EEEESE_SE_SE_SE_PKcEUlS1_S1_S1_E0_EEDaOS9_DpOT0_)
	jirl	$ra, $ra, 0
.Ltmp381:                               # EH_LABEL
# %bb.136:
	move	$s3, $a0
	move	$s1, $s0
	bne	$fp, $a0, .LBB0_287
# %bb.137:                              # %.preheader.2.i
.Ltmp382:                               # EH_LABEL
	ori	$a0, $zero, 2216
	add.d	$a1, $sp, $a0
	ori	$a0, $zero, 2312
	add.d	$a0, $sp, $a0
	pcaddu18i	$ra, %call36(_ZL18callThroughOptnoneIRKSt8functionIFjS0_IFvPiS1_S1_EEEEJRZL24checkVectorFunctionMultiIiLj3ELj511ELj17ELj17ELj17EEvS0_IFjS0_IFvPT_SA_SA_EEEESE_SE_SE_SE_PKcEUlS1_S1_S1_E0_EEDaOS9_DpOT0_)
	jirl	$ra, $ra, 0
.Ltmp383:                               # EH_LABEL
# %bb.138:
	move	$s3, $a0
	ori	$a0, $zero, 2312
	add.d	$s1, $sp, $a0
	bne	$fp, $s3, .LBB0_287
# %bb.139:                              # %.preheader.3.i
.Ltmp384:                               # EH_LABEL
	ori	$a0, $zero, 2216
	add.d	$a1, $sp, $a0
	ori	$a0, $zero, 2352
	add.d	$a0, $sp, $a0
	pcaddu18i	$ra, %call36(_ZL18callThroughOptnoneIRKSt8functionIFjS0_IFvPiS1_S1_EEEEJRZL24checkVectorFunctionMultiIiLj3ELj511ELj17ELj17ELj17EEvS0_IFjS0_IFvPT_SA_SA_EEEESE_SE_SE_SE_PKcEUlS1_S1_S1_E0_EEDaOS9_DpOT0_)
	jirl	$ra, $ra, 0
.Ltmp385:                               # EH_LABEL
# %bb.140:
	move	$s3, $a0
	ori	$a0, $zero, 2352
	add.d	$s1, $sp, $a0
	bne	$fp, $s3, .LBB0_287
# %bb.141:
	ori	$a0, $zero, 2368
	add.d	$a0, $sp, $a0
	ld.d	$a3, $a0, 0
	beqz	$a3, .LBB0_143
# %bb.142:
.Ltmp402:                               # EH_LABEL
	ori	$a2, $zero, 3
	ori	$a0, $zero, 2352
	add.d	$a0, $sp, $a0
	move	$a1, $a0
	jirl	$ra, $a3, 0
.Ltmp403:                               # EH_LABEL
.LBB0_143:                              # %_ZNSt4pairISt8functionIFjS0_IFvPiS1_S1_EEEEPKcED2Ev.exit.i.i
	ori	$a0, $zero, 2328
	add.d	$a0, $sp, $a0
	ld.d	$a3, $a0, 0
	beqz	$a3, .LBB0_145
# %bb.144:
.Ltmp404:                               # EH_LABEL
	ori	$a2, $zero, 3
	ori	$a0, $zero, 2312
	add.d	$a0, $sp, $a0
	move	$a1, $a0
	jirl	$ra, $a3, 0
.Ltmp405:                               # EH_LABEL
.LBB0_145:                              # %_ZNSt4pairISt8functionIFjS0_IFvPiS1_S1_EEEEPKcED2Ev.exit.1.i.i
	ori	$a0, $zero, 2288
	add.d	$a0, $sp, $a0
	ld.d	$a3, $a0, 0
	beqz	$a3, .LBB0_147
# %bb.146:
.Ltmp406:                               # EH_LABEL
	ori	$a2, $zero, 3
	move	$a0, $s0
	move	$a1, $s0
	jirl	$ra, $a3, 0
.Ltmp407:                               # EH_LABEL
.LBB0_147:                              # %_ZNSt4pairISt8functionIFjS0_IFvPiS1_S1_EEEEPKcED2Ev.exit.2.i.i
	ori	$a0, $zero, 2248
	add.d	$a0, $sp, $a0
	ld.d	$a3, $a0, 0
	beqz	$a3, .LBB0_149
# %bb.148:
.Ltmp408:                               # EH_LABEL
	ori	$a0, $zero, 2232
	add.d	$a0, $sp, $a0
	ori	$a1, $zero, 2232
	add.d	$a1, $sp, $a1
	ori	$a2, $zero, 3
	jirl	$ra, $a3, 0
.Ltmp409:                               # EH_LABEL
.LBB0_149:
	ld.d	$a3, $sp, 600
	beqz	$a3, .LBB0_151
# %bb.150:
.Ltmp411:                               # EH_LABEL
	addi.d	$a0, $sp, 584
	addi.d	$a1, $sp, 584
	ori	$a2, $zero, 3
	jirl	$ra, $a3, 0
.Ltmp412:                               # EH_LABEL
.LBB0_151:                              # %_ZNSt14_Function_baseD2Ev.exit94
	ld.d	$a3, $sp, 632
	beqz	$a3, .LBB0_153
# %bb.152:
.Ltmp414:                               # EH_LABEL
	addi.d	$a0, $sp, 616
	addi.d	$a1, $sp, 616
	ori	$a2, $zero, 3
	jirl	$ra, $a3, 0
.Ltmp415:                               # EH_LABEL
.LBB0_153:                              # %_ZNSt14_Function_baseD2Ev.exit96
	ld.d	$a3, $sp, 664
	beqz	$a3, .LBB0_155
# %bb.154:
.Ltmp417:                               # EH_LABEL
	addi.d	$a0, $sp, 648
	addi.d	$a1, $sp, 648
	ori	$a2, $zero, 3
	jirl	$ra, $a3, 0
.Ltmp418:                               # EH_LABEL
.LBB0_155:                              # %_ZNSt14_Function_baseD2Ev.exit98
	ld.d	$a3, $sp, 696
	beqz	$a3, .LBB0_157
# %bb.156:
.Ltmp420:                               # EH_LABEL
	addi.d	$a0, $sp, 680
	addi.d	$a1, $sp, 680
	ori	$a2, $zero, 3
	jirl	$ra, $a3, 0
.Ltmp421:                               # EH_LABEL
.LBB0_157:                              # %_ZNSt14_Function_baseD2Ev.exit100
	ld.d	$a3, $sp, 728
	beqz	$a3, .LBB0_159
# %bb.158:
.Ltmp423:                               # EH_LABEL
	addi.d	$a0, $sp, 712
	addi.d	$a1, $sp, 712
	ori	$a2, $zero, 3
	jirl	$ra, $a3, 0
.Ltmp424:                               # EH_LABEL
.LBB0_159:                              # %_ZNSt14_Function_baseD2Ev.exit102
	vld	$vr0, $sp, 80                   # 16-byte Folded Reload
	vst	$vr0, $sp, 552
	pcalau12i	$a0, %pc_hi20(_ZNSt17_Function_handlerIFjSt8functionIFvPiS1_S1_EEEZ4mainE4$_50E9_M_invokeERKSt9_Any_dataOS3_)
	addi.d	$a0, $a0, %pc_lo12(_ZNSt17_Function_handlerIFjSt8functionIFvPiS1_S1_EEEZ4mainE4$_50E9_M_invokeERKSt9_Any_dataOS3_)
	st.d	$a0, $sp, 576
	pcalau12i	$a0, %pc_hi20(_ZNSt17_Function_handlerIFjSt8functionIFvPiS1_S1_EEEZ4mainE4$_50E10_M_managerERSt9_Any_dataRKS7_St18_Manager_operation)
	addi.d	$a0, $a0, %pc_lo12(_ZNSt17_Function_handlerIFjSt8functionIFvPiS1_S1_EEEZ4mainE4$_50E10_M_managerERSt9_Any_dataRKS7_St18_Manager_operation)
	st.d	$a0, $sp, 568
	vst	$vr0, $sp, 520
	pcalau12i	$a0, %pc_hi20(_ZNSt17_Function_handlerIFjSt8functionIFvPiS1_S1_EEEZ4mainE4$_51E9_M_invokeERKSt9_Any_dataOS3_)
	addi.d	$a0, $a0, %pc_lo12(_ZNSt17_Function_handlerIFjSt8functionIFvPiS1_S1_EEEZ4mainE4$_51E9_M_invokeERKSt9_Any_dataOS3_)
	st.d	$a0, $sp, 544
	pcalau12i	$a0, %pc_hi20(_ZNSt17_Function_handlerIFjSt8functionIFvPiS1_S1_EEEZ4mainE4$_51E10_M_managerERSt9_Any_dataRKS7_St18_Manager_operation)
	addi.d	$a0, $a0, %pc_lo12(_ZNSt17_Function_handlerIFjSt8functionIFvPiS1_S1_EEEZ4mainE4$_51E10_M_managerERSt9_Any_dataRKS7_St18_Manager_operation)
	st.d	$a0, $sp, 536
	vst	$vr0, $sp, 488
	pcalau12i	$a0, %pc_hi20(_ZNSt17_Function_handlerIFjSt8functionIFvPiS1_S1_EEEZ4mainE4$_52E9_M_invokeERKSt9_Any_dataOS3_)
	addi.d	$a0, $a0, %pc_lo12(_ZNSt17_Function_handlerIFjSt8functionIFvPiS1_S1_EEEZ4mainE4$_52E9_M_invokeERKSt9_Any_dataOS3_)
	st.d	$a0, $sp, 512
	pcalau12i	$a0, %pc_hi20(_ZNSt17_Function_handlerIFjSt8functionIFvPiS1_S1_EEEZ4mainE4$_52E10_M_managerERSt9_Any_dataRKS7_St18_Manager_operation)
	addi.d	$a0, $a0, %pc_lo12(_ZNSt17_Function_handlerIFjSt8functionIFvPiS1_S1_EEEZ4mainE4$_52E10_M_managerERSt9_Any_dataRKS7_St18_Manager_operation)
	st.d	$a0, $sp, 504
	vst	$vr0, $sp, 456
	pcalau12i	$a0, %pc_hi20(_ZNSt17_Function_handlerIFjSt8functionIFvPiS1_S1_EEEZ4mainE4$_53E9_M_invokeERKSt9_Any_dataOS3_)
	addi.d	$a0, $a0, %pc_lo12(_ZNSt17_Function_handlerIFjSt8functionIFvPiS1_S1_EEEZ4mainE4$_53E9_M_invokeERKSt9_Any_dataOS3_)
	st.d	$a0, $sp, 480
	pcalau12i	$a0, %pc_hi20(_ZNSt17_Function_handlerIFjSt8functionIFvPiS1_S1_EEEZ4mainE4$_53E10_M_managerERSt9_Any_dataRKS7_St18_Manager_operation)
	addi.d	$a0, $a0, %pc_lo12(_ZNSt17_Function_handlerIFjSt8functionIFvPiS1_S1_EEEZ4mainE4$_53E10_M_managerERSt9_Any_dataRKS7_St18_Manager_operation)
	st.d	$a0, $sp, 472
	vst	$vr0, $sp, 424
	pcalau12i	$a0, %pc_hi20(_ZNSt17_Function_handlerIFjSt8functionIFvPiS1_S1_EEEZ4mainE4$_54E9_M_invokeERKSt9_Any_dataOS3_)
	addi.d	$a0, $a0, %pc_lo12(_ZNSt17_Function_handlerIFjSt8functionIFvPiS1_S1_EEEZ4mainE4$_54E9_M_invokeERKSt9_Any_dataOS3_)
	st.d	$a0, $sp, 448
	pcalau12i	$a0, %pc_hi20(_ZNSt17_Function_handlerIFjSt8functionIFvPiS1_S1_EEEZ4mainE4$_54E10_M_managerERSt9_Any_dataRKS7_St18_Manager_operation)
	addi.d	$a0, $a0, %pc_lo12(_ZNSt17_Function_handlerIFjSt8functionIFvPiS1_S1_EEEZ4mainE4$_54E10_M_managerERSt9_Any_dataRKS7_St18_Manager_operation)
	st.d	$a0, $sp, 440
.Ltmp426:                               # EH_LABEL
	pcalau12i	$a0, %pc_hi20(.L.str.10)
	addi.d	$a5, $a0, %pc_lo12(.L.str.10)
	addi.d	$a0, $sp, 552
	addi.d	$a1, $sp, 520
	addi.d	$a2, $sp, 488
	addi.d	$a3, $sp, 456
	addi.d	$a4, $sp, 424
	pcaddu18i	$ra, %call36(_ZL24checkVectorFunctionMultiIiLj2ELj64ELj3ELj3ELj65EEvSt8functionIFjS0_IFvPT_S2_S2_EEEES6_S6_S6_S6_PKc)
	jirl	$ra, $ra, 0
.Ltmp427:                               # EH_LABEL
# %bb.160:
	ld.d	$a3, $sp, 440
	beqz	$a3, .LBB0_162
# %bb.161:
.Ltmp444:                               # EH_LABEL
	addi.d	$a0, $sp, 424
	addi.d	$a1, $sp, 424
	ori	$a2, $zero, 3
	jirl	$ra, $a3, 0
.Ltmp445:                               # EH_LABEL
.LBB0_162:                              # %_ZNSt14_Function_baseD2Ev.exit104
	ld.d	$a3, $sp, 472
	beqz	$a3, .LBB0_164
# %bb.163:
.Ltmp447:                               # EH_LABEL
	addi.d	$a0, $sp, 456
	addi.d	$a1, $sp, 456
	ori	$a2, $zero, 3
	jirl	$ra, $a3, 0
.Ltmp448:                               # EH_LABEL
.LBB0_164:                              # %_ZNSt14_Function_baseD2Ev.exit106
	ld.d	$a3, $sp, 504
	beqz	$a3, .LBB0_166
# %bb.165:
.Ltmp450:                               # EH_LABEL
	addi.d	$a0, $sp, 488
	addi.d	$a1, $sp, 488
	ori	$a2, $zero, 3
	jirl	$ra, $a3, 0
.Ltmp451:                               # EH_LABEL
.LBB0_166:                              # %_ZNSt14_Function_baseD2Ev.exit108
	ld.d	$a3, $sp, 536
	beqz	$a3, .LBB0_168
# %bb.167:
.Ltmp453:                               # EH_LABEL
	addi.d	$a0, $sp, 520
	addi.d	$a1, $sp, 520
	ori	$a2, $zero, 3
	jirl	$ra, $a3, 0
.Ltmp454:                               # EH_LABEL
.LBB0_168:                              # %_ZNSt14_Function_baseD2Ev.exit110
	ld.d	$a3, $sp, 568
	beqz	$a3, .LBB0_170
# %bb.169:
.Ltmp456:                               # EH_LABEL
	addi.d	$a0, $sp, 552
	addi.d	$a1, $sp, 552
	ori	$a2, $zero, 3
	jirl	$ra, $a3, 0
.Ltmp457:                               # EH_LABEL
.LBB0_170:                              # %_ZNSt14_Function_baseD2Ev.exit112
	vld	$vr0, $sp, 80                   # 16-byte Folded Reload
	vst	$vr0, $sp, 392
	pcalau12i	$a0, %pc_hi20(_ZNSt17_Function_handlerIFjSt8functionIFvPiS1_S1_EEEZ4mainE4$_55E9_M_invokeERKSt9_Any_dataOS3_)
	addi.d	$a0, $a0, %pc_lo12(_ZNSt17_Function_handlerIFjSt8functionIFvPiS1_S1_EEEZ4mainE4$_55E9_M_invokeERKSt9_Any_dataOS3_)
	st.d	$a0, $sp, 416
	pcalau12i	$a0, %pc_hi20(_ZNSt17_Function_handlerIFjSt8functionIFvPiS1_S1_EEEZ4mainE4$_55E10_M_managerERSt9_Any_dataRKS7_St18_Manager_operation)
	addi.d	$a0, $a0, %pc_lo12(_ZNSt17_Function_handlerIFjSt8functionIFvPiS1_S1_EEEZ4mainE4$_55E10_M_managerERSt9_Any_dataRKS7_St18_Manager_operation)
	st.d	$a0, $sp, 408
	vst	$vr0, $sp, 360
	pcalau12i	$a0, %pc_hi20(_ZNSt17_Function_handlerIFjSt8functionIFvPiS1_S1_EEEZ4mainE4$_56E9_M_invokeERKSt9_Any_dataOS3_)
	addi.d	$a0, $a0, %pc_lo12(_ZNSt17_Function_handlerIFjSt8functionIFvPiS1_S1_EEEZ4mainE4$_56E9_M_invokeERKSt9_Any_dataOS3_)
	st.d	$a0, $sp, 384
	pcalau12i	$a0, %pc_hi20(_ZNSt17_Function_handlerIFjSt8functionIFvPiS1_S1_EEEZ4mainE4$_56E10_M_managerERSt9_Any_dataRKS7_St18_Manager_operation)
	addi.d	$a0, $a0, %pc_lo12(_ZNSt17_Function_handlerIFjSt8functionIFvPiS1_S1_EEEZ4mainE4$_56E10_M_managerERSt9_Any_dataRKS7_St18_Manager_operation)
	st.d	$a0, $sp, 376
	vst	$vr0, $sp, 328
	pcalau12i	$a0, %pc_hi20(_ZNSt17_Function_handlerIFjSt8functionIFvPiS1_S1_EEEZ4mainE4$_57E9_M_invokeERKSt9_Any_dataOS3_)
	addi.d	$a0, $a0, %pc_lo12(_ZNSt17_Function_handlerIFjSt8functionIFvPiS1_S1_EEEZ4mainE4$_57E9_M_invokeERKSt9_Any_dataOS3_)
	st.d	$a0, $sp, 352
	pcalau12i	$a0, %pc_hi20(_ZNSt17_Function_handlerIFjSt8functionIFvPiS1_S1_EEEZ4mainE4$_57E10_M_managerERSt9_Any_dataRKS7_St18_Manager_operation)
	addi.d	$a0, $a0, %pc_lo12(_ZNSt17_Function_handlerIFjSt8functionIFvPiS1_S1_EEEZ4mainE4$_57E10_M_managerERSt9_Any_dataRKS7_St18_Manager_operation)
	st.d	$a0, $sp, 344
	vst	$vr0, $sp, 296
	pcalau12i	$a0, %pc_hi20(_ZNSt17_Function_handlerIFjSt8functionIFvPiS1_S1_EEEZ4mainE4$_58E9_M_invokeERKSt9_Any_dataOS3_)
	addi.d	$a0, $a0, %pc_lo12(_ZNSt17_Function_handlerIFjSt8functionIFvPiS1_S1_EEEZ4mainE4$_58E9_M_invokeERKSt9_Any_dataOS3_)
	st.d	$a0, $sp, 320
	pcalau12i	$a0, %pc_hi20(_ZNSt17_Function_handlerIFjSt8functionIFvPiS1_S1_EEEZ4mainE4$_58E10_M_managerERSt9_Any_dataRKS7_St18_Manager_operation)
	addi.d	$a0, $a0, %pc_lo12(_ZNSt17_Function_handlerIFjSt8functionIFvPiS1_S1_EEEZ4mainE4$_58E10_M_managerERSt9_Any_dataRKS7_St18_Manager_operation)
	st.d	$a0, $sp, 312
	vst	$vr0, $sp, 264
	pcalau12i	$a0, %pc_hi20(_ZNSt17_Function_handlerIFjSt8functionIFvPiS1_S1_EEEZ4mainE4$_59E9_M_invokeERKSt9_Any_dataOS3_)
	addi.d	$a0, $a0, %pc_lo12(_ZNSt17_Function_handlerIFjSt8functionIFvPiS1_S1_EEEZ4mainE4$_59E9_M_invokeERKSt9_Any_dataOS3_)
	st.d	$a0, $sp, 288
	pcalau12i	$a0, %pc_hi20(_ZNSt17_Function_handlerIFjSt8functionIFvPiS1_S1_EEEZ4mainE4$_59E10_M_managerERSt9_Any_dataRKS7_St18_Manager_operation)
	addi.d	$a0, $a0, %pc_lo12(_ZNSt17_Function_handlerIFjSt8functionIFvPiS1_S1_EEEZ4mainE4$_59E10_M_managerERSt9_Any_dataRKS7_St18_Manager_operation)
	st.d	$a0, $sp, 280
.Ltmp459:                               # EH_LABEL
	pcalau12i	$a0, %got_pc_hi20(_ZSt4cout)
	ld.d	$a0, $a0, %got_pc_lo12(_ZSt4cout)
	pcalau12i	$a1, %pc_hi20(.L.str.13)
	addi.d	$a1, $a1, %pc_lo12(.L.str.13)
	ori	$a2, $zero, 9
	pcaddu18i	$ra, %call36(_ZSt16__ostream_insertIcSt11char_traitsIcEERSt13basic_ostreamIT_T0_ES6_PKS3_l)
	jirl	$ra, $ra, 0
.Ltmp460:                               # EH_LABEL
# %bb.171:                              # %.noexc205
.Ltmp461:                               # EH_LABEL
	pcalau12i	$a0, %got_pc_hi20(_ZSt4cout)
	ld.d	$a0, $a0, %got_pc_lo12(_ZSt4cout)
	pcalau12i	$a1, %pc_hi20(.L.str.11)
	addi.d	$a1, $a1, %pc_lo12(.L.str.11)
	ori	$a2, $zero, 32
	pcaddu18i	$ra, %call36(_ZSt16__ostream_insertIcSt11char_traitsIcEERSt13basic_ostreamIT_T0_ES6_PKS3_l)
	jirl	$ra, $ra, 0
.Ltmp462:                               # EH_LABEL
# %bb.172:                              # %.noexc206
.Ltmp463:                               # EH_LABEL
	pcalau12i	$a0, %got_pc_hi20(_ZSt4cout)
	ld.d	$a0, $a0, %got_pc_lo12(_ZSt4cout)
	pcalau12i	$a1, %pc_hi20(.L.str.14)
	addi.d	$a1, $a1, %pc_lo12(.L.str.14)
	ori	$a2, $zero, 1
	pcaddu18i	$ra, %call36(_ZSt16__ostream_insertIcSt11char_traitsIcEERSt13basic_ostreamIT_T0_ES6_PKS3_l)
	jirl	$ra, $ra, 0
.Ltmp464:                               # EH_LABEL
# %bb.173:                              # %.noexc207
	ld.d	$a3, $sp, 376
	xvld	$xr0, $sp, 48                   # 32-byte Folded Reload
	ori	$a0, $zero, 2232
	add.d	$a0, $sp, $a0
	xvst	$xr0, $a0, 0
	beqz	$a3, .LBB0_176
# %bb.174:
.Ltmp466:                               # EH_LABEL
	ori	$a0, $zero, 2232
	add.d	$a0, $sp, $a0
	addi.d	$a1, $sp, 360
	ori	$a2, $zero, 2
	jirl	$ra, $a3, 0
.Ltmp467:                               # EH_LABEL
# %bb.175:
	vld	$vr0, $sp, 376
	ori	$a0, $zero, 2248
	add.d	$a0, $sp, $a0
	vst	$vr0, $a0, 0
.LBB0_176:
	ld.d	$a3, $sp, 344
	ld.d	$a0, $sp, 40                    # 8-byte Folded Reload
	ori	$a1, $zero, 2264
	add.d	$a1, $sp, $a1
	st.d	$a0, $a1, 0
	ori	$a0, $zero, 2272
	add.d	$s0, $sp, $a0
	xvld	$xr0, $sp, 48                   # 32-byte Folded Reload
	ori	$a0, $zero, 2272
	add.d	$a0, $sp, $a0
	xvst	$xr0, $a0, 0
	beqz	$a3, .LBB0_179
# %bb.177:
.Ltmp472:                               # EH_LABEL
	addi.d	$a1, $sp, 328
	ori	$a2, $zero, 2
	move	$a0, $s0
	jirl	$ra, $a3, 0
.Ltmp473:                               # EH_LABEL
# %bb.178:
	vld	$vr0, $sp, 344
	ori	$a0, $zero, 2288
	add.d	$a0, $sp, $a0
	vst	$vr0, $a0, 0
.LBB0_179:
	ld.d	$a3, $sp, 312
	ld.d	$a0, $sp, 32                    # 8-byte Folded Reload
	ori	$a1, $zero, 2304
	add.d	$a1, $sp, $a1
	st.d	$a0, $a1, 0
	xvld	$xr0, $sp, 48                   # 32-byte Folded Reload
	ori	$a0, $zero, 2312
	add.d	$a0, $sp, $a0
	xvst	$xr0, $a0, 0
	beqz	$a3, .LBB0_182
# %bb.180:
.Ltmp478:                               # EH_LABEL
	addi.d	$a1, $sp, 296
	ori	$a2, $zero, 2
	ori	$a0, $zero, 2312
	add.d	$a0, $sp, $a0
	jirl	$ra, $a3, 0
.Ltmp479:                               # EH_LABEL
# %bb.181:
	vld	$vr0, $sp, 312
	ori	$a0, $zero, 2328
	add.d	$a0, $sp, $a0
	vst	$vr0, $a0, 0
.LBB0_182:
	ld.d	$a3, $sp, 280
	ld.d	$a0, $sp, 24                    # 8-byte Folded Reload
	ori	$a1, $zero, 2344
	add.d	$a1, $sp, $a1
	st.d	$a0, $a1, 0
	xvld	$xr0, $sp, 48                   # 32-byte Folded Reload
	ori	$a0, $zero, 2352
	add.d	$a0, $sp, $a0
	xvst	$xr0, $a0, 0
	beqz	$a3, .LBB0_185
# %bb.183:
.Ltmp484:                               # EH_LABEL
	addi.d	$a1, $sp, 264
	ori	$a2, $zero, 2
	ori	$a0, $zero, 2352
	add.d	$a0, $sp, $a0
	jirl	$ra, $a3, 0
.Ltmp485:                               # EH_LABEL
# %bb.184:
	vld	$vr0, $sp, 280
	ori	$a0, $zero, 2368
	add.d	$a0, $sp, $a0
	vst	$vr0, $a0, 0
.LBB0_185:                              # %_ZSt9make_pairIRSt8functionIFjS0_IFvPiS1_S1_EEEERA16_KcESt4pairINSt25__strip_reference_wrapperINSt5decayIT_E4typeEE6__typeENSB_INSC_IT0_E4typeEE6__typeEEOSD_OSI_.exit.i128
	ld.d	$a0, $sp, 16                    # 8-byte Folded Reload
	ori	$a1, $zero, 2384
	add.d	$a1, $sp, $a1
	st.d	$a0, $a1, 0
	pcalau12i	$a0, %pc_hi20(_ZNSt17_Function_handlerIFvPiS0_S0_EZL24checkVectorFunctionMultiIiLj3ELj64ELj7ELj7ELj7EEvSt8functionIFjS3_IFvPT_S5_S5_EEEES9_S9_S9_S9_PKcEUlS0_S0_S0_E_E9_M_invokeERKSt9_Any_dataOS0_SH_SH_)
	addi.d	$s7, $a0, %pc_lo12(_ZNSt17_Function_handlerIFvPiS0_S0_EZL24checkVectorFunctionMultiIiLj3ELj64ELj7ELj7ELj7EEvSt8functionIFjS3_IFvPT_S5_S5_EEEES9_S9_S9_S9_PKcEUlS0_S0_S0_E_E9_M_invokeERKSt9_Any_dataOS0_SH_SH_)
	pcalau12i	$a0, %pc_hi20(_ZNSt17_Function_handlerIFvPiS0_S0_EZL24checkVectorFunctionMultiIiLj3ELj64ELj7ELj7ELj7EEvSt8functionIFjS3_IFvPT_S5_S5_EEEES9_S9_S9_S9_PKcEUlS0_S0_S0_E_E10_M_managerERSt9_Any_dataRKSE_St18_Manager_operation)
	addi.d	$s8, $a0, %pc_lo12(_ZNSt17_Function_handlerIFvPiS0_S0_EZL24checkVectorFunctionMultiIiLj3ELj64ELj7ELj7ELj7EEvSt8functionIFjS3_IFvPT_S5_S5_EEEES9_S9_S9_S9_PKcEUlS0_S0_S0_E_E10_M_managerERSt9_Any_dataRKSE_St18_Manager_operation)
	move	$a1, $zero
	ori	$s1, $zero, 58
	.p2align	4, , 16
.LBB0_186:                              # %.preheader14.i129
                                        # =>This Loop Header: Depth=1
                                        #     Child Loop BB0_187 Depth 2
                                        #       Child Loop BB0_188 Depth 3
	move	$a0, $zero
	move	$s5, $a1
	.p2align	4, , 16
.LBB0_187:                              # %.preheader8.i131
                                        #   Parent Loop BB0_186 Depth=1
                                        # =>  This Loop Header: Depth=2
                                        #       Child Loop BB0_188 Depth 3
	move	$fp, $zero
	move	$s4, $a0
	addi.d	$s2, $zero, -7
	.p2align	4, , 16
.LBB0_188:                              #   Parent Loop BB0_186 Depth=1
                                        #     Parent Loop BB0_187 Depth=2
                                        # =>    This Inner Loop Header: Depth=3
	addi.w	$s2, $s2, 7
	ori	$a0, $zero, 2216
	add.d	$a0, $sp, $a0
	st.w	$s5, $a0, 0
	ori	$a0, $zero, 2220
	add.d	$a0, $sp, $a0
	st.w	$s4, $a0, 0
	ori	$a0, $zero, 2224
	add.d	$a0, $sp, $a0
	st.w	$s2, $a0, 0
	ori	$a0, $zero, 2216
	add.d	$a0, $sp, $a0
	ld.d	$a0, $a0, 0
	ori	$a1, $zero, 2196
	add.d	$a1, $sp, $a1
	st.w	$zero, $a1, 0
	ld.d	$a1, $sp, 408
	ori	$a2, $zero, 2192
	add.d	$a2, $sp, $a2
	st.w	$s2, $a2, 0
	ori	$a2, $zero, 2184
	add.d	$a2, $sp, $a2
	st.d	$a0, $a2, 0
	ori	$a0, $zero, 2208
	add.d	$a0, $sp, $a0
	st.d	$s7, $a0, 0
	ori	$a0, $zero, 2200
	add.d	$a0, $sp, $a0
	st.d	$s8, $a0, 0
	beqz	$a1, .LBB0_265
# %bb.189:                              #   in Loop: Header=BB0_188 Depth=3
	ld.d	$a2, $sp, 416
.Ltmp493:                               # EH_LABEL
	addi.d	$a0, $sp, 392
	ori	$a1, $zero, 2184
	add.d	$a1, $sp, $a1
	jirl	$ra, $a2, 0
.Ltmp494:                               # EH_LABEL
# %bb.190:                              # %_ZNKSt8functionIFjS_IFvPiS0_S0_EEEEclES2_.exit.i149
                                        #   in Loop: Header=BB0_188 Depth=3
	move	$s3, $a0
	ori	$a0, $zero, 2200
	add.d	$a0, $sp, $a0
	ld.d	$a3, $a0, 0
	beqz	$a3, .LBB0_192
# %bb.191:                              #   in Loop: Header=BB0_188 Depth=3
.Ltmp496:                               # EH_LABEL
	ori	$a0, $zero, 2184
	add.d	$a0, $sp, $a0
	ori	$a1, $zero, 2184
	add.d	$a1, $sp, $a1
	ori	$a2, $zero, 3
	jirl	$ra, $a3, 0
.Ltmp497:                               # EH_LABEL
.LBB0_192:                              # %_ZNSt14_Function_baseD2Ev.exit.i151
                                        #   in Loop: Header=BB0_188 Depth=3
.Ltmp499:                               # EH_LABEL
	ori	$a0, $zero, 2232
	add.d	$a0, $sp, $a0
	ori	$a1, $zero, 2216
	add.d	$a1, $sp, $a1
	pcaddu18i	$ra, %call36(_ZL18callThroughOptnoneIRKSt8functionIFjS0_IFvPiS1_S1_EEEEJRZL24checkVectorFunctionMultiIiLj3ELj64ELj7ELj7ELj7EEvS0_IFjS0_IFvPT_SA_SA_EEEESE_SE_SE_SE_PKcEUlS1_S1_S1_E_EEDaOS9_DpOT0_)
	jirl	$ra, $ra, 0
.Ltmp500:                               # EH_LABEL
# %bb.193:                              #   in Loop: Header=BB0_188 Depth=3
	move	$s6, $a0
	bne	$s3, $a0, .LBB0_268
# %bb.194:                              #   in Loop: Header=BB0_188 Depth=3
.Ltmp501:                               # EH_LABEL
	ori	$a0, $zero, 2216
	add.d	$a1, $sp, $a0
	move	$a0, $s0
	pcaddu18i	$ra, %call36(_ZL18callThroughOptnoneIRKSt8functionIFjS0_IFvPiS1_S1_EEEEJRZL24checkVectorFunctionMultiIiLj3ELj64ELj7ELj7ELj7EEvS0_IFjS0_IFvPT_SA_SA_EEEESE_SE_SE_SE_PKcEUlS1_S1_S1_E_EEDaOS9_DpOT0_)
	jirl	$ra, $ra, 0
.Ltmp502:                               # EH_LABEL
# %bb.195:                              #   in Loop: Header=BB0_188 Depth=3
	move	$s6, $a0
	bne	$s3, $a0, .LBB0_270
# %bb.196:                              #   in Loop: Header=BB0_188 Depth=3
.Ltmp503:                               # EH_LABEL
	ori	$a0, $zero, 2216
	add.d	$a1, $sp, $a0
	ori	$a0, $zero, 2312
	add.d	$a0, $sp, $a0
	pcaddu18i	$ra, %call36(_ZL18callThroughOptnoneIRKSt8functionIFjS0_IFvPiS1_S1_EEEEJRZL24checkVectorFunctionMultiIiLj3ELj64ELj7ELj7ELj7EEvS0_IFjS0_IFvPT_SA_SA_EEEESE_SE_SE_SE_PKcEUlS1_S1_S1_E_EEDaOS9_DpOT0_)
	jirl	$ra, $ra, 0
.Ltmp504:                               # EH_LABEL
# %bb.197:                              #   in Loop: Header=BB0_188 Depth=3
	move	$s6, $a0
	bne	$s3, $a0, .LBB0_267
# %bb.198:                              #   in Loop: Header=BB0_188 Depth=3
.Ltmp505:                               # EH_LABEL
	ori	$a0, $zero, 2216
	add.d	$a1, $sp, $a0
	ori	$a0, $zero, 2352
	add.d	$a0, $sp, $a0
	pcaddu18i	$ra, %call36(_ZL18callThroughOptnoneIRKSt8functionIFjS0_IFvPiS1_S1_EEEEJRZL24checkVectorFunctionMultiIiLj3ELj64ELj7ELj7ELj7EEvS0_IFjS0_IFvPT_SA_SA_EEEESE_SE_SE_SE_PKcEUlS1_S1_S1_E_EEDaOS9_DpOT0_)
	jirl	$ra, $ra, 0
.Ltmp506:                               # EH_LABEL
# %bb.199:                              #   in Loop: Header=BB0_188 Depth=3
	move	$s6, $a0
	bne	$s3, $a0, .LBB0_264
# %bb.200:                              #   in Loop: Header=BB0_188 Depth=3
	addi.d	$fp, $fp, 7
	bltu	$s2, $s1, .LBB0_188
# %bb.201:                              #   in Loop: Header=BB0_187 Depth=2
	addi.w	$a0, $s4, 7
	bltu	$s4, $s1, .LBB0_187
# %bb.202:                              #   in Loop: Header=BB0_186 Depth=1
	addi.w	$a1, $s5, 7
	bltu	$s5, $s1, .LBB0_186
# %bb.203:
.Ltmp537:                               # EH_LABEL
	addi.d	$a0, $sp, 392
	ori	$a1, $zero, 2216
	add.d	$a1, $sp, $a1
	pcaddu18i	$ra, %call36(_ZL18callThroughOptnoneIRSt8functionIFjS0_IFvPiS1_S1_EEEEJRZL24checkVectorFunctionMultiIiLj3ELj64ELj7ELj7ELj7EEvS0_IFjS0_IFvPT_S9_S9_EEEESD_SD_SD_SD_PKcEUlS1_S1_S1_E0_EEDaOS8_DpOT0_)
	jirl	$ra, $ra, 0
.Ltmp538:                               # EH_LABEL
# %bb.204:                              # %.preheader.preheader.i176
.Ltmp540:                               # EH_LABEL
	move	$fp, $a0
	ori	$a0, $zero, 2232
	add.d	$a0, $sp, $a0
	ori	$a1, $zero, 2216
	add.d	$a1, $sp, $a1
	ori	$a2, $zero, 2232
	add.d	$s1, $sp, $a2
	pcaddu18i	$ra, %call36(_ZL18callThroughOptnoneIRKSt8functionIFjS0_IFvPiS1_S1_EEEEJRZL24checkVectorFunctionMultiIiLj3ELj64ELj7ELj7ELj7EEvS0_IFjS0_IFvPT_SA_SA_EEEESE_SE_SE_SE_PKcEUlS1_S1_S1_E0_EEDaOS9_DpOT0_)
	jirl	$ra, $ra, 0
.Ltmp541:                               # EH_LABEL
# %bb.205:
	move	$s3, $a0
	bne	$fp, $a0, .LBB0_294
# %bb.206:                              # %.preheader.1.i189
.Ltmp542:                               # EH_LABEL
	ori	$a0, $zero, 2216
	add.d	$a1, $sp, $a0
	move	$a0, $s0
	pcaddu18i	$ra, %call36(_ZL18callThroughOptnoneIRKSt8functionIFjS0_IFvPiS1_S1_EEEEJRZL24checkVectorFunctionMultiIiLj3ELj64ELj7ELj7ELj7EEvS0_IFjS0_IFvPT_SA_SA_EEEESE_SE_SE_SE_PKcEUlS1_S1_S1_E0_EEDaOS9_DpOT0_)
	jirl	$ra, $ra, 0
.Ltmp543:                               # EH_LABEL
# %bb.207:
	move	$s3, $a0
	move	$s1, $s0
	bne	$fp, $a0, .LBB0_294
# %bb.208:                              # %.preheader.2.i191
.Ltmp544:                               # EH_LABEL
	ori	$a0, $zero, 2216
	add.d	$a1, $sp, $a0
	ori	$a0, $zero, 2312
	add.d	$a0, $sp, $a0
	pcaddu18i	$ra, %call36(_ZL18callThroughOptnoneIRKSt8functionIFjS0_IFvPiS1_S1_EEEEJRZL24checkVectorFunctionMultiIiLj3ELj64ELj7ELj7ELj7EEvS0_IFjS0_IFvPT_SA_SA_EEEESE_SE_SE_SE_PKcEUlS1_S1_S1_E0_EEDaOS9_DpOT0_)
	jirl	$ra, $ra, 0
.Ltmp545:                               # EH_LABEL
# %bb.209:
	move	$s3, $a0
	ori	$a0, $zero, 2312
	add.d	$s1, $sp, $a0
	bne	$fp, $s3, .LBB0_294
# %bb.210:                              # %.preheader.3.i193
.Ltmp546:                               # EH_LABEL
	ori	$a0, $zero, 2216
	add.d	$a1, $sp, $a0
	ori	$a0, $zero, 2352
	add.d	$a0, $sp, $a0
	pcaddu18i	$ra, %call36(_ZL18callThroughOptnoneIRKSt8functionIFjS0_IFvPiS1_S1_EEEEJRZL24checkVectorFunctionMultiIiLj3ELj64ELj7ELj7ELj7EEvS0_IFjS0_IFvPT_SA_SA_EEEESE_SE_SE_SE_PKcEUlS1_S1_S1_E0_EEDaOS9_DpOT0_)
	jirl	$ra, $ra, 0
.Ltmp547:                               # EH_LABEL
# %bb.211:
	move	$s3, $a0
	ori	$a0, $zero, 2352
	add.d	$s1, $sp, $a0
	bne	$fp, $s3, .LBB0_294
# %bb.212:
	ori	$a0, $zero, 2368
	add.d	$a0, $sp, $a0
	ld.d	$a3, $a0, 0
	beqz	$a3, .LBB0_214
# %bb.213:
.Ltmp564:                               # EH_LABEL
	ori	$a2, $zero, 3
	ori	$a0, $zero, 2352
	add.d	$a0, $sp, $a0
	move	$a1, $a0
	jirl	$ra, $a3, 0
.Ltmp565:                               # EH_LABEL
.LBB0_214:                              # %_ZNSt4pairISt8functionIFjS0_IFvPiS1_S1_EEEEPKcED2Ev.exit.i.i196
	ori	$a0, $zero, 2328
	add.d	$a0, $sp, $a0
	ld.d	$a3, $a0, 0
	beqz	$a3, .LBB0_216
# %bb.215:
.Ltmp566:                               # EH_LABEL
	ori	$a2, $zero, 3
	ori	$a0, $zero, 2312
	add.d	$a0, $sp, $a0
	move	$a1, $a0
	jirl	$ra, $a3, 0
.Ltmp567:                               # EH_LABEL
.LBB0_216:                              # %_ZNSt4pairISt8functionIFjS0_IFvPiS1_S1_EEEEPKcED2Ev.exit.1.i.i198
	ori	$a0, $zero, 2288
	add.d	$a0, $sp, $a0
	ld.d	$a3, $a0, 0
	beqz	$a3, .LBB0_218
# %bb.217:
.Ltmp568:                               # EH_LABEL
	ori	$a2, $zero, 3
	move	$a0, $s0
	move	$a1, $s0
	jirl	$ra, $a3, 0
.Ltmp569:                               # EH_LABEL
.LBB0_218:                              # %_ZNSt4pairISt8functionIFjS0_IFvPiS1_S1_EEEEPKcED2Ev.exit.2.i.i200
	ori	$a0, $zero, 2248
	add.d	$a0, $sp, $a0
	ld.d	$a3, $a0, 0
	beqz	$a3, .LBB0_220
# %bb.219:
.Ltmp570:                               # EH_LABEL
	ori	$a0, $zero, 2232
	add.d	$a0, $sp, $a0
	ori	$a1, $zero, 2232
	add.d	$a1, $sp, $a1
	ori	$a2, $zero, 3
	jirl	$ra, $a3, 0
.Ltmp571:                               # EH_LABEL
.LBB0_220:
	ld.d	$a3, $sp, 280
	beqz	$a3, .LBB0_222
# %bb.221:
.Ltmp573:                               # EH_LABEL
	addi.d	$a0, $sp, 264
	addi.d	$a1, $sp, 264
	ori	$a2, $zero, 3
	jirl	$ra, $a3, 0
.Ltmp574:                               # EH_LABEL
.LBB0_222:                              # %_ZNSt14_Function_baseD2Ev.exit211
	ld.d	$a3, $sp, 312
	beqz	$a3, .LBB0_224
# %bb.223:
.Ltmp576:                               # EH_LABEL
	addi.d	$a0, $sp, 296
	addi.d	$a1, $sp, 296
	ori	$a2, $zero, 3
	jirl	$ra, $a3, 0
.Ltmp577:                               # EH_LABEL
.LBB0_224:                              # %_ZNSt14_Function_baseD2Ev.exit213
	ld.d	$a3, $sp, 344
	beqz	$a3, .LBB0_226
# %bb.225:
.Ltmp579:                               # EH_LABEL
	addi.d	$a0, $sp, 328
	addi.d	$a1, $sp, 328
	ori	$a2, $zero, 3
	jirl	$ra, $a3, 0
.Ltmp580:                               # EH_LABEL
.LBB0_226:                              # %_ZNSt14_Function_baseD2Ev.exit215
	ld.d	$a3, $sp, 376
	beqz	$a3, .LBB0_228
# %bb.227:
.Ltmp582:                               # EH_LABEL
	addi.d	$a0, $sp, 360
	addi.d	$a1, $sp, 360
	ori	$a2, $zero, 3
	jirl	$ra, $a3, 0
.Ltmp583:                               # EH_LABEL
.LBB0_228:                              # %_ZNSt14_Function_baseD2Ev.exit217
	ld.d	$a3, $sp, 408
	beqz	$a3, .LBB0_230
# %bb.229:
.Ltmp585:                               # EH_LABEL
	addi.d	$a0, $sp, 392
	addi.d	$a1, $sp, 392
	ori	$a2, $zero, 3
	jirl	$ra, $a3, 0
.Ltmp586:                               # EH_LABEL
.LBB0_230:                              # %_ZNSt14_Function_baseD2Ev.exit219
	vld	$vr0, $sp, 80                   # 16-byte Folded Reload
	vst	$vr0, $sp, 232
	pcalau12i	$a0, %pc_hi20(_ZNSt17_Function_handlerIFjSt8functionIFvPiS1_S1_EEEZ4mainE4$_60E9_M_invokeERKSt9_Any_dataOS3_)
	addi.d	$a0, $a0, %pc_lo12(_ZNSt17_Function_handlerIFjSt8functionIFvPiS1_S1_EEEZ4mainE4$_60E9_M_invokeERKSt9_Any_dataOS3_)
	st.d	$a0, $sp, 256
	pcalau12i	$a0, %pc_hi20(_ZNSt17_Function_handlerIFjSt8functionIFvPiS1_S1_EEEZ4mainE4$_60E10_M_managerERSt9_Any_dataRKS7_St18_Manager_operation)
	addi.d	$a0, $a0, %pc_lo12(_ZNSt17_Function_handlerIFjSt8functionIFvPiS1_S1_EEEZ4mainE4$_60E10_M_managerERSt9_Any_dataRKS7_St18_Manager_operation)
	st.d	$a0, $sp, 248
	vst	$vr0, $sp, 200
	pcalau12i	$a0, %pc_hi20(_ZNSt17_Function_handlerIFjSt8functionIFvPiS1_S1_EEEZ4mainE4$_61E9_M_invokeERKSt9_Any_dataOS3_)
	addi.d	$a0, $a0, %pc_lo12(_ZNSt17_Function_handlerIFjSt8functionIFvPiS1_S1_EEEZ4mainE4$_61E9_M_invokeERKSt9_Any_dataOS3_)
	st.d	$a0, $sp, 224
	pcalau12i	$a0, %pc_hi20(_ZNSt17_Function_handlerIFjSt8functionIFvPiS1_S1_EEEZ4mainE4$_61E10_M_managerERSt9_Any_dataRKS7_St18_Manager_operation)
	addi.d	$a0, $a0, %pc_lo12(_ZNSt17_Function_handlerIFjSt8functionIFvPiS1_S1_EEEZ4mainE4$_61E10_M_managerERSt9_Any_dataRKS7_St18_Manager_operation)
	st.d	$a0, $sp, 216
	vst	$vr0, $sp, 168
	pcalau12i	$a0, %pc_hi20(_ZNSt17_Function_handlerIFjSt8functionIFvPiS1_S1_EEEZ4mainE4$_62E9_M_invokeERKSt9_Any_dataOS3_)
	addi.d	$a0, $a0, %pc_lo12(_ZNSt17_Function_handlerIFjSt8functionIFvPiS1_S1_EEEZ4mainE4$_62E9_M_invokeERKSt9_Any_dataOS3_)
	st.d	$a0, $sp, 192
	pcalau12i	$a0, %pc_hi20(_ZNSt17_Function_handlerIFjSt8functionIFvPiS1_S1_EEEZ4mainE4$_62E10_M_managerERSt9_Any_dataRKS7_St18_Manager_operation)
	addi.d	$a0, $a0, %pc_lo12(_ZNSt17_Function_handlerIFjSt8functionIFvPiS1_S1_EEEZ4mainE4$_62E10_M_managerERSt9_Any_dataRKS7_St18_Manager_operation)
	st.d	$a0, $sp, 184
	vst	$vr0, $sp, 136
	pcalau12i	$a0, %pc_hi20(_ZNSt17_Function_handlerIFjSt8functionIFvPiS1_S1_EEEZ4mainE4$_63E9_M_invokeERKSt9_Any_dataOS3_)
	addi.d	$a0, $a0, %pc_lo12(_ZNSt17_Function_handlerIFjSt8functionIFvPiS1_S1_EEEZ4mainE4$_63E9_M_invokeERKSt9_Any_dataOS3_)
	st.d	$a0, $sp, 160
	pcalau12i	$a0, %pc_hi20(_ZNSt17_Function_handlerIFjSt8functionIFvPiS1_S1_EEEZ4mainE4$_63E10_M_managerERSt9_Any_dataRKS7_St18_Manager_operation)
	addi.d	$a0, $a0, %pc_lo12(_ZNSt17_Function_handlerIFjSt8functionIFvPiS1_S1_EEEZ4mainE4$_63E10_M_managerERSt9_Any_dataRKS7_St18_Manager_operation)
	st.d	$a0, $sp, 152
	vst	$vr0, $sp, 104
	pcalau12i	$a0, %pc_hi20(_ZNSt17_Function_handlerIFjSt8functionIFvPiS1_S1_EEEZ4mainE4$_64E9_M_invokeERKSt9_Any_dataOS3_)
	addi.d	$a0, $a0, %pc_lo12(_ZNSt17_Function_handlerIFjSt8functionIFvPiS1_S1_EEEZ4mainE4$_64E9_M_invokeERKSt9_Any_dataOS3_)
	st.d	$a0, $sp, 128
	pcalau12i	$a0, %pc_hi20(_ZNSt17_Function_handlerIFjSt8functionIFvPiS1_S1_EEEZ4mainE4$_64E10_M_managerERSt9_Any_dataRKS7_St18_Manager_operation)
	addi.d	$a0, $a0, %pc_lo12(_ZNSt17_Function_handlerIFjSt8functionIFvPiS1_S1_EEEZ4mainE4$_64E10_M_managerERSt9_Any_dataRKS7_St18_Manager_operation)
	st.d	$a0, $sp, 120
.Ltmp588:                               # EH_LABEL
	pcalau12i	$a0, %pc_hi20(.L.str.12)
	addi.d	$a5, $a0, %pc_lo12(.L.str.12)
	addi.d	$a0, $sp, 232
	addi.d	$a1, $sp, 200
	addi.d	$a2, $sp, 168
	addi.d	$a3, $sp, 136
	addi.d	$a4, $sp, 104
	pcaddu18i	$ra, %call36(_ZL24checkVectorFunctionMultiIiLj2ELj64ELj3ELj3ELj65EEvSt8functionIFjS0_IFvPT_S2_S2_EEEES6_S6_S6_S6_PKc)
	jirl	$ra, $ra, 0
.Ltmp589:                               # EH_LABEL
# %bb.231:
	ld.d	$a3, $sp, 120
	beqz	$a3, .LBB0_233
# %bb.232:
.Ltmp606:                               # EH_LABEL
	addi.d	$a0, $sp, 104
	addi.d	$a1, $sp, 104
	ori	$a2, $zero, 3
	jirl	$ra, $a3, 0
.Ltmp607:                               # EH_LABEL
.LBB0_233:                              # %_ZNSt14_Function_baseD2Ev.exit221
	ld.d	$a3, $sp, 152
	beqz	$a3, .LBB0_235
# %bb.234:
.Ltmp609:                               # EH_LABEL
	addi.d	$a0, $sp, 136
	addi.d	$a1, $sp, 136
	ori	$a2, $zero, 3
	jirl	$ra, $a3, 0
.Ltmp610:                               # EH_LABEL
.LBB0_235:                              # %_ZNSt14_Function_baseD2Ev.exit223
	ld.d	$a3, $sp, 184
	beqz	$a3, .LBB0_237
# %bb.236:
.Ltmp612:                               # EH_LABEL
	addi.d	$a0, $sp, 168
	addi.d	$a1, $sp, 168
	ori	$a2, $zero, 3
	jirl	$ra, $a3, 0
.Ltmp613:                               # EH_LABEL
.LBB0_237:                              # %_ZNSt14_Function_baseD2Ev.exit225
	ld.d	$a3, $sp, 216
	beqz	$a3, .LBB0_239
# %bb.238:
.Ltmp615:                               # EH_LABEL
	addi.d	$a0, $sp, 200
	addi.d	$a1, $sp, 200
	ori	$a2, $zero, 3
	jirl	$ra, $a3, 0
.Ltmp616:                               # EH_LABEL
.LBB0_239:                              # %_ZNSt14_Function_baseD2Ev.exit227
	ld.d	$a3, $sp, 248
	beqz	$a3, .LBB0_241
# %bb.240:
.Ltmp618:                               # EH_LABEL
	addi.d	$a0, $sp, 232
	addi.d	$a1, $sp, 232
	ori	$a2, $zero, 3
	jirl	$ra, $a3, 0
.Ltmp619:                               # EH_LABEL
.LBB0_241:                              # %_ZNSt14_Function_baseD2Ev.exit229
	move	$a0, $zero
	addi.d	$sp, $sp, 448
	ld.d	$s8, $sp, 1944                  # 8-byte Folded Reload
	ld.d	$s7, $sp, 1952                  # 8-byte Folded Reload
	ld.d	$s6, $sp, 1960                  # 8-byte Folded Reload
	ld.d	$s5, $sp, 1968                  # 8-byte Folded Reload
	ld.d	$s4, $sp, 1976                  # 8-byte Folded Reload
	ld.d	$s3, $sp, 1984                  # 8-byte Folded Reload
	ld.d	$s2, $sp, 1992                  # 8-byte Folded Reload
	ld.d	$s1, $sp, 2000                  # 8-byte Folded Reload
	ld.d	$s0, $sp, 2008                  # 8-byte Folded Reload
	ld.d	$fp, $sp, 2016                  # 8-byte Folded Reload
	ld.d	$ra, $sp, 2024                  # 8-byte Folded Reload
	addi.d	$sp, $sp, 2032
	ret
.LBB0_242:
	ori	$a0, $zero, 2352
	b	.LBB0_247
.LBB0_243:
.Ltmp651:                               # EH_LABEL
	pcaddu18i	$ra, %call36(_ZSt25__throw_bad_function_callv)
	jirl	$ra, $ra, 0
.Ltmp652:                               # EH_LABEL
# %bb.244:                              # %.noexc.i
.LBB0_245:
	ori	$a0, $zero, 2312
	b	.LBB0_247
.LBB0_246:
	ori	$a0, $zero, 2232
.LBB0_247:
	add.d	$s1, $sp, $a0
	b	.LBB0_249
.LBB0_248:
	move	$s1, $s0
.LBB0_249:
.Ltmp346:                               # EH_LABEL
	pcalau12i	$a0, %got_pc_hi20(_ZSt4cerr)
	ld.d	$s7, $a0, %got_pc_lo12(_ZSt4cerr)
	pcalau12i	$a0, %pc_hi20(.L.str.19)
	addi.d	$a1, $a0, %pc_lo12(.L.str.19)
	ori	$a2, $zero, 15
	move	$a0, $s7
	pcaddu18i	$ra, %call36(_ZSt16__ostream_insertIcSt11char_traitsIcEERSt13basic_ostreamIT_T0_ES6_PKS3_l)
	jirl	$ra, $ra, 0
.Ltmp347:                               # EH_LABEL
# %bb.250:                              # %_ZStlsISt11char_traitsIcEERSt13basic_ostreamIcT_ES5_PKc.exit.i
	ld.d	$s8, $s1, 32
	bnez	$s8, .LBB0_252
# %bb.251:
	ld.d	$a0, $s7, 0
	ld.d	$a0, $a0, -24
	add.d	$a0, $s7, $a0
	ld.w	$a1, $a0, 32
	ori	$a1, $a1, 1
.Ltmp350:                               # EH_LABEL
	pcaddu18i	$ra, %call36(_ZNSt9basic_iosIcSt11char_traitsIcEE5clearESt12_Ios_Iostate)
	jirl	$ra, $ra, 0
.Ltmp351:                               # EH_LABEL
	b	.LBB0_253
.LBB0_252:
	move	$a0, $s8
	pcaddu18i	$ra, %call36(strlen)
	jirl	$ra, $ra, 0
	move	$a2, $a0
.Ltmp348:                               # EH_LABEL
	pcalau12i	$a0, %got_pc_hi20(_ZSt4cerr)
	ld.d	$a0, $a0, %got_pc_lo12(_ZSt4cerr)
	move	$a1, $s8
	pcaddu18i	$ra, %call36(_ZSt16__ostream_insertIcSt11char_traitsIcEERSt13basic_ostreamIT_T0_ES6_PKS3_l)
	jirl	$ra, $ra, 0
.Ltmp349:                               # EH_LABEL
.LBB0_253:                              # %_ZStlsISt11char_traitsIcEERSt13basic_ostreamIcT_ES5_PKc.exit90.i
.Ltmp352:                               # EH_LABEL
	pcalau12i	$a0, %got_pc_hi20(_ZSt4cerr)
	ld.d	$a0, $a0, %got_pc_lo12(_ZSt4cerr)
	pcalau12i	$a1, %pc_hi20(.L.str.22)
	addi.d	$a1, $a1, %pc_lo12(.L.str.22)
	ori	$a2, $zero, 13
	pcaddu18i	$ra, %call36(_ZSt16__ostream_insertIcSt11char_traitsIcEERSt13basic_ostreamIT_T0_ES6_PKS3_l)
	jirl	$ra, $ra, 0
.Ltmp353:                               # EH_LABEL
# %bb.254:                              # %_ZStlsISt11char_traitsIcEERSt13basic_ostreamIcT_ES5_PKc.exit92.i
.Ltmp354:                               # EH_LABEL
	pcalau12i	$a0, %got_pc_hi20(_ZSt4cerr)
	ld.d	$a0, $a0, %got_pc_lo12(_ZSt4cerr)
	move	$a1, $s5
	pcaddu18i	$ra, %call36(_ZNSo9_M_insertImEERSoT_)
	jirl	$ra, $ra, 0
.Ltmp355:                               # EH_LABEL
# %bb.255:                              # %_ZNSolsEj.exit.i
.Ltmp356:                               # EH_LABEL
	move	$s5, $a0
	pcalau12i	$a0, %pc_hi20(.L.str.23)
	addi.d	$a1, $a0, %pc_lo12(.L.str.23)
	ori	$a2, $zero, 11
	move	$a0, $s5
	pcaddu18i	$ra, %call36(_ZSt16__ostream_insertIcSt11char_traitsIcEERSt13basic_ostreamIT_T0_ES6_PKS3_l)
	jirl	$ra, $ra, 0
.Ltmp357:                               # EH_LABEL
# %bb.256:                              # %_ZStlsISt11char_traitsIcEERSt13basic_ostreamIcT_ES5_PKc.exit95.i
.Ltmp358:                               # EH_LABEL
	move	$a0, $s5
	move	$a1, $s4
	pcaddu18i	$ra, %call36(_ZNSo9_M_insertImEERSoT_)
	jirl	$ra, $ra, 0
.Ltmp359:                               # EH_LABEL
# %bb.257:                              # %_ZNSolsEj.exit97.i
.Ltmp360:                               # EH_LABEL
	move	$s4, $a0
	pcalau12i	$a0, %pc_hi20(.L.str.25)
	addi.d	$a1, $a0, %pc_lo12(.L.str.25)
	ori	$a2, $zero, 11
	move	$a0, $s4
	pcaddu18i	$ra, %call36(_ZSt16__ostream_insertIcSt11char_traitsIcEERSt13basic_ostreamIT_T0_ES6_PKS3_l)
	jirl	$ra, $ra, 0
.Ltmp361:                               # EH_LABEL
# %bb.258:                              # %_ZStlsISt11char_traitsIcEERSt13basic_ostreamIcT_ES5_PKc.exit99.i
.Ltmp362:                               # EH_LABEL
	move	$a0, $s4
	move	$a1, $fp
	pcaddu18i	$ra, %call36(_ZNSo9_M_insertImEERSoT_)
	jirl	$ra, $ra, 0
.Ltmp363:                               # EH_LABEL
# %bb.259:                              # %_ZNSolsEj.exit101.i
.Ltmp364:                               # EH_LABEL
	move	$fp, $a0
	pcalau12i	$a0, %pc_hi20(.L.str.20)
	addi.d	$a1, $a0, %pc_lo12(.L.str.20)
	ori	$a2, $zero, 2
	move	$a0, $fp
	pcaddu18i	$ra, %call36(_ZSt16__ostream_insertIcSt11char_traitsIcEERSt13basic_ostreamIT_T0_ES6_PKS3_l)
	jirl	$ra, $ra, 0
.Ltmp365:                               # EH_LABEL
# %bb.260:                              # %_ZStlsISt11char_traitsIcEERSt13basic_ostreamIcT_ES5_PKc.exit103.i
	bstrpick.d	$a1, $s3, 31, 0
.Ltmp366:                               # EH_LABEL
	move	$a0, $fp
	pcaddu18i	$ra, %call36(_ZNSo9_M_insertImEERSoT_)
	jirl	$ra, $ra, 0
.Ltmp367:                               # EH_LABEL
# %bb.261:                              # %_ZNSolsEj.exit105.i
.Ltmp368:                               # EH_LABEL
	move	$fp, $a0
	pcalau12i	$a0, %pc_hi20(.L.str.21)
	addi.d	$a1, $a0, %pc_lo12(.L.str.21)
	ori	$a2, $zero, 4
	move	$a0, $fp
	pcaddu18i	$ra, %call36(_ZSt16__ostream_insertIcSt11char_traitsIcEERSt13basic_ostreamIT_T0_ES6_PKS3_l)
	jirl	$ra, $ra, 0
.Ltmp369:                               # EH_LABEL
# %bb.262:                              # %_ZStlsISt11char_traitsIcEERSt13basic_ostreamIcT_ES5_PKc.exit107.i
	bstrpick.d	$a1, $s6, 31, 0
.Ltmp370:                               # EH_LABEL
	move	$a0, $fp
	pcaddu18i	$ra, %call36(_ZNSo9_M_insertImEERSoT_)
	jirl	$ra, $ra, 0
.Ltmp371:                               # EH_LABEL
# %bb.263:                              # %_ZNSolsEj.exit109.i
.Ltmp372:                               # EH_LABEL
	pcalau12i	$a1, %pc_hi20(.L.str.14)
	addi.d	$a1, $a1, %pc_lo12(.L.str.14)
	pcaddu18i	$ra, %call36(_ZStlsISt11char_traitsIcEERSt13basic_ostreamIcT_ES5_PKc)
	jirl	$ra, $ra, 0
.Ltmp373:                               # EH_LABEL
	b	.LBB0_286
.LBB0_264:
	ori	$a0, $zero, 2352
	b	.LBB0_269
.LBB0_265:
.Ltmp621:                               # EH_LABEL
	pcaddu18i	$ra, %call36(_ZSt25__throw_bad_function_callv)
	jirl	$ra, $ra, 0
.Ltmp622:                               # EH_LABEL
# %bb.266:                              # %.noexc.i204
.LBB0_267:
	ori	$a0, $zero, 2312
	b	.LBB0_269
.LBB0_268:
	ori	$a0, $zero, 2232
.LBB0_269:
	add.d	$s1, $sp, $a0
	b	.LBB0_271
.LBB0_270:
	move	$s1, $s0
.LBB0_271:
.Ltmp508:                               # EH_LABEL
	pcalau12i	$a0, %got_pc_hi20(_ZSt4cerr)
	ld.d	$s7, $a0, %got_pc_lo12(_ZSt4cerr)
	pcalau12i	$a0, %pc_hi20(.L.str.19)
	addi.d	$a1, $a0, %pc_lo12(.L.str.19)
	ori	$a2, $zero, 15
	move	$a0, $s7
	pcaddu18i	$ra, %call36(_ZSt16__ostream_insertIcSt11char_traitsIcEERSt13basic_ostreamIT_T0_ES6_PKS3_l)
	jirl	$ra, $ra, 0
.Ltmp509:                               # EH_LABEL
# %bb.272:                              # %_ZStlsISt11char_traitsIcEERSt13basic_ostreamIcT_ES5_PKc.exit.i159
	ld.d	$s8, $s1, 32
	bnez	$s8, .LBB0_274
# %bb.273:
	ld.d	$a0, $s7, 0
	ld.d	$a0, $a0, -24
	add.d	$a0, $s7, $a0
	ld.w	$a1, $a0, 32
	ori	$a1, $a1, 1
.Ltmp512:                               # EH_LABEL
	pcaddu18i	$ra, %call36(_ZNSt9basic_iosIcSt11char_traitsIcEE5clearESt12_Ios_Iostate)
	jirl	$ra, $ra, 0
.Ltmp513:                               # EH_LABEL
	b	.LBB0_275
.LBB0_274:
	move	$a0, $s8
	pcaddu18i	$ra, %call36(strlen)
	jirl	$ra, $ra, 0
	move	$a2, $a0
.Ltmp510:                               # EH_LABEL
	pcalau12i	$a0, %got_pc_hi20(_ZSt4cerr)
	ld.d	$a0, $a0, %got_pc_lo12(_ZSt4cerr)
	move	$a1, $s8
	pcaddu18i	$ra, %call36(_ZSt16__ostream_insertIcSt11char_traitsIcEERSt13basic_ostreamIT_T0_ES6_PKS3_l)
	jirl	$ra, $ra, 0
.Ltmp511:                               # EH_LABEL
.LBB0_275:                              # %_ZStlsISt11char_traitsIcEERSt13basic_ostreamIcT_ES5_PKc.exit90.i161
.Ltmp514:                               # EH_LABEL
	pcalau12i	$a0, %got_pc_hi20(_ZSt4cerr)
	ld.d	$a0, $a0, %got_pc_lo12(_ZSt4cerr)
	pcalau12i	$a1, %pc_hi20(.L.str.22)
	addi.d	$a1, $a1, %pc_lo12(.L.str.22)
	ori	$a2, $zero, 13
	pcaddu18i	$ra, %call36(_ZSt16__ostream_insertIcSt11char_traitsIcEERSt13basic_ostreamIT_T0_ES6_PKS3_l)
	jirl	$ra, $ra, 0
.Ltmp515:                               # EH_LABEL
# %bb.276:                              # %_ZStlsISt11char_traitsIcEERSt13basic_ostreamIcT_ES5_PKc.exit92.i162
.Ltmp516:                               # EH_LABEL
	pcalau12i	$a0, %got_pc_hi20(_ZSt4cerr)
	ld.d	$a0, $a0, %got_pc_lo12(_ZSt4cerr)
	move	$a1, $s5
	pcaddu18i	$ra, %call36(_ZNSo9_M_insertImEERSoT_)
	jirl	$ra, $ra, 0
.Ltmp517:                               # EH_LABEL
# %bb.277:                              # %_ZNSolsEj.exit.i163
.Ltmp518:                               # EH_LABEL
	move	$s5, $a0
	pcalau12i	$a0, %pc_hi20(.L.str.23)
	addi.d	$a1, $a0, %pc_lo12(.L.str.23)
	ori	$a2, $zero, 11
	move	$a0, $s5
	pcaddu18i	$ra, %call36(_ZSt16__ostream_insertIcSt11char_traitsIcEERSt13basic_ostreamIT_T0_ES6_PKS3_l)
	jirl	$ra, $ra, 0
.Ltmp519:                               # EH_LABEL
# %bb.278:                              # %_ZStlsISt11char_traitsIcEERSt13basic_ostreamIcT_ES5_PKc.exit95.i164
.Ltmp520:                               # EH_LABEL
	move	$a0, $s5
	move	$a1, $s4
	pcaddu18i	$ra, %call36(_ZNSo9_M_insertImEERSoT_)
	jirl	$ra, $ra, 0
.Ltmp521:                               # EH_LABEL
# %bb.279:                              # %_ZNSolsEj.exit97.i165
.Ltmp522:                               # EH_LABEL
	move	$s4, $a0
	pcalau12i	$a0, %pc_hi20(.L.str.25)
	addi.d	$a1, $a0, %pc_lo12(.L.str.25)
	ori	$a2, $zero, 11
	move	$a0, $s4
	pcaddu18i	$ra, %call36(_ZSt16__ostream_insertIcSt11char_traitsIcEERSt13basic_ostreamIT_T0_ES6_PKS3_l)
	jirl	$ra, $ra, 0
.Ltmp523:                               # EH_LABEL
# %bb.280:                              # %_ZStlsISt11char_traitsIcEERSt13basic_ostreamIcT_ES5_PKc.exit99.i166
.Ltmp524:                               # EH_LABEL
	move	$a0, $s4
	move	$a1, $fp
	pcaddu18i	$ra, %call36(_ZNSo9_M_insertImEERSoT_)
	jirl	$ra, $ra, 0
.Ltmp525:                               # EH_LABEL
# %bb.281:                              # %_ZNSolsEj.exit101.i167
.Ltmp526:                               # EH_LABEL
	move	$fp, $a0
	pcalau12i	$a0, %pc_hi20(.L.str.20)
	addi.d	$a1, $a0, %pc_lo12(.L.str.20)
	ori	$a2, $zero, 2
	move	$a0, $fp
	pcaddu18i	$ra, %call36(_ZSt16__ostream_insertIcSt11char_traitsIcEERSt13basic_ostreamIT_T0_ES6_PKS3_l)
	jirl	$ra, $ra, 0
.Ltmp527:                               # EH_LABEL
# %bb.282:                              # %_ZStlsISt11char_traitsIcEERSt13basic_ostreamIcT_ES5_PKc.exit103.i168
	bstrpick.d	$a1, $s3, 31, 0
.Ltmp528:                               # EH_LABEL
	move	$a0, $fp
	pcaddu18i	$ra, %call36(_ZNSo9_M_insertImEERSoT_)
	jirl	$ra, $ra, 0
.Ltmp529:                               # EH_LABEL
# %bb.283:                              # %_ZNSolsEj.exit105.i169
.Ltmp530:                               # EH_LABEL
	move	$fp, $a0
	pcalau12i	$a0, %pc_hi20(.L.str.21)
	addi.d	$a1, $a0, %pc_lo12(.L.str.21)
	ori	$a2, $zero, 4
	move	$a0, $fp
	pcaddu18i	$ra, %call36(_ZSt16__ostream_insertIcSt11char_traitsIcEERSt13basic_ostreamIT_T0_ES6_PKS3_l)
	jirl	$ra, $ra, 0
.Ltmp531:                               # EH_LABEL
# %bb.284:                              # %_ZStlsISt11char_traitsIcEERSt13basic_ostreamIcT_ES5_PKc.exit107.i170
	bstrpick.d	$a1, $s6, 31, 0
.Ltmp532:                               # EH_LABEL
	move	$a0, $fp
	pcaddu18i	$ra, %call36(_ZNSo9_M_insertImEERSoT_)
	jirl	$ra, $ra, 0
.Ltmp533:                               # EH_LABEL
# %bb.285:                              # %_ZNSolsEj.exit109.i171
.Ltmp534:                               # EH_LABEL
	pcalau12i	$a1, %pc_hi20(.L.str.14)
	addi.d	$a1, $a1, %pc_lo12(.L.str.14)
	pcaddu18i	$ra, %call36(_ZStlsISt11char_traitsIcEERSt13basic_ostreamIcT_ES5_PKc)
	jirl	$ra, $ra, 0
.Ltmp535:                               # EH_LABEL
.LBB0_286:
	ori	$a0, $zero, 1
	pcaddu18i	$ra, %call36(exit)
	jirl	$ra, $ra, 0
.LBB0_287:
.Ltmp387:                               # EH_LABEL
	pcalau12i	$a0, %got_pc_hi20(_ZSt4cerr)
	ld.d	$a0, $a0, %got_pc_lo12(_ZSt4cerr)
	pcalau12i	$a1, %pc_hi20(.L.str.19)
	addi.d	$a1, $a1, %pc_lo12(.L.str.19)
	ori	$a2, $zero, 15
	pcaddu18i	$ra, %call36(_ZSt16__ostream_insertIcSt11char_traitsIcEERSt13basic_ostreamIT_T0_ES6_PKS3_l)
	jirl	$ra, $ra, 0
.Ltmp388:                               # EH_LABEL
# %bb.288:                              # %_ZStlsISt11char_traitsIcEERSt13basic_ostreamIcT_ES5_PKc.exit111.i
	ld.d	$a1, $s1, 32
.Ltmp389:                               # EH_LABEL
	pcalau12i	$a0, %got_pc_hi20(_ZSt4cerr)
	ld.d	$a0, $a0, %got_pc_lo12(_ZSt4cerr)
	pcaddu18i	$ra, %call36(_ZStlsISt11char_traitsIcEERSt13basic_ostreamIcT_ES5_PKc)
	jirl	$ra, $ra, 0
.Ltmp390:                               # EH_LABEL
# %bb.289:
.Ltmp391:                               # EH_LABEL
	move	$s4, $a0
	pcalau12i	$a0, %pc_hi20(.L.str.24)
	addi.d	$a1, $a0, %pc_lo12(.L.str.24)
	ori	$a2, $zero, 40
	move	$a0, $s4
	pcaddu18i	$ra, %call36(_ZSt16__ostream_insertIcSt11char_traitsIcEERSt13basic_ostreamIT_T0_ES6_PKS3_l)
	jirl	$ra, $ra, 0
.Ltmp392:                               # EH_LABEL
# %bb.290:                              # %_ZStlsISt11char_traitsIcEERSt13basic_ostreamIcT_ES5_PKc.exit113.i
	bstrpick.d	$a1, $fp, 31, 0
.Ltmp393:                               # EH_LABEL
	move	$a0, $s4
	pcaddu18i	$ra, %call36(_ZNSo9_M_insertImEERSoT_)
	jirl	$ra, $ra, 0
.Ltmp394:                               # EH_LABEL
# %bb.291:                              # %_ZNSolsEj.exit115.i
.Ltmp395:                               # EH_LABEL
	move	$fp, $a0
	pcalau12i	$a0, %pc_hi20(.L.str.21)
	addi.d	$a1, $a0, %pc_lo12(.L.str.21)
	ori	$a2, $zero, 4
	move	$a0, $fp
	pcaddu18i	$ra, %call36(_ZSt16__ostream_insertIcSt11char_traitsIcEERSt13basic_ostreamIT_T0_ES6_PKS3_l)
	jirl	$ra, $ra, 0
.Ltmp396:                               # EH_LABEL
# %bb.292:                              # %_ZStlsISt11char_traitsIcEERSt13basic_ostreamIcT_ES5_PKc.exit117.i
	bstrpick.d	$a1, $s3, 31, 0
.Ltmp397:                               # EH_LABEL
	move	$a0, $fp
	pcaddu18i	$ra, %call36(_ZNSo9_M_insertImEERSoT_)
	jirl	$ra, $ra, 0
.Ltmp398:                               # EH_LABEL
# %bb.293:                              # %_ZNSolsEj.exit119.i
.Ltmp399:                               # EH_LABEL
	pcalau12i	$a1, %pc_hi20(.L.str.14)
	addi.d	$a1, $a1, %pc_lo12(.L.str.14)
	pcaddu18i	$ra, %call36(_ZStlsISt11char_traitsIcEERSt13basic_ostreamIcT_ES5_PKc)
	jirl	$ra, $ra, 0
.Ltmp400:                               # EH_LABEL
	b	.LBB0_286
.LBB0_294:
.Ltmp549:                               # EH_LABEL
	pcalau12i	$a0, %got_pc_hi20(_ZSt4cerr)
	ld.d	$a0, $a0, %got_pc_lo12(_ZSt4cerr)
	pcalau12i	$a1, %pc_hi20(.L.str.19)
	addi.d	$a1, $a1, %pc_lo12(.L.str.19)
	ori	$a2, $zero, 15
	pcaddu18i	$ra, %call36(_ZSt16__ostream_insertIcSt11char_traitsIcEERSt13basic_ostreamIT_T0_ES6_PKS3_l)
	jirl	$ra, $ra, 0
.Ltmp550:                               # EH_LABEL
# %bb.295:                              # %_ZStlsISt11char_traitsIcEERSt13basic_ostreamIcT_ES5_PKc.exit111.i184
	ld.d	$a1, $s1, 32
.Ltmp551:                               # EH_LABEL
	pcalau12i	$a0, %got_pc_hi20(_ZSt4cerr)
	ld.d	$a0, $a0, %got_pc_lo12(_ZSt4cerr)
	pcaddu18i	$ra, %call36(_ZStlsISt11char_traitsIcEERSt13basic_ostreamIcT_ES5_PKc)
	jirl	$ra, $ra, 0
.Ltmp552:                               # EH_LABEL
# %bb.296:
.Ltmp553:                               # EH_LABEL
	move	$s4, $a0
	pcalau12i	$a0, %pc_hi20(.L.str.24)
	addi.d	$a1, $a0, %pc_lo12(.L.str.24)
	ori	$a2, $zero, 40
	move	$a0, $s4
	pcaddu18i	$ra, %call36(_ZSt16__ostream_insertIcSt11char_traitsIcEERSt13basic_ostreamIT_T0_ES6_PKS3_l)
	jirl	$ra, $ra, 0
.Ltmp554:                               # EH_LABEL
# %bb.297:                              # %_ZStlsISt11char_traitsIcEERSt13basic_ostreamIcT_ES5_PKc.exit113.i185
	bstrpick.d	$a1, $fp, 31, 0
.Ltmp555:                               # EH_LABEL
	move	$a0, $s4
	pcaddu18i	$ra, %call36(_ZNSo9_M_insertImEERSoT_)
	jirl	$ra, $ra, 0
.Ltmp556:                               # EH_LABEL
# %bb.298:                              # %_ZNSolsEj.exit115.i186
.Ltmp557:                               # EH_LABEL
	move	$fp, $a0
	pcalau12i	$a0, %pc_hi20(.L.str.21)
	addi.d	$a1, $a0, %pc_lo12(.L.str.21)
	ori	$a2, $zero, 4
	move	$a0, $fp
	pcaddu18i	$ra, %call36(_ZSt16__ostream_insertIcSt11char_traitsIcEERSt13basic_ostreamIT_T0_ES6_PKS3_l)
	jirl	$ra, $ra, 0
.Ltmp558:                               # EH_LABEL
# %bb.299:                              # %_ZStlsISt11char_traitsIcEERSt13basic_ostreamIcT_ES5_PKc.exit117.i187
	bstrpick.d	$a1, $s3, 31, 0
.Ltmp559:                               # EH_LABEL
	move	$a0, $fp
	pcaddu18i	$ra, %call36(_ZNSo9_M_insertImEERSoT_)
	jirl	$ra, $ra, 0
.Ltmp560:                               # EH_LABEL
# %bb.300:                              # %_ZNSolsEj.exit119.i188
.Ltmp561:                               # EH_LABEL
	pcalau12i	$a1, %pc_hi20(.L.str.14)
	addi.d	$a1, $a1, %pc_lo12(.L.str.14)
	pcaddu18i	$ra, %call36(_ZStlsISt11char_traitsIcEERSt13basic_ostreamIcT_ES5_PKc)
	jirl	$ra, $ra, 0
.Ltmp562:                               # EH_LABEL
	b	.LBB0_286
.LBB0_301:
.Ltmp620:                               # EH_LABEL
	pcaddu18i	$ra, %call36(__clang_call_terminate)
	jirl	$ra, $ra, 0
.LBB0_302:
.Ltmp617:                               # EH_LABEL
	pcaddu18i	$ra, %call36(__clang_call_terminate)
	jirl	$ra, $ra, 0
.LBB0_303:
.Ltmp614:                               # EH_LABEL
	pcaddu18i	$ra, %call36(__clang_call_terminate)
	jirl	$ra, $ra, 0
.LBB0_304:
.Ltmp611:                               # EH_LABEL
	pcaddu18i	$ra, %call36(__clang_call_terminate)
	jirl	$ra, $ra, 0
.LBB0_305:
.Ltmp608:                               # EH_LABEL
	pcaddu18i	$ra, %call36(__clang_call_terminate)
	jirl	$ra, $ra, 0
.LBB0_306:
.Ltmp587:                               # EH_LABEL
	pcaddu18i	$ra, %call36(__clang_call_terminate)
	jirl	$ra, $ra, 0
.LBB0_307:
.Ltmp584:                               # EH_LABEL
	pcaddu18i	$ra, %call36(__clang_call_terminate)
	jirl	$ra, $ra, 0
.LBB0_308:
.Ltmp581:                               # EH_LABEL
	pcaddu18i	$ra, %call36(__clang_call_terminate)
	jirl	$ra, $ra, 0
.LBB0_309:
.Ltmp578:                               # EH_LABEL
	pcaddu18i	$ra, %call36(__clang_call_terminate)
	jirl	$ra, $ra, 0
.LBB0_310:
.Ltmp575:                               # EH_LABEL
	pcaddu18i	$ra, %call36(__clang_call_terminate)
	jirl	$ra, $ra, 0
.LBB0_311:
.Ltmp486:                               # EH_LABEL
	ori	$a1, $zero, 2368
	add.d	$a1, $sp, $a1
	ld.d	$a3, $a1, 0
	move	$fp, $a0
	bnez	$a3, .LBB0_313
# %bb.312:
	ori	$a0, $zero, 2352
	add.d	$s0, $sp, $a0
	b	.LBB0_321
.LBB0_313:
.Ltmp487:                               # EH_LABEL
	ori	$a2, $zero, 3
	ori	$a0, $zero, 2352
	add.d	$s0, $sp, $a0
	move	$a0, $s0
	move	$a1, $s0
	jirl	$ra, $a3, 0
.Ltmp488:                               # EH_LABEL
	b	.LBB0_321
.LBB0_314:
.Ltmp489:                               # EH_LABEL
	pcaddu18i	$ra, %call36(__clang_call_terminate)
	jirl	$ra, $ra, 0
.LBB0_315:
.Ltmp480:                               # EH_LABEL
	ori	$a1, $zero, 2328
	add.d	$a1, $sp, $a1
	ld.d	$a3, $a1, 0
	move	$fp, $a0
	bnez	$a3, .LBB0_317
# %bb.316:
	ori	$a0, $zero, 2312
	add.d	$s0, $sp, $a0
	b	.LBB0_321
.LBB0_317:
.Ltmp481:                               # EH_LABEL
	ori	$a2, $zero, 3
	ori	$a0, $zero, 2312
	add.d	$s0, $sp, $a0
	move	$a0, $s0
	move	$a1, $s0
	jirl	$ra, $a3, 0
.Ltmp482:                               # EH_LABEL
	b	.LBB0_321
.LBB0_318:
.Ltmp483:                               # EH_LABEL
	pcaddu18i	$ra, %call36(__clang_call_terminate)
	jirl	$ra, $ra, 0
.LBB0_319:
.Ltmp474:                               # EH_LABEL
	ori	$a1, $zero, 2288
	add.d	$a1, $sp, $a1
	ld.d	$a3, $a1, 0
	move	$fp, $a0
	beqz	$a3, .LBB0_321
# %bb.320:
.Ltmp475:                               # EH_LABEL
	ori	$a2, $zero, 3
	move	$a0, $s0
	move	$a1, $s0
	jirl	$ra, $a3, 0
.Ltmp476:                               # EH_LABEL
.LBB0_321:                              # %.body.i119
	ori	$a0, $zero, 2232
	add.d	$s1, $sp, $a0
	b	.LBB0_323
	.p2align	4, , 16
.LBB0_322:                              # %_ZNSt4pairISt8functionIFjS0_IFvPiS1_S1_EEEEPKcED2Ev.exit.i123
                                        #   in Loop: Header=BB0_323 Depth=1
	beq	$s0, $s1, .LBB0_602
.LBB0_323:                              # =>This Inner Loop Header: Depth=1
	ld.d	$a3, $s0, -24
	addi.d	$s0, $s0, -40
	beqz	$a3, .LBB0_322
# %bb.324:                              #   in Loop: Header=BB0_323 Depth=1
.Ltmp490:                               # EH_LABEL
	ori	$a2, $zero, 3
	move	$a0, $s0
	move	$a1, $s0
	jirl	$ra, $a3, 0
.Ltmp491:                               # EH_LABEL
	b	.LBB0_322
.LBB0_325:
.Ltmp477:                               # EH_LABEL
	pcaddu18i	$ra, %call36(__clang_call_terminate)
	jirl	$ra, $ra, 0
.LBB0_326:
.Ltmp492:                               # EH_LABEL
	pcaddu18i	$ra, %call36(__clang_call_terminate)
	jirl	$ra, $ra, 0
.LBB0_327:
.Ltmp468:                               # EH_LABEL
	ori	$a1, $zero, 2248
	add.d	$a1, $sp, $a1
	ld.d	$a3, $a1, 0
	move	$fp, $a0
	beqz	$a3, .LBB0_602
# %bb.328:
.Ltmp469:                               # EH_LABEL
	ori	$a0, $zero, 2232
	add.d	$a0, $sp, $a0
	ori	$a1, $zero, 2232
	add.d	$a1, $sp, $a1
	ori	$a2, $zero, 3
	jirl	$ra, $a3, 0
.Ltmp470:                               # EH_LABEL
	b	.LBB0_602
.LBB0_329:
.Ltmp471:                               # EH_LABEL
	pcaddu18i	$ra, %call36(__clang_call_terminate)
	jirl	$ra, $ra, 0
.LBB0_330:
.Ltmp458:                               # EH_LABEL
	pcaddu18i	$ra, %call36(__clang_call_terminate)
	jirl	$ra, $ra, 0
.LBB0_331:
.Ltmp455:                               # EH_LABEL
	pcaddu18i	$ra, %call36(__clang_call_terminate)
	jirl	$ra, $ra, 0
.LBB0_332:
.Ltmp452:                               # EH_LABEL
	pcaddu18i	$ra, %call36(__clang_call_terminate)
	jirl	$ra, $ra, 0
.LBB0_333:
.Ltmp449:                               # EH_LABEL
	pcaddu18i	$ra, %call36(__clang_call_terminate)
	jirl	$ra, $ra, 0
.LBB0_334:
.Ltmp446:                               # EH_LABEL
	pcaddu18i	$ra, %call36(__clang_call_terminate)
	jirl	$ra, $ra, 0
.LBB0_335:
.Ltmp425:                               # EH_LABEL
	pcaddu18i	$ra, %call36(__clang_call_terminate)
	jirl	$ra, $ra, 0
.LBB0_336:
.Ltmp422:                               # EH_LABEL
	pcaddu18i	$ra, %call36(__clang_call_terminate)
	jirl	$ra, $ra, 0
.LBB0_337:
.Ltmp419:                               # EH_LABEL
	pcaddu18i	$ra, %call36(__clang_call_terminate)
	jirl	$ra, $ra, 0
.LBB0_338:
.Ltmp416:                               # EH_LABEL
	pcaddu18i	$ra, %call36(__clang_call_terminate)
	jirl	$ra, $ra, 0
.LBB0_339:
.Ltmp413:                               # EH_LABEL
	pcaddu18i	$ra, %call36(__clang_call_terminate)
	jirl	$ra, $ra, 0
.LBB0_340:
.Ltmp590:                               # EH_LABEL
	ld.d	$a3, $sp, 120
	move	$fp, $a0
	beqz	$a3, .LBB0_342
# %bb.341:
.Ltmp591:                               # EH_LABEL
	addi.d	$a0, $sp, 104
	addi.d	$a1, $sp, 104
	ori	$a2, $zero, 3
	jirl	$ra, $a3, 0
.Ltmp592:                               # EH_LABEL
.LBB0_342:                              # %_ZNSt14_Function_baseD2Ev.exit351
	ld.d	$a3, $sp, 152
	beqz	$a3, .LBB0_344
# %bb.343:
.Ltmp594:                               # EH_LABEL
	addi.d	$a0, $sp, 136
	addi.d	$a1, $sp, 136
	ori	$a2, $zero, 3
	jirl	$ra, $a3, 0
.Ltmp595:                               # EH_LABEL
.LBB0_344:                              # %_ZNSt14_Function_baseD2Ev.exit353
	ld.d	$a3, $sp, 184
	beqz	$a3, .LBB0_346
# %bb.345:
.Ltmp597:                               # EH_LABEL
	addi.d	$a0, $sp, 168
	addi.d	$a1, $sp, 168
	ori	$a2, $zero, 3
	jirl	$ra, $a3, 0
.Ltmp598:                               # EH_LABEL
.LBB0_346:                              # %_ZNSt14_Function_baseD2Ev.exit355
	ld.d	$a3, $sp, 216
	beqz	$a3, .LBB0_348
# %bb.347:
.Ltmp600:                               # EH_LABEL
	addi.d	$a0, $sp, 200
	addi.d	$a1, $sp, 200
	ori	$a2, $zero, 3
	jirl	$ra, $a3, 0
.Ltmp601:                               # EH_LABEL
.LBB0_348:                              # %_ZNSt14_Function_baseD2Ev.exit357
	ld.d	$a3, $sp, 248
	beqz	$a3, .LBB0_638
# %bb.349:
.Ltmp603:                               # EH_LABEL
	addi.d	$a0, $sp, 232
	addi.d	$a1, $sp, 232
	ori	$a2, $zero, 3
	jirl	$ra, $a3, 0
.Ltmp604:                               # EH_LABEL
	b	.LBB0_638
.LBB0_350:
.Ltmp605:                               # EH_LABEL
	pcaddu18i	$ra, %call36(__clang_call_terminate)
	jirl	$ra, $ra, 0
.LBB0_351:
.Ltmp602:                               # EH_LABEL
	pcaddu18i	$ra, %call36(__clang_call_terminate)
	jirl	$ra, $ra, 0
.LBB0_352:
.Ltmp599:                               # EH_LABEL
	pcaddu18i	$ra, %call36(__clang_call_terminate)
	jirl	$ra, $ra, 0
.LBB0_353:
.Ltmp596:                               # EH_LABEL
	pcaddu18i	$ra, %call36(__clang_call_terminate)
	jirl	$ra, $ra, 0
.LBB0_354:
.Ltmp593:                               # EH_LABEL
	pcaddu18i	$ra, %call36(__clang_call_terminate)
	jirl	$ra, $ra, 0
.LBB0_355:
.Ltmp539:                               # EH_LABEL
	b	.LBB0_593
.LBB0_356:
.Ltmp324:                               # EH_LABEL
	ori	$a1, $zero, 2368
	add.d	$a1, $sp, $a1
	ld.d	$a3, $a1, 0
	move	$fp, $a0
	bnez	$a3, .LBB0_358
# %bb.357:
	ori	$a0, $zero, 2352
	add.d	$s0, $sp, $a0
	b	.LBB0_366
.LBB0_358:
.Ltmp325:                               # EH_LABEL
	ori	$a2, $zero, 3
	ori	$a0, $zero, 2352
	add.d	$s0, $sp, $a0
	move	$a0, $s0
	move	$a1, $s0
	jirl	$ra, $a3, 0
.Ltmp326:                               # EH_LABEL
	b	.LBB0_366
.LBB0_359:
.Ltmp327:                               # EH_LABEL
	pcaddu18i	$ra, %call36(__clang_call_terminate)
	jirl	$ra, $ra, 0
.LBB0_360:
.Ltmp318:                               # EH_LABEL
	ori	$a1, $zero, 2328
	add.d	$a1, $sp, $a1
	ld.d	$a3, $a1, 0
	move	$fp, $a0
	bnez	$a3, .LBB0_362
# %bb.361:
	ori	$a0, $zero, 2312
	add.d	$s0, $sp, $a0
	b	.LBB0_366
.LBB0_362:
.Ltmp319:                               # EH_LABEL
	ori	$a2, $zero, 3
	ori	$a0, $zero, 2312
	add.d	$s0, $sp, $a0
	move	$a0, $s0
	move	$a1, $s0
	jirl	$ra, $a3, 0
.Ltmp320:                               # EH_LABEL
	b	.LBB0_366
.LBB0_363:
.Ltmp321:                               # EH_LABEL
	pcaddu18i	$ra, %call36(__clang_call_terminate)
	jirl	$ra, $ra, 0
.LBB0_364:
.Ltmp312:                               # EH_LABEL
	ori	$a1, $zero, 2288
	add.d	$a1, $sp, $a1
	ld.d	$a3, $a1, 0
	move	$fp, $a0
	beqz	$a3, .LBB0_366
# %bb.365:
.Ltmp313:                               # EH_LABEL
	ori	$a2, $zero, 3
	move	$a0, $s0
	move	$a1, $s0
	jirl	$ra, $a3, 0
.Ltmp314:                               # EH_LABEL
.LBB0_366:                              # %.body.i
	ori	$a0, $zero, 2232
	add.d	$s1, $sp, $a0
	b	.LBB0_368
	.p2align	4, , 16
.LBB0_367:                              # %_ZNSt4pairISt8functionIFjS0_IFvPiS1_S1_EEEEPKcED2Ev.exit.i
                                        #   in Loop: Header=BB0_368 Depth=1
	beq	$s0, $s1, .LBB0_628
.LBB0_368:                              # =>This Inner Loop Header: Depth=1
	ld.d	$a3, $s0, -24
	addi.d	$s0, $s0, -40
	beqz	$a3, .LBB0_367
# %bb.369:                              #   in Loop: Header=BB0_368 Depth=1
.Ltmp328:                               # EH_LABEL
	ori	$a2, $zero, 3
	move	$a0, $s0
	move	$a1, $s0
	jirl	$ra, $a3, 0
.Ltmp329:                               # EH_LABEL
	b	.LBB0_367
.LBB0_370:
.Ltmp315:                               # EH_LABEL
	pcaddu18i	$ra, %call36(__clang_call_terminate)
	jirl	$ra, $ra, 0
.LBB0_371:
.Ltmp330:                               # EH_LABEL
	pcaddu18i	$ra, %call36(__clang_call_terminate)
	jirl	$ra, $ra, 0
.LBB0_372:
.Ltmp306:                               # EH_LABEL
	ori	$a1, $zero, 2248
	add.d	$a1, $sp, $a1
	ld.d	$a3, $a1, 0
	move	$fp, $a0
	beqz	$a3, .LBB0_628
# %bb.373:
.Ltmp307:                               # EH_LABEL
	ori	$a0, $zero, 2232
	add.d	$a0, $sp, $a0
	ori	$a1, $zero, 2232
	add.d	$a1, $sp, $a1
	ori	$a2, $zero, 3
	jirl	$ra, $a3, 0
.Ltmp308:                               # EH_LABEL
	b	.LBB0_628
.LBB0_374:
.Ltmp309:                               # EH_LABEL
	pcaddu18i	$ra, %call36(__clang_call_terminate)
	jirl	$ra, $ra, 0
.LBB0_375:
.Ltmp296:                               # EH_LABEL
	pcaddu18i	$ra, %call36(__clang_call_terminate)
	jirl	$ra, $ra, 0
.LBB0_376:
.Ltmp293:                               # EH_LABEL
	pcaddu18i	$ra, %call36(__clang_call_terminate)
	jirl	$ra, $ra, 0
.LBB0_377:
.Ltmp290:                               # EH_LABEL
	pcaddu18i	$ra, %call36(__clang_call_terminate)
	jirl	$ra, $ra, 0
.LBB0_378:
.Ltmp287:                               # EH_LABEL
	pcaddu18i	$ra, %call36(__clang_call_terminate)
	jirl	$ra, $ra, 0
.LBB0_379:
.Ltmp284:                               # EH_LABEL
	pcaddu18i	$ra, %call36(__clang_call_terminate)
	jirl	$ra, $ra, 0
.LBB0_380:
.Ltmp263:                               # EH_LABEL
	pcaddu18i	$ra, %call36(__clang_call_terminate)
	jirl	$ra, $ra, 0
.LBB0_381:
.Ltmp260:                               # EH_LABEL
	pcaddu18i	$ra, %call36(__clang_call_terminate)
	jirl	$ra, $ra, 0
.LBB0_382:
.Ltmp257:                               # EH_LABEL
	pcaddu18i	$ra, %call36(__clang_call_terminate)
	jirl	$ra, $ra, 0
.LBB0_383:
.Ltmp254:                               # EH_LABEL
	pcaddu18i	$ra, %call36(__clang_call_terminate)
	jirl	$ra, $ra, 0
.LBB0_384:
.Ltmp251:                               # EH_LABEL
	pcaddu18i	$ra, %call36(__clang_call_terminate)
	jirl	$ra, $ra, 0
.LBB0_385:
.Ltmp230:                               # EH_LABEL
	pcaddu18i	$ra, %call36(__clang_call_terminate)
	jirl	$ra, $ra, 0
.LBB0_386:
.Ltmp227:                               # EH_LABEL
	pcaddu18i	$ra, %call36(__clang_call_terminate)
	jirl	$ra, $ra, 0
.LBB0_387:
.Ltmp224:                               # EH_LABEL
	pcaddu18i	$ra, %call36(__clang_call_terminate)
	jirl	$ra, $ra, 0
.LBB0_388:
.Ltmp221:                               # EH_LABEL
	pcaddu18i	$ra, %call36(__clang_call_terminate)
	jirl	$ra, $ra, 0
.LBB0_389:
.Ltmp218:                               # EH_LABEL
	pcaddu18i	$ra, %call36(__clang_call_terminate)
	jirl	$ra, $ra, 0
.LBB0_390:
.Ltmp197:                               # EH_LABEL
	pcaddu18i	$ra, %call36(__clang_call_terminate)
	jirl	$ra, $ra, 0
.LBB0_391:
.Ltmp194:                               # EH_LABEL
	pcaddu18i	$ra, %call36(__clang_call_terminate)
	jirl	$ra, $ra, 0
.LBB0_392:
.Ltmp191:                               # EH_LABEL
	pcaddu18i	$ra, %call36(__clang_call_terminate)
	jirl	$ra, $ra, 0
.LBB0_393:
.Ltmp188:                               # EH_LABEL
	pcaddu18i	$ra, %call36(__clang_call_terminate)
	jirl	$ra, $ra, 0
.LBB0_394:
.Ltmp185:                               # EH_LABEL
	pcaddu18i	$ra, %call36(__clang_call_terminate)
	jirl	$ra, $ra, 0
.LBB0_395:
.Ltmp164:                               # EH_LABEL
	pcaddu18i	$ra, %call36(__clang_call_terminate)
	jirl	$ra, $ra, 0
.LBB0_396:
.Ltmp161:                               # EH_LABEL
	pcaddu18i	$ra, %call36(__clang_call_terminate)
	jirl	$ra, $ra, 0
.LBB0_397:
.Ltmp158:                               # EH_LABEL
	pcaddu18i	$ra, %call36(__clang_call_terminate)
	jirl	$ra, $ra, 0
.LBB0_398:
.Ltmp155:                               # EH_LABEL
	pcaddu18i	$ra, %call36(__clang_call_terminate)
	jirl	$ra, $ra, 0
.LBB0_399:
.Ltmp152:                               # EH_LABEL
	pcaddu18i	$ra, %call36(__clang_call_terminate)
	jirl	$ra, $ra, 0
.LBB0_400:
.Ltmp131:                               # EH_LABEL
	pcaddu18i	$ra, %call36(__clang_call_terminate)
	jirl	$ra, $ra, 0
.LBB0_401:
.Ltmp128:                               # EH_LABEL
	pcaddu18i	$ra, %call36(__clang_call_terminate)
	jirl	$ra, $ra, 0
.LBB0_402:
.Ltmp125:                               # EH_LABEL
	pcaddu18i	$ra, %call36(__clang_call_terminate)
	jirl	$ra, $ra, 0
.LBB0_403:
.Ltmp122:                               # EH_LABEL
	pcaddu18i	$ra, %call36(__clang_call_terminate)
	jirl	$ra, $ra, 0
.LBB0_404:
.Ltmp119:                               # EH_LABEL
	pcaddu18i	$ra, %call36(__clang_call_terminate)
	jirl	$ra, $ra, 0
.LBB0_405:
.Ltmp98:                                # EH_LABEL
	pcaddu18i	$ra, %call36(__clang_call_terminate)
	jirl	$ra, $ra, 0
.LBB0_406:
.Ltmp95:                                # EH_LABEL
	pcaddu18i	$ra, %call36(__clang_call_terminate)
	jirl	$ra, $ra, 0
.LBB0_407:
.Ltmp92:                                # EH_LABEL
	pcaddu18i	$ra, %call36(__clang_call_terminate)
	jirl	$ra, $ra, 0
.LBB0_408:
.Ltmp89:                                # EH_LABEL
	pcaddu18i	$ra, %call36(__clang_call_terminate)
	jirl	$ra, $ra, 0
.LBB0_409:
.Ltmp86:                                # EH_LABEL
	pcaddu18i	$ra, %call36(__clang_call_terminate)
	jirl	$ra, $ra, 0
.LBB0_410:
.Ltmp65:                                # EH_LABEL
	pcaddu18i	$ra, %call36(__clang_call_terminate)
	jirl	$ra, $ra, 0
.LBB0_411:
.Ltmp62:                                # EH_LABEL
	pcaddu18i	$ra, %call36(__clang_call_terminate)
	jirl	$ra, $ra, 0
.LBB0_412:
.Ltmp59:                                # EH_LABEL
	pcaddu18i	$ra, %call36(__clang_call_terminate)
	jirl	$ra, $ra, 0
.LBB0_413:
.Ltmp56:                                # EH_LABEL
	pcaddu18i	$ra, %call36(__clang_call_terminate)
	jirl	$ra, $ra, 0
.LBB0_414:
.Ltmp53:                                # EH_LABEL
	pcaddu18i	$ra, %call36(__clang_call_terminate)
	jirl	$ra, $ra, 0
.LBB0_415:
.Ltmp32:                                # EH_LABEL
	pcaddu18i	$ra, %call36(__clang_call_terminate)
	jirl	$ra, $ra, 0
.LBB0_416:
.Ltmp29:                                # EH_LABEL
	pcaddu18i	$ra, %call36(__clang_call_terminate)
	jirl	$ra, $ra, 0
.LBB0_417:
.Ltmp26:                                # EH_LABEL
	pcaddu18i	$ra, %call36(__clang_call_terminate)
	jirl	$ra, $ra, 0
.LBB0_418:
.Ltmp23:                                # EH_LABEL
	pcaddu18i	$ra, %call36(__clang_call_terminate)
	jirl	$ra, $ra, 0
.LBB0_419:
.Ltmp20:                                # EH_LABEL
	pcaddu18i	$ra, %call36(__clang_call_terminate)
	jirl	$ra, $ra, 0
.LBB0_420:
.Ltmp428:                               # EH_LABEL
	ld.d	$a3, $sp, 440
	move	$fp, $a0
	beqz	$a3, .LBB0_422
# %bb.421:
.Ltmp429:                               # EH_LABEL
	addi.d	$a0, $sp, 424
	addi.d	$a1, $sp, 424
	ori	$a2, $zero, 3
	jirl	$ra, $a3, 0
.Ltmp430:                               # EH_LABEL
.LBB0_422:                              # %_ZNSt14_Function_baseD2Ev.exit331
	ld.d	$a3, $sp, 472
	beqz	$a3, .LBB0_424
# %bb.423:
.Ltmp432:                               # EH_LABEL
	addi.d	$a0, $sp, 456
	addi.d	$a1, $sp, 456
	ori	$a2, $zero, 3
	jirl	$ra, $a3, 0
.Ltmp433:                               # EH_LABEL
.LBB0_424:                              # %_ZNSt14_Function_baseD2Ev.exit333
	ld.d	$a3, $sp, 504
	beqz	$a3, .LBB0_426
# %bb.425:
.Ltmp435:                               # EH_LABEL
	addi.d	$a0, $sp, 488
	addi.d	$a1, $sp, 488
	ori	$a2, $zero, 3
	jirl	$ra, $a3, 0
.Ltmp436:                               # EH_LABEL
.LBB0_426:                              # %_ZNSt14_Function_baseD2Ev.exit335
	ld.d	$a3, $sp, 536
	beqz	$a3, .LBB0_428
# %bb.427:
.Ltmp438:                               # EH_LABEL
	addi.d	$a0, $sp, 520
	addi.d	$a1, $sp, 520
	ori	$a2, $zero, 3
	jirl	$ra, $a3, 0
.Ltmp439:                               # EH_LABEL
.LBB0_428:                              # %_ZNSt14_Function_baseD2Ev.exit337
	ld.d	$a3, $sp, 568
	beqz	$a3, .LBB0_638
# %bb.429:
.Ltmp441:                               # EH_LABEL
	addi.d	$a0, $sp, 552
	addi.d	$a1, $sp, 552
	ori	$a2, $zero, 3
	jirl	$ra, $a3, 0
.Ltmp442:                               # EH_LABEL
	b	.LBB0_638
.LBB0_430:
.Ltmp443:                               # EH_LABEL
	pcaddu18i	$ra, %call36(__clang_call_terminate)
	jirl	$ra, $ra, 0
.LBB0_431:
.Ltmp440:                               # EH_LABEL
	pcaddu18i	$ra, %call36(__clang_call_terminate)
	jirl	$ra, $ra, 0
.LBB0_432:
.Ltmp437:                               # EH_LABEL
	pcaddu18i	$ra, %call36(__clang_call_terminate)
	jirl	$ra, $ra, 0
.LBB0_433:
.Ltmp434:                               # EH_LABEL
	pcaddu18i	$ra, %call36(__clang_call_terminate)
	jirl	$ra, $ra, 0
.LBB0_434:
.Ltmp431:                               # EH_LABEL
	pcaddu18i	$ra, %call36(__clang_call_terminate)
	jirl	$ra, $ra, 0
.LBB0_435:
.Ltmp377:                               # EH_LABEL
	b	.LBB0_619
.LBB0_436:
.Ltmp266:                               # EH_LABEL
	ld.d	$a3, $sp, 760
	move	$fp, $a0
	beqz	$a3, .LBB0_438
# %bb.437:
.Ltmp267:                               # EH_LABEL
	addi.d	$a0, $sp, 744
	addi.d	$a1, $sp, 744
	ori	$a2, $zero, 3
	jirl	$ra, $a3, 0
.Ltmp268:                               # EH_LABEL
.LBB0_438:                              # %_ZNSt14_Function_baseD2Ev.exit311
	ld.d	$a3, $sp, 792
	beqz	$a3, .LBB0_440
# %bb.439:
.Ltmp270:                               # EH_LABEL
	addi.d	$a0, $sp, 776
	addi.d	$a1, $sp, 776
	ori	$a2, $zero, 3
	jirl	$ra, $a3, 0
.Ltmp271:                               # EH_LABEL
.LBB0_440:                              # %_ZNSt14_Function_baseD2Ev.exit313
	ld.d	$a3, $sp, 824
	beqz	$a3, .LBB0_442
# %bb.441:
.Ltmp273:                               # EH_LABEL
	addi.d	$a0, $sp, 808
	addi.d	$a1, $sp, 808
	ori	$a2, $zero, 3
	jirl	$ra, $a3, 0
.Ltmp274:                               # EH_LABEL
.LBB0_442:                              # %_ZNSt14_Function_baseD2Ev.exit315
	ld.d	$a3, $sp, 856
	beqz	$a3, .LBB0_444
# %bb.443:
.Ltmp276:                               # EH_LABEL
	addi.d	$a0, $sp, 840
	addi.d	$a1, $sp, 840
	ori	$a2, $zero, 3
	jirl	$ra, $a3, 0
.Ltmp277:                               # EH_LABEL
.LBB0_444:                              # %_ZNSt14_Function_baseD2Ev.exit317
	ld.d	$a3, $sp, 888
	beqz	$a3, .LBB0_638
# %bb.445:
.Ltmp279:                               # EH_LABEL
	addi.d	$a0, $sp, 872
	addi.d	$a1, $sp, 872
	ori	$a2, $zero, 3
	jirl	$ra, $a3, 0
.Ltmp280:                               # EH_LABEL
	b	.LBB0_638
.LBB0_446:
.Ltmp281:                               # EH_LABEL
	pcaddu18i	$ra, %call36(__clang_call_terminate)
	jirl	$ra, $ra, 0
.LBB0_447:
.Ltmp278:                               # EH_LABEL
	pcaddu18i	$ra, %call36(__clang_call_terminate)
	jirl	$ra, $ra, 0
.LBB0_448:
.Ltmp275:                               # EH_LABEL
	pcaddu18i	$ra, %call36(__clang_call_terminate)
	jirl	$ra, $ra, 0
.LBB0_449:
.Ltmp272:                               # EH_LABEL
	pcaddu18i	$ra, %call36(__clang_call_terminate)
	jirl	$ra, $ra, 0
.LBB0_450:
.Ltmp269:                               # EH_LABEL
	pcaddu18i	$ra, %call36(__clang_call_terminate)
	jirl	$ra, $ra, 0
.LBB0_451:
.Ltmp233:                               # EH_LABEL
	ld.d	$a3, $sp, 920
	move	$fp, $a0
	beqz	$a3, .LBB0_453
# %bb.452:
.Ltmp234:                               # EH_LABEL
	addi.d	$a0, $sp, 904
	addi.d	$a1, $sp, 904
	ori	$a2, $zero, 3
	jirl	$ra, $a3, 0
.Ltmp235:                               # EH_LABEL
.LBB0_453:                              # %_ZNSt14_Function_baseD2Ev.exit301
	ld.d	$a3, $sp, 952
	beqz	$a3, .LBB0_455
# %bb.454:
.Ltmp237:                               # EH_LABEL
	addi.d	$a0, $sp, 936
	addi.d	$a1, $sp, 936
	ori	$a2, $zero, 3
	jirl	$ra, $a3, 0
.Ltmp238:                               # EH_LABEL
.LBB0_455:                              # %_ZNSt14_Function_baseD2Ev.exit303
	ld.d	$a3, $sp, 984
	beqz	$a3, .LBB0_457
# %bb.456:
.Ltmp240:                               # EH_LABEL
	addi.d	$a0, $sp, 968
	addi.d	$a1, $sp, 968
	ori	$a2, $zero, 3
	jirl	$ra, $a3, 0
.Ltmp241:                               # EH_LABEL
.LBB0_457:                              # %_ZNSt14_Function_baseD2Ev.exit305
	ld.d	$a3, $sp, 1016
	beqz	$a3, .LBB0_459
# %bb.458:
.Ltmp243:                               # EH_LABEL
	addi.d	$a0, $sp, 1000
	addi.d	$a1, $sp, 1000
	ori	$a2, $zero, 3
	jirl	$ra, $a3, 0
.Ltmp244:                               # EH_LABEL
.LBB0_459:                              # %_ZNSt14_Function_baseD2Ev.exit307
	ld.d	$a3, $sp, 1048
	beqz	$a3, .LBB0_638
# %bb.460:
.Ltmp246:                               # EH_LABEL
	addi.d	$a0, $sp, 1032
	addi.d	$a1, $sp, 1032
	ori	$a2, $zero, 3
	jirl	$ra, $a3, 0
.Ltmp247:                               # EH_LABEL
	b	.LBB0_638
.LBB0_461:
.Ltmp248:                               # EH_LABEL
	pcaddu18i	$ra, %call36(__clang_call_terminate)
	jirl	$ra, $ra, 0
.LBB0_462:
.Ltmp245:                               # EH_LABEL
	pcaddu18i	$ra, %call36(__clang_call_terminate)
	jirl	$ra, $ra, 0
.LBB0_463:
.Ltmp242:                               # EH_LABEL
	pcaddu18i	$ra, %call36(__clang_call_terminate)
	jirl	$ra, $ra, 0
.LBB0_464:
.Ltmp239:                               # EH_LABEL
	pcaddu18i	$ra, %call36(__clang_call_terminate)
	jirl	$ra, $ra, 0
.LBB0_465:
.Ltmp236:                               # EH_LABEL
	pcaddu18i	$ra, %call36(__clang_call_terminate)
	jirl	$ra, $ra, 0
.LBB0_466:
.Ltmp200:                               # EH_LABEL
	ld.d	$a3, $sp, 1080
	move	$fp, $a0
	beqz	$a3, .LBB0_468
# %bb.467:
.Ltmp201:                               # EH_LABEL
	addi.d	$a0, $sp, 1064
	addi.d	$a1, $sp, 1064
	ori	$a2, $zero, 3
	jirl	$ra, $a3, 0
.Ltmp202:                               # EH_LABEL
.LBB0_468:                              # %_ZNSt14_Function_baseD2Ev.exit291
	ld.d	$a3, $sp, 1112
	beqz	$a3, .LBB0_470
# %bb.469:
.Ltmp204:                               # EH_LABEL
	addi.d	$a0, $sp, 1096
	addi.d	$a1, $sp, 1096
	ori	$a2, $zero, 3
	jirl	$ra, $a3, 0
.Ltmp205:                               # EH_LABEL
.LBB0_470:                              # %_ZNSt14_Function_baseD2Ev.exit293
	ld.d	$a3, $sp, 1144
	beqz	$a3, .LBB0_472
# %bb.471:
.Ltmp207:                               # EH_LABEL
	addi.d	$a0, $sp, 1128
	addi.d	$a1, $sp, 1128
	ori	$a2, $zero, 3
	jirl	$ra, $a3, 0
.Ltmp208:                               # EH_LABEL
.LBB0_472:                              # %_ZNSt14_Function_baseD2Ev.exit295
	ld.d	$a3, $sp, 1176
	beqz	$a3, .LBB0_474
# %bb.473:
.Ltmp210:                               # EH_LABEL
	addi.d	$a0, $sp, 1160
	addi.d	$a1, $sp, 1160
	ori	$a2, $zero, 3
	jirl	$ra, $a3, 0
.Ltmp211:                               # EH_LABEL
.LBB0_474:                              # %_ZNSt14_Function_baseD2Ev.exit297
	ld.d	$a3, $sp, 1208
	beqz	$a3, .LBB0_638
# %bb.475:
.Ltmp213:                               # EH_LABEL
	addi.d	$a0, $sp, 1192
	addi.d	$a1, $sp, 1192
	ori	$a2, $zero, 3
	jirl	$ra, $a3, 0
.Ltmp214:                               # EH_LABEL
	b	.LBB0_638
.LBB0_476:
.Ltmp215:                               # EH_LABEL
	pcaddu18i	$ra, %call36(__clang_call_terminate)
	jirl	$ra, $ra, 0
.LBB0_477:
.Ltmp212:                               # EH_LABEL
	pcaddu18i	$ra, %call36(__clang_call_terminate)
	jirl	$ra, $ra, 0
.LBB0_478:
.Ltmp209:                               # EH_LABEL
	pcaddu18i	$ra, %call36(__clang_call_terminate)
	jirl	$ra, $ra, 0
.LBB0_479:
.Ltmp206:                               # EH_LABEL
	pcaddu18i	$ra, %call36(__clang_call_terminate)
	jirl	$ra, $ra, 0
.LBB0_480:
.Ltmp203:                               # EH_LABEL
	pcaddu18i	$ra, %call36(__clang_call_terminate)
	jirl	$ra, $ra, 0
.LBB0_481:
.Ltmp167:                               # EH_LABEL
	ld.d	$a3, $sp, 1240
	move	$fp, $a0
	beqz	$a3, .LBB0_483
# %bb.482:
.Ltmp168:                               # EH_LABEL
	addi.d	$a0, $sp, 1224
	addi.d	$a1, $sp, 1224
	ori	$a2, $zero, 3
	jirl	$ra, $a3, 0
.Ltmp169:                               # EH_LABEL
.LBB0_483:                              # %_ZNSt14_Function_baseD2Ev.exit281
	ld.d	$a3, $sp, 1272
	beqz	$a3, .LBB0_485
# %bb.484:
.Ltmp171:                               # EH_LABEL
	addi.d	$a0, $sp, 1256
	addi.d	$a1, $sp, 1256
	ori	$a2, $zero, 3
	jirl	$ra, $a3, 0
.Ltmp172:                               # EH_LABEL
.LBB0_485:                              # %_ZNSt14_Function_baseD2Ev.exit283
	ld.d	$a3, $sp, 1304
	beqz	$a3, .LBB0_487
# %bb.486:
.Ltmp174:                               # EH_LABEL
	addi.d	$a0, $sp, 1288
	addi.d	$a1, $sp, 1288
	ori	$a2, $zero, 3
	jirl	$ra, $a3, 0
.Ltmp175:                               # EH_LABEL
.LBB0_487:                              # %_ZNSt14_Function_baseD2Ev.exit285
	ld.d	$a3, $sp, 1336
	beqz	$a3, .LBB0_489
# %bb.488:
.Ltmp177:                               # EH_LABEL
	addi.d	$a0, $sp, 1320
	addi.d	$a1, $sp, 1320
	ori	$a2, $zero, 3
	jirl	$ra, $a3, 0
.Ltmp178:                               # EH_LABEL
.LBB0_489:                              # %_ZNSt14_Function_baseD2Ev.exit287
	ld.d	$a3, $sp, 1368
	beqz	$a3, .LBB0_638
# %bb.490:
.Ltmp180:                               # EH_LABEL
	addi.d	$a0, $sp, 1352
	addi.d	$a1, $sp, 1352
	ori	$a2, $zero, 3
	jirl	$ra, $a3, 0
.Ltmp181:                               # EH_LABEL
	b	.LBB0_638
.LBB0_491:
.Ltmp182:                               # EH_LABEL
	pcaddu18i	$ra, %call36(__clang_call_terminate)
	jirl	$ra, $ra, 0
.LBB0_492:
.Ltmp179:                               # EH_LABEL
	pcaddu18i	$ra, %call36(__clang_call_terminate)
	jirl	$ra, $ra, 0
.LBB0_493:
.Ltmp176:                               # EH_LABEL
	pcaddu18i	$ra, %call36(__clang_call_terminate)
	jirl	$ra, $ra, 0
.LBB0_494:
.Ltmp173:                               # EH_LABEL
	pcaddu18i	$ra, %call36(__clang_call_terminate)
	jirl	$ra, $ra, 0
.LBB0_495:
.Ltmp170:                               # EH_LABEL
	pcaddu18i	$ra, %call36(__clang_call_terminate)
	jirl	$ra, $ra, 0
.LBB0_496:
.Ltmp134:                               # EH_LABEL
	ld.d	$a3, $sp, 1400
	move	$fp, $a0
	beqz	$a3, .LBB0_498
# %bb.497:
.Ltmp135:                               # EH_LABEL
	addi.d	$a0, $sp, 1384
	addi.d	$a1, $sp, 1384
	ori	$a2, $zero, 3
	jirl	$ra, $a3, 0
.Ltmp136:                               # EH_LABEL
.LBB0_498:                              # %_ZNSt14_Function_baseD2Ev.exit271
	ld.d	$a3, $sp, 1432
	beqz	$a3, .LBB0_500
# %bb.499:
.Ltmp138:                               # EH_LABEL
	addi.d	$a0, $sp, 1416
	addi.d	$a1, $sp, 1416
	ori	$a2, $zero, 3
	jirl	$ra, $a3, 0
.Ltmp139:                               # EH_LABEL
.LBB0_500:                              # %_ZNSt14_Function_baseD2Ev.exit273
	ld.d	$a3, $sp, 1464
	beqz	$a3, .LBB0_502
# %bb.501:
.Ltmp141:                               # EH_LABEL
	addi.d	$a0, $sp, 1448
	addi.d	$a1, $sp, 1448
	ori	$a2, $zero, 3
	jirl	$ra, $a3, 0
.Ltmp142:                               # EH_LABEL
.LBB0_502:                              # %_ZNSt14_Function_baseD2Ev.exit275
	ld.d	$a3, $sp, 1496
	beqz	$a3, .LBB0_504
# %bb.503:
.Ltmp144:                               # EH_LABEL
	addi.d	$a0, $sp, 1480
	addi.d	$a1, $sp, 1480
	ori	$a2, $zero, 3
	jirl	$ra, $a3, 0
.Ltmp145:                               # EH_LABEL
.LBB0_504:                              # %_ZNSt14_Function_baseD2Ev.exit277
	ld.d	$a3, $sp, 1528
	beqz	$a3, .LBB0_638
# %bb.505:
.Ltmp147:                               # EH_LABEL
	addi.d	$a0, $sp, 1512
	addi.d	$a1, $sp, 1512
	ori	$a2, $zero, 3
	jirl	$ra, $a3, 0
.Ltmp148:                               # EH_LABEL
	b	.LBB0_638
.LBB0_506:
.Ltmp149:                               # EH_LABEL
	pcaddu18i	$ra, %call36(__clang_call_terminate)
	jirl	$ra, $ra, 0
.LBB0_507:
.Ltmp146:                               # EH_LABEL
	pcaddu18i	$ra, %call36(__clang_call_terminate)
	jirl	$ra, $ra, 0
.LBB0_508:
.Ltmp143:                               # EH_LABEL
	pcaddu18i	$ra, %call36(__clang_call_terminate)
	jirl	$ra, $ra, 0
.LBB0_509:
.Ltmp140:                               # EH_LABEL
	pcaddu18i	$ra, %call36(__clang_call_terminate)
	jirl	$ra, $ra, 0
.LBB0_510:
.Ltmp137:                               # EH_LABEL
	pcaddu18i	$ra, %call36(__clang_call_terminate)
	jirl	$ra, $ra, 0
.LBB0_511:
.Ltmp101:                               # EH_LABEL
	ld.d	$a3, $sp, 1560
	move	$fp, $a0
	beqz	$a3, .LBB0_513
# %bb.512:
.Ltmp102:                               # EH_LABEL
	addi.d	$a0, $sp, 1544
	addi.d	$a1, $sp, 1544
	ori	$a2, $zero, 3
	jirl	$ra, $a3, 0
.Ltmp103:                               # EH_LABEL
.LBB0_513:                              # %_ZNSt14_Function_baseD2Ev.exit261
	ld.d	$a3, $sp, 1592
	beqz	$a3, .LBB0_515
# %bb.514:
.Ltmp105:                               # EH_LABEL
	addi.d	$a0, $sp, 1576
	addi.d	$a1, $sp, 1576
	ori	$a2, $zero, 3
	jirl	$ra, $a3, 0
.Ltmp106:                               # EH_LABEL
.LBB0_515:                              # %_ZNSt14_Function_baseD2Ev.exit263
	ld.d	$a3, $sp, 1624
	beqz	$a3, .LBB0_517
# %bb.516:
.Ltmp108:                               # EH_LABEL
	addi.d	$a0, $sp, 1608
	addi.d	$a1, $sp, 1608
	ori	$a2, $zero, 3
	jirl	$ra, $a3, 0
.Ltmp109:                               # EH_LABEL
.LBB0_517:                              # %_ZNSt14_Function_baseD2Ev.exit265
	ld.d	$a3, $sp, 1656
	beqz	$a3, .LBB0_519
# %bb.518:
.Ltmp111:                               # EH_LABEL
	addi.d	$a0, $sp, 1640
	addi.d	$a1, $sp, 1640
	ori	$a2, $zero, 3
	jirl	$ra, $a3, 0
.Ltmp112:                               # EH_LABEL
.LBB0_519:                              # %_ZNSt14_Function_baseD2Ev.exit267
	ld.d	$a3, $sp, 1688
	beqz	$a3, .LBB0_638
# %bb.520:
.Ltmp114:                               # EH_LABEL
	addi.d	$a0, $sp, 1672
	addi.d	$a1, $sp, 1672
	ori	$a2, $zero, 3
	jirl	$ra, $a3, 0
.Ltmp115:                               # EH_LABEL
	b	.LBB0_638
.LBB0_521:
.Ltmp116:                               # EH_LABEL
	pcaddu18i	$ra, %call36(__clang_call_terminate)
	jirl	$ra, $ra, 0
.LBB0_522:
.Ltmp113:                               # EH_LABEL
	pcaddu18i	$ra, %call36(__clang_call_terminate)
	jirl	$ra, $ra, 0
.LBB0_523:
.Ltmp110:                               # EH_LABEL
	pcaddu18i	$ra, %call36(__clang_call_terminate)
	jirl	$ra, $ra, 0
.LBB0_524:
.Ltmp107:                               # EH_LABEL
	pcaddu18i	$ra, %call36(__clang_call_terminate)
	jirl	$ra, $ra, 0
.LBB0_525:
.Ltmp104:                               # EH_LABEL
	pcaddu18i	$ra, %call36(__clang_call_terminate)
	jirl	$ra, $ra, 0
.LBB0_526:
.Ltmp68:                                # EH_LABEL
	ld.d	$a3, $sp, 1720
	move	$fp, $a0
	beqz	$a3, .LBB0_528
# %bb.527:
.Ltmp69:                                # EH_LABEL
	addi.d	$a0, $sp, 1704
	addi.d	$a1, $sp, 1704
	ori	$a2, $zero, 3
	jirl	$ra, $a3, 0
.Ltmp70:                                # EH_LABEL
.LBB0_528:                              # %_ZNSt14_Function_baseD2Ev.exit251
	ld.d	$a3, $sp, 1752
	beqz	$a3, .LBB0_530
# %bb.529:
.Ltmp72:                                # EH_LABEL
	addi.d	$a0, $sp, 1736
	addi.d	$a1, $sp, 1736
	ori	$a2, $zero, 3
	jirl	$ra, $a3, 0
.Ltmp73:                                # EH_LABEL
.LBB0_530:                              # %_ZNSt14_Function_baseD2Ev.exit253
	ld.d	$a3, $sp, 1784
	beqz	$a3, .LBB0_532
# %bb.531:
.Ltmp75:                                # EH_LABEL
	addi.d	$a0, $sp, 1768
	addi.d	$a1, $sp, 1768
	ori	$a2, $zero, 3
	jirl	$ra, $a3, 0
.Ltmp76:                                # EH_LABEL
.LBB0_532:                              # %_ZNSt14_Function_baseD2Ev.exit255
	ld.d	$a3, $sp, 1816
	beqz	$a3, .LBB0_534
# %bb.533:
.Ltmp78:                                # EH_LABEL
	addi.d	$a0, $sp, 1800
	addi.d	$a1, $sp, 1800
	ori	$a2, $zero, 3
	jirl	$ra, $a3, 0
.Ltmp79:                                # EH_LABEL
.LBB0_534:                              # %_ZNSt14_Function_baseD2Ev.exit257
	ld.d	$a3, $sp, 1848
	beqz	$a3, .LBB0_638
# %bb.535:
.Ltmp81:                                # EH_LABEL
	addi.d	$a0, $sp, 1832
	addi.d	$a1, $sp, 1832
	ori	$a2, $zero, 3
	jirl	$ra, $a3, 0
.Ltmp82:                                # EH_LABEL
	b	.LBB0_638
.LBB0_536:
.Ltmp83:                                # EH_LABEL
	pcaddu18i	$ra, %call36(__clang_call_terminate)
	jirl	$ra, $ra, 0
.LBB0_537:
.Ltmp80:                                # EH_LABEL
	pcaddu18i	$ra, %call36(__clang_call_terminate)
	jirl	$ra, $ra, 0
.LBB0_538:
.Ltmp77:                                # EH_LABEL
	pcaddu18i	$ra, %call36(__clang_call_terminate)
	jirl	$ra, $ra, 0
.LBB0_539:
.Ltmp74:                                # EH_LABEL
	pcaddu18i	$ra, %call36(__clang_call_terminate)
	jirl	$ra, $ra, 0
.LBB0_540:
.Ltmp71:                                # EH_LABEL
	pcaddu18i	$ra, %call36(__clang_call_terminate)
	jirl	$ra, $ra, 0
.LBB0_541:
.Ltmp35:                                # EH_LABEL
	ld.d	$a3, $sp, 1880
	move	$fp, $a0
	beqz	$a3, .LBB0_543
# %bb.542:
.Ltmp36:                                # EH_LABEL
	addi.d	$a0, $sp, 1864
	addi.d	$a1, $sp, 1864
	ori	$a2, $zero, 3
	jirl	$ra, $a3, 0
.Ltmp37:                                # EH_LABEL
.LBB0_543:                              # %_ZNSt14_Function_baseD2Ev.exit241
	ld.d	$a3, $sp, 1912
	beqz	$a3, .LBB0_545
# %bb.544:
.Ltmp39:                                # EH_LABEL
	addi.d	$a0, $sp, 1896
	addi.d	$a1, $sp, 1896
	ori	$a2, $zero, 3
	jirl	$ra, $a3, 0
.Ltmp40:                                # EH_LABEL
.LBB0_545:                              # %_ZNSt14_Function_baseD2Ev.exit243
	ld.d	$a3, $sp, 1944
	beqz	$a3, .LBB0_547
# %bb.546:
.Ltmp42:                                # EH_LABEL
	addi.d	$a0, $sp, 1928
	addi.d	$a1, $sp, 1928
	ori	$a2, $zero, 3
	jirl	$ra, $a3, 0
.Ltmp43:                                # EH_LABEL
.LBB0_547:                              # %_ZNSt14_Function_baseD2Ev.exit245
	ld.d	$a3, $sp, 1976
	beqz	$a3, .LBB0_549
# %bb.548:
.Ltmp45:                                # EH_LABEL
	addi.d	$a0, $sp, 1960
	addi.d	$a1, $sp, 1960
	ori	$a2, $zero, 3
	jirl	$ra, $a3, 0
.Ltmp46:                                # EH_LABEL
.LBB0_549:                              # %_ZNSt14_Function_baseD2Ev.exit247
	ld.d	$a3, $sp, 2008
	beqz	$a3, .LBB0_638
# %bb.550:
.Ltmp48:                                # EH_LABEL
	addi.d	$a0, $sp, 1992
	addi.d	$a1, $sp, 1992
	ori	$a2, $zero, 3
	jirl	$ra, $a3, 0
.Ltmp49:                                # EH_LABEL
	b	.LBB0_638
.LBB0_551:
.Ltmp50:                                # EH_LABEL
	pcaddu18i	$ra, %call36(__clang_call_terminate)
	jirl	$ra, $ra, 0
.LBB0_552:
.Ltmp47:                                # EH_LABEL
	pcaddu18i	$ra, %call36(__clang_call_terminate)
	jirl	$ra, $ra, 0
.LBB0_553:
.Ltmp44:                                # EH_LABEL
	pcaddu18i	$ra, %call36(__clang_call_terminate)
	jirl	$ra, $ra, 0
.LBB0_554:
.Ltmp41:                                # EH_LABEL
	pcaddu18i	$ra, %call36(__clang_call_terminate)
	jirl	$ra, $ra, 0
.LBB0_555:
.Ltmp38:                                # EH_LABEL
	pcaddu18i	$ra, %call36(__clang_call_terminate)
	jirl	$ra, $ra, 0
.LBB0_556:
.Ltmp2:                                 # EH_LABEL
	ld.d	$a3, $sp, 2040
	move	$fp, $a0
	beqz	$a3, .LBB0_558
# %bb.557:
.Ltmp3:                                 # EH_LABEL
	addi.d	$a0, $sp, 2024
	addi.d	$a1, $sp, 2024
	ori	$a2, $zero, 3
	jirl	$ra, $a3, 0
.Ltmp4:                                 # EH_LABEL
.LBB0_558:                              # %_ZNSt14_Function_baseD2Ev.exit231
	ori	$a0, $zero, 2072
	add.d	$a0, $sp, $a0
	ld.d	$a3, $a0, 0
	beqz	$a3, .LBB0_560
# %bb.559:
.Ltmp6:                                 # EH_LABEL
	ori	$a0, $zero, 2056
	add.d	$a0, $sp, $a0
	ori	$a1, $zero, 2056
	add.d	$a1, $sp, $a1
	ori	$a2, $zero, 3
	jirl	$ra, $a3, 0
.Ltmp7:                                 # EH_LABEL
.LBB0_560:                              # %_ZNSt14_Function_baseD2Ev.exit233
	ori	$a0, $zero, 2104
	add.d	$a0, $sp, $a0
	ld.d	$a3, $a0, 0
	beqz	$a3, .LBB0_562
# %bb.561:
.Ltmp9:                                 # EH_LABEL
	ori	$a0, $zero, 2088
	add.d	$a0, $sp, $a0
	ori	$a1, $zero, 2088
	add.d	$a1, $sp, $a1
	ori	$a2, $zero, 3
	jirl	$ra, $a3, 0
.Ltmp10:                                # EH_LABEL
.LBB0_562:                              # %_ZNSt14_Function_baseD2Ev.exit235
	ori	$a0, $zero, 2136
	add.d	$a0, $sp, $a0
	ld.d	$a3, $a0, 0
	beqz	$a3, .LBB0_564
# %bb.563:
.Ltmp12:                                # EH_LABEL
	ori	$a0, $zero, 2120
	add.d	$a0, $sp, $a0
	ori	$a1, $zero, 2120
	add.d	$a1, $sp, $a1
	ori	$a2, $zero, 3
	jirl	$ra, $a3, 0
.Ltmp13:                                # EH_LABEL
.LBB0_564:                              # %_ZNSt14_Function_baseD2Ev.exit237
	ori	$a0, $zero, 2168
	add.d	$a0, $sp, $a0
	ld.d	$a3, $a0, 0
	beqz	$a3, .LBB0_638
# %bb.565:
.Ltmp15:                                # EH_LABEL
	ori	$a0, $zero, 2152
	add.d	$a0, $sp, $a0
	ori	$a1, $zero, 2152
	add.d	$a1, $sp, $a1
	ori	$a2, $zero, 3
	jirl	$ra, $a3, 0
.Ltmp16:                                # EH_LABEL
	b	.LBB0_638
.LBB0_566:
.Ltmp17:                                # EH_LABEL
	pcaddu18i	$ra, %call36(__clang_call_terminate)
	jirl	$ra, $ra, 0
.LBB0_567:
.Ltmp14:                                # EH_LABEL
	pcaddu18i	$ra, %call36(__clang_call_terminate)
	jirl	$ra, $ra, 0
.LBB0_568:
.Ltmp11:                                # EH_LABEL
	pcaddu18i	$ra, %call36(__clang_call_terminate)
	jirl	$ra, $ra, 0
.LBB0_569:
.Ltmp8:                                 # EH_LABEL
	pcaddu18i	$ra, %call36(__clang_call_terminate)
	jirl	$ra, $ra, 0
.LBB0_570:
.Ltmp5:                                 # EH_LABEL
	pcaddu18i	$ra, %call36(__clang_call_terminate)
	jirl	$ra, $ra, 0
.LBB0_571:
.Ltmp572:                               # EH_LABEL
	pcaddu18i	$ra, %call36(__clang_call_terminate)
	jirl	$ra, $ra, 0
.LBB0_572:
.Ltmp410:                               # EH_LABEL
	pcaddu18i	$ra, %call36(__clang_call_terminate)
	jirl	$ra, $ra, 0
.LBB0_573:                              # %.loopexit.split-lp.i182
.Ltmp563:                               # EH_LABEL
	b	.LBB0_593
.LBB0_574:
.Ltmp465:                               # EH_LABEL
	move	$fp, $a0
	b	.LBB0_602
.LBB0_575:                              # %.loopexit.i177
.Ltmp548:                               # EH_LABEL
	b	.LBB0_593
.LBB0_576:                              # %.loopexit.split-lp.i
.Ltmp401:                               # EH_LABEL
	b	.LBB0_619
.LBB0_577:
.Ltmp303:                               # EH_LABEL
	move	$fp, $a0
	b	.LBB0_628
.LBB0_578:                              # %.loopexit.i
.Ltmp386:                               # EH_LABEL
	b	.LBB0_619
.LBB0_579:
.Ltmp498:                               # EH_LABEL
	pcaddu18i	$ra, %call36(__clang_call_terminate)
	jirl	$ra, $ra, 0
.LBB0_580:
.Ltmp336:                               # EH_LABEL
	pcaddu18i	$ra, %call36(__clang_call_terminate)
	jirl	$ra, $ra, 0
.LBB0_581:                              # %.loopexit9.i135
.Ltmp495:                               # EH_LABEL
	b	.LBB0_583
.LBB0_582:                              # %.loopexit.split-lp10.i202
.Ltmp623:                               # EH_LABEL
.LBB0_583:
	move	$fp, $a0
	ori	$a0, $zero, 2200
	add.d	$a0, $sp, $a0
	ld.d	$a3, $a0, 0
	beqz	$a3, .LBB0_594
# %bb.584:
.Ltmp624:                               # EH_LABEL
	ori	$a0, $zero, 2184
	add.d	$a0, $sp, $a0
	ori	$a1, $zero, 2184
	add.d	$a1, $sp, $a1
	ori	$a2, $zero, 3
	jirl	$ra, $a3, 0
.Ltmp625:                               # EH_LABEL
	b	.LBB0_594
.LBB0_585:
.Ltmp626:                               # EH_LABEL
	pcaddu18i	$ra, %call36(__clang_call_terminate)
	jirl	$ra, $ra, 0
.LBB0_586:                              # %.loopexit9.i
.Ltmp333:                               # EH_LABEL
	b	.LBB0_588
.LBB0_587:                              # %.loopexit.split-lp10.i
.Ltmp653:                               # EH_LABEL
.LBB0_588:
	move	$fp, $a0
	ori	$a0, $zero, 2200
	add.d	$a0, $sp, $a0
	ld.d	$a3, $a0, 0
	beqz	$a3, .LBB0_620
# %bb.589:
.Ltmp654:                               # EH_LABEL
	ori	$a0, $zero, 2184
	add.d	$a0, $sp, $a0
	ori	$a1, $zero, 2184
	add.d	$a1, $sp, $a1
	ori	$a2, $zero, 3
	jirl	$ra, $a3, 0
.Ltmp655:                               # EH_LABEL
	b	.LBB0_620
.LBB0_590:
.Ltmp656:                               # EH_LABEL
	pcaddu18i	$ra, %call36(__clang_call_terminate)
	jirl	$ra, $ra, 0
.LBB0_591:                              # %.loopexit.split-lp4.i157
.Ltmp536:                               # EH_LABEL
	b	.LBB0_593
.LBB0_592:                              # %.loopexit3.i152
.Ltmp507:                               # EH_LABEL
.LBB0_593:
	move	$fp, $a0
.LBB0_594:
	ori	$a0, $zero, 2368
	add.d	$a0, $sp, $a0
	ld.d	$a3, $a0, 0
	beqz	$a3, .LBB0_596
# %bb.595:
.Ltmp627:                               # EH_LABEL
	ori	$a2, $zero, 3
	ori	$a0, $zero, 2352
	add.d	$a0, $sp, $a0
	move	$a1, $a0
	jirl	$ra, $a3, 0
.Ltmp628:                               # EH_LABEL
.LBB0_596:                              # %_ZNSt4pairISt8functionIFjS0_IFvPiS1_S1_EEEEPKcED2Ev.exit.i121.i143
	ori	$a0, $zero, 2328
	add.d	$a0, $sp, $a0
	ld.d	$a3, $a0, 0
	beqz	$a3, .LBB0_598
# %bb.597:
.Ltmp629:                               # EH_LABEL
	ori	$a2, $zero, 3
	ori	$a0, $zero, 2312
	add.d	$a0, $sp, $a0
	move	$a1, $a0
	jirl	$ra, $a3, 0
.Ltmp630:                               # EH_LABEL
.LBB0_598:                              # %_ZNSt4pairISt8functionIFjS0_IFvPiS1_S1_EEEEPKcED2Ev.exit.1.i123.i145
	ori	$a0, $zero, 2288
	add.d	$a0, $sp, $a0
	ld.d	$a3, $a0, 0
	beqz	$a3, .LBB0_600
# %bb.599:
.Ltmp631:                               # EH_LABEL
	ori	$a2, $zero, 3
	move	$a0, $s0
	move	$a1, $s0
	jirl	$ra, $a3, 0
.Ltmp632:                               # EH_LABEL
.LBB0_600:                              # %_ZNSt4pairISt8functionIFjS0_IFvPiS1_S1_EEEEPKcED2Ev.exit.2.i125.i147
	ori	$a0, $zero, 2248
	add.d	$a0, $sp, $a0
	ld.d	$a3, $a0, 0
	beqz	$a3, .LBB0_602
# %bb.601:
.Ltmp633:                               # EH_LABEL
	ori	$a0, $zero, 2232
	add.d	$a0, $sp, $a0
	ori	$a1, $zero, 2232
	add.d	$a1, $sp, $a1
	ori	$a2, $zero, 3
	jirl	$ra, $a3, 0
.Ltmp634:                               # EH_LABEL
.LBB0_602:                              # %.body208
	ld.d	$a3, $sp, 280
	beqz	$a3, .LBB0_604
# %bb.603:
.Ltmp636:                               # EH_LABEL
	addi.d	$a0, $sp, 264
	addi.d	$a1, $sp, 264
	ori	$a2, $zero, 3
	jirl	$ra, $a3, 0
.Ltmp637:                               # EH_LABEL
.LBB0_604:                              # %_ZNSt14_Function_baseD2Ev.exit341
	ld.d	$a3, $sp, 312
	beqz	$a3, .LBB0_606
# %bb.605:
.Ltmp639:                               # EH_LABEL
	addi.d	$a0, $sp, 296
	addi.d	$a1, $sp, 296
	ori	$a2, $zero, 3
	jirl	$ra, $a3, 0
.Ltmp640:                               # EH_LABEL
.LBB0_606:                              # %_ZNSt14_Function_baseD2Ev.exit343
	ld.d	$a3, $sp, 344
	beqz	$a3, .LBB0_608
# %bb.607:
.Ltmp642:                               # EH_LABEL
	addi.d	$a0, $sp, 328
	addi.d	$a1, $sp, 328
	ori	$a2, $zero, 3
	jirl	$ra, $a3, 0
.Ltmp643:                               # EH_LABEL
.LBB0_608:                              # %_ZNSt14_Function_baseD2Ev.exit345
	ld.d	$a3, $sp, 376
	beqz	$a3, .LBB0_610
# %bb.609:
.Ltmp645:                               # EH_LABEL
	addi.d	$a0, $sp, 360
	addi.d	$a1, $sp, 360
	ori	$a2, $zero, 3
	jirl	$ra, $a3, 0
.Ltmp646:                               # EH_LABEL
.LBB0_610:                              # %_ZNSt14_Function_baseD2Ev.exit347
	ld.d	$a3, $sp, 408
	beqz	$a3, .LBB0_638
# %bb.611:
.Ltmp648:                               # EH_LABEL
	addi.d	$a0, $sp, 392
	addi.d	$a1, $sp, 392
	ori	$a2, $zero, 3
	jirl	$ra, $a3, 0
.Ltmp649:                               # EH_LABEL
	b	.LBB0_638
.LBB0_612:
.Ltmp650:                               # EH_LABEL
	pcaddu18i	$ra, %call36(__clang_call_terminate)
	jirl	$ra, $ra, 0
.LBB0_613:
.Ltmp647:                               # EH_LABEL
	pcaddu18i	$ra, %call36(__clang_call_terminate)
	jirl	$ra, $ra, 0
.LBB0_614:
.Ltmp644:                               # EH_LABEL
	pcaddu18i	$ra, %call36(__clang_call_terminate)
	jirl	$ra, $ra, 0
.LBB0_615:
.Ltmp641:                               # EH_LABEL
	pcaddu18i	$ra, %call36(__clang_call_terminate)
	jirl	$ra, $ra, 0
.LBB0_616:
.Ltmp638:                               # EH_LABEL
	pcaddu18i	$ra, %call36(__clang_call_terminate)
	jirl	$ra, $ra, 0
.LBB0_617:                              # %.loopexit.split-lp4.i
.Ltmp374:                               # EH_LABEL
	b	.LBB0_619
.LBB0_618:                              # %.loopexit3.i
.Ltmp345:                               # EH_LABEL
.LBB0_619:
	move	$fp, $a0
.LBB0_620:
	ori	$a0, $zero, 2368
	add.d	$a0, $sp, $a0
	ld.d	$a3, $a0, 0
	beqz	$a3, .LBB0_622
# %bb.621:
.Ltmp657:                               # EH_LABEL
	ori	$a2, $zero, 3
	ori	$a0, $zero, 2352
	add.d	$a0, $sp, $a0
	move	$a1, $a0
	jirl	$ra, $a3, 0
.Ltmp658:                               # EH_LABEL
.LBB0_622:                              # %_ZNSt4pairISt8functionIFjS0_IFvPiS1_S1_EEEEPKcED2Ev.exit.i121.i
	ori	$a0, $zero, 2328
	add.d	$a0, $sp, $a0
	ld.d	$a3, $a0, 0
	beqz	$a3, .LBB0_624
# %bb.623:
.Ltmp659:                               # EH_LABEL
	ori	$a2, $zero, 3
	ori	$a0, $zero, 2312
	add.d	$a0, $sp, $a0
	move	$a1, $a0
	jirl	$ra, $a3, 0
.Ltmp660:                               # EH_LABEL
.LBB0_624:                              # %_ZNSt4pairISt8functionIFjS0_IFvPiS1_S1_EEEEPKcED2Ev.exit.1.i123.i
	ori	$a0, $zero, 2288
	add.d	$a0, $sp, $a0
	ld.d	$a3, $a0, 0
	beqz	$a3, .LBB0_626
# %bb.625:
.Ltmp661:                               # EH_LABEL
	ori	$a2, $zero, 3
	move	$a0, $s0
	move	$a1, $s0
	jirl	$ra, $a3, 0
.Ltmp662:                               # EH_LABEL
.LBB0_626:                              # %_ZNSt4pairISt8functionIFjS0_IFvPiS1_S1_EEEEPKcED2Ev.exit.2.i125.i
	ori	$a0, $zero, 2248
	add.d	$a0, $sp, $a0
	ld.d	$a3, $a0, 0
	beqz	$a3, .LBB0_628
# %bb.627:
.Ltmp663:                               # EH_LABEL
	ori	$a0, $zero, 2232
	add.d	$a0, $sp, $a0
	ori	$a1, $zero, 2232
	add.d	$a1, $sp, $a1
	ori	$a2, $zero, 3
	jirl	$ra, $a3, 0
.Ltmp664:                               # EH_LABEL
.LBB0_628:                              # %.body
	ld.d	$a3, $sp, 600
	beqz	$a3, .LBB0_630
# %bb.629:
.Ltmp666:                               # EH_LABEL
	addi.d	$a0, $sp, 584
	addi.d	$a1, $sp, 584
	ori	$a2, $zero, 3
	jirl	$ra, $a3, 0
.Ltmp667:                               # EH_LABEL
.LBB0_630:                              # %_ZNSt14_Function_baseD2Ev.exit321
	ld.d	$a3, $sp, 632
	beqz	$a3, .LBB0_632
# %bb.631:
.Ltmp669:                               # EH_LABEL
	addi.d	$a0, $sp, 616
	addi.d	$a1, $sp, 616
	ori	$a2, $zero, 3
	jirl	$ra, $a3, 0
.Ltmp670:                               # EH_LABEL
.LBB0_632:                              # %_ZNSt14_Function_baseD2Ev.exit323
	ld.d	$a3, $sp, 664
	beqz	$a3, .LBB0_634
# %bb.633:
.Ltmp672:                               # EH_LABEL
	addi.d	$a0, $sp, 648
	addi.d	$a1, $sp, 648
	ori	$a2, $zero, 3
	jirl	$ra, $a3, 0
.Ltmp673:                               # EH_LABEL
.LBB0_634:                              # %_ZNSt14_Function_baseD2Ev.exit325
	ld.d	$a3, $sp, 696
	beqz	$a3, .LBB0_636
# %bb.635:
.Ltmp675:                               # EH_LABEL
	addi.d	$a0, $sp, 680
	addi.d	$a1, $sp, 680
	ori	$a2, $zero, 3
	jirl	$ra, $a3, 0
.Ltmp676:                               # EH_LABEL
.LBB0_636:                              # %_ZNSt14_Function_baseD2Ev.exit327
	ld.d	$a3, $sp, 728
	beqz	$a3, .LBB0_638
# %bb.637:
.Ltmp678:                               # EH_LABEL
	addi.d	$a0, $sp, 712
	addi.d	$a1, $sp, 712
	ori	$a2, $zero, 3
	jirl	$ra, $a3, 0
.Ltmp679:                               # EH_LABEL
.LBB0_638:                              # %_ZNSt14_Function_baseD2Ev.exit239
	move	$a0, $fp
	pcaddu18i	$ra, %call36(_Unwind_Resume)
	jirl	$ra, $ra, 0
.LBB0_639:
.Ltmp680:                               # EH_LABEL
	pcaddu18i	$ra, %call36(__clang_call_terminate)
	jirl	$ra, $ra, 0
.LBB0_640:
.Ltmp677:                               # EH_LABEL
	pcaddu18i	$ra, %call36(__clang_call_terminate)
	jirl	$ra, $ra, 0
.LBB0_641:
.Ltmp674:                               # EH_LABEL
	pcaddu18i	$ra, %call36(__clang_call_terminate)
	jirl	$ra, $ra, 0
.LBB0_642:
.Ltmp671:                               # EH_LABEL
	pcaddu18i	$ra, %call36(__clang_call_terminate)
	jirl	$ra, $ra, 0
.LBB0_643:
.Ltmp668:                               # EH_LABEL
	pcaddu18i	$ra, %call36(__clang_call_terminate)
	jirl	$ra, $ra, 0
.LBB0_644:
.Ltmp635:                               # EH_LABEL
	pcaddu18i	$ra, %call36(__clang_call_terminate)
	jirl	$ra, $ra, 0
.LBB0_645:
.Ltmp665:                               # EH_LABEL
	pcaddu18i	$ra, %call36(__clang_call_terminate)
	jirl	$ra, $ra, 0
.Lfunc_end0:
	.size	main, .Lfunc_end0-main
	.cfi_endproc
	.section	.gcc_except_table,"a",@progbits
	.p2align	2, 0x0
GCC_except_table0:
.Lexception0:
	.byte	255                             # @LPStart Encoding = omit
	.byte	155                             # @TType Encoding = indirect pcrel sdata4
	.uleb128 .Lttbase0-.Lttbaseref0
.Lttbaseref0:
	.byte	1                               # Call site Encoding = uleb128
	.uleb128 .Lcst_end0-.Lcst_begin0
.Lcst_begin0:
	.uleb128 .Ltmp0-.Lfunc_begin0           # >> Call Site 1 <<
	.uleb128 .Ltmp1-.Ltmp0                  #   Call between .Ltmp0 and .Ltmp1
	.uleb128 .Ltmp2-.Lfunc_begin0           #     jumps to .Ltmp2
	.byte	0                               #   On action: cleanup
	.uleb128 .Ltmp18-.Lfunc_begin0          # >> Call Site 2 <<
	.uleb128 .Ltmp19-.Ltmp18                #   Call between .Ltmp18 and .Ltmp19
	.uleb128 .Ltmp20-.Lfunc_begin0          #     jumps to .Ltmp20
	.byte	1                               #   On action: 1
	.uleb128 .Ltmp21-.Lfunc_begin0          # >> Call Site 3 <<
	.uleb128 .Ltmp22-.Ltmp21                #   Call between .Ltmp21 and .Ltmp22
	.uleb128 .Ltmp23-.Lfunc_begin0          #     jumps to .Ltmp23
	.byte	1                               #   On action: 1
	.uleb128 .Ltmp24-.Lfunc_begin0          # >> Call Site 4 <<
	.uleb128 .Ltmp25-.Ltmp24                #   Call between .Ltmp24 and .Ltmp25
	.uleb128 .Ltmp26-.Lfunc_begin0          #     jumps to .Ltmp26
	.byte	1                               #   On action: 1
	.uleb128 .Ltmp27-.Lfunc_begin0          # >> Call Site 5 <<
	.uleb128 .Ltmp28-.Ltmp27                #   Call between .Ltmp27 and .Ltmp28
	.uleb128 .Ltmp29-.Lfunc_begin0          #     jumps to .Ltmp29
	.byte	1                               #   On action: 1
	.uleb128 .Ltmp30-.Lfunc_begin0          # >> Call Site 6 <<
	.uleb128 .Ltmp31-.Ltmp30                #   Call between .Ltmp30 and .Ltmp31
	.uleb128 .Ltmp32-.Lfunc_begin0          #     jumps to .Ltmp32
	.byte	1                               #   On action: 1
	.uleb128 .Ltmp33-.Lfunc_begin0          # >> Call Site 7 <<
	.uleb128 .Ltmp34-.Ltmp33                #   Call between .Ltmp33 and .Ltmp34
	.uleb128 .Ltmp35-.Lfunc_begin0          #     jumps to .Ltmp35
	.byte	0                               #   On action: cleanup
	.uleb128 .Ltmp51-.Lfunc_begin0          # >> Call Site 8 <<
	.uleb128 .Ltmp52-.Ltmp51                #   Call between .Ltmp51 and .Ltmp52
	.uleb128 .Ltmp53-.Lfunc_begin0          #     jumps to .Ltmp53
	.byte	1                               #   On action: 1
	.uleb128 .Ltmp54-.Lfunc_begin0          # >> Call Site 9 <<
	.uleb128 .Ltmp55-.Ltmp54                #   Call between .Ltmp54 and .Ltmp55
	.uleb128 .Ltmp56-.Lfunc_begin0          #     jumps to .Ltmp56
	.byte	1                               #   On action: 1
	.uleb128 .Ltmp57-.Lfunc_begin0          # >> Call Site 10 <<
	.uleb128 .Ltmp58-.Ltmp57                #   Call between .Ltmp57 and .Ltmp58
	.uleb128 .Ltmp59-.Lfunc_begin0          #     jumps to .Ltmp59
	.byte	1                               #   On action: 1
	.uleb128 .Ltmp60-.Lfunc_begin0          # >> Call Site 11 <<
	.uleb128 .Ltmp61-.Ltmp60                #   Call between .Ltmp60 and .Ltmp61
	.uleb128 .Ltmp62-.Lfunc_begin0          #     jumps to .Ltmp62
	.byte	1                               #   On action: 1
	.uleb128 .Ltmp63-.Lfunc_begin0          # >> Call Site 12 <<
	.uleb128 .Ltmp64-.Ltmp63                #   Call between .Ltmp63 and .Ltmp64
	.uleb128 .Ltmp65-.Lfunc_begin0          #     jumps to .Ltmp65
	.byte	1                               #   On action: 1
	.uleb128 .Ltmp66-.Lfunc_begin0          # >> Call Site 13 <<
	.uleb128 .Ltmp67-.Ltmp66                #   Call between .Ltmp66 and .Ltmp67
	.uleb128 .Ltmp68-.Lfunc_begin0          #     jumps to .Ltmp68
	.byte	0                               #   On action: cleanup
	.uleb128 .Ltmp84-.Lfunc_begin0          # >> Call Site 14 <<
	.uleb128 .Ltmp85-.Ltmp84                #   Call between .Ltmp84 and .Ltmp85
	.uleb128 .Ltmp86-.Lfunc_begin0          #     jumps to .Ltmp86
	.byte	1                               #   On action: 1
	.uleb128 .Ltmp87-.Lfunc_begin0          # >> Call Site 15 <<
	.uleb128 .Ltmp88-.Ltmp87                #   Call between .Ltmp87 and .Ltmp88
	.uleb128 .Ltmp89-.Lfunc_begin0          #     jumps to .Ltmp89
	.byte	1                               #   On action: 1
	.uleb128 .Ltmp90-.Lfunc_begin0          # >> Call Site 16 <<
	.uleb128 .Ltmp91-.Ltmp90                #   Call between .Ltmp90 and .Ltmp91
	.uleb128 .Ltmp92-.Lfunc_begin0          #     jumps to .Ltmp92
	.byte	1                               #   On action: 1
	.uleb128 .Ltmp93-.Lfunc_begin0          # >> Call Site 17 <<
	.uleb128 .Ltmp94-.Ltmp93                #   Call between .Ltmp93 and .Ltmp94
	.uleb128 .Ltmp95-.Lfunc_begin0          #     jumps to .Ltmp95
	.byte	1                               #   On action: 1
	.uleb128 .Ltmp96-.Lfunc_begin0          # >> Call Site 18 <<
	.uleb128 .Ltmp97-.Ltmp96                #   Call between .Ltmp96 and .Ltmp97
	.uleb128 .Ltmp98-.Lfunc_begin0          #     jumps to .Ltmp98
	.byte	1                               #   On action: 1
	.uleb128 .Ltmp99-.Lfunc_begin0          # >> Call Site 19 <<
	.uleb128 .Ltmp100-.Ltmp99               #   Call between .Ltmp99 and .Ltmp100
	.uleb128 .Ltmp101-.Lfunc_begin0         #     jumps to .Ltmp101
	.byte	0                               #   On action: cleanup
	.uleb128 .Ltmp117-.Lfunc_begin0         # >> Call Site 20 <<
	.uleb128 .Ltmp118-.Ltmp117              #   Call between .Ltmp117 and .Ltmp118
	.uleb128 .Ltmp119-.Lfunc_begin0         #     jumps to .Ltmp119
	.byte	1                               #   On action: 1
	.uleb128 .Ltmp120-.Lfunc_begin0         # >> Call Site 21 <<
	.uleb128 .Ltmp121-.Ltmp120              #   Call between .Ltmp120 and .Ltmp121
	.uleb128 .Ltmp122-.Lfunc_begin0         #     jumps to .Ltmp122
	.byte	1                               #   On action: 1
	.uleb128 .Ltmp123-.Lfunc_begin0         # >> Call Site 22 <<
	.uleb128 .Ltmp124-.Ltmp123              #   Call between .Ltmp123 and .Ltmp124
	.uleb128 .Ltmp125-.Lfunc_begin0         #     jumps to .Ltmp125
	.byte	1                               #   On action: 1
	.uleb128 .Ltmp126-.Lfunc_begin0         # >> Call Site 23 <<
	.uleb128 .Ltmp127-.Ltmp126              #   Call between .Ltmp126 and .Ltmp127
	.uleb128 .Ltmp128-.Lfunc_begin0         #     jumps to .Ltmp128
	.byte	1                               #   On action: 1
	.uleb128 .Ltmp129-.Lfunc_begin0         # >> Call Site 24 <<
	.uleb128 .Ltmp130-.Ltmp129              #   Call between .Ltmp129 and .Ltmp130
	.uleb128 .Ltmp131-.Lfunc_begin0         #     jumps to .Ltmp131
	.byte	1                               #   On action: 1
	.uleb128 .Ltmp132-.Lfunc_begin0         # >> Call Site 25 <<
	.uleb128 .Ltmp133-.Ltmp132              #   Call between .Ltmp132 and .Ltmp133
	.uleb128 .Ltmp134-.Lfunc_begin0         #     jumps to .Ltmp134
	.byte	0                               #   On action: cleanup
	.uleb128 .Ltmp150-.Lfunc_begin0         # >> Call Site 26 <<
	.uleb128 .Ltmp151-.Ltmp150              #   Call between .Ltmp150 and .Ltmp151
	.uleb128 .Ltmp152-.Lfunc_begin0         #     jumps to .Ltmp152
	.byte	1                               #   On action: 1
	.uleb128 .Ltmp153-.Lfunc_begin0         # >> Call Site 27 <<
	.uleb128 .Ltmp154-.Ltmp153              #   Call between .Ltmp153 and .Ltmp154
	.uleb128 .Ltmp155-.Lfunc_begin0         #     jumps to .Ltmp155
	.byte	1                               #   On action: 1
	.uleb128 .Ltmp156-.Lfunc_begin0         # >> Call Site 28 <<
	.uleb128 .Ltmp157-.Ltmp156              #   Call between .Ltmp156 and .Ltmp157
	.uleb128 .Ltmp158-.Lfunc_begin0         #     jumps to .Ltmp158
	.byte	1                               #   On action: 1
	.uleb128 .Ltmp159-.Lfunc_begin0         # >> Call Site 29 <<
	.uleb128 .Ltmp160-.Ltmp159              #   Call between .Ltmp159 and .Ltmp160
	.uleb128 .Ltmp161-.Lfunc_begin0         #     jumps to .Ltmp161
	.byte	1                               #   On action: 1
	.uleb128 .Ltmp162-.Lfunc_begin0         # >> Call Site 30 <<
	.uleb128 .Ltmp163-.Ltmp162              #   Call between .Ltmp162 and .Ltmp163
	.uleb128 .Ltmp164-.Lfunc_begin0         #     jumps to .Ltmp164
	.byte	1                               #   On action: 1
	.uleb128 .Ltmp165-.Lfunc_begin0         # >> Call Site 31 <<
	.uleb128 .Ltmp166-.Ltmp165              #   Call between .Ltmp165 and .Ltmp166
	.uleb128 .Ltmp167-.Lfunc_begin0         #     jumps to .Ltmp167
	.byte	0                               #   On action: cleanup
	.uleb128 .Ltmp183-.Lfunc_begin0         # >> Call Site 32 <<
	.uleb128 .Ltmp184-.Ltmp183              #   Call between .Ltmp183 and .Ltmp184
	.uleb128 .Ltmp185-.Lfunc_begin0         #     jumps to .Ltmp185
	.byte	1                               #   On action: 1
	.uleb128 .Ltmp186-.Lfunc_begin0         # >> Call Site 33 <<
	.uleb128 .Ltmp187-.Ltmp186              #   Call between .Ltmp186 and .Ltmp187
	.uleb128 .Ltmp188-.Lfunc_begin0         #     jumps to .Ltmp188
	.byte	1                               #   On action: 1
	.uleb128 .Ltmp189-.Lfunc_begin0         # >> Call Site 34 <<
	.uleb128 .Ltmp190-.Ltmp189              #   Call between .Ltmp189 and .Ltmp190
	.uleb128 .Ltmp191-.Lfunc_begin0         #     jumps to .Ltmp191
	.byte	1                               #   On action: 1
	.uleb128 .Ltmp192-.Lfunc_begin0         # >> Call Site 35 <<
	.uleb128 .Ltmp193-.Ltmp192              #   Call between .Ltmp192 and .Ltmp193
	.uleb128 .Ltmp194-.Lfunc_begin0         #     jumps to .Ltmp194
	.byte	1                               #   On action: 1
	.uleb128 .Ltmp195-.Lfunc_begin0         # >> Call Site 36 <<
	.uleb128 .Ltmp196-.Ltmp195              #   Call between .Ltmp195 and .Ltmp196
	.uleb128 .Ltmp197-.Lfunc_begin0         #     jumps to .Ltmp197
	.byte	1                               #   On action: 1
	.uleb128 .Ltmp198-.Lfunc_begin0         # >> Call Site 37 <<
	.uleb128 .Ltmp199-.Ltmp198              #   Call between .Ltmp198 and .Ltmp199
	.uleb128 .Ltmp200-.Lfunc_begin0         #     jumps to .Ltmp200
	.byte	0                               #   On action: cleanup
	.uleb128 .Ltmp216-.Lfunc_begin0         # >> Call Site 38 <<
	.uleb128 .Ltmp217-.Ltmp216              #   Call between .Ltmp216 and .Ltmp217
	.uleb128 .Ltmp218-.Lfunc_begin0         #     jumps to .Ltmp218
	.byte	1                               #   On action: 1
	.uleb128 .Ltmp219-.Lfunc_begin0         # >> Call Site 39 <<
	.uleb128 .Ltmp220-.Ltmp219              #   Call between .Ltmp219 and .Ltmp220
	.uleb128 .Ltmp221-.Lfunc_begin0         #     jumps to .Ltmp221
	.byte	1                               #   On action: 1
	.uleb128 .Ltmp222-.Lfunc_begin0         # >> Call Site 40 <<
	.uleb128 .Ltmp223-.Ltmp222              #   Call between .Ltmp222 and .Ltmp223
	.uleb128 .Ltmp224-.Lfunc_begin0         #     jumps to .Ltmp224
	.byte	1                               #   On action: 1
	.uleb128 .Ltmp225-.Lfunc_begin0         # >> Call Site 41 <<
	.uleb128 .Ltmp226-.Ltmp225              #   Call between .Ltmp225 and .Ltmp226
	.uleb128 .Ltmp227-.Lfunc_begin0         #     jumps to .Ltmp227
	.byte	1                               #   On action: 1
	.uleb128 .Ltmp228-.Lfunc_begin0         # >> Call Site 42 <<
	.uleb128 .Ltmp229-.Ltmp228              #   Call between .Ltmp228 and .Ltmp229
	.uleb128 .Ltmp230-.Lfunc_begin0         #     jumps to .Ltmp230
	.byte	1                               #   On action: 1
	.uleb128 .Ltmp231-.Lfunc_begin0         # >> Call Site 43 <<
	.uleb128 .Ltmp232-.Ltmp231              #   Call between .Ltmp231 and .Ltmp232
	.uleb128 .Ltmp233-.Lfunc_begin0         #     jumps to .Ltmp233
	.byte	0                               #   On action: cleanup
	.uleb128 .Ltmp249-.Lfunc_begin0         # >> Call Site 44 <<
	.uleb128 .Ltmp250-.Ltmp249              #   Call between .Ltmp249 and .Ltmp250
	.uleb128 .Ltmp251-.Lfunc_begin0         #     jumps to .Ltmp251
	.byte	1                               #   On action: 1
	.uleb128 .Ltmp252-.Lfunc_begin0         # >> Call Site 45 <<
	.uleb128 .Ltmp253-.Ltmp252              #   Call between .Ltmp252 and .Ltmp253
	.uleb128 .Ltmp254-.Lfunc_begin0         #     jumps to .Ltmp254
	.byte	1                               #   On action: 1
	.uleb128 .Ltmp255-.Lfunc_begin0         # >> Call Site 46 <<
	.uleb128 .Ltmp256-.Ltmp255              #   Call between .Ltmp255 and .Ltmp256
	.uleb128 .Ltmp257-.Lfunc_begin0         #     jumps to .Ltmp257
	.byte	1                               #   On action: 1
	.uleb128 .Ltmp258-.Lfunc_begin0         # >> Call Site 47 <<
	.uleb128 .Ltmp259-.Ltmp258              #   Call between .Ltmp258 and .Ltmp259
	.uleb128 .Ltmp260-.Lfunc_begin0         #     jumps to .Ltmp260
	.byte	1                               #   On action: 1
	.uleb128 .Ltmp261-.Lfunc_begin0         # >> Call Site 48 <<
	.uleb128 .Ltmp262-.Ltmp261              #   Call between .Ltmp261 and .Ltmp262
	.uleb128 .Ltmp263-.Lfunc_begin0         #     jumps to .Ltmp263
	.byte	1                               #   On action: 1
	.uleb128 .Ltmp264-.Lfunc_begin0         # >> Call Site 49 <<
	.uleb128 .Ltmp265-.Ltmp264              #   Call between .Ltmp264 and .Ltmp265
	.uleb128 .Ltmp266-.Lfunc_begin0         #     jumps to .Ltmp266
	.byte	0                               #   On action: cleanup
	.uleb128 .Ltmp282-.Lfunc_begin0         # >> Call Site 50 <<
	.uleb128 .Ltmp283-.Ltmp282              #   Call between .Ltmp282 and .Ltmp283
	.uleb128 .Ltmp284-.Lfunc_begin0         #     jumps to .Ltmp284
	.byte	1                               #   On action: 1
	.uleb128 .Ltmp285-.Lfunc_begin0         # >> Call Site 51 <<
	.uleb128 .Ltmp286-.Ltmp285              #   Call between .Ltmp285 and .Ltmp286
	.uleb128 .Ltmp287-.Lfunc_begin0         #     jumps to .Ltmp287
	.byte	1                               #   On action: 1
	.uleb128 .Ltmp288-.Lfunc_begin0         # >> Call Site 52 <<
	.uleb128 .Ltmp289-.Ltmp288              #   Call between .Ltmp288 and .Ltmp289
	.uleb128 .Ltmp290-.Lfunc_begin0         #     jumps to .Ltmp290
	.byte	1                               #   On action: 1
	.uleb128 .Ltmp291-.Lfunc_begin0         # >> Call Site 53 <<
	.uleb128 .Ltmp292-.Ltmp291              #   Call between .Ltmp291 and .Ltmp292
	.uleb128 .Ltmp293-.Lfunc_begin0         #     jumps to .Ltmp293
	.byte	1                               #   On action: 1
	.uleb128 .Ltmp294-.Lfunc_begin0         # >> Call Site 54 <<
	.uleb128 .Ltmp295-.Ltmp294              #   Call between .Ltmp294 and .Ltmp295
	.uleb128 .Ltmp296-.Lfunc_begin0         #     jumps to .Ltmp296
	.byte	1                               #   On action: 1
	.uleb128 .Ltmp297-.Lfunc_begin0         # >> Call Site 55 <<
	.uleb128 .Ltmp302-.Ltmp297              #   Call between .Ltmp297 and .Ltmp302
	.uleb128 .Ltmp303-.Lfunc_begin0         #     jumps to .Ltmp303
	.byte	0                               #   On action: cleanup
	.uleb128 .Ltmp304-.Lfunc_begin0         # >> Call Site 56 <<
	.uleb128 .Ltmp305-.Ltmp304              #   Call between .Ltmp304 and .Ltmp305
	.uleb128 .Ltmp306-.Lfunc_begin0         #     jumps to .Ltmp306
	.byte	0                               #   On action: cleanup
	.uleb128 .Ltmp310-.Lfunc_begin0         # >> Call Site 57 <<
	.uleb128 .Ltmp311-.Ltmp310              #   Call between .Ltmp310 and .Ltmp311
	.uleb128 .Ltmp312-.Lfunc_begin0         #     jumps to .Ltmp312
	.byte	0                               #   On action: cleanup
	.uleb128 .Ltmp316-.Lfunc_begin0         # >> Call Site 58 <<
	.uleb128 .Ltmp317-.Ltmp316              #   Call between .Ltmp316 and .Ltmp317
	.uleb128 .Ltmp318-.Lfunc_begin0         #     jumps to .Ltmp318
	.byte	0                               #   On action: cleanup
	.uleb128 .Ltmp322-.Lfunc_begin0         # >> Call Site 59 <<
	.uleb128 .Ltmp323-.Ltmp322              #   Call between .Ltmp322 and .Ltmp323
	.uleb128 .Ltmp324-.Lfunc_begin0         #     jumps to .Ltmp324
	.byte	0                               #   On action: cleanup
	.uleb128 .Ltmp331-.Lfunc_begin0         # >> Call Site 60 <<
	.uleb128 .Ltmp332-.Ltmp331              #   Call between .Ltmp331 and .Ltmp332
	.uleb128 .Ltmp333-.Lfunc_begin0         #     jumps to .Ltmp333
	.byte	0                               #   On action: cleanup
	.uleb128 .Ltmp334-.Lfunc_begin0         # >> Call Site 61 <<
	.uleb128 .Ltmp335-.Ltmp334              #   Call between .Ltmp334 and .Ltmp335
	.uleb128 .Ltmp336-.Lfunc_begin0         #     jumps to .Ltmp336
	.byte	1                               #   On action: 1
	.uleb128 .Ltmp337-.Lfunc_begin0         # >> Call Site 62 <<
	.uleb128 .Ltmp344-.Ltmp337              #   Call between .Ltmp337 and .Ltmp344
	.uleb128 .Ltmp345-.Lfunc_begin0         #     jumps to .Ltmp345
	.byte	0                               #   On action: cleanup
	.uleb128 .Ltmp375-.Lfunc_begin0         # >> Call Site 63 <<
	.uleb128 .Ltmp376-.Ltmp375              #   Call between .Ltmp375 and .Ltmp376
	.uleb128 .Ltmp377-.Lfunc_begin0         #     jumps to .Ltmp377
	.byte	0                               #   On action: cleanup
	.uleb128 .Ltmp378-.Lfunc_begin0         # >> Call Site 64 <<
	.uleb128 .Ltmp385-.Ltmp378              #   Call between .Ltmp378 and .Ltmp385
	.uleb128 .Ltmp386-.Lfunc_begin0         #     jumps to .Ltmp386
	.byte	0                               #   On action: cleanup
	.uleb128 .Ltmp402-.Lfunc_begin0         # >> Call Site 65 <<
	.uleb128 .Ltmp409-.Ltmp402              #   Call between .Ltmp402 and .Ltmp409
	.uleb128 .Ltmp410-.Lfunc_begin0         #     jumps to .Ltmp410
	.byte	1                               #   On action: 1
	.uleb128 .Ltmp411-.Lfunc_begin0         # >> Call Site 66 <<
	.uleb128 .Ltmp412-.Ltmp411              #   Call between .Ltmp411 and .Ltmp412
	.uleb128 .Ltmp413-.Lfunc_begin0         #     jumps to .Ltmp413
	.byte	1                               #   On action: 1
	.uleb128 .Ltmp414-.Lfunc_begin0         # >> Call Site 67 <<
	.uleb128 .Ltmp415-.Ltmp414              #   Call between .Ltmp414 and .Ltmp415
	.uleb128 .Ltmp416-.Lfunc_begin0         #     jumps to .Ltmp416
	.byte	1                               #   On action: 1
	.uleb128 .Ltmp417-.Lfunc_begin0         # >> Call Site 68 <<
	.uleb128 .Ltmp418-.Ltmp417              #   Call between .Ltmp417 and .Ltmp418
	.uleb128 .Ltmp419-.Lfunc_begin0         #     jumps to .Ltmp419
	.byte	1                               #   On action: 1
	.uleb128 .Ltmp420-.Lfunc_begin0         # >> Call Site 69 <<
	.uleb128 .Ltmp421-.Ltmp420              #   Call between .Ltmp420 and .Ltmp421
	.uleb128 .Ltmp422-.Lfunc_begin0         #     jumps to .Ltmp422
	.byte	1                               #   On action: 1
	.uleb128 .Ltmp423-.Lfunc_begin0         # >> Call Site 70 <<
	.uleb128 .Ltmp424-.Ltmp423              #   Call between .Ltmp423 and .Ltmp424
	.uleb128 .Ltmp425-.Lfunc_begin0         #     jumps to .Ltmp425
	.byte	1                               #   On action: 1
	.uleb128 .Ltmp426-.Lfunc_begin0         # >> Call Site 71 <<
	.uleb128 .Ltmp427-.Ltmp426              #   Call between .Ltmp426 and .Ltmp427
	.uleb128 .Ltmp428-.Lfunc_begin0         #     jumps to .Ltmp428
	.byte	0                               #   On action: cleanup
	.uleb128 .Ltmp444-.Lfunc_begin0         # >> Call Site 72 <<
	.uleb128 .Ltmp445-.Ltmp444              #   Call between .Ltmp444 and .Ltmp445
	.uleb128 .Ltmp446-.Lfunc_begin0         #     jumps to .Ltmp446
	.byte	1                               #   On action: 1
	.uleb128 .Ltmp447-.Lfunc_begin0         # >> Call Site 73 <<
	.uleb128 .Ltmp448-.Ltmp447              #   Call between .Ltmp447 and .Ltmp448
	.uleb128 .Ltmp449-.Lfunc_begin0         #     jumps to .Ltmp449
	.byte	1                               #   On action: 1
	.uleb128 .Ltmp450-.Lfunc_begin0         # >> Call Site 74 <<
	.uleb128 .Ltmp451-.Ltmp450              #   Call between .Ltmp450 and .Ltmp451
	.uleb128 .Ltmp452-.Lfunc_begin0         #     jumps to .Ltmp452
	.byte	1                               #   On action: 1
	.uleb128 .Ltmp453-.Lfunc_begin0         # >> Call Site 75 <<
	.uleb128 .Ltmp454-.Ltmp453              #   Call between .Ltmp453 and .Ltmp454
	.uleb128 .Ltmp455-.Lfunc_begin0         #     jumps to .Ltmp455
	.byte	1                               #   On action: 1
	.uleb128 .Ltmp456-.Lfunc_begin0         # >> Call Site 76 <<
	.uleb128 .Ltmp457-.Ltmp456              #   Call between .Ltmp456 and .Ltmp457
	.uleb128 .Ltmp458-.Lfunc_begin0         #     jumps to .Ltmp458
	.byte	1                               #   On action: 1
	.uleb128 .Ltmp459-.Lfunc_begin0         # >> Call Site 77 <<
	.uleb128 .Ltmp464-.Ltmp459              #   Call between .Ltmp459 and .Ltmp464
	.uleb128 .Ltmp465-.Lfunc_begin0         #     jumps to .Ltmp465
	.byte	0                               #   On action: cleanup
	.uleb128 .Ltmp466-.Lfunc_begin0         # >> Call Site 78 <<
	.uleb128 .Ltmp467-.Ltmp466              #   Call between .Ltmp466 and .Ltmp467
	.uleb128 .Ltmp468-.Lfunc_begin0         #     jumps to .Ltmp468
	.byte	0                               #   On action: cleanup
	.uleb128 .Ltmp472-.Lfunc_begin0         # >> Call Site 79 <<
	.uleb128 .Ltmp473-.Ltmp472              #   Call between .Ltmp472 and .Ltmp473
	.uleb128 .Ltmp474-.Lfunc_begin0         #     jumps to .Ltmp474
	.byte	0                               #   On action: cleanup
	.uleb128 .Ltmp478-.Lfunc_begin0         # >> Call Site 80 <<
	.uleb128 .Ltmp479-.Ltmp478              #   Call between .Ltmp478 and .Ltmp479
	.uleb128 .Ltmp480-.Lfunc_begin0         #     jumps to .Ltmp480
	.byte	0                               #   On action: cleanup
	.uleb128 .Ltmp484-.Lfunc_begin0         # >> Call Site 81 <<
	.uleb128 .Ltmp485-.Ltmp484              #   Call between .Ltmp484 and .Ltmp485
	.uleb128 .Ltmp486-.Lfunc_begin0         #     jumps to .Ltmp486
	.byte	0                               #   On action: cleanup
	.uleb128 .Ltmp493-.Lfunc_begin0         # >> Call Site 82 <<
	.uleb128 .Ltmp494-.Ltmp493              #   Call between .Ltmp493 and .Ltmp494
	.uleb128 .Ltmp495-.Lfunc_begin0         #     jumps to .Ltmp495
	.byte	0                               #   On action: cleanup
	.uleb128 .Ltmp496-.Lfunc_begin0         # >> Call Site 83 <<
	.uleb128 .Ltmp497-.Ltmp496              #   Call between .Ltmp496 and .Ltmp497
	.uleb128 .Ltmp498-.Lfunc_begin0         #     jumps to .Ltmp498
	.byte	1                               #   On action: 1
	.uleb128 .Ltmp499-.Lfunc_begin0         # >> Call Site 84 <<
	.uleb128 .Ltmp506-.Ltmp499              #   Call between .Ltmp499 and .Ltmp506
	.uleb128 .Ltmp507-.Lfunc_begin0         #     jumps to .Ltmp507
	.byte	0                               #   On action: cleanup
	.uleb128 .Ltmp537-.Lfunc_begin0         # >> Call Site 85 <<
	.uleb128 .Ltmp538-.Ltmp537              #   Call between .Ltmp537 and .Ltmp538
	.uleb128 .Ltmp539-.Lfunc_begin0         #     jumps to .Ltmp539
	.byte	0                               #   On action: cleanup
	.uleb128 .Ltmp540-.Lfunc_begin0         # >> Call Site 86 <<
	.uleb128 .Ltmp547-.Ltmp540              #   Call between .Ltmp540 and .Ltmp547
	.uleb128 .Ltmp548-.Lfunc_begin0         #     jumps to .Ltmp548
	.byte	0                               #   On action: cleanup
	.uleb128 .Ltmp564-.Lfunc_begin0         # >> Call Site 87 <<
	.uleb128 .Ltmp571-.Ltmp564              #   Call between .Ltmp564 and .Ltmp571
	.uleb128 .Ltmp572-.Lfunc_begin0         #     jumps to .Ltmp572
	.byte	1                               #   On action: 1
	.uleb128 .Ltmp573-.Lfunc_begin0         # >> Call Site 88 <<
	.uleb128 .Ltmp574-.Ltmp573              #   Call between .Ltmp573 and .Ltmp574
	.uleb128 .Ltmp575-.Lfunc_begin0         #     jumps to .Ltmp575
	.byte	1                               #   On action: 1
	.uleb128 .Ltmp576-.Lfunc_begin0         # >> Call Site 89 <<
	.uleb128 .Ltmp577-.Ltmp576              #   Call between .Ltmp576 and .Ltmp577
	.uleb128 .Ltmp578-.Lfunc_begin0         #     jumps to .Ltmp578
	.byte	1                               #   On action: 1
	.uleb128 .Ltmp579-.Lfunc_begin0         # >> Call Site 90 <<
	.uleb128 .Ltmp580-.Ltmp579              #   Call between .Ltmp579 and .Ltmp580
	.uleb128 .Ltmp581-.Lfunc_begin0         #     jumps to .Ltmp581
	.byte	1                               #   On action: 1
	.uleb128 .Ltmp582-.Lfunc_begin0         # >> Call Site 91 <<
	.uleb128 .Ltmp583-.Ltmp582              #   Call between .Ltmp582 and .Ltmp583
	.uleb128 .Ltmp584-.Lfunc_begin0         #     jumps to .Ltmp584
	.byte	1                               #   On action: 1
	.uleb128 .Ltmp585-.Lfunc_begin0         # >> Call Site 92 <<
	.uleb128 .Ltmp586-.Ltmp585              #   Call between .Ltmp585 and .Ltmp586
	.uleb128 .Ltmp587-.Lfunc_begin0         #     jumps to .Ltmp587
	.byte	1                               #   On action: 1
	.uleb128 .Ltmp588-.Lfunc_begin0         # >> Call Site 93 <<
	.uleb128 .Ltmp589-.Ltmp588              #   Call between .Ltmp588 and .Ltmp589
	.uleb128 .Ltmp590-.Lfunc_begin0         #     jumps to .Ltmp590
	.byte	0                               #   On action: cleanup
	.uleb128 .Ltmp606-.Lfunc_begin0         # >> Call Site 94 <<
	.uleb128 .Ltmp607-.Ltmp606              #   Call between .Ltmp606 and .Ltmp607
	.uleb128 .Ltmp608-.Lfunc_begin0         #     jumps to .Ltmp608
	.byte	1                               #   On action: 1
	.uleb128 .Ltmp609-.Lfunc_begin0         # >> Call Site 95 <<
	.uleb128 .Ltmp610-.Ltmp609              #   Call between .Ltmp609 and .Ltmp610
	.uleb128 .Ltmp611-.Lfunc_begin0         #     jumps to .Ltmp611
	.byte	1                               #   On action: 1
	.uleb128 .Ltmp612-.Lfunc_begin0         # >> Call Site 96 <<
	.uleb128 .Ltmp613-.Ltmp612              #   Call between .Ltmp612 and .Ltmp613
	.uleb128 .Ltmp614-.Lfunc_begin0         #     jumps to .Ltmp614
	.byte	1                               #   On action: 1
	.uleb128 .Ltmp615-.Lfunc_begin0         # >> Call Site 97 <<
	.uleb128 .Ltmp616-.Ltmp615              #   Call between .Ltmp615 and .Ltmp616
	.uleb128 .Ltmp617-.Lfunc_begin0         #     jumps to .Ltmp617
	.byte	1                               #   On action: 1
	.uleb128 .Ltmp618-.Lfunc_begin0         # >> Call Site 98 <<
	.uleb128 .Ltmp619-.Ltmp618              #   Call between .Ltmp618 and .Ltmp619
	.uleb128 .Ltmp620-.Lfunc_begin0         #     jumps to .Ltmp620
	.byte	1                               #   On action: 1
	.uleb128 .Ltmp651-.Lfunc_begin0         # >> Call Site 99 <<
	.uleb128 .Ltmp652-.Ltmp651              #   Call between .Ltmp651 and .Ltmp652
	.uleb128 .Ltmp653-.Lfunc_begin0         #     jumps to .Ltmp653
	.byte	0                               #   On action: cleanup
	.uleb128 .Ltmp346-.Lfunc_begin0         # >> Call Site 100 <<
	.uleb128 .Ltmp351-.Ltmp346              #   Call between .Ltmp346 and .Ltmp351
	.uleb128 .Ltmp374-.Lfunc_begin0         #     jumps to .Ltmp374
	.byte	0                               #   On action: cleanup
	.uleb128 .Ltmp351-.Lfunc_begin0         # >> Call Site 101 <<
	.uleb128 .Ltmp348-.Ltmp351              #   Call between .Ltmp351 and .Ltmp348
	.byte	0                               #     has no landing pad
	.byte	0                               #   On action: cleanup
	.uleb128 .Ltmp348-.Lfunc_begin0         # >> Call Site 102 <<
	.uleb128 .Ltmp373-.Ltmp348              #   Call between .Ltmp348 and .Ltmp373
	.uleb128 .Ltmp374-.Lfunc_begin0         #     jumps to .Ltmp374
	.byte	0                               #   On action: cleanup
	.uleb128 .Ltmp621-.Lfunc_begin0         # >> Call Site 103 <<
	.uleb128 .Ltmp622-.Ltmp621              #   Call between .Ltmp621 and .Ltmp622
	.uleb128 .Ltmp623-.Lfunc_begin0         #     jumps to .Ltmp623
	.byte	0                               #   On action: cleanup
	.uleb128 .Ltmp508-.Lfunc_begin0         # >> Call Site 104 <<
	.uleb128 .Ltmp513-.Ltmp508              #   Call between .Ltmp508 and .Ltmp513
	.uleb128 .Ltmp536-.Lfunc_begin0         #     jumps to .Ltmp536
	.byte	0                               #   On action: cleanup
	.uleb128 .Ltmp513-.Lfunc_begin0         # >> Call Site 105 <<
	.uleb128 .Ltmp510-.Ltmp513              #   Call between .Ltmp513 and .Ltmp510
	.byte	0                               #     has no landing pad
	.byte	0                               #   On action: cleanup
	.uleb128 .Ltmp510-.Lfunc_begin0         # >> Call Site 106 <<
	.uleb128 .Ltmp535-.Ltmp510              #   Call between .Ltmp510 and .Ltmp535
	.uleb128 .Ltmp536-.Lfunc_begin0         #     jumps to .Ltmp536
	.byte	0                               #   On action: cleanup
	.uleb128 .Ltmp535-.Lfunc_begin0         # >> Call Site 107 <<
	.uleb128 .Ltmp387-.Ltmp535              #   Call between .Ltmp535 and .Ltmp387
	.byte	0                               #     has no landing pad
	.byte	0                               #   On action: cleanup
	.uleb128 .Ltmp387-.Lfunc_begin0         # >> Call Site 108 <<
	.uleb128 .Ltmp400-.Ltmp387              #   Call between .Ltmp387 and .Ltmp400
	.uleb128 .Ltmp401-.Lfunc_begin0         #     jumps to .Ltmp401
	.byte	0                               #   On action: cleanup
	.uleb128 .Ltmp549-.Lfunc_begin0         # >> Call Site 109 <<
	.uleb128 .Ltmp562-.Ltmp549              #   Call between .Ltmp549 and .Ltmp562
	.uleb128 .Ltmp563-.Lfunc_begin0         #     jumps to .Ltmp563
	.byte	0                               #   On action: cleanup
	.uleb128 .Ltmp562-.Lfunc_begin0         # >> Call Site 110 <<
	.uleb128 .Ltmp487-.Ltmp562              #   Call between .Ltmp562 and .Ltmp487
	.byte	0                               #     has no landing pad
	.byte	0                               #   On action: cleanup
	.uleb128 .Ltmp487-.Lfunc_begin0         # >> Call Site 111 <<
	.uleb128 .Ltmp488-.Ltmp487              #   Call between .Ltmp487 and .Ltmp488
	.uleb128 .Ltmp489-.Lfunc_begin0         #     jumps to .Ltmp489
	.byte	1                               #   On action: 1
	.uleb128 .Ltmp488-.Lfunc_begin0         # >> Call Site 112 <<
	.uleb128 .Ltmp481-.Ltmp488              #   Call between .Ltmp488 and .Ltmp481
	.byte	0                               #     has no landing pad
	.byte	0                               #   On action: cleanup
	.uleb128 .Ltmp481-.Lfunc_begin0         # >> Call Site 113 <<
	.uleb128 .Ltmp482-.Ltmp481              #   Call between .Ltmp481 and .Ltmp482
	.uleb128 .Ltmp483-.Lfunc_begin0         #     jumps to .Ltmp483
	.byte	1                               #   On action: 1
	.uleb128 .Ltmp482-.Lfunc_begin0         # >> Call Site 114 <<
	.uleb128 .Ltmp475-.Ltmp482              #   Call between .Ltmp482 and .Ltmp475
	.byte	0                               #     has no landing pad
	.byte	0                               #   On action: cleanup
	.uleb128 .Ltmp475-.Lfunc_begin0         # >> Call Site 115 <<
	.uleb128 .Ltmp476-.Ltmp475              #   Call between .Ltmp475 and .Ltmp476
	.uleb128 .Ltmp477-.Lfunc_begin0         #     jumps to .Ltmp477
	.byte	1                               #   On action: 1
	.uleb128 .Ltmp490-.Lfunc_begin0         # >> Call Site 116 <<
	.uleb128 .Ltmp491-.Ltmp490              #   Call between .Ltmp490 and .Ltmp491
	.uleb128 .Ltmp492-.Lfunc_begin0         #     jumps to .Ltmp492
	.byte	1                               #   On action: 1
	.uleb128 .Ltmp491-.Lfunc_begin0         # >> Call Site 117 <<
	.uleb128 .Ltmp469-.Ltmp491              #   Call between .Ltmp491 and .Ltmp469
	.byte	0                               #     has no landing pad
	.byte	0                               #   On action: cleanup
	.uleb128 .Ltmp469-.Lfunc_begin0         # >> Call Site 118 <<
	.uleb128 .Ltmp470-.Ltmp469              #   Call between .Ltmp469 and .Ltmp470
	.uleb128 .Ltmp471-.Lfunc_begin0         #     jumps to .Ltmp471
	.byte	1                               #   On action: 1
	.uleb128 .Ltmp470-.Lfunc_begin0         # >> Call Site 119 <<
	.uleb128 .Ltmp591-.Ltmp470              #   Call between .Ltmp470 and .Ltmp591
	.byte	0                               #     has no landing pad
	.byte	0                               #   On action: cleanup
	.uleb128 .Ltmp591-.Lfunc_begin0         # >> Call Site 120 <<
	.uleb128 .Ltmp592-.Ltmp591              #   Call between .Ltmp591 and .Ltmp592
	.uleb128 .Ltmp593-.Lfunc_begin0         #     jumps to .Ltmp593
	.byte	1                               #   On action: 1
	.uleb128 .Ltmp594-.Lfunc_begin0         # >> Call Site 121 <<
	.uleb128 .Ltmp595-.Ltmp594              #   Call between .Ltmp594 and .Ltmp595
	.uleb128 .Ltmp596-.Lfunc_begin0         #     jumps to .Ltmp596
	.byte	1                               #   On action: 1
	.uleb128 .Ltmp597-.Lfunc_begin0         # >> Call Site 122 <<
	.uleb128 .Ltmp598-.Ltmp597              #   Call between .Ltmp597 and .Ltmp598
	.uleb128 .Ltmp599-.Lfunc_begin0         #     jumps to .Ltmp599
	.byte	1                               #   On action: 1
	.uleb128 .Ltmp600-.Lfunc_begin0         # >> Call Site 123 <<
	.uleb128 .Ltmp601-.Ltmp600              #   Call between .Ltmp600 and .Ltmp601
	.uleb128 .Ltmp602-.Lfunc_begin0         #     jumps to .Ltmp602
	.byte	1                               #   On action: 1
	.uleb128 .Ltmp603-.Lfunc_begin0         # >> Call Site 124 <<
	.uleb128 .Ltmp604-.Ltmp603              #   Call between .Ltmp603 and .Ltmp604
	.uleb128 .Ltmp605-.Lfunc_begin0         #     jumps to .Ltmp605
	.byte	1                               #   On action: 1
	.uleb128 .Ltmp604-.Lfunc_begin0         # >> Call Site 125 <<
	.uleb128 .Ltmp325-.Ltmp604              #   Call between .Ltmp604 and .Ltmp325
	.byte	0                               #     has no landing pad
	.byte	0                               #   On action: cleanup
	.uleb128 .Ltmp325-.Lfunc_begin0         # >> Call Site 126 <<
	.uleb128 .Ltmp326-.Ltmp325              #   Call between .Ltmp325 and .Ltmp326
	.uleb128 .Ltmp327-.Lfunc_begin0         #     jumps to .Ltmp327
	.byte	1                               #   On action: 1
	.uleb128 .Ltmp326-.Lfunc_begin0         # >> Call Site 127 <<
	.uleb128 .Ltmp319-.Ltmp326              #   Call between .Ltmp326 and .Ltmp319
	.byte	0                               #     has no landing pad
	.byte	0                               #   On action: cleanup
	.uleb128 .Ltmp319-.Lfunc_begin0         # >> Call Site 128 <<
	.uleb128 .Ltmp320-.Ltmp319              #   Call between .Ltmp319 and .Ltmp320
	.uleb128 .Ltmp321-.Lfunc_begin0         #     jumps to .Ltmp321
	.byte	1                               #   On action: 1
	.uleb128 .Ltmp320-.Lfunc_begin0         # >> Call Site 129 <<
	.uleb128 .Ltmp313-.Ltmp320              #   Call between .Ltmp320 and .Ltmp313
	.byte	0                               #     has no landing pad
	.byte	0                               #   On action: cleanup
	.uleb128 .Ltmp313-.Lfunc_begin0         # >> Call Site 130 <<
	.uleb128 .Ltmp314-.Ltmp313              #   Call between .Ltmp313 and .Ltmp314
	.uleb128 .Ltmp315-.Lfunc_begin0         #     jumps to .Ltmp315
	.byte	1                               #   On action: 1
	.uleb128 .Ltmp328-.Lfunc_begin0         # >> Call Site 131 <<
	.uleb128 .Ltmp329-.Ltmp328              #   Call between .Ltmp328 and .Ltmp329
	.uleb128 .Ltmp330-.Lfunc_begin0         #     jumps to .Ltmp330
	.byte	1                               #   On action: 1
	.uleb128 .Ltmp329-.Lfunc_begin0         # >> Call Site 132 <<
	.uleb128 .Ltmp307-.Ltmp329              #   Call between .Ltmp329 and .Ltmp307
	.byte	0                               #     has no landing pad
	.byte	0                               #   On action: cleanup
	.uleb128 .Ltmp307-.Lfunc_begin0         # >> Call Site 133 <<
	.uleb128 .Ltmp308-.Ltmp307              #   Call between .Ltmp307 and .Ltmp308
	.uleb128 .Ltmp309-.Lfunc_begin0         #     jumps to .Ltmp309
	.byte	1                               #   On action: 1
	.uleb128 .Ltmp308-.Lfunc_begin0         # >> Call Site 134 <<
	.uleb128 .Ltmp429-.Ltmp308              #   Call between .Ltmp308 and .Ltmp429
	.byte	0                               #     has no landing pad
	.byte	0                               #   On action: cleanup
	.uleb128 .Ltmp429-.Lfunc_begin0         # >> Call Site 135 <<
	.uleb128 .Ltmp430-.Ltmp429              #   Call between .Ltmp429 and .Ltmp430
	.uleb128 .Ltmp431-.Lfunc_begin0         #     jumps to .Ltmp431
	.byte	1                               #   On action: 1
	.uleb128 .Ltmp432-.Lfunc_begin0         # >> Call Site 136 <<
	.uleb128 .Ltmp433-.Ltmp432              #   Call between .Ltmp432 and .Ltmp433
	.uleb128 .Ltmp434-.Lfunc_begin0         #     jumps to .Ltmp434
	.byte	1                               #   On action: 1
	.uleb128 .Ltmp435-.Lfunc_begin0         # >> Call Site 137 <<
	.uleb128 .Ltmp436-.Ltmp435              #   Call between .Ltmp435 and .Ltmp436
	.uleb128 .Ltmp437-.Lfunc_begin0         #     jumps to .Ltmp437
	.byte	1                               #   On action: 1
	.uleb128 .Ltmp438-.Lfunc_begin0         # >> Call Site 138 <<
	.uleb128 .Ltmp439-.Ltmp438              #   Call between .Ltmp438 and .Ltmp439
	.uleb128 .Ltmp440-.Lfunc_begin0         #     jumps to .Ltmp440
	.byte	1                               #   On action: 1
	.uleb128 .Ltmp441-.Lfunc_begin0         # >> Call Site 139 <<
	.uleb128 .Ltmp442-.Ltmp441              #   Call between .Ltmp441 and .Ltmp442
	.uleb128 .Ltmp443-.Lfunc_begin0         #     jumps to .Ltmp443
	.byte	1                               #   On action: 1
	.uleb128 .Ltmp442-.Lfunc_begin0         # >> Call Site 140 <<
	.uleb128 .Ltmp267-.Ltmp442              #   Call between .Ltmp442 and .Ltmp267
	.byte	0                               #     has no landing pad
	.byte	0                               #   On action: cleanup
	.uleb128 .Ltmp267-.Lfunc_begin0         # >> Call Site 141 <<
	.uleb128 .Ltmp268-.Ltmp267              #   Call between .Ltmp267 and .Ltmp268
	.uleb128 .Ltmp269-.Lfunc_begin0         #     jumps to .Ltmp269
	.byte	1                               #   On action: 1
	.uleb128 .Ltmp270-.Lfunc_begin0         # >> Call Site 142 <<
	.uleb128 .Ltmp271-.Ltmp270              #   Call between .Ltmp270 and .Ltmp271
	.uleb128 .Ltmp272-.Lfunc_begin0         #     jumps to .Ltmp272
	.byte	1                               #   On action: 1
	.uleb128 .Ltmp273-.Lfunc_begin0         # >> Call Site 143 <<
	.uleb128 .Ltmp274-.Ltmp273              #   Call between .Ltmp273 and .Ltmp274
	.uleb128 .Ltmp275-.Lfunc_begin0         #     jumps to .Ltmp275
	.byte	1                               #   On action: 1
	.uleb128 .Ltmp276-.Lfunc_begin0         # >> Call Site 144 <<
	.uleb128 .Ltmp277-.Ltmp276              #   Call between .Ltmp276 and .Ltmp277
	.uleb128 .Ltmp278-.Lfunc_begin0         #     jumps to .Ltmp278
	.byte	1                               #   On action: 1
	.uleb128 .Ltmp279-.Lfunc_begin0         # >> Call Site 145 <<
	.uleb128 .Ltmp280-.Ltmp279              #   Call between .Ltmp279 and .Ltmp280
	.uleb128 .Ltmp281-.Lfunc_begin0         #     jumps to .Ltmp281
	.byte	1                               #   On action: 1
	.uleb128 .Ltmp280-.Lfunc_begin0         # >> Call Site 146 <<
	.uleb128 .Ltmp234-.Ltmp280              #   Call between .Ltmp280 and .Ltmp234
	.byte	0                               #     has no landing pad
	.byte	0                               #   On action: cleanup
	.uleb128 .Ltmp234-.Lfunc_begin0         # >> Call Site 147 <<
	.uleb128 .Ltmp235-.Ltmp234              #   Call between .Ltmp234 and .Ltmp235
	.uleb128 .Ltmp236-.Lfunc_begin0         #     jumps to .Ltmp236
	.byte	1                               #   On action: 1
	.uleb128 .Ltmp237-.Lfunc_begin0         # >> Call Site 148 <<
	.uleb128 .Ltmp238-.Ltmp237              #   Call between .Ltmp237 and .Ltmp238
	.uleb128 .Ltmp239-.Lfunc_begin0         #     jumps to .Ltmp239
	.byte	1                               #   On action: 1
	.uleb128 .Ltmp240-.Lfunc_begin0         # >> Call Site 149 <<
	.uleb128 .Ltmp241-.Ltmp240              #   Call between .Ltmp240 and .Ltmp241
	.uleb128 .Ltmp242-.Lfunc_begin0         #     jumps to .Ltmp242
	.byte	1                               #   On action: 1
	.uleb128 .Ltmp243-.Lfunc_begin0         # >> Call Site 150 <<
	.uleb128 .Ltmp244-.Ltmp243              #   Call between .Ltmp243 and .Ltmp244
	.uleb128 .Ltmp245-.Lfunc_begin0         #     jumps to .Ltmp245
	.byte	1                               #   On action: 1
	.uleb128 .Ltmp246-.Lfunc_begin0         # >> Call Site 151 <<
	.uleb128 .Ltmp247-.Ltmp246              #   Call between .Ltmp246 and .Ltmp247
	.uleb128 .Ltmp248-.Lfunc_begin0         #     jumps to .Ltmp248
	.byte	1                               #   On action: 1
	.uleb128 .Ltmp247-.Lfunc_begin0         # >> Call Site 152 <<
	.uleb128 .Ltmp201-.Ltmp247              #   Call between .Ltmp247 and .Ltmp201
	.byte	0                               #     has no landing pad
	.byte	0                               #   On action: cleanup
	.uleb128 .Ltmp201-.Lfunc_begin0         # >> Call Site 153 <<
	.uleb128 .Ltmp202-.Ltmp201              #   Call between .Ltmp201 and .Ltmp202
	.uleb128 .Ltmp203-.Lfunc_begin0         #     jumps to .Ltmp203
	.byte	1                               #   On action: 1
	.uleb128 .Ltmp204-.Lfunc_begin0         # >> Call Site 154 <<
	.uleb128 .Ltmp205-.Ltmp204              #   Call between .Ltmp204 and .Ltmp205
	.uleb128 .Ltmp206-.Lfunc_begin0         #     jumps to .Ltmp206
	.byte	1                               #   On action: 1
	.uleb128 .Ltmp207-.Lfunc_begin0         # >> Call Site 155 <<
	.uleb128 .Ltmp208-.Ltmp207              #   Call between .Ltmp207 and .Ltmp208
	.uleb128 .Ltmp209-.Lfunc_begin0         #     jumps to .Ltmp209
	.byte	1                               #   On action: 1
	.uleb128 .Ltmp210-.Lfunc_begin0         # >> Call Site 156 <<
	.uleb128 .Ltmp211-.Ltmp210              #   Call between .Ltmp210 and .Ltmp211
	.uleb128 .Ltmp212-.Lfunc_begin0         #     jumps to .Ltmp212
	.byte	1                               #   On action: 1
	.uleb128 .Ltmp213-.Lfunc_begin0         # >> Call Site 157 <<
	.uleb128 .Ltmp214-.Ltmp213              #   Call between .Ltmp213 and .Ltmp214
	.uleb128 .Ltmp215-.Lfunc_begin0         #     jumps to .Ltmp215
	.byte	1                               #   On action: 1
	.uleb128 .Ltmp214-.Lfunc_begin0         # >> Call Site 158 <<
	.uleb128 .Ltmp168-.Ltmp214              #   Call between .Ltmp214 and .Ltmp168
	.byte	0                               #     has no landing pad
	.byte	0                               #   On action: cleanup
	.uleb128 .Ltmp168-.Lfunc_begin0         # >> Call Site 159 <<
	.uleb128 .Ltmp169-.Ltmp168              #   Call between .Ltmp168 and .Ltmp169
	.uleb128 .Ltmp170-.Lfunc_begin0         #     jumps to .Ltmp170
	.byte	1                               #   On action: 1
	.uleb128 .Ltmp171-.Lfunc_begin0         # >> Call Site 160 <<
	.uleb128 .Ltmp172-.Ltmp171              #   Call between .Ltmp171 and .Ltmp172
	.uleb128 .Ltmp173-.Lfunc_begin0         #     jumps to .Ltmp173
	.byte	1                               #   On action: 1
	.uleb128 .Ltmp174-.Lfunc_begin0         # >> Call Site 161 <<
	.uleb128 .Ltmp175-.Ltmp174              #   Call between .Ltmp174 and .Ltmp175
	.uleb128 .Ltmp176-.Lfunc_begin0         #     jumps to .Ltmp176
	.byte	1                               #   On action: 1
	.uleb128 .Ltmp177-.Lfunc_begin0         # >> Call Site 162 <<
	.uleb128 .Ltmp178-.Ltmp177              #   Call between .Ltmp177 and .Ltmp178
	.uleb128 .Ltmp179-.Lfunc_begin0         #     jumps to .Ltmp179
	.byte	1                               #   On action: 1
	.uleb128 .Ltmp180-.Lfunc_begin0         # >> Call Site 163 <<
	.uleb128 .Ltmp181-.Ltmp180              #   Call between .Ltmp180 and .Ltmp181
	.uleb128 .Ltmp182-.Lfunc_begin0         #     jumps to .Ltmp182
	.byte	1                               #   On action: 1
	.uleb128 .Ltmp181-.Lfunc_begin0         # >> Call Site 164 <<
	.uleb128 .Ltmp135-.Ltmp181              #   Call between .Ltmp181 and .Ltmp135
	.byte	0                               #     has no landing pad
	.byte	0                               #   On action: cleanup
	.uleb128 .Ltmp135-.Lfunc_begin0         # >> Call Site 165 <<
	.uleb128 .Ltmp136-.Ltmp135              #   Call between .Ltmp135 and .Ltmp136
	.uleb128 .Ltmp137-.Lfunc_begin0         #     jumps to .Ltmp137
	.byte	1                               #   On action: 1
	.uleb128 .Ltmp138-.Lfunc_begin0         # >> Call Site 166 <<
	.uleb128 .Ltmp139-.Ltmp138              #   Call between .Ltmp138 and .Ltmp139
	.uleb128 .Ltmp140-.Lfunc_begin0         #     jumps to .Ltmp140
	.byte	1                               #   On action: 1
	.uleb128 .Ltmp141-.Lfunc_begin0         # >> Call Site 167 <<
	.uleb128 .Ltmp142-.Ltmp141              #   Call between .Ltmp141 and .Ltmp142
	.uleb128 .Ltmp143-.Lfunc_begin0         #     jumps to .Ltmp143
	.byte	1                               #   On action: 1
	.uleb128 .Ltmp144-.Lfunc_begin0         # >> Call Site 168 <<
	.uleb128 .Ltmp145-.Ltmp144              #   Call between .Ltmp144 and .Ltmp145
	.uleb128 .Ltmp146-.Lfunc_begin0         #     jumps to .Ltmp146
	.byte	1                               #   On action: 1
	.uleb128 .Ltmp147-.Lfunc_begin0         # >> Call Site 169 <<
	.uleb128 .Ltmp148-.Ltmp147              #   Call between .Ltmp147 and .Ltmp148
	.uleb128 .Ltmp149-.Lfunc_begin0         #     jumps to .Ltmp149
	.byte	1                               #   On action: 1
	.uleb128 .Ltmp148-.Lfunc_begin0         # >> Call Site 170 <<
	.uleb128 .Ltmp102-.Ltmp148              #   Call between .Ltmp148 and .Ltmp102
	.byte	0                               #     has no landing pad
	.byte	0                               #   On action: cleanup
	.uleb128 .Ltmp102-.Lfunc_begin0         # >> Call Site 171 <<
	.uleb128 .Ltmp103-.Ltmp102              #   Call between .Ltmp102 and .Ltmp103
	.uleb128 .Ltmp104-.Lfunc_begin0         #     jumps to .Ltmp104
	.byte	1                               #   On action: 1
	.uleb128 .Ltmp105-.Lfunc_begin0         # >> Call Site 172 <<
	.uleb128 .Ltmp106-.Ltmp105              #   Call between .Ltmp105 and .Ltmp106
	.uleb128 .Ltmp107-.Lfunc_begin0         #     jumps to .Ltmp107
	.byte	1                               #   On action: 1
	.uleb128 .Ltmp108-.Lfunc_begin0         # >> Call Site 173 <<
	.uleb128 .Ltmp109-.Ltmp108              #   Call between .Ltmp108 and .Ltmp109
	.uleb128 .Ltmp110-.Lfunc_begin0         #     jumps to .Ltmp110
	.byte	1                               #   On action: 1
	.uleb128 .Ltmp111-.Lfunc_begin0         # >> Call Site 174 <<
	.uleb128 .Ltmp112-.Ltmp111              #   Call between .Ltmp111 and .Ltmp112
	.uleb128 .Ltmp113-.Lfunc_begin0         #     jumps to .Ltmp113
	.byte	1                               #   On action: 1
	.uleb128 .Ltmp114-.Lfunc_begin0         # >> Call Site 175 <<
	.uleb128 .Ltmp115-.Ltmp114              #   Call between .Ltmp114 and .Ltmp115
	.uleb128 .Ltmp116-.Lfunc_begin0         #     jumps to .Ltmp116
	.byte	1                               #   On action: 1
	.uleb128 .Ltmp115-.Lfunc_begin0         # >> Call Site 176 <<
	.uleb128 .Ltmp69-.Ltmp115               #   Call between .Ltmp115 and .Ltmp69
	.byte	0                               #     has no landing pad
	.byte	0                               #   On action: cleanup
	.uleb128 .Ltmp69-.Lfunc_begin0          # >> Call Site 177 <<
	.uleb128 .Ltmp70-.Ltmp69                #   Call between .Ltmp69 and .Ltmp70
	.uleb128 .Ltmp71-.Lfunc_begin0          #     jumps to .Ltmp71
	.byte	1                               #   On action: 1
	.uleb128 .Ltmp72-.Lfunc_begin0          # >> Call Site 178 <<
	.uleb128 .Ltmp73-.Ltmp72                #   Call between .Ltmp72 and .Ltmp73
	.uleb128 .Ltmp74-.Lfunc_begin0          #     jumps to .Ltmp74
	.byte	1                               #   On action: 1
	.uleb128 .Ltmp75-.Lfunc_begin0          # >> Call Site 179 <<
	.uleb128 .Ltmp76-.Ltmp75                #   Call between .Ltmp75 and .Ltmp76
	.uleb128 .Ltmp77-.Lfunc_begin0          #     jumps to .Ltmp77
	.byte	1                               #   On action: 1
	.uleb128 .Ltmp78-.Lfunc_begin0          # >> Call Site 180 <<
	.uleb128 .Ltmp79-.Ltmp78                #   Call between .Ltmp78 and .Ltmp79
	.uleb128 .Ltmp80-.Lfunc_begin0          #     jumps to .Ltmp80
	.byte	1                               #   On action: 1
	.uleb128 .Ltmp81-.Lfunc_begin0          # >> Call Site 181 <<
	.uleb128 .Ltmp82-.Ltmp81                #   Call between .Ltmp81 and .Ltmp82
	.uleb128 .Ltmp83-.Lfunc_begin0          #     jumps to .Ltmp83
	.byte	1                               #   On action: 1
	.uleb128 .Ltmp82-.Lfunc_begin0          # >> Call Site 182 <<
	.uleb128 .Ltmp36-.Ltmp82                #   Call between .Ltmp82 and .Ltmp36
	.byte	0                               #     has no landing pad
	.byte	0                               #   On action: cleanup
	.uleb128 .Ltmp36-.Lfunc_begin0          # >> Call Site 183 <<
	.uleb128 .Ltmp37-.Ltmp36                #   Call between .Ltmp36 and .Ltmp37
	.uleb128 .Ltmp38-.Lfunc_begin0          #     jumps to .Ltmp38
	.byte	1                               #   On action: 1
	.uleb128 .Ltmp39-.Lfunc_begin0          # >> Call Site 184 <<
	.uleb128 .Ltmp40-.Ltmp39                #   Call between .Ltmp39 and .Ltmp40
	.uleb128 .Ltmp41-.Lfunc_begin0          #     jumps to .Ltmp41
	.byte	1                               #   On action: 1
	.uleb128 .Ltmp42-.Lfunc_begin0          # >> Call Site 185 <<
	.uleb128 .Ltmp43-.Ltmp42                #   Call between .Ltmp42 and .Ltmp43
	.uleb128 .Ltmp44-.Lfunc_begin0          #     jumps to .Ltmp44
	.byte	1                               #   On action: 1
	.uleb128 .Ltmp45-.Lfunc_begin0          # >> Call Site 186 <<
	.uleb128 .Ltmp46-.Ltmp45                #   Call between .Ltmp45 and .Ltmp46
	.uleb128 .Ltmp47-.Lfunc_begin0          #     jumps to .Ltmp47
	.byte	1                               #   On action: 1
	.uleb128 .Ltmp48-.Lfunc_begin0          # >> Call Site 187 <<
	.uleb128 .Ltmp49-.Ltmp48                #   Call between .Ltmp48 and .Ltmp49
	.uleb128 .Ltmp50-.Lfunc_begin0          #     jumps to .Ltmp50
	.byte	1                               #   On action: 1
	.uleb128 .Ltmp49-.Lfunc_begin0          # >> Call Site 188 <<
	.uleb128 .Ltmp3-.Ltmp49                 #   Call between .Ltmp49 and .Ltmp3
	.byte	0                               #     has no landing pad
	.byte	0                               #   On action: cleanup
	.uleb128 .Ltmp3-.Lfunc_begin0           # >> Call Site 189 <<
	.uleb128 .Ltmp4-.Ltmp3                  #   Call between .Ltmp3 and .Ltmp4
	.uleb128 .Ltmp5-.Lfunc_begin0           #     jumps to .Ltmp5
	.byte	1                               #   On action: 1
	.uleb128 .Ltmp6-.Lfunc_begin0           # >> Call Site 190 <<
	.uleb128 .Ltmp7-.Ltmp6                  #   Call between .Ltmp6 and .Ltmp7
	.uleb128 .Ltmp8-.Lfunc_begin0           #     jumps to .Ltmp8
	.byte	1                               #   On action: 1
	.uleb128 .Ltmp9-.Lfunc_begin0           # >> Call Site 191 <<
	.uleb128 .Ltmp10-.Ltmp9                 #   Call between .Ltmp9 and .Ltmp10
	.uleb128 .Ltmp11-.Lfunc_begin0          #     jumps to .Ltmp11
	.byte	1                               #   On action: 1
	.uleb128 .Ltmp12-.Lfunc_begin0          # >> Call Site 192 <<
	.uleb128 .Ltmp13-.Ltmp12                #   Call between .Ltmp12 and .Ltmp13
	.uleb128 .Ltmp14-.Lfunc_begin0          #     jumps to .Ltmp14
	.byte	1                               #   On action: 1
	.uleb128 .Ltmp15-.Lfunc_begin0          # >> Call Site 193 <<
	.uleb128 .Ltmp16-.Ltmp15                #   Call between .Ltmp15 and .Ltmp16
	.uleb128 .Ltmp17-.Lfunc_begin0          #     jumps to .Ltmp17
	.byte	1                               #   On action: 1
	.uleb128 .Ltmp16-.Lfunc_begin0          # >> Call Site 194 <<
	.uleb128 .Ltmp624-.Ltmp16               #   Call between .Ltmp16 and .Ltmp624
	.byte	0                               #     has no landing pad
	.byte	0                               #   On action: cleanup
	.uleb128 .Ltmp624-.Lfunc_begin0         # >> Call Site 195 <<
	.uleb128 .Ltmp625-.Ltmp624              #   Call between .Ltmp624 and .Ltmp625
	.uleb128 .Ltmp626-.Lfunc_begin0         #     jumps to .Ltmp626
	.byte	1                               #   On action: 1
	.uleb128 .Ltmp625-.Lfunc_begin0         # >> Call Site 196 <<
	.uleb128 .Ltmp654-.Ltmp625              #   Call between .Ltmp625 and .Ltmp654
	.byte	0                               #     has no landing pad
	.byte	0                               #   On action: cleanup
	.uleb128 .Ltmp654-.Lfunc_begin0         # >> Call Site 197 <<
	.uleb128 .Ltmp655-.Ltmp654              #   Call between .Ltmp654 and .Ltmp655
	.uleb128 .Ltmp656-.Lfunc_begin0         #     jumps to .Ltmp656
	.byte	1                               #   On action: 1
	.uleb128 .Ltmp655-.Lfunc_begin0         # >> Call Site 198 <<
	.uleb128 .Ltmp627-.Ltmp655              #   Call between .Ltmp655 and .Ltmp627
	.byte	0                               #     has no landing pad
	.byte	0                               #   On action: cleanup
	.uleb128 .Ltmp627-.Lfunc_begin0         # >> Call Site 199 <<
	.uleb128 .Ltmp634-.Ltmp627              #   Call between .Ltmp627 and .Ltmp634
	.uleb128 .Ltmp635-.Lfunc_begin0         #     jumps to .Ltmp635
	.byte	1                               #   On action: 1
	.uleb128 .Ltmp636-.Lfunc_begin0         # >> Call Site 200 <<
	.uleb128 .Ltmp637-.Ltmp636              #   Call between .Ltmp636 and .Ltmp637
	.uleb128 .Ltmp638-.Lfunc_begin0         #     jumps to .Ltmp638
	.byte	1                               #   On action: 1
	.uleb128 .Ltmp639-.Lfunc_begin0         # >> Call Site 201 <<
	.uleb128 .Ltmp640-.Ltmp639              #   Call between .Ltmp639 and .Ltmp640
	.uleb128 .Ltmp641-.Lfunc_begin0         #     jumps to .Ltmp641
	.byte	1                               #   On action: 1
	.uleb128 .Ltmp642-.Lfunc_begin0         # >> Call Site 202 <<
	.uleb128 .Ltmp643-.Ltmp642              #   Call between .Ltmp642 and .Ltmp643
	.uleb128 .Ltmp644-.Lfunc_begin0         #     jumps to .Ltmp644
	.byte	1                               #   On action: 1
	.uleb128 .Ltmp645-.Lfunc_begin0         # >> Call Site 203 <<
	.uleb128 .Ltmp646-.Ltmp645              #   Call between .Ltmp645 and .Ltmp646
	.uleb128 .Ltmp647-.Lfunc_begin0         #     jumps to .Ltmp647
	.byte	1                               #   On action: 1
	.uleb128 .Ltmp648-.Lfunc_begin0         # >> Call Site 204 <<
	.uleb128 .Ltmp649-.Ltmp648              #   Call between .Ltmp648 and .Ltmp649
	.uleb128 .Ltmp650-.Lfunc_begin0         #     jumps to .Ltmp650
	.byte	1                               #   On action: 1
	.uleb128 .Ltmp649-.Lfunc_begin0         # >> Call Site 205 <<
	.uleb128 .Ltmp657-.Ltmp649              #   Call between .Ltmp649 and .Ltmp657
	.byte	0                               #     has no landing pad
	.byte	0                               #   On action: cleanup
	.uleb128 .Ltmp657-.Lfunc_begin0         # >> Call Site 206 <<
	.uleb128 .Ltmp664-.Ltmp657              #   Call between .Ltmp657 and .Ltmp664
	.uleb128 .Ltmp665-.Lfunc_begin0         #     jumps to .Ltmp665
	.byte	1                               #   On action: 1
	.uleb128 .Ltmp666-.Lfunc_begin0         # >> Call Site 207 <<
	.uleb128 .Ltmp667-.Ltmp666              #   Call between .Ltmp666 and .Ltmp667
	.uleb128 .Ltmp668-.Lfunc_begin0         #     jumps to .Ltmp668
	.byte	1                               #   On action: 1
	.uleb128 .Ltmp669-.Lfunc_begin0         # >> Call Site 208 <<
	.uleb128 .Ltmp670-.Ltmp669              #   Call between .Ltmp669 and .Ltmp670
	.uleb128 .Ltmp671-.Lfunc_begin0         #     jumps to .Ltmp671
	.byte	1                               #   On action: 1
	.uleb128 .Ltmp672-.Lfunc_begin0         # >> Call Site 209 <<
	.uleb128 .Ltmp673-.Ltmp672              #   Call between .Ltmp672 and .Ltmp673
	.uleb128 .Ltmp674-.Lfunc_begin0         #     jumps to .Ltmp674
	.byte	1                               #   On action: 1
	.uleb128 .Ltmp675-.Lfunc_begin0         # >> Call Site 210 <<
	.uleb128 .Ltmp676-.Ltmp675              #   Call between .Ltmp675 and .Ltmp676
	.uleb128 .Ltmp677-.Lfunc_begin0         #     jumps to .Ltmp677
	.byte	1                               #   On action: 1
	.uleb128 .Ltmp678-.Lfunc_begin0         # >> Call Site 211 <<
	.uleb128 .Ltmp679-.Ltmp678              #   Call between .Ltmp678 and .Ltmp679
	.uleb128 .Ltmp680-.Lfunc_begin0         #     jumps to .Ltmp680
	.byte	1                               #   On action: 1
	.uleb128 .Ltmp679-.Lfunc_begin0         # >> Call Site 212 <<
	.uleb128 .Lfunc_end0-.Ltmp679           #   Call between .Ltmp679 and .Lfunc_end0
	.byte	0                               #     has no landing pad
	.byte	0                               #   On action: cleanup
.Lcst_end0:
	.byte	1                               # >> Action Record 1 <<
                                        #   Catch TypeInfo 1
	.byte	0                               #   No further actions
	.p2align	2, 0x0
                                        # >> Catch TypeInfos <<
	.word	0                               # TypeInfo 1
.Lttbase0:
	.p2align	2, 0x0
                                        # -- End function
	.text
	.p2align	5                               # -- Begin function _ZL19checkVectorFunctionIiEvSt8functionIFjS0_IFvPT_EEEES6_S6_S6_S6_PKc
	.type	_ZL19checkVectorFunctionIiEvSt8functionIFjS0_IFvPT_EEEES6_S6_S6_S6_PKc,@function
_ZL19checkVectorFunctionIiEvSt8functionIFjS0_IFvPT_EEEES6_S6_S6_S6_PKc: # @_ZL19checkVectorFunctionIiEvSt8functionIFjS0_IFvPT_EEEES6_S6_S6_S6_PKc
.Lfunc_begin1:
	.cfi_startproc
	.cfi_personality 155, DW.ref.__gxx_personality_v0
	.cfi_lsda 27, .Lexception1
# %bb.0:
	addi.d	$sp, $sp, -368
	.cfi_def_cfa_offset 368
	st.d	$ra, $sp, 360                   # 8-byte Folded Spill
	st.d	$fp, $sp, 352                   # 8-byte Folded Spill
	st.d	$s0, $sp, 344                   # 8-byte Folded Spill
	st.d	$s1, $sp, 336                   # 8-byte Folded Spill
	st.d	$s2, $sp, 328                   # 8-byte Folded Spill
	st.d	$s3, $sp, 320                   # 8-byte Folded Spill
	st.d	$s4, $sp, 312                   # 8-byte Folded Spill
	st.d	$s5, $sp, 304                   # 8-byte Folded Spill
	st.d	$s6, $sp, 296                   # 8-byte Folded Spill
	st.d	$s7, $sp, 288                   # 8-byte Folded Spill
	st.d	$s8, $sp, 280                   # 8-byte Folded Spill
	.cfi_offset 1, -8
	.cfi_offset 22, -16
	.cfi_offset 23, -24
	.cfi_offset 24, -32
	.cfi_offset 25, -40
	.cfi_offset 26, -48
	.cfi_offset 27, -56
	.cfi_offset 28, -64
	.cfi_offset 29, -72
	.cfi_offset 30, -80
	.cfi_offset 31, -88
	move	$s4, $a5
	move	$s3, $a4
	move	$s2, $a3
	move	$s1, $a2
	move	$fp, $a1
	move	$s0, $a0
	pcalau12i	$a0, %got_pc_hi20(_ZSt4cout)
	ld.d	$s5, $a0, %got_pc_lo12(_ZSt4cout)
	pcalau12i	$a0, %pc_hi20(.L.str.13)
	addi.d	$a1, $a0, %pc_lo12(.L.str.13)
	ori	$a2, $zero, 9
	move	$a0, $s5
	pcaddu18i	$ra, %call36(_ZSt16__ostream_insertIcSt11char_traitsIcEERSt13basic_ostreamIT_T0_ES6_PKS3_l)
	jirl	$ra, $ra, 0
	beqz	$s4, .LBB1_2
# %bb.1:
	move	$a0, $s4
	pcaddu18i	$ra, %call36(strlen)
	jirl	$ra, $ra, 0
	move	$a2, $a0
	pcalau12i	$a0, %got_pc_hi20(_ZSt4cout)
	ld.d	$a0, $a0, %got_pc_lo12(_ZSt4cout)
	move	$a1, $s4
	pcaddu18i	$ra, %call36(_ZSt16__ostream_insertIcSt11char_traitsIcEERSt13basic_ostreamIT_T0_ES6_PKS3_l)
	jirl	$ra, $ra, 0
	b	.LBB1_3
.LBB1_2:
	ld.d	$a0, $s5, 0
	ld.d	$a0, $a0, -24
	add.d	$a0, $s5, $a0
	ld.w	$a1, $a0, 32
	ori	$a1, $a1, 1
	pcaddu18i	$ra, %call36(_ZNSt9basic_iosIcSt11char_traitsIcEE5clearESt12_Ios_Iostate)
	jirl	$ra, $ra, 0
.LBB1_3:                                # %_ZStlsISt11char_traitsIcEERSt13basic_ostreamIcT_ES5_PKc.exit
	pcalau12i	$a0, %got_pc_hi20(_ZSt4cout)
	ld.d	$a0, $a0, %got_pc_lo12(_ZSt4cout)
	pcalau12i	$a1, %pc_hi20(.L.str.14)
	addi.d	$a1, $a1, %pc_lo12(.L.str.14)
	ori	$a2, $zero, 1
	pcaddu18i	$ra, %call36(_ZSt16__ostream_insertIcSt11char_traitsIcEERSt13basic_ostreamIT_T0_ES6_PKS3_l)
	jirl	$ra, $ra, 0
	ld.d	$a3, $fp, 16
	xvrepli.b	$xr0, 0
	xvst	$xr0, $sp, 16                   # 32-byte Folded Spill
	xvst	$xr0, $sp, 120
	beqz	$a3, .LBB1_6
# %bb.4:
.Ltmp681:                               # EH_LABEL
	addi.d	$a0, $sp, 120
	ori	$a2, $zero, 2
	move	$a1, $fp
	jirl	$ra, $a3, 0
.Ltmp682:                               # EH_LABEL
# %bb.5:
	vld	$vr0, $fp, 16
	vst	$vr0, $sp, 136
.LBB1_6:
	pcalau12i	$a0, %pc_hi20(.L.str.15)
	addi.d	$a0, $a0, %pc_lo12(.L.str.15)
	ld.d	$a3, $s1, 16
	st.d	$a0, $sp, 152
	addi.d	$fp, $sp, 160
	xvld	$xr0, $sp, 16                   # 32-byte Folded Reload
	xvst	$xr0, $sp, 160
	beqz	$a3, .LBB1_9
# %bb.7:
.Ltmp687:                               # EH_LABEL
	ori	$a2, $zero, 2
	move	$a0, $fp
	move	$a1, $s1
	jirl	$ra, $a3, 0
.Ltmp688:                               # EH_LABEL
# %bb.8:
	vld	$vr0, $s1, 16
	vst	$vr0, $sp, 176
.LBB1_9:
	pcalau12i	$a0, %pc_hi20(.L.str.16)
	addi.d	$a0, $a0, %pc_lo12(.L.str.16)
	ld.d	$a3, $s2, 16
	st.d	$a0, $sp, 192
	xvld	$xr0, $sp, 16                   # 32-byte Folded Reload
	xvst	$xr0, $sp, 200
	beqz	$a3, .LBB1_12
# %bb.10:
.Ltmp693:                               # EH_LABEL
	ori	$a2, $zero, 2
	addi.d	$a0, $sp, 200
	move	$a1, $s2
	jirl	$ra, $a3, 0
.Ltmp694:                               # EH_LABEL
# %bb.11:
	vld	$vr0, $s2, 16
	vst	$vr0, $sp, 216
.LBB1_12:
	pcalau12i	$a0, %pc_hi20(.L.str.17)
	addi.d	$a0, $a0, %pc_lo12(.L.str.17)
	ld.d	$a3, $s3, 16
	st.d	$a0, $sp, 232
	addi.d	$s2, $sp, 240
	xvld	$xr0, $sp, 16                   # 32-byte Folded Reload
	xvst	$xr0, $sp, 240
	beqz	$a3, .LBB1_15
# %bb.13:
.Ltmp699:                               # EH_LABEL
	ori	$a2, $zero, 2
	move	$a0, $s2
	move	$a1, $s3
	jirl	$ra, $a3, 0
.Ltmp700:                               # EH_LABEL
# %bb.14:
	vld	$vr0, $s3, 16
	vst	$vr0, $sp, 256
.LBB1_15:                               # %_ZSt9make_pairIRSt8functionIFjS0_IFvPiEEEERA16_KcESt4pairINSt25__strip_reference_wrapperINSt5decayIT_E4typeEE6__typeENSB_INSC_IT0_E4typeEE6__typeEEOSD_OSI_.exit
	pcalau12i	$a0, %pc_hi20(.L.str.18)
	addi.d	$a0, $a0, %pc_lo12(.L.str.18)
	st.d	$a0, $sp, 272
	vrepli.b	$vr0, 0
	vst	$vr0, $sp, 16                   # 16-byte Folded Spill
	pcalau12i	$a0, %pc_hi20(_ZNSt17_Function_handlerIFvPiEZL19checkVectorFunctionIiEvSt8functionIFjS3_IFvPT_EEEES9_S9_S9_S9_PKcEUlS0_E_E9_M_invokeERKSt9_Any_dataOS0_)
	addi.d	$s5, $a0, %pc_lo12(_ZNSt17_Function_handlerIFvPiEZL19checkVectorFunctionIiEvSt8functionIFjS3_IFvPT_EEEES9_S9_S9_S9_PKcEUlS0_E_E9_M_invokeERKSt9_Any_dataOS0_)
	pcalau12i	$a0, %pc_hi20(_ZNSt17_Function_handlerIFvPiEZL19checkVectorFunctionIiEvSt8functionIFjS3_IFvPT_EEEES9_S9_S9_S9_PKcEUlS0_E_E10_M_managerERSt9_Any_dataRKSE_St18_Manager_operation)
	addi.d	$s6, $a0, %pc_lo12(_ZNSt17_Function_handlerIFvPiEZL19checkVectorFunctionIiEvSt8functionIFjS3_IFvPT_EEEES9_S9_S9_S9_PKcEUlS0_E_E10_M_managerERSt9_Any_dataRKSE_St18_Manager_operation)
	pcalau12i	$a0, %pc_hi20(_ZNSt17_Function_handlerIFvPiEZL19checkVectorFunctionIiEvSt8functionIFjS3_IFvPT_EEEES9_S9_S9_S9_PKcEUlS0_E0_E9_M_invokeERKSt9_Any_dataOS0_)
	addi.d	$s7, $a0, %pc_lo12(_ZNSt17_Function_handlerIFvPiEZL19checkVectorFunctionIiEvSt8functionIFjS3_IFvPT_EEEES9_S9_S9_S9_PKcEUlS0_E0_E9_M_invokeERKSt9_Any_dataOS0_)
	pcalau12i	$a0, %pc_hi20(_ZNSt17_Function_handlerIFvPiEZL19checkVectorFunctionIiEvSt8functionIFjS3_IFvPT_EEEES9_S9_S9_S9_PKcEUlS0_E0_E10_M_managerERSt9_Any_dataRKSE_St18_Manager_operation)
	addi.d	$s8, $a0, %pc_lo12(_ZNSt17_Function_handlerIFvPiEZL19checkVectorFunctionIiEvSt8functionIFjS3_IFvPT_EEEES9_S9_S9_S9_PKcEUlS0_E0_E10_M_managerERSt9_Any_dataRKSE_St18_Manager_operation)
	move	$s1, $zero
	.p2align	4, , 16
.LBB1_16:                               # =>This Inner Loop Header: Depth=1
	st.w	$s1, $sp, 116
	st.w	$s1, $sp, 112
	ld.d	$a0, $s0, 16
	vld	$vr0, $sp, 16                   # 16-byte Folded Reload
	vst	$vr0, $sp, 80
	st.w	$s1, $sp, 80
	st.d	$s5, $sp, 104
	st.d	$s6, $sp, 96
	beqz	$a0, .LBB1_50
# %bb.17:                               #   in Loop: Header=BB1_16 Depth=1
	ld.d	$a2, $s0, 24
.Ltmp708:                               # EH_LABEL
	addi.d	$a1, $sp, 80
	move	$a0, $s0
	jirl	$ra, $a2, 0
.Ltmp709:                               # EH_LABEL
# %bb.18:                               # %_ZNKSt8functionIFjS_IFvPiEEEEclES2_.exit
                                        #   in Loop: Header=BB1_16 Depth=1
	move	$s3, $a0
	ld.d	$a3, $sp, 96
	beqz	$a3, .LBB1_20
# %bb.19:                               #   in Loop: Header=BB1_16 Depth=1
.Ltmp711:                               # EH_LABEL
	addi.d	$a0, $sp, 80
	addi.d	$a1, $sp, 80
	ori	$a2, $zero, 3
	jirl	$ra, $a3, 0
.Ltmp712:                               # EH_LABEL
.LBB1_20:                               # %_ZNSt14_Function_baseD2Ev.exit
                                        #   in Loop: Header=BB1_16 Depth=1
	ld.w	$a0, $sp, 112
	ld.d	$a1, $s0, 16
	vld	$vr0, $sp, 16                   # 16-byte Folded Reload
	vst	$vr0, $sp, 48
	st.w	$a0, $sp, 48
	st.d	$s7, $sp, 72
	st.d	$s8, $sp, 64
	beqz	$a1, .LBB1_52
# %bb.21:                               #   in Loop: Header=BB1_16 Depth=1
	ld.d	$a2, $s0, 24
.Ltmp714:                               # EH_LABEL
	addi.d	$a1, $sp, 48
	move	$a0, $s0
	jirl	$ra, $a2, 0
.Ltmp715:                               # EH_LABEL
# %bb.22:                               # %_ZNKSt8functionIFjS_IFvPiEEEEclES2_.exit68
                                        #   in Loop: Header=BB1_16 Depth=1
	move	$s4, $a0
	ld.d	$a3, $sp, 64
	beqz	$a3, .LBB1_24
# %bb.23:                               #   in Loop: Header=BB1_16 Depth=1
.Ltmp717:                               # EH_LABEL
	addi.d	$a0, $sp, 48
	addi.d	$a1, $sp, 48
	ori	$a2, $zero, 3
	jirl	$ra, $a3, 0
.Ltmp718:                               # EH_LABEL
.LBB1_24:                               # %_ZNSt14_Function_baseD2Ev.exit70
                                        #   in Loop: Header=BB1_16 Depth=1
.Ltmp720:                               # EH_LABEL
	addi.d	$a0, $sp, 120
	addi.d	$a1, $sp, 116
	pcaddu18i	$ra, %call36(_ZL18callThroughOptnoneIRKSt8functionIFjS0_IFvPiEEEEJRZL19checkVectorFunctionIiEvS0_IFjS0_IFvPT_EEEESE_SE_SE_SE_PKcEUlS1_E_EEDaOS9_DpOT0_)
	jirl	$ra, $ra, 0
.Ltmp721:                               # EH_LABEL
# %bb.25:                               #   in Loop: Header=BB1_16 Depth=1
	bne	$s3, $a0, .LBB1_58
# %bb.26:                               #   in Loop: Header=BB1_16 Depth=1
.Ltmp722:                               # EH_LABEL
	addi.d	$a0, $sp, 120
	addi.d	$a1, $sp, 112
	pcaddu18i	$ra, %call36(_ZL18callThroughOptnoneIRKSt8functionIFjS0_IFvPiEEEEJRZL19checkVectorFunctionIiEvS0_IFjS0_IFvPT_EEEESE_SE_SE_SE_PKcEUlS1_E0_EEDaOS9_DpOT0_)
	jirl	$ra, $ra, 0
.Ltmp723:                               # EH_LABEL
# %bb.27:                               #   in Loop: Header=BB1_16 Depth=1
	bne	$s4, $a0, .LBB1_57
# %bb.28:                               #   in Loop: Header=BB1_16 Depth=1
.Ltmp724:                               # EH_LABEL
	addi.d	$a1, $sp, 116
	move	$a0, $fp
	pcaddu18i	$ra, %call36(_ZL18callThroughOptnoneIRKSt8functionIFjS0_IFvPiEEEEJRZL19checkVectorFunctionIiEvS0_IFjS0_IFvPT_EEEESE_SE_SE_SE_PKcEUlS1_E_EEDaOS9_DpOT0_)
	jirl	$ra, $ra, 0
.Ltmp725:                               # EH_LABEL
# %bb.29:                               #   in Loop: Header=BB1_16 Depth=1
	bne	$s3, $a0, .LBB1_56
# %bb.30:                               #   in Loop: Header=BB1_16 Depth=1
.Ltmp726:                               # EH_LABEL
	addi.d	$a1, $sp, 112
	move	$a0, $fp
	pcaddu18i	$ra, %call36(_ZL18callThroughOptnoneIRKSt8functionIFjS0_IFvPiEEEEJRZL19checkVectorFunctionIiEvS0_IFjS0_IFvPT_EEEESE_SE_SE_SE_PKcEUlS1_E0_EEDaOS9_DpOT0_)
	jirl	$ra, $ra, 0
.Ltmp727:                               # EH_LABEL
# %bb.31:                               #   in Loop: Header=BB1_16 Depth=1
	bne	$s4, $a0, .LBB1_55
# %bb.32:                               #   in Loop: Header=BB1_16 Depth=1
.Ltmp728:                               # EH_LABEL
	addi.d	$a1, $sp, 116
	addi.d	$a0, $sp, 200
	pcaddu18i	$ra, %call36(_ZL18callThroughOptnoneIRKSt8functionIFjS0_IFvPiEEEEJRZL19checkVectorFunctionIiEvS0_IFjS0_IFvPT_EEEESE_SE_SE_SE_PKcEUlS1_E_EEDaOS9_DpOT0_)
	jirl	$ra, $ra, 0
.Ltmp729:                               # EH_LABEL
# %bb.33:                               #   in Loop: Header=BB1_16 Depth=1
	bne	$s3, $a0, .LBB1_54
# %bb.34:                               #   in Loop: Header=BB1_16 Depth=1
.Ltmp730:                               # EH_LABEL
	addi.d	$a1, $sp, 112
	addi.d	$a0, $sp, 200
	pcaddu18i	$ra, %call36(_ZL18callThroughOptnoneIRKSt8functionIFjS0_IFvPiEEEEJRZL19checkVectorFunctionIiEvS0_IFjS0_IFvPT_EEEESE_SE_SE_SE_PKcEUlS1_E0_EEDaOS9_DpOT0_)
	jirl	$ra, $ra, 0
.Ltmp731:                               # EH_LABEL
# %bb.35:                               #   in Loop: Header=BB1_16 Depth=1
	bne	$s4, $a0, .LBB1_68
# %bb.36:                               #   in Loop: Header=BB1_16 Depth=1
.Ltmp732:                               # EH_LABEL
	addi.d	$a1, $sp, 116
	move	$a0, $s2
	pcaddu18i	$ra, %call36(_ZL18callThroughOptnoneIRKSt8functionIFjS0_IFvPiEEEEJRZL19checkVectorFunctionIiEvS0_IFjS0_IFvPT_EEEESE_SE_SE_SE_PKcEUlS1_E_EEDaOS9_DpOT0_)
	jirl	$ra, $ra, 0
.Ltmp733:                               # EH_LABEL
# %bb.37:                               #   in Loop: Header=BB1_16 Depth=1
	bne	$s3, $a0, .LBB1_60
# %bb.38:                               #   in Loop: Header=BB1_16 Depth=1
.Ltmp750:                               # EH_LABEL
	addi.d	$a1, $sp, 112
	move	$a0, $s2
	pcaddu18i	$ra, %call36(_ZL18callThroughOptnoneIRKSt8functionIFjS0_IFvPiEEEEJRZL19checkVectorFunctionIiEvS0_IFjS0_IFvPT_EEEESE_SE_SE_SE_PKcEUlS1_E0_EEDaOS9_DpOT0_)
	jirl	$ra, $ra, 0
.Ltmp751:                               # EH_LABEL
# %bb.39:                               #   in Loop: Header=BB1_16 Depth=1
	bne	$s4, $a0, .LBB1_59
# %bb.40:                               #   in Loop: Header=BB1_16 Depth=1
	addi.w	$s1, $s1, 1
	ori	$a0, $zero, 512
	bne	$s1, $a0, .LBB1_16
# %bb.41:
	ld.d	$a3, $sp, 256
	beqz	$a3, .LBB1_43
# %bb.42:
.Ltmp768:                               # EH_LABEL
	ori	$a2, $zero, 3
	move	$a0, $s2
	move	$a1, $s2
	jirl	$ra, $a3, 0
.Ltmp769:                               # EH_LABEL
.LBB1_43:                               # %_ZNSt4pairISt8functionIFjS0_IFvPiEEEEPKcED2Ev.exit.i
	ld.d	$a3, $sp, 216
	beqz	$a3, .LBB1_45
# %bb.44:
.Ltmp770:                               # EH_LABEL
	ori	$a2, $zero, 3
	addi.d	$a0, $sp, 200
	move	$a1, $a0
	jirl	$ra, $a3, 0
.Ltmp771:                               # EH_LABEL
.LBB1_45:                               # %_ZNSt4pairISt8functionIFjS0_IFvPiEEEEPKcED2Ev.exit.1.i
	ld.d	$a3, $sp, 176
	beqz	$a3, .LBB1_47
# %bb.46:
.Ltmp772:                               # EH_LABEL
	ori	$a2, $zero, 3
	move	$a0, $fp
	move	$a1, $fp
	jirl	$ra, $a3, 0
.Ltmp773:                               # EH_LABEL
.LBB1_47:                               # %_ZNSt4pairISt8functionIFjS0_IFvPiEEEEPKcED2Ev.exit.2.i
	ld.d	$a3, $sp, 136
	beqz	$a3, .LBB1_49
# %bb.48:
.Ltmp774:                               # EH_LABEL
	addi.d	$a0, $sp, 120
	addi.d	$a1, $sp, 120
	ori	$a2, $zero, 3
	jirl	$ra, $a3, 0
.Ltmp775:                               # EH_LABEL
.LBB1_49:                               # %_ZNSt5arrayISt4pairISt8functionIFjS1_IFvPiEEEEPKcELm4EED2Ev.exit
	ld.d	$s8, $sp, 280                   # 8-byte Folded Reload
	ld.d	$s7, $sp, 288                   # 8-byte Folded Reload
	ld.d	$s6, $sp, 296                   # 8-byte Folded Reload
	ld.d	$s5, $sp, 304                   # 8-byte Folded Reload
	ld.d	$s4, $sp, 312                   # 8-byte Folded Reload
	ld.d	$s3, $sp, 320                   # 8-byte Folded Reload
	ld.d	$s2, $sp, 328                   # 8-byte Folded Reload
	ld.d	$s1, $sp, 336                   # 8-byte Folded Reload
	ld.d	$s0, $sp, 344                   # 8-byte Folded Reload
	ld.d	$fp, $sp, 352                   # 8-byte Folded Reload
	ld.d	$ra, $sp, 360                   # 8-byte Folded Reload
	addi.d	$sp, $sp, 368
	ret
.LBB1_50:
.Ltmp783:                               # EH_LABEL
	pcaddu18i	$ra, %call36(_ZSt25__throw_bad_function_callv)
	jirl	$ra, $ra, 0
.Ltmp784:                               # EH_LABEL
# %bb.51:                               # %.noexc
.LBB1_52:
.Ltmp777:                               # EH_LABEL
	pcaddu18i	$ra, %call36(_ZSt25__throw_bad_function_callv)
	jirl	$ra, $ra, 0
.Ltmp778:                               # EH_LABEL
# %bb.53:                               # %.noexc66
.LBB1_54:
	move	$s0, $a0
	addi.d	$fp, $sp, 200
	b	.LBB1_61
.LBB1_55:
	move	$s0, $a0
	b	.LBB1_69
.LBB1_56:
	move	$s0, $a0
	b	.LBB1_61
.LBB1_57:
	move	$s0, $a0
	addi.d	$fp, $sp, 120
	b	.LBB1_69
.LBB1_58:
	move	$s0, $a0
	addi.d	$fp, $sp, 120
	b	.LBB1_61
.LBB1_59:
	move	$s0, $a0
	move	$fp, $s2
	b	.LBB1_69
.LBB1_60:
	move	$s0, $a0
	move	$fp, $s2
.LBB1_61:
.Ltmp735:                               # EH_LABEL
	pcalau12i	$a0, %got_pc_hi20(_ZSt4cerr)
	ld.d	$a0, $a0, %got_pc_lo12(_ZSt4cerr)
	pcalau12i	$a1, %pc_hi20(.L.str.19)
	addi.d	$a1, $a1, %pc_lo12(.L.str.19)
	ori	$a2, $zero, 15
	pcaddu18i	$ra, %call36(_ZSt16__ostream_insertIcSt11char_traitsIcEERSt13basic_ostreamIT_T0_ES6_PKS3_l)
	jirl	$ra, $ra, 0
.Ltmp736:                               # EH_LABEL
# %bb.62:                               # %_ZStlsISt11char_traitsIcEERSt13basic_ostreamIcT_ES5_PKc.exit76
	ld.d	$a1, $fp, 32
.Ltmp737:                               # EH_LABEL
	pcalau12i	$a0, %got_pc_hi20(_ZSt4cerr)
	ld.d	$a0, $a0, %got_pc_lo12(_ZSt4cerr)
	pcaddu18i	$ra, %call36(_ZStlsISt11char_traitsIcEERSt13basic_ostreamIcT_ES5_PKc)
	jirl	$ra, $ra, 0
.Ltmp738:                               # EH_LABEL
# %bb.63:
.Ltmp739:                               # EH_LABEL
	move	$fp, $a0
	pcalau12i	$a0, %pc_hi20(.L.str.20)
	addi.d	$a1, $a0, %pc_lo12(.L.str.20)
	ori	$a2, $zero, 2
	move	$a0, $fp
	pcaddu18i	$ra, %call36(_ZSt16__ostream_insertIcSt11char_traitsIcEERSt13basic_ostreamIT_T0_ES6_PKS3_l)
	jirl	$ra, $ra, 0
.Ltmp740:                               # EH_LABEL
# %bb.64:                               # %_ZStlsISt11char_traitsIcEERSt13basic_ostreamIcT_ES5_PKc.exit78
	bstrpick.d	$a1, $s3, 31, 0
.Ltmp741:                               # EH_LABEL
	move	$a0, $fp
	pcaddu18i	$ra, %call36(_ZNSo9_M_insertImEERSoT_)
	jirl	$ra, $ra, 0
.Ltmp742:                               # EH_LABEL
# %bb.65:                               # %_ZNSolsEj.exit
.Ltmp743:                               # EH_LABEL
	move	$fp, $a0
	pcalau12i	$a0, %pc_hi20(.L.str.21)
	addi.d	$a1, $a0, %pc_lo12(.L.str.21)
	ori	$a2, $zero, 4
	move	$a0, $fp
	pcaddu18i	$ra, %call36(_ZSt16__ostream_insertIcSt11char_traitsIcEERSt13basic_ostreamIT_T0_ES6_PKS3_l)
	jirl	$ra, $ra, 0
.Ltmp744:                               # EH_LABEL
# %bb.66:                               # %_ZStlsISt11char_traitsIcEERSt13basic_ostreamIcT_ES5_PKc.exit81
	bstrpick.d	$a1, $s0, 31, 0
.Ltmp745:                               # EH_LABEL
	move	$a0, $fp
	pcaddu18i	$ra, %call36(_ZNSo9_M_insertImEERSoT_)
	jirl	$ra, $ra, 0
.Ltmp746:                               # EH_LABEL
# %bb.67:                               # %_ZNSolsEj.exit83
.Ltmp747:                               # EH_LABEL
	pcalau12i	$a1, %pc_hi20(.L.str.14)
	addi.d	$a1, $a1, %pc_lo12(.L.str.14)
	pcaddu18i	$ra, %call36(_ZStlsISt11char_traitsIcEERSt13basic_ostreamIcT_ES5_PKc)
	jirl	$ra, $ra, 0
.Ltmp748:                               # EH_LABEL
	b	.LBB1_76
.LBB1_68:
	move	$s0, $a0
	addi.d	$fp, $sp, 200
.LBB1_69:
.Ltmp753:                               # EH_LABEL
	pcalau12i	$a0, %got_pc_hi20(_ZSt4cerr)
	ld.d	$a0, $a0, %got_pc_lo12(_ZSt4cerr)
	pcalau12i	$a1, %pc_hi20(.L.str.19)
	addi.d	$a1, $a1, %pc_lo12(.L.str.19)
	ori	$a2, $zero, 15
	pcaddu18i	$ra, %call36(_ZSt16__ostream_insertIcSt11char_traitsIcEERSt13basic_ostreamIT_T0_ES6_PKS3_l)
	jirl	$ra, $ra, 0
.Ltmp754:                               # EH_LABEL
# %bb.70:                               # %_ZStlsISt11char_traitsIcEERSt13basic_ostreamIcT_ES5_PKc.exit85
	ld.d	$a1, $fp, 32
.Ltmp755:                               # EH_LABEL
	pcalau12i	$a0, %got_pc_hi20(_ZSt4cerr)
	ld.d	$a0, $a0, %got_pc_lo12(_ZSt4cerr)
	pcaddu18i	$ra, %call36(_ZStlsISt11char_traitsIcEERSt13basic_ostreamIcT_ES5_PKc)
	jirl	$ra, $ra, 0
.Ltmp756:                               # EH_LABEL
# %bb.71:
.Ltmp757:                               # EH_LABEL
	move	$fp, $a0
	pcalau12i	$a0, %pc_hi20(.L.str.20)
	addi.d	$a1, $a0, %pc_lo12(.L.str.20)
	ori	$a2, $zero, 2
	move	$a0, $fp
	pcaddu18i	$ra, %call36(_ZSt16__ostream_insertIcSt11char_traitsIcEERSt13basic_ostreamIT_T0_ES6_PKS3_l)
	jirl	$ra, $ra, 0
.Ltmp758:                               # EH_LABEL
# %bb.72:                               # %_ZStlsISt11char_traitsIcEERSt13basic_ostreamIcT_ES5_PKc.exit87
	bstrpick.d	$a1, $s4, 31, 0
.Ltmp759:                               # EH_LABEL
	move	$a0, $fp
	pcaddu18i	$ra, %call36(_ZNSo9_M_insertImEERSoT_)
	jirl	$ra, $ra, 0
.Ltmp760:                               # EH_LABEL
# %bb.73:                               # %_ZNSolsEj.exit89
.Ltmp761:                               # EH_LABEL
	move	$fp, $a0
	pcalau12i	$a0, %pc_hi20(.L.str.21)
	addi.d	$a1, $a0, %pc_lo12(.L.str.21)
	ori	$a2, $zero, 4
	move	$a0, $fp
	pcaddu18i	$ra, %call36(_ZSt16__ostream_insertIcSt11char_traitsIcEERSt13basic_ostreamIT_T0_ES6_PKS3_l)
	jirl	$ra, $ra, 0
.Ltmp762:                               # EH_LABEL
# %bb.74:                               # %_ZStlsISt11char_traitsIcEERSt13basic_ostreamIcT_ES5_PKc.exit91
	bstrpick.d	$a1, $s0, 31, 0
.Ltmp763:                               # EH_LABEL
	move	$a0, $fp
	pcaddu18i	$ra, %call36(_ZNSo9_M_insertImEERSoT_)
	jirl	$ra, $ra, 0
.Ltmp764:                               # EH_LABEL
# %bb.75:                               # %_ZNSolsEj.exit93
.Ltmp765:                               # EH_LABEL
	pcalau12i	$a1, %pc_hi20(.L.str.14)
	addi.d	$a1, $a1, %pc_lo12(.L.str.14)
	pcaddu18i	$ra, %call36(_ZStlsISt11char_traitsIcEERSt13basic_ostreamIcT_ES5_PKc)
	jirl	$ra, $ra, 0
.Ltmp766:                               # EH_LABEL
.LBB1_76:
	ori	$a0, $zero, 1
	pcaddu18i	$ra, %call36(exit)
	jirl	$ra, $ra, 0
.LBB1_77:
.Ltmp701:                               # EH_LABEL
	ld.d	$a3, $sp, 256
	move	$s0, $a0
	bnez	$a3, .LBB1_79
# %bb.78:
	move	$fp, $s2
	b	.LBB1_87
.LBB1_79:
.Ltmp702:                               # EH_LABEL
	ori	$a2, $zero, 3
	move	$a0, $s2
	move	$a1, $s2
	jirl	$ra, $a3, 0
.Ltmp703:                               # EH_LABEL
	move	$fp, $s2
	b	.LBB1_87
.LBB1_80:
.Ltmp704:                               # EH_LABEL
	pcaddu18i	$ra, %call36(__clang_call_terminate)
	jirl	$ra, $ra, 0
.LBB1_81:
.Ltmp695:                               # EH_LABEL
	ld.d	$a3, $sp, 216
	move	$s0, $a0
	bnez	$a3, .LBB1_83
# %bb.82:
	addi.d	$fp, $sp, 200
	b	.LBB1_87
.LBB1_83:
.Ltmp696:                               # EH_LABEL
	ori	$a2, $zero, 3
	addi.d	$fp, $sp, 200
	move	$a0, $fp
	move	$a1, $fp
	jirl	$ra, $a3, 0
.Ltmp697:                               # EH_LABEL
	b	.LBB1_87
.LBB1_84:
.Ltmp698:                               # EH_LABEL
	pcaddu18i	$ra, %call36(__clang_call_terminate)
	jirl	$ra, $ra, 0
.LBB1_85:
.Ltmp689:                               # EH_LABEL
	ld.d	$a3, $sp, 176
	move	$s0, $a0
	beqz	$a3, .LBB1_87
# %bb.86:
.Ltmp690:                               # EH_LABEL
	ori	$a2, $zero, 3
	move	$a0, $fp
	move	$a1, $fp
	jirl	$ra, $a3, 0
.Ltmp691:                               # EH_LABEL
.LBB1_87:                               # %.body
	addi.d	$s1, $sp, 120
	b	.LBB1_89
	.p2align	4, , 16
.LBB1_88:                               # %_ZNSt4pairISt8functionIFjS0_IFvPiEEEEPKcED2Ev.exit
                                        #   in Loop: Header=BB1_89 Depth=1
	beq	$fp, $s1, .LBB1_115
.LBB1_89:                               # =>This Inner Loop Header: Depth=1
	ld.d	$a3, $fp, -24
	addi.d	$fp, $fp, -40
	beqz	$a3, .LBB1_88
# %bb.90:                               #   in Loop: Header=BB1_89 Depth=1
.Ltmp705:                               # EH_LABEL
	ori	$a2, $zero, 3
	move	$a0, $fp
	move	$a1, $fp
	jirl	$ra, $a3, 0
.Ltmp706:                               # EH_LABEL
	b	.LBB1_88
.LBB1_91:
.Ltmp692:                               # EH_LABEL
	pcaddu18i	$ra, %call36(__clang_call_terminate)
	jirl	$ra, $ra, 0
.LBB1_92:
.Ltmp707:                               # EH_LABEL
	pcaddu18i	$ra, %call36(__clang_call_terminate)
	jirl	$ra, $ra, 0
.LBB1_93:
.Ltmp683:                               # EH_LABEL
	ld.d	$a3, $sp, 136
	move	$s0, $a0
	beqz	$a3, .LBB1_115
# %bb.94:
.Ltmp684:                               # EH_LABEL
	addi.d	$a0, $sp, 120
	addi.d	$a1, $sp, 120
	ori	$a2, $zero, 3
	jirl	$ra, $a3, 0
.Ltmp685:                               # EH_LABEL
	b	.LBB1_115
.LBB1_95:
.Ltmp686:                               # EH_LABEL
	pcaddu18i	$ra, %call36(__clang_call_terminate)
	jirl	$ra, $ra, 0
.LBB1_96:
.Ltmp776:                               # EH_LABEL
	pcaddu18i	$ra, %call36(__clang_call_terminate)
	jirl	$ra, $ra, 0
.LBB1_97:
.Ltmp719:                               # EH_LABEL
	pcaddu18i	$ra, %call36(__clang_call_terminate)
	jirl	$ra, $ra, 0
.LBB1_98:
.Ltmp713:                               # EH_LABEL
	pcaddu18i	$ra, %call36(__clang_call_terminate)
	jirl	$ra, $ra, 0
.LBB1_99:                               # %.loopexit106
.Ltmp716:                               # EH_LABEL
	b	.LBB1_102
.LBB1_100:                              # %.loopexit101
.Ltmp710:                               # EH_LABEL
	b	.LBB1_106
.LBB1_101:                              # %.loopexit.split-lp107
.Ltmp779:                               # EH_LABEL
.LBB1_102:
	move	$s0, $a0
	ld.d	$a3, $sp, 64
	beqz	$a3, .LBB1_114
# %bb.103:
.Ltmp780:                               # EH_LABEL
	addi.d	$a0, $sp, 48
	addi.d	$a1, $sp, 48
	ori	$a2, $zero, 3
	jirl	$ra, $a3, 0
.Ltmp781:                               # EH_LABEL
	b	.LBB1_114
.LBB1_104:
.Ltmp782:                               # EH_LABEL
	pcaddu18i	$ra, %call36(__clang_call_terminate)
	jirl	$ra, $ra, 0
.LBB1_105:                              # %.loopexit.split-lp102
.Ltmp785:                               # EH_LABEL
.LBB1_106:
	move	$s0, $a0
	ld.d	$a3, $sp, 96
	beqz	$a3, .LBB1_114
# %bb.107:
.Ltmp786:                               # EH_LABEL
	addi.d	$a0, $sp, 80
	addi.d	$a1, $sp, 80
	ori	$a2, $zero, 3
	jirl	$ra, $a3, 0
.Ltmp787:                               # EH_LABEL
	b	.LBB1_114
.LBB1_108:
.Ltmp788:                               # EH_LABEL
	pcaddu18i	$ra, %call36(__clang_call_terminate)
	jirl	$ra, $ra, 0
.LBB1_109:                              # %.loopexit.split-lp97
.Ltmp767:                               # EH_LABEL
	b	.LBB1_113
.LBB1_110:                              # %.loopexit.split-lp
.Ltmp749:                               # EH_LABEL
	b	.LBB1_113
.LBB1_111:                              # %.loopexit96
.Ltmp752:                               # EH_LABEL
	b	.LBB1_113
.LBB1_112:                              # %.loopexit
.Ltmp734:                               # EH_LABEL
.LBB1_113:                              # %_ZNSt14_Function_baseD2Ev.exit72
	move	$s0, $a0
.LBB1_114:                              # %_ZNSt14_Function_baseD2Ev.exit72
	addi.d	$a0, $sp, 120
	pcaddu18i	$ra, %call36(_ZNSt5arrayISt4pairISt8functionIFjS1_IFvPiEEEEPKcELm4EED2Ev)
	jirl	$ra, $ra, 0
.LBB1_115:                              # %.body.thread
	move	$a0, $s0
	pcaddu18i	$ra, %call36(_Unwind_Resume)
	jirl	$ra, $ra, 0
.Lfunc_end1:
	.size	_ZL19checkVectorFunctionIiEvSt8functionIFjS0_IFvPT_EEEES6_S6_S6_S6_PKc, .Lfunc_end1-_ZL19checkVectorFunctionIiEvSt8functionIFjS0_IFvPT_EEEES6_S6_S6_S6_PKc
	.cfi_endproc
	.section	.gcc_except_table,"a",@progbits
	.p2align	2, 0x0
GCC_except_table1:
.Lexception1:
	.byte	255                             # @LPStart Encoding = omit
	.byte	155                             # @TType Encoding = indirect pcrel sdata4
	.uleb128 .Lttbase1-.Lttbaseref1
.Lttbaseref1:
	.byte	1                               # Call site Encoding = uleb128
	.uleb128 .Lcst_end1-.Lcst_begin1
.Lcst_begin1:
	.uleb128 .Lfunc_begin1-.Lfunc_begin1    # >> Call Site 1 <<
	.uleb128 .Ltmp681-.Lfunc_begin1         #   Call between .Lfunc_begin1 and .Ltmp681
	.byte	0                               #     has no landing pad
	.byte	0                               #   On action: cleanup
	.uleb128 .Ltmp681-.Lfunc_begin1         # >> Call Site 2 <<
	.uleb128 .Ltmp682-.Ltmp681              #   Call between .Ltmp681 and .Ltmp682
	.uleb128 .Ltmp683-.Lfunc_begin1         #     jumps to .Ltmp683
	.byte	0                               #   On action: cleanup
	.uleb128 .Ltmp687-.Lfunc_begin1         # >> Call Site 3 <<
	.uleb128 .Ltmp688-.Ltmp687              #   Call between .Ltmp687 and .Ltmp688
	.uleb128 .Ltmp689-.Lfunc_begin1         #     jumps to .Ltmp689
	.byte	0                               #   On action: cleanup
	.uleb128 .Ltmp693-.Lfunc_begin1         # >> Call Site 4 <<
	.uleb128 .Ltmp694-.Ltmp693              #   Call between .Ltmp693 and .Ltmp694
	.uleb128 .Ltmp695-.Lfunc_begin1         #     jumps to .Ltmp695
	.byte	0                               #   On action: cleanup
	.uleb128 .Ltmp699-.Lfunc_begin1         # >> Call Site 5 <<
	.uleb128 .Ltmp700-.Ltmp699              #   Call between .Ltmp699 and .Ltmp700
	.uleb128 .Ltmp701-.Lfunc_begin1         #     jumps to .Ltmp701
	.byte	0                               #   On action: cleanup
	.uleb128 .Ltmp708-.Lfunc_begin1         # >> Call Site 6 <<
	.uleb128 .Ltmp709-.Ltmp708              #   Call between .Ltmp708 and .Ltmp709
	.uleb128 .Ltmp710-.Lfunc_begin1         #     jumps to .Ltmp710
	.byte	0                               #   On action: cleanup
	.uleb128 .Ltmp711-.Lfunc_begin1         # >> Call Site 7 <<
	.uleb128 .Ltmp712-.Ltmp711              #   Call between .Ltmp711 and .Ltmp712
	.uleb128 .Ltmp713-.Lfunc_begin1         #     jumps to .Ltmp713
	.byte	1                               #   On action: 1
	.uleb128 .Ltmp714-.Lfunc_begin1         # >> Call Site 8 <<
	.uleb128 .Ltmp715-.Ltmp714              #   Call between .Ltmp714 and .Ltmp715
	.uleb128 .Ltmp716-.Lfunc_begin1         #     jumps to .Ltmp716
	.byte	0                               #   On action: cleanup
	.uleb128 .Ltmp717-.Lfunc_begin1         # >> Call Site 9 <<
	.uleb128 .Ltmp718-.Ltmp717              #   Call between .Ltmp717 and .Ltmp718
	.uleb128 .Ltmp719-.Lfunc_begin1         #     jumps to .Ltmp719
	.byte	1                               #   On action: 1
	.uleb128 .Ltmp720-.Lfunc_begin1         # >> Call Site 10 <<
	.uleb128 .Ltmp721-.Ltmp720              #   Call between .Ltmp720 and .Ltmp721
	.uleb128 .Ltmp734-.Lfunc_begin1         #     jumps to .Ltmp734
	.byte	0                               #   On action: cleanup
