	.file	"argmin-argmax-fp.cpp"
                                        # Start of file scope inline assembly
	.globl	_ZSt21ios_base_library_initv

                                        # End of file scope inline assembly
	.text
	.globl	main                            # -- Begin function main
	.p2align	5
	.type	main,@function
main:                                   # @main
.Lfunc_begin0:
	.cfi_startproc
	.cfi_personality 155, DW.ref.__gxx_personality_v0
	.cfi_lsda 27, .Lexception0
# %bb.0:
	addi.d	$sp, $sp, -2032
	.cfi_def_cfa_offset 2032
	st.d	$ra, $sp, 2024                  # 8-byte Folded Spill
	st.d	$fp, $sp, 2016                  # 8-byte Folded Spill
	.cfi_offset 1, -8
	.cfi_offset 22, -16
	lu12i.w	$a0, 3
	ori	$a0, $a0, 3280
	sub.d	$sp, $sp, $a0
	.cfi_def_cfa_offset 17600
	ori	$a2, $zero, 15
	lu12i.w	$a0, 3
	ori	$a0, $a0, 296
	add.d	$a0, $sp, $a0
	st.d	$a2, $a0, 0
	ori	$a0, $zero, 1
	ori	$a1, $zero, 8
	lu12i.w	$a3, 442488
	ori	$a3, $a3, 2405
	lu12i.w	$a4, 3
	ori	$a4, $a4, 296
	add.d	$a4, $sp, $a4
	ori	$a5, $zero, 624
	.p2align	4, , 16
.LBB0_1:                                # =>This Inner Loop Header: Depth=1
	srli.d	$a6, $a2, 30
	xor	$a2, $a6, $a2
	mul.d	$a2, $a2, $a3
	add.d	$a2, $a0, $a2
	bstrpick.d	$a2, $a2, 31, 0
	stx.d	$a2, $a1, $a4
	addi.d	$a0, $a0, 1
	addi.d	$a1, $a1, 8
	bne	$a0, $a5, .LBB0_1
# %bb.2:                                # %_ZNSt23mersenne_twister_engineImLm32ELm624ELm397ELm31ELm2567483615ELm11ELm4294967295ELm7ELm2636928640ELm15ELm4022730752ELm18ELm1812433253EEC2Em.exit
	ori	$a0, $zero, 624
	lu12i.w	$a1, 4
	ori	$a1, $a1, 1192
	add.d	$a1, $sp, $a1
	stptr.d	$a0, $a1, 0
	pcalau12i	$a0, %pc_hi20(_ZL3rng)
	addi.d	$a0, $a0, %pc_lo12(_ZL3rng)
	lu12i.w	$a1, 1
	ori	$a2, $a1, 904
	lu12i.w	$a1, 3
	ori	$a1, $a1, 296
	add.d	$a1, $sp, $a1
	pcaddu18i	$ra, %call36(memcpy)
	jirl	$ra, $ra, 0
	vrepli.b	$vr0, 0
	lu12i.w	$a0, 3
	ori	$a0, $a0, 264
	add.d	$a0, $sp, $a0
	vst	$vr0, $a0, 0
	pcalau12i	$a0, %pc_hi20(_ZNSt17_Function_handlerIFjPfS0_jEZ4mainE3$_0E9_M_invokeERKSt9_Any_dataOS0_S7_Oj)
	addi.d	$a0, $a0, %pc_lo12(_ZNSt17_Function_handlerIFjPfS0_jEZ4mainE3$_0E9_M_invokeERKSt9_Any_dataOS0_S7_Oj)
	lu12i.w	$a1, 3
	ori	$a1, $a1, 288
	add.d	$a1, $sp, $a1
	st.d	$a0, $a1, 0
	pcalau12i	$a0, %pc_hi20(_ZNSt17_Function_handlerIFjPfS0_jEZ4mainE3$_0E10_M_managerERSt9_Any_dataRKS4_St18_Manager_operation)
	addi.d	$a0, $a0, %pc_lo12(_ZNSt17_Function_handlerIFjPfS0_jEZ4mainE3$_0E10_M_managerERSt9_Any_dataRKS4_St18_Manager_operation)
	lu12i.w	$a1, 3
	ori	$a1, $a1, 280
	add.d	$a1, $sp, $a1
	st.d	$a0, $a1, 0
	vst	$vr0, $sp, 16                   # 16-byte Folded Spill
	lu12i.w	$a0, 3
	ori	$a0, $a0, 232
	add.d	$a0, $sp, $a0
	vst	$vr0, $a0, 0
	pcalau12i	$a0, %pc_hi20(_ZNSt17_Function_handlerIFjPfS0_jEZ4mainE3$_1E9_M_invokeERKSt9_Any_dataOS0_S7_Oj)
	addi.d	$a0, $a0, %pc_lo12(_ZNSt17_Function_handlerIFjPfS0_jEZ4mainE3$_1E9_M_invokeERKSt9_Any_dataOS0_S7_Oj)
	lu12i.w	$a1, 3
	ori	$a1, $a1, 256
	add.d	$a1, $sp, $a1
	st.d	$a0, $a1, 0
	pcalau12i	$a0, %pc_hi20(_ZNSt17_Function_handlerIFjPfS0_jEZ4mainE3$_1E10_M_managerERSt9_Any_dataRKS4_St18_Manager_operation)
	addi.d	$a0, $a0, %pc_lo12(_ZNSt17_Function_handlerIFjPfS0_jEZ4mainE3$_1E10_M_managerERSt9_Any_dataRKS4_St18_Manager_operation)
	lu12i.w	$a1, 3
	ori	$a1, $a1, 248
	add.d	$a1, $sp, $a1
	st.d	$a0, $a1, 0
.Ltmp0:                                 # EH_LABEL
	pcalau12i	$a0, %pc_hi20(.L.str)
	addi.d	$a2, $a0, %pc_lo12(.L.str)
	lu12i.w	$a0, 3
	ori	$a0, $a0, 264
	add.d	$a0, $sp, $a0
	lu12i.w	$a1, 3
	ori	$a1, $a1, 232
	add.d	$a1, $sp, $a1
	pcaddu18i	$ra, %call36(_ZL19checkVectorFunctionIjfEvSt8functionIFT_PT0_S3_jEES5_PKc)
	jirl	$ra, $ra, 0
.Ltmp1:                                 # EH_LABEL
# %bb.3:
	lu12i.w	$a0, 3
	ori	$a0, $a0, 248
	add.d	$a0, $sp, $a0
	ld.d	$a3, $a0, 0
	beqz	$a3, .LBB0_5
# %bb.4:
.Ltmp9:                                 # EH_LABEL
	lu12i.w	$a0, 3
	ori	$a0, $a0, 232
	add.d	$a0, $sp, $a0
	lu12i.w	$a1, 3
	ori	$a1, $a1, 232
	add.d	$a1, $sp, $a1
	ori	$a2, $zero, 3
	jirl	$ra, $a3, 0
.Ltmp10:                                # EH_LABEL
.LBB0_5:                                # %_ZNSt14_Function_baseD2Ev.exit
	lu12i.w	$a0, 3
	ori	$a0, $a0, 280
	add.d	$a0, $sp, $a0
	ld.d	$a3, $a0, 0
	beqz	$a3, .LBB0_7
# %bb.6:
.Ltmp12:                                # EH_LABEL
	lu12i.w	$a0, 3
	ori	$a0, $a0, 264
	add.d	$a0, $sp, $a0
	lu12i.w	$a1, 3
	ori	$a1, $a1, 264
	add.d	$a1, $sp, $a1
	ori	$a2, $zero, 3
	jirl	$ra, $a3, 0
.Ltmp13:                                # EH_LABEL
.LBB0_7:                                # %_ZNSt14_Function_baseD2Ev.exit4
	vld	$vr0, $sp, 16                   # 16-byte Folded Reload
	lu12i.w	$a0, 3
	ori	$a0, $a0, 200
	add.d	$a0, $sp, $a0
	vst	$vr0, $a0, 0
	pcalau12i	$a0, %pc_hi20(_ZNSt17_Function_handlerIFjPfS0_jEZ4mainE3$_2E9_M_invokeERKSt9_Any_dataOS0_S7_Oj)
	addi.d	$a0, $a0, %pc_lo12(_ZNSt17_Function_handlerIFjPfS0_jEZ4mainE3$_2E9_M_invokeERKSt9_Any_dataOS0_S7_Oj)
	lu12i.w	$a1, 3
	ori	$a1, $a1, 224
	add.d	$a1, $sp, $a1
	st.d	$a0, $a1, 0
	pcalau12i	$a0, %pc_hi20(_ZNSt17_Function_handlerIFjPfS0_jEZ4mainE3$_2E10_M_managerERSt9_Any_dataRKS4_St18_Manager_operation)
	addi.d	$a0, $a0, %pc_lo12(_ZNSt17_Function_handlerIFjPfS0_jEZ4mainE3$_2E10_M_managerERSt9_Any_dataRKS4_St18_Manager_operation)
	lu12i.w	$a1, 3
	ori	$a1, $a1, 216
	add.d	$a1, $sp, $a1
	st.d	$a0, $a1, 0
	lu12i.w	$a0, 3
	ori	$a0, $a0, 168
	add.d	$a0, $sp, $a0
	vst	$vr0, $a0, 0
	pcalau12i	$a0, %pc_hi20(_ZNSt17_Function_handlerIFjPfS0_jEZ4mainE3$_3E9_M_invokeERKSt9_Any_dataOS0_S7_Oj)
	addi.d	$a0, $a0, %pc_lo12(_ZNSt17_Function_handlerIFjPfS0_jEZ4mainE3$_3E9_M_invokeERKSt9_Any_dataOS0_S7_Oj)
	lu12i.w	$a1, 3
	ori	$a1, $a1, 192
	add.d	$a1, $sp, $a1
	st.d	$a0, $a1, 0
	pcalau12i	$a0, %pc_hi20(_ZNSt17_Function_handlerIFjPfS0_jEZ4mainE3$_3E10_M_managerERSt9_Any_dataRKS4_St18_Manager_operation)
	addi.d	$a0, $a0, %pc_lo12(_ZNSt17_Function_handlerIFjPfS0_jEZ4mainE3$_3E10_M_managerERSt9_Any_dataRKS4_St18_Manager_operation)
	lu12i.w	$a1, 3
	ori	$a1, $a1, 184
	add.d	$a1, $sp, $a1
	st.d	$a0, $a1, 0
.Ltmp15:                                # EH_LABEL
	pcalau12i	$a0, %pc_hi20(.L.str.1)
	addi.d	$a2, $a0, %pc_lo12(.L.str.1)
	lu12i.w	$a0, 3
	ori	$a0, $a0, 200
	add.d	$a0, $sp, $a0
	lu12i.w	$a1, 3
	ori	$a1, $a1, 168
	add.d	$a1, $sp, $a1
	pcaddu18i	$ra, %call36(_ZL19checkVectorFunctionIjfEvSt8functionIFT_PT0_S3_jEES5_PKc)
	jirl	$ra, $ra, 0
.Ltmp16:                                # EH_LABEL
# %bb.8:
	lu12i.w	$a0, 3
	ori	$a0, $a0, 184
	add.d	$a0, $sp, $a0
	ld.d	$a3, $a0, 0
	beqz	$a3, .LBB0_10
# %bb.9:
.Ltmp24:                                # EH_LABEL
	lu12i.w	$a0, 3
	ori	$a0, $a0, 168
	add.d	$a0, $sp, $a0
	lu12i.w	$a1, 3
	ori	$a1, $a1, 168
	add.d	$a1, $sp, $a1
	ori	$a2, $zero, 3
	jirl	$ra, $a3, 0
.Ltmp25:                                # EH_LABEL
.LBB0_10:                               # %_ZNSt14_Function_baseD2Ev.exit6
	lu12i.w	$a0, 3
	ori	$a0, $a0, 216
	add.d	$a0, $sp, $a0
	ld.d	$a3, $a0, 0
	beqz	$a3, .LBB0_12
# %bb.11:
.Ltmp27:                                # EH_LABEL
	lu12i.w	$a0, 3
	ori	$a0, $a0, 200
	add.d	$a0, $sp, $a0
	lu12i.w	$a1, 3
	ori	$a1, $a1, 200
	add.d	$a1, $sp, $a1
	ori	$a2, $zero, 3
	jirl	$ra, $a3, 0
.Ltmp28:                                # EH_LABEL
.LBB0_12:                               # %_ZNSt14_Function_baseD2Ev.exit8
	vld	$vr0, $sp, 16                   # 16-byte Folded Reload
	lu12i.w	$a0, 3
	ori	$a0, $a0, 136
	add.d	$a0, $sp, $a0
	vst	$vr0, $a0, 0
	pcalau12i	$a0, %pc_hi20(_ZNSt17_Function_handlerIFjPfS0_jEZ4mainE3$_4E9_M_invokeERKSt9_Any_dataOS0_S7_Oj)
	addi.d	$a0, $a0, %pc_lo12(_ZNSt17_Function_handlerIFjPfS0_jEZ4mainE3$_4E9_M_invokeERKSt9_Any_dataOS0_S7_Oj)
	lu12i.w	$a1, 3
	ori	$a1, $a1, 160
	add.d	$a1, $sp, $a1
	st.d	$a0, $a1, 0
	pcalau12i	$a0, %pc_hi20(_ZNSt17_Function_handlerIFjPfS0_jEZ4mainE3$_4E10_M_managerERSt9_Any_dataRKS4_St18_Manager_operation)
	addi.d	$a0, $a0, %pc_lo12(_ZNSt17_Function_handlerIFjPfS0_jEZ4mainE3$_4E10_M_managerERSt9_Any_dataRKS4_St18_Manager_operation)
	lu12i.w	$a1, 3
	ori	$a1, $a1, 152
	add.d	$a1, $sp, $a1
	st.d	$a0, $a1, 0
	lu12i.w	$a0, 3
	ori	$a0, $a0, 104
	add.d	$a0, $sp, $a0
	vst	$vr0, $a0, 0
	pcalau12i	$a0, %pc_hi20(_ZNSt17_Function_handlerIFjPfS0_jEZ4mainE3$_5E9_M_invokeERKSt9_Any_dataOS0_S7_Oj)
	addi.d	$a0, $a0, %pc_lo12(_ZNSt17_Function_handlerIFjPfS0_jEZ4mainE3$_5E9_M_invokeERKSt9_Any_dataOS0_S7_Oj)
	lu12i.w	$a1, 3
	ori	$a1, $a1, 128
	add.d	$a1, $sp, $a1
	st.d	$a0, $a1, 0
	pcalau12i	$a0, %pc_hi20(_ZNSt17_Function_handlerIFjPfS0_jEZ4mainE3$_5E10_M_managerERSt9_Any_dataRKS4_St18_Manager_operation)
	addi.d	$a0, $a0, %pc_lo12(_ZNSt17_Function_handlerIFjPfS0_jEZ4mainE3$_5E10_M_managerERSt9_Any_dataRKS4_St18_Manager_operation)
	lu12i.w	$a1, 3
	ori	$a1, $a1, 120
	add.d	$a1, $sp, $a1
	st.d	$a0, $a1, 0
.Ltmp30:                                # EH_LABEL
	pcalau12i	$a0, %pc_hi20(.L.str.2)
	addi.d	$a2, $a0, %pc_lo12(.L.str.2)
	lu12i.w	$a0, 3
	ori	$a0, $a0, 136
	add.d	$a0, $sp, $a0
	lu12i.w	$a1, 3
	ori	$a1, $a1, 104
	add.d	$a1, $sp, $a1
	pcaddu18i	$ra, %call36(_ZL19checkVectorFunctionIjfEvSt8functionIFT_PT0_S3_jEES5_PKc)
	jirl	$ra, $ra, 0
.Ltmp31:                                # EH_LABEL
# %bb.13:
	lu12i.w	$a0, 3
	ori	$a0, $a0, 120
	add.d	$a0, $sp, $a0
	ld.d	$a3, $a0, 0
	beqz	$a3, .LBB0_15
# %bb.14:
.Ltmp39:                                # EH_LABEL
	lu12i.w	$a0, 3
	ori	$a0, $a0, 104
	add.d	$a0, $sp, $a0
	lu12i.w	$a1, 3
	ori	$a1, $a1, 104
	add.d	$a1, $sp, $a1
	ori	$a2, $zero, 3
	jirl	$ra, $a3, 0
.Ltmp40:                                # EH_LABEL
.LBB0_15:                               # %_ZNSt14_Function_baseD2Ev.exit10
	lu12i.w	$a0, 3
	ori	$a0, $a0, 152
	add.d	$a0, $sp, $a0
	ld.d	$a3, $a0, 0
	beqz	$a3, .LBB0_17
# %bb.16:
.Ltmp42:                                # EH_LABEL
	lu12i.w	$a0, 3
	ori	$a0, $a0, 136
	add.d	$a0, $sp, $a0
	lu12i.w	$a1, 3
	ori	$a1, $a1, 136
	add.d	$a1, $sp, $a1
	ori	$a2, $zero, 3
	jirl	$ra, $a3, 0
.Ltmp43:                                # EH_LABEL
.LBB0_17:                               # %_ZNSt14_Function_baseD2Ev.exit12
	vld	$vr0, $sp, 16                   # 16-byte Folded Reload
	lu12i.w	$a0, 3
	ori	$a0, $a0, 72
	add.d	$a0, $sp, $a0
	vst	$vr0, $a0, 0
	pcalau12i	$a0, %pc_hi20(_ZNSt17_Function_handlerIFjPfS0_jEZ4mainE3$_6E9_M_invokeERKSt9_Any_dataOS0_S7_Oj)
	addi.d	$a0, $a0, %pc_lo12(_ZNSt17_Function_handlerIFjPfS0_jEZ4mainE3$_6E9_M_invokeERKSt9_Any_dataOS0_S7_Oj)
	lu12i.w	$a1, 3
	ori	$a1, $a1, 96
	add.d	$a1, $sp, $a1
	st.d	$a0, $a1, 0
	pcalau12i	$a0, %pc_hi20(_ZNSt17_Function_handlerIFjPfS0_jEZ4mainE3$_6E10_M_managerERSt9_Any_dataRKS4_St18_Manager_operation)
	addi.d	$a0, $a0, %pc_lo12(_ZNSt17_Function_handlerIFjPfS0_jEZ4mainE3$_6E10_M_managerERSt9_Any_dataRKS4_St18_Manager_operation)
	lu12i.w	$a1, 3
	ori	$a1, $a1, 88
	add.d	$a1, $sp, $a1
	st.d	$a0, $a1, 0
	lu12i.w	$a0, 3
	ori	$a0, $a0, 40
	add.d	$a0, $sp, $a0
	vst	$vr0, $a0, 0
	pcalau12i	$a0, %pc_hi20(_ZNSt17_Function_handlerIFjPfS0_jEZ4mainE3$_7E9_M_invokeERKSt9_Any_dataOS0_S7_Oj)
	addi.d	$a0, $a0, %pc_lo12(_ZNSt17_Function_handlerIFjPfS0_jEZ4mainE3$_7E9_M_invokeERKSt9_Any_dataOS0_S7_Oj)
	lu12i.w	$a1, 3
	ori	$a1, $a1, 64
	add.d	$a1, $sp, $a1
	st.d	$a0, $a1, 0
	pcalau12i	$a0, %pc_hi20(_ZNSt17_Function_handlerIFjPfS0_jEZ4mainE3$_7E10_M_managerERSt9_Any_dataRKS4_St18_Manager_operation)
	addi.d	$a0, $a0, %pc_lo12(_ZNSt17_Function_handlerIFjPfS0_jEZ4mainE3$_7E10_M_managerERSt9_Any_dataRKS4_St18_Manager_operation)
	lu12i.w	$a1, 3
	ori	$a1, $a1, 56
	add.d	$a1, $sp, $a1
	st.d	$a0, $a1, 0
.Ltmp45:                                # EH_LABEL
	pcalau12i	$a0, %pc_hi20(.L.str.3)
	addi.d	$a2, $a0, %pc_lo12(.L.str.3)
	lu12i.w	$a0, 3
	ori	$a0, $a0, 72
	add.d	$a0, $sp, $a0
	lu12i.w	$a1, 3
	ori	$a1, $a1, 40
	add.d	$a1, $sp, $a1
	pcaddu18i	$ra, %call36(_ZL19checkVectorFunctionIjfEvSt8functionIFT_PT0_S3_jEES5_PKc)
	jirl	$ra, $ra, 0
.Ltmp46:                                # EH_LABEL
# %bb.18:
	lu12i.w	$a0, 3
	ori	$a0, $a0, 56
	add.d	$a0, $sp, $a0
	ld.d	$a3, $a0, 0
	beqz	$a3, .LBB0_20
# %bb.19:
.Ltmp54:                                # EH_LABEL
	lu12i.w	$a0, 3
	ori	$a0, $a0, 40
	add.d	$a0, $sp, $a0
	lu12i.w	$a1, 3
	ori	$a1, $a1, 40
	add.d	$a1, $sp, $a1
	ori	$a2, $zero, 3
	jirl	$ra, $a3, 0
.Ltmp55:                                # EH_LABEL
.LBB0_20:                               # %_ZNSt14_Function_baseD2Ev.exit14
	lu12i.w	$a0, 3
	ori	$a0, $a0, 88
	add.d	$a0, $sp, $a0
	ld.d	$a3, $a0, 0
	beqz	$a3, .LBB0_22
# %bb.21:
.Ltmp57:                                # EH_LABEL
	lu12i.w	$a0, 3
	ori	$a0, $a0, 72
	add.d	$a0, $sp, $a0
	lu12i.w	$a1, 3
	ori	$a1, $a1, 72
	add.d	$a1, $sp, $a1
	ori	$a2, $zero, 3
	jirl	$ra, $a3, 0
.Ltmp58:                                # EH_LABEL
.LBB0_22:                               # %_ZNSt14_Function_baseD2Ev.exit16
	vld	$vr0, $sp, 16                   # 16-byte Folded Reload
	lu12i.w	$a0, 3
	ori	$a0, $a0, 8
	add.d	$a0, $sp, $a0
	vst	$vr0, $a0, 0
	pcalau12i	$a0, %pc_hi20(_ZNSt17_Function_handlerIFjPfS0_jEZ4mainE3$_8E9_M_invokeERKSt9_Any_dataOS0_S7_Oj)
	addi.d	$a0, $a0, %pc_lo12(_ZNSt17_Function_handlerIFjPfS0_jEZ4mainE3$_8E9_M_invokeERKSt9_Any_dataOS0_S7_Oj)
	lu12i.w	$a1, 3
	ori	$a1, $a1, 32
	add.d	$a1, $sp, $a1
	st.d	$a0, $a1, 0
	pcalau12i	$a0, %pc_hi20(_ZNSt17_Function_handlerIFjPfS0_jEZ4mainE3$_8E10_M_managerERSt9_Any_dataRKS4_St18_Manager_operation)
	addi.d	$a0, $a0, %pc_lo12(_ZNSt17_Function_handlerIFjPfS0_jEZ4mainE3$_8E10_M_managerERSt9_Any_dataRKS4_St18_Manager_operation)
	lu12i.w	$a1, 3
	ori	$a1, $a1, 24
	add.d	$a1, $sp, $a1
	st.d	$a0, $a1, 0
	lu12i.w	$a0, 2
	ori	$a0, $a0, 4072
	add.d	$a0, $sp, $a0
	vst	$vr0, $a0, 0
	pcalau12i	$a0, %pc_hi20(_ZNSt17_Function_handlerIFjPfS0_jEZ4mainE3$_9E9_M_invokeERKSt9_Any_dataOS0_S7_Oj)
	addi.d	$a0, $a0, %pc_lo12(_ZNSt17_Function_handlerIFjPfS0_jEZ4mainE3$_9E9_M_invokeERKSt9_Any_dataOS0_S7_Oj)
	lu12i.w	$a1, 3
	add.d	$a1, $sp, $a1
	st.d	$a0, $a1, 0
	pcalau12i	$a0, %pc_hi20(_ZNSt17_Function_handlerIFjPfS0_jEZ4mainE3$_9E10_M_managerERSt9_Any_dataRKS4_St18_Manager_operation)
	addi.d	$a0, $a0, %pc_lo12(_ZNSt17_Function_handlerIFjPfS0_jEZ4mainE3$_9E10_M_managerERSt9_Any_dataRKS4_St18_Manager_operation)
	lu12i.w	$a1, 2
	ori	$a1, $a1, 4088
	add.d	$a1, $sp, $a1
	st.d	$a0, $a1, 0
.Ltmp60:                                # EH_LABEL
	pcalau12i	$a0, %pc_hi20(.L.str.4)
	addi.d	$a2, $a0, %pc_lo12(.L.str.4)
	lu12i.w	$a0, 3
	ori	$a0, $a0, 8
	add.d	$a0, $sp, $a0
	lu12i.w	$a1, 2
	ori	$a1, $a1, 4072
	add.d	$a1, $sp, $a1
	pcaddu18i	$ra, %call36(_ZL19checkVectorFunctionIjfEvSt8functionIFT_PT0_S3_jEES5_PKc)
	jirl	$ra, $ra, 0
.Ltmp61:                                # EH_LABEL
# %bb.23:
	lu12i.w	$a0, 2
	ori	$a0, $a0, 4088
	add.d	$a0, $sp, $a0
	ld.d	$a3, $a0, 0
	beqz	$a3, .LBB0_25
# %bb.24:
.Ltmp69:                                # EH_LABEL
	lu12i.w	$a0, 2
	ori	$a0, $a0, 4072
	add.d	$a0, $sp, $a0
	lu12i.w	$a1, 2
	ori	$a1, $a1, 4072
	add.d	$a1, $sp, $a1
	ori	$a2, $zero, 3
	jirl	$ra, $a3, 0
.Ltmp70:                                # EH_LABEL
.LBB0_25:                               # %_ZNSt14_Function_baseD2Ev.exit18
	lu12i.w	$a0, 3
	ori	$a0, $a0, 24
	add.d	$a0, $sp, $a0
	ld.d	$a3, $a0, 0
	beqz	$a3, .LBB0_27
# %bb.26:
.Ltmp72:                                # EH_LABEL
	lu12i.w	$a0, 3
	ori	$a0, $a0, 8
	add.d	$a0, $sp, $a0
	lu12i.w	$a1, 3
	ori	$a1, $a1, 8
	add.d	$a1, $sp, $a1
	ori	$a2, $zero, 3
	jirl	$ra, $a3, 0
.Ltmp73:                                # EH_LABEL
.LBB0_27:                               # %_ZNSt14_Function_baseD2Ev.exit20
	vld	$vr0, $sp, 16                   # 16-byte Folded Reload
	lu12i.w	$a0, 2
	ori	$a0, $a0, 4040
	add.d	$a0, $sp, $a0
	vst	$vr0, $a0, 0
	pcalau12i	$a0, %pc_hi20(_ZNSt17_Function_handlerIFjPfS0_jEZ4mainE4$_10E9_M_invokeERKSt9_Any_dataOS0_S7_Oj)
	addi.d	$a0, $a0, %pc_lo12(_ZNSt17_Function_handlerIFjPfS0_jEZ4mainE4$_10E9_M_invokeERKSt9_Any_dataOS0_S7_Oj)
	lu12i.w	$a1, 2
	ori	$a1, $a1, 4064
	add.d	$a1, $sp, $a1
	st.d	$a0, $a1, 0
	pcalau12i	$a0, %pc_hi20(_ZNSt17_Function_handlerIFjPfS0_jEZ4mainE4$_10E10_M_managerERSt9_Any_dataRKS4_St18_Manager_operation)
	addi.d	$a0, $a0, %pc_lo12(_ZNSt17_Function_handlerIFjPfS0_jEZ4mainE4$_10E10_M_managerERSt9_Any_dataRKS4_St18_Manager_operation)
	lu12i.w	$a1, 2
	ori	$a1, $a1, 4056
	add.d	$a1, $sp, $a1
	st.d	$a0, $a1, 0
	lu12i.w	$a0, 2
	ori	$a0, $a0, 4008
	add.d	$a0, $sp, $a0
	vst	$vr0, $a0, 0
	pcalau12i	$a0, %pc_hi20(_ZNSt17_Function_handlerIFjPfS0_jEZ4mainE4$_11E9_M_invokeERKSt9_Any_dataOS0_S7_Oj)
	addi.d	$a0, $a0, %pc_lo12(_ZNSt17_Function_handlerIFjPfS0_jEZ4mainE4$_11E9_M_invokeERKSt9_Any_dataOS0_S7_Oj)
	lu12i.w	$a1, 2
	ori	$a1, $a1, 4032
	add.d	$a1, $sp, $a1
	st.d	$a0, $a1, 0
	pcalau12i	$a0, %pc_hi20(_ZNSt17_Function_handlerIFjPfS0_jEZ4mainE4$_11E10_M_managerERSt9_Any_dataRKS4_St18_Manager_operation)
	addi.d	$a0, $a0, %pc_lo12(_ZNSt17_Function_handlerIFjPfS0_jEZ4mainE4$_11E10_M_managerERSt9_Any_dataRKS4_St18_Manager_operation)
	lu12i.w	$a1, 2
	ori	$a1, $a1, 4024
	add.d	$a1, $sp, $a1
	st.d	$a0, $a1, 0
.Ltmp75:                                # EH_LABEL
	pcalau12i	$a0, %pc_hi20(.L.str.5)
	addi.d	$a2, $a0, %pc_lo12(.L.str.5)
	lu12i.w	$a0, 2
	ori	$a0, $a0, 4040
	add.d	$a0, $sp, $a0
	lu12i.w	$a1, 2
	ori	$a1, $a1, 4008
	add.d	$a1, $sp, $a1
	pcaddu18i	$ra, %call36(_ZL19checkVectorFunctionIjfEvSt8functionIFT_PT0_S3_jEES5_PKc)
	jirl	$ra, $ra, 0
.Ltmp76:                                # EH_LABEL
# %bb.28:
	lu12i.w	$a0, 2
	ori	$a0, $a0, 4024
	add.d	$a0, $sp, $a0
	ld.d	$a3, $a0, 0
	beqz	$a3, .LBB0_30
# %bb.29:
.Ltmp84:                                # EH_LABEL
	lu12i.w	$a0, 2
	ori	$a0, $a0, 4008
	add.d	$a0, $sp, $a0
	lu12i.w	$a1, 2
	ori	$a1, $a1, 4008
	add.d	$a1, $sp, $a1
	ori	$a2, $zero, 3
	jirl	$ra, $a3, 0
.Ltmp85:                                # EH_LABEL
.LBB0_30:                               # %_ZNSt14_Function_baseD2Ev.exit22
	lu12i.w	$a0, 2
	ori	$a0, $a0, 4056
	add.d	$a0, $sp, $a0
	ld.d	$a3, $a0, 0
	beqz	$a3, .LBB0_32
# %bb.31:
.Ltmp87:                                # EH_LABEL
	lu12i.w	$a0, 2
	ori	$a0, $a0, 4040
	add.d	$a0, $sp, $a0
	lu12i.w	$a1, 2
	ori	$a1, $a1, 4040
	add.d	$a1, $sp, $a1
	ori	$a2, $zero, 3
	jirl	$ra, $a3, 0
.Ltmp88:                                # EH_LABEL
.LBB0_32:                               # %_ZNSt14_Function_baseD2Ev.exit24
	vld	$vr0, $sp, 16                   # 16-byte Folded Reload
	lu12i.w	$a0, 2
	ori	$a0, $a0, 3976
	add.d	$a0, $sp, $a0
	vst	$vr0, $a0, 0
	pcalau12i	$a0, %pc_hi20(_ZNSt17_Function_handlerIFjPfS0_jEZ4mainE4$_12E9_M_invokeERKSt9_Any_dataOS0_S7_Oj)
	addi.d	$a0, $a0, %pc_lo12(_ZNSt17_Function_handlerIFjPfS0_jEZ4mainE4$_12E9_M_invokeERKSt9_Any_dataOS0_S7_Oj)
	lu12i.w	$a1, 2
	ori	$a1, $a1, 4000
	add.d	$a1, $sp, $a1
	st.d	$a0, $a1, 0
	pcalau12i	$a0, %pc_hi20(_ZNSt17_Function_handlerIFjPfS0_jEZ4mainE4$_12E10_M_managerERSt9_Any_dataRKS4_St18_Manager_operation)
	addi.d	$a0, $a0, %pc_lo12(_ZNSt17_Function_handlerIFjPfS0_jEZ4mainE4$_12E10_M_managerERSt9_Any_dataRKS4_St18_Manager_operation)
	lu12i.w	$a1, 2
	ori	$a1, $a1, 3992
	add.d	$a1, $sp, $a1
	st.d	$a0, $a1, 0
	lu12i.w	$a0, 2
	ori	$a0, $a0, 3944
	add.d	$a0, $sp, $a0
	vst	$vr0, $a0, 0
	pcalau12i	$a0, %pc_hi20(_ZNSt17_Function_handlerIFjPfS0_jEZ4mainE4$_13E9_M_invokeERKSt9_Any_dataOS0_S7_Oj)
	addi.d	$a0, $a0, %pc_lo12(_ZNSt17_Function_handlerIFjPfS0_jEZ4mainE4$_13E9_M_invokeERKSt9_Any_dataOS0_S7_Oj)
	lu12i.w	$a1, 2
	ori	$a1, $a1, 3968
	add.d	$a1, $sp, $a1
	st.d	$a0, $a1, 0
	pcalau12i	$a0, %pc_hi20(_ZNSt17_Function_handlerIFjPfS0_jEZ4mainE4$_13E10_M_managerERSt9_Any_dataRKS4_St18_Manager_operation)
	addi.d	$a0, $a0, %pc_lo12(_ZNSt17_Function_handlerIFjPfS0_jEZ4mainE4$_13E10_M_managerERSt9_Any_dataRKS4_St18_Manager_operation)
	lu12i.w	$a1, 2
	ori	$a1, $a1, 3960
	add.d	$a1, $sp, $a1
	st.d	$a0, $a1, 0
.Ltmp90:                                # EH_LABEL
	pcalau12i	$a0, %pc_hi20(.L.str.6)
	addi.d	$a2, $a0, %pc_lo12(.L.str.6)
	lu12i.w	$a0, 2
	ori	$a0, $a0, 3976
	add.d	$a0, $sp, $a0
	lu12i.w	$a1, 2
	ori	$a1, $a1, 3944
	add.d	$a1, $sp, $a1
	pcaddu18i	$ra, %call36(_ZL19checkVectorFunctionIjfEvSt8functionIFT_PT0_S3_jEES5_PKc)
	jirl	$ra, $ra, 0
.Ltmp91:                                # EH_LABEL
# %bb.33:
	lu12i.w	$a0, 2
	ori	$a0, $a0, 3960
	add.d	$a0, $sp, $a0
	ld.d	$a3, $a0, 0
	beqz	$a3, .LBB0_35
# %bb.34:
.Ltmp99:                                # EH_LABEL
	lu12i.w	$a0, 2
	ori	$a0, $a0, 3944
	add.d	$a0, $sp, $a0
	lu12i.w	$a1, 2
	ori	$a1, $a1, 3944
	add.d	$a1, $sp, $a1
	ori	$a2, $zero, 3
	jirl	$ra, $a3, 0
.Ltmp100:                               # EH_LABEL
.LBB0_35:                               # %_ZNSt14_Function_baseD2Ev.exit26
	lu12i.w	$a0, 2
	ori	$a0, $a0, 3992
	add.d	$a0, $sp, $a0
	ld.d	$a3, $a0, 0
	beqz	$a3, .LBB0_37
# %bb.36:
.Ltmp102:                               # EH_LABEL
	lu12i.w	$a0, 2
	ori	$a0, $a0, 3976
	add.d	$a0, $sp, $a0
	lu12i.w	$a1, 2
	ori	$a1, $a1, 3976
	add.d	$a1, $sp, $a1
	ori	$a2, $zero, 3
	jirl	$ra, $a3, 0
.Ltmp103:                               # EH_LABEL
.LBB0_37:                               # %_ZNSt14_Function_baseD2Ev.exit28
	vld	$vr0, $sp, 16                   # 16-byte Folded Reload
	lu12i.w	$a0, 2
	ori	$a0, $a0, 3912
	add.d	$a0, $sp, $a0
	vst	$vr0, $a0, 0
	pcalau12i	$a0, %pc_hi20(_ZNSt17_Function_handlerIFjPfS0_jEZ4mainE4$_14E9_M_invokeERKSt9_Any_dataOS0_S7_Oj)
	addi.d	$a0, $a0, %pc_lo12(_ZNSt17_Function_handlerIFjPfS0_jEZ4mainE4$_14E9_M_invokeERKSt9_Any_dataOS0_S7_Oj)
	lu12i.w	$a1, 2
	ori	$a1, $a1, 3936
	add.d	$a1, $sp, $a1
	st.d	$a0, $a1, 0
	pcalau12i	$a0, %pc_hi20(_ZNSt17_Function_handlerIFjPfS0_jEZ4mainE4$_14E10_M_managerERSt9_Any_dataRKS4_St18_Manager_operation)
	addi.d	$a0, $a0, %pc_lo12(_ZNSt17_Function_handlerIFjPfS0_jEZ4mainE4$_14E10_M_managerERSt9_Any_dataRKS4_St18_Manager_operation)
	lu12i.w	$a1, 2
	ori	$a1, $a1, 3928
	add.d	$a1, $sp, $a1
	st.d	$a0, $a1, 0
	lu12i.w	$a0, 2
	ori	$a0, $a0, 3880
	add.d	$a0, $sp, $a0
	vst	$vr0, $a0, 0
	pcalau12i	$a0, %pc_hi20(_ZNSt17_Function_handlerIFjPfS0_jEZ4mainE4$_15E9_M_invokeERKSt9_Any_dataOS0_S7_Oj)
	addi.d	$a0, $a0, %pc_lo12(_ZNSt17_Function_handlerIFjPfS0_jEZ4mainE4$_15E9_M_invokeERKSt9_Any_dataOS0_S7_Oj)
	lu12i.w	$a1, 2
	ori	$a1, $a1, 3904
	add.d	$a1, $sp, $a1
	st.d	$a0, $a1, 0
	pcalau12i	$a0, %pc_hi20(_ZNSt17_Function_handlerIFjPfS0_jEZ4mainE4$_15E10_M_managerERSt9_Any_dataRKS4_St18_Manager_operation)
	addi.d	$a0, $a0, %pc_lo12(_ZNSt17_Function_handlerIFjPfS0_jEZ4mainE4$_15E10_M_managerERSt9_Any_dataRKS4_St18_Manager_operation)
	lu12i.w	$a1, 2
	ori	$a1, $a1, 3896
	add.d	$a1, $sp, $a1
	st.d	$a0, $a1, 0
.Ltmp105:                               # EH_LABEL
	pcalau12i	$a0, %pc_hi20(.L.str.7)
	addi.d	$a2, $a0, %pc_lo12(.L.str.7)
	lu12i.w	$a0, 2
	ori	$a0, $a0, 3912
	add.d	$a0, $sp, $a0
	lu12i.w	$a1, 2
	ori	$a1, $a1, 3880
	add.d	$a1, $sp, $a1
	pcaddu18i	$ra, %call36(_ZL19checkVectorFunctionIjfEvSt8functionIFT_PT0_S3_jEES5_PKc)
	jirl	$ra, $ra, 0
.Ltmp106:                               # EH_LABEL
# %bb.38:
	lu12i.w	$a0, 2
	ori	$a0, $a0, 3896
	add.d	$a0, $sp, $a0
	ld.d	$a3, $a0, 0
	beqz	$a3, .LBB0_40
# %bb.39:
.Ltmp114:                               # EH_LABEL
	lu12i.w	$a0, 2
	ori	$a0, $a0, 3880
	add.d	$a0, $sp, $a0
	lu12i.w	$a1, 2
	ori	$a1, $a1, 3880
	add.d	$a1, $sp, $a1
	ori	$a2, $zero, 3
	jirl	$ra, $a3, 0
.Ltmp115:                               # EH_LABEL
.LBB0_40:                               # %_ZNSt14_Function_baseD2Ev.exit30
	lu12i.w	$a0, 2
	ori	$a0, $a0, 3928
	add.d	$a0, $sp, $a0
	ld.d	$a3, $a0, 0
	beqz	$a3, .LBB0_42
# %bb.41:
.Ltmp117:                               # EH_LABEL
	lu12i.w	$a0, 2
	ori	$a0, $a0, 3912
	add.d	$a0, $sp, $a0
	lu12i.w	$a1, 2
	ori	$a1, $a1, 3912
	add.d	$a1, $sp, $a1
	ori	$a2, $zero, 3
	jirl	$ra, $a3, 0
.Ltmp118:                               # EH_LABEL
.LBB0_42:                               # %_ZNSt14_Function_baseD2Ev.exit32
	vld	$vr0, $sp, 16                   # 16-byte Folded Reload
	lu12i.w	$a0, 2
	ori	$a0, $a0, 3848
	add.d	$a0, $sp, $a0
	vst	$vr0, $a0, 0
	pcalau12i	$a0, %pc_hi20(_ZNSt17_Function_handlerIFjPfS0_jEZ4mainE4$_16E9_M_invokeERKSt9_Any_dataOS0_S7_Oj)
	addi.d	$a0, $a0, %pc_lo12(_ZNSt17_Function_handlerIFjPfS0_jEZ4mainE4$_16E9_M_invokeERKSt9_Any_dataOS0_S7_Oj)
	lu12i.w	$a1, 2
	ori	$a1, $a1, 3872
	add.d	$a1, $sp, $a1
	st.d	$a0, $a1, 0
	pcalau12i	$a0, %pc_hi20(_ZNSt17_Function_handlerIFjPfS0_jEZ4mainE4$_16E10_M_managerERSt9_Any_dataRKS4_St18_Manager_operation)
	addi.d	$a0, $a0, %pc_lo12(_ZNSt17_Function_handlerIFjPfS0_jEZ4mainE4$_16E10_M_managerERSt9_Any_dataRKS4_St18_Manager_operation)
	lu12i.w	$a1, 2
	ori	$a1, $a1, 3864
	add.d	$a1, $sp, $a1
	st.d	$a0, $a1, 0
	lu12i.w	$a0, 2
	ori	$a0, $a0, 3816
	add.d	$a0, $sp, $a0
	vst	$vr0, $a0, 0
	pcalau12i	$a0, %pc_hi20(_ZNSt17_Function_handlerIFjPfS0_jEZ4mainE4$_17E9_M_invokeERKSt9_Any_dataOS0_S7_Oj)
	addi.d	$a0, $a0, %pc_lo12(_ZNSt17_Function_handlerIFjPfS0_jEZ4mainE4$_17E9_M_invokeERKSt9_Any_dataOS0_S7_Oj)
	lu12i.w	$a1, 2
	ori	$a1, $a1, 3840
	add.d	$a1, $sp, $a1
	st.d	$a0, $a1, 0
	pcalau12i	$a0, %pc_hi20(_ZNSt17_Function_handlerIFjPfS0_jEZ4mainE4$_17E10_M_managerERSt9_Any_dataRKS4_St18_Manager_operation)
	addi.d	$a0, $a0, %pc_lo12(_ZNSt17_Function_handlerIFjPfS0_jEZ4mainE4$_17E10_M_managerERSt9_Any_dataRKS4_St18_Manager_operation)
	lu12i.w	$a1, 2
	ori	$a1, $a1, 3832
	add.d	$a1, $sp, $a1
	st.d	$a0, $a1, 0
.Ltmp120:                               # EH_LABEL
	pcalau12i	$a0, %pc_hi20(.L.str.8)
	addi.d	$a2, $a0, %pc_lo12(.L.str.8)
	lu12i.w	$a0, 2
	ori	$a0, $a0, 3848
	add.d	$a0, $sp, $a0
	lu12i.w	$a1, 2
	ori	$a1, $a1, 3816
	add.d	$a1, $sp, $a1
	pcaddu18i	$ra, %call36(_ZL19checkVectorFunctionIjfEvSt8functionIFT_PT0_S3_jEES5_PKc)
	jirl	$ra, $ra, 0
.Ltmp121:                               # EH_LABEL
# %bb.43:
	lu12i.w	$a0, 2
	ori	$a0, $a0, 3832
	add.d	$a0, $sp, $a0
	ld.d	$a3, $a0, 0
	beqz	$a3, .LBB0_45
# %bb.44:
.Ltmp129:                               # EH_LABEL
	lu12i.w	$a0, 2
	ori	$a0, $a0, 3816
	add.d	$a0, $sp, $a0
	lu12i.w	$a1, 2
	ori	$a1, $a1, 3816
	add.d	$a1, $sp, $a1
	ori	$a2, $zero, 3
	jirl	$ra, $a3, 0
.Ltmp130:                               # EH_LABEL
.LBB0_45:                               # %_ZNSt14_Function_baseD2Ev.exit34
	lu12i.w	$a0, 2
	ori	$a0, $a0, 3864
	add.d	$a0, $sp, $a0
	ld.d	$a3, $a0, 0
	beqz	$a3, .LBB0_47
# %bb.46:
.Ltmp132:                               # EH_LABEL
	lu12i.w	$a0, 2
	ori	$a0, $a0, 3848
	add.d	$a0, $sp, $a0
	lu12i.w	$a1, 2
	ori	$a1, $a1, 3848
	add.d	$a1, $sp, $a1
	ori	$a2, $zero, 3
	jirl	$ra, $a3, 0
.Ltmp133:                               # EH_LABEL
.LBB0_47:                               # %_ZNSt14_Function_baseD2Ev.exit36
	vld	$vr0, $sp, 16                   # 16-byte Folded Reload
	lu12i.w	$a0, 2
	ori	$a0, $a0, 3784
	add.d	$a0, $sp, $a0
	vst	$vr0, $a0, 0
	pcalau12i	$a0, %pc_hi20(_ZNSt17_Function_handlerIFjPfS0_jEZ4mainE4$_18E9_M_invokeERKSt9_Any_dataOS0_S7_Oj)
	addi.d	$a0, $a0, %pc_lo12(_ZNSt17_Function_handlerIFjPfS0_jEZ4mainE4$_18E9_M_invokeERKSt9_Any_dataOS0_S7_Oj)
	lu12i.w	$a1, 2
	ori	$a1, $a1, 3808
	add.d	$a1, $sp, $a1
	st.d	$a0, $a1, 0
	pcalau12i	$a0, %pc_hi20(_ZNSt17_Function_handlerIFjPfS0_jEZ4mainE4$_18E10_M_managerERSt9_Any_dataRKS4_St18_Manager_operation)
	addi.d	$a0, $a0, %pc_lo12(_ZNSt17_Function_handlerIFjPfS0_jEZ4mainE4$_18E10_M_managerERSt9_Any_dataRKS4_St18_Manager_operation)
	lu12i.w	$a1, 2
	ori	$a1, $a1, 3800
	add.d	$a1, $sp, $a1
	st.d	$a0, $a1, 0
	lu12i.w	$a0, 2
	ori	$a0, $a0, 3752
	add.d	$a0, $sp, $a0
	vst	$vr0, $a0, 0
	pcalau12i	$a0, %pc_hi20(_ZNSt17_Function_handlerIFjPfS0_jEZ4mainE4$_19E9_M_invokeERKSt9_Any_dataOS0_S7_Oj)
	addi.d	$a0, $a0, %pc_lo12(_ZNSt17_Function_handlerIFjPfS0_jEZ4mainE4$_19E9_M_invokeERKSt9_Any_dataOS0_S7_Oj)
	lu12i.w	$a1, 2
	ori	$a1, $a1, 3776
	add.d	$a1, $sp, $a1
	st.d	$a0, $a1, 0
	pcalau12i	$a0, %pc_hi20(_ZNSt17_Function_handlerIFjPfS0_jEZ4mainE4$_19E10_M_managerERSt9_Any_dataRKS4_St18_Manager_operation)
	addi.d	$a0, $a0, %pc_lo12(_ZNSt17_Function_handlerIFjPfS0_jEZ4mainE4$_19E10_M_managerERSt9_Any_dataRKS4_St18_Manager_operation)
	lu12i.w	$a1, 2
	ori	$a1, $a1, 3768
	add.d	$a1, $sp, $a1
	st.d	$a0, $a1, 0
.Ltmp135:                               # EH_LABEL
	pcalau12i	$a0, %pc_hi20(.L.str.9)
	addi.d	$a2, $a0, %pc_lo12(.L.str.9)
	lu12i.w	$a0, 2
	ori	$a0, $a0, 3784
	add.d	$a0, $sp, $a0
	lu12i.w	$a1, 2
	ori	$a1, $a1, 3752
	add.d	$a1, $sp, $a1
	pcaddu18i	$ra, %call36(_ZL19checkVectorFunctionIjfEvSt8functionIFT_PT0_S3_jEES5_PKc)
	jirl	$ra, $ra, 0
.Ltmp136:                               # EH_LABEL
# %bb.48:
	lu12i.w	$a0, 2
	ori	$a0, $a0, 3768
	add.d	$a0, $sp, $a0
	ld.d	$a3, $a0, 0
	beqz	$a3, .LBB0_50
# %bb.49:
.Ltmp144:                               # EH_LABEL
	lu12i.w	$a0, 2
	ori	$a0, $a0, 3752
	add.d	$a0, $sp, $a0
	lu12i.w	$a1, 2
	ori	$a1, $a1, 3752
	add.d	$a1, $sp, $a1
	ori	$a2, $zero, 3
	jirl	$ra, $a3, 0
.Ltmp145:                               # EH_LABEL
.LBB0_50:                               # %_ZNSt14_Function_baseD2Ev.exit38
	lu12i.w	$a0, 2
	ori	$a0, $a0, 3800
	add.d	$a0, $sp, $a0
	ld.d	$a3, $a0, 0
	beqz	$a3, .LBB0_52
# %bb.51:
.Ltmp147:                               # EH_LABEL
	lu12i.w	$a0, 2
	ori	$a0, $a0, 3784
	add.d	$a0, $sp, $a0
	lu12i.w	$a1, 2
	ori	$a1, $a1, 3784
	add.d	$a1, $sp, $a1
	ori	$a2, $zero, 3
	jirl	$ra, $a3, 0
.Ltmp148:                               # EH_LABEL
.LBB0_52:                               # %_ZNSt14_Function_baseD2Ev.exit40
	vld	$vr0, $sp, 16                   # 16-byte Folded Reload
	lu12i.w	$a0, 2
	ori	$a0, $a0, 3720
	add.d	$a0, $sp, $a0
	vst	$vr0, $a0, 0
	pcalau12i	$a0, %pc_hi20(_ZNSt17_Function_handlerIFjPfS0_jEZ4mainE4$_20E9_M_invokeERKSt9_Any_dataOS0_S7_Oj)
	addi.d	$a0, $a0, %pc_lo12(_ZNSt17_Function_handlerIFjPfS0_jEZ4mainE4$_20E9_M_invokeERKSt9_Any_dataOS0_S7_Oj)
	lu12i.w	$a1, 2
	ori	$a1, $a1, 3744
	add.d	$a1, $sp, $a1
	st.d	$a0, $a1, 0
	pcalau12i	$a0, %pc_hi20(_ZNSt17_Function_handlerIFjPfS0_jEZ4mainE4$_20E10_M_managerERSt9_Any_dataRKS4_St18_Manager_operation)
	addi.d	$a0, $a0, %pc_lo12(_ZNSt17_Function_handlerIFjPfS0_jEZ4mainE4$_20E10_M_managerERSt9_Any_dataRKS4_St18_Manager_operation)
	lu12i.w	$a1, 2
	ori	$a1, $a1, 3736
	add.d	$a1, $sp, $a1
	st.d	$a0, $a1, 0
	lu12i.w	$a0, 2
	ori	$a0, $a0, 3688
	add.d	$a0, $sp, $a0
	vst	$vr0, $a0, 0
	pcalau12i	$a0, %pc_hi20(_ZNSt17_Function_handlerIFjPfS0_jEZ4mainE4$_21E9_M_invokeERKSt9_Any_dataOS0_S7_Oj)
	addi.d	$a0, $a0, %pc_lo12(_ZNSt17_Function_handlerIFjPfS0_jEZ4mainE4$_21E9_M_invokeERKSt9_Any_dataOS0_S7_Oj)
	lu12i.w	$a1, 2
	ori	$a1, $a1, 3712
	add.d	$a1, $sp, $a1
	st.d	$a0, $a1, 0
	pcalau12i	$a0, %pc_hi20(_ZNSt17_Function_handlerIFjPfS0_jEZ4mainE4$_21E10_M_managerERSt9_Any_dataRKS4_St18_Manager_operation)
	addi.d	$a0, $a0, %pc_lo12(_ZNSt17_Function_handlerIFjPfS0_jEZ4mainE4$_21E10_M_managerERSt9_Any_dataRKS4_St18_Manager_operation)
	lu12i.w	$a1, 2
	ori	$a1, $a1, 3704
	add.d	$a1, $sp, $a1
	st.d	$a0, $a1, 0
.Ltmp150:                               # EH_LABEL
	pcalau12i	$a0, %pc_hi20(.L.str.10)
	addi.d	$a2, $a0, %pc_lo12(.L.str.10)
	lu12i.w	$a0, 2
	ori	$a0, $a0, 3720
	add.d	$a0, $sp, $a0
	lu12i.w	$a1, 2
	ori	$a1, $a1, 3688
	add.d	$a1, $sp, $a1
	pcaddu18i	$ra, %call36(_ZL19checkVectorFunctionIjfEvSt8functionIFT_PT0_S3_jEES5_PKc)
	jirl	$ra, $ra, 0
.Ltmp151:                               # EH_LABEL
# %bb.53:
	lu12i.w	$a0, 2
	ori	$a0, $a0, 3704
	add.d	$a0, $sp, $a0
	ld.d	$a3, $a0, 0
	beqz	$a3, .LBB0_55
# %bb.54:
.Ltmp159:                               # EH_LABEL
	lu12i.w	$a0, 2
	ori	$a0, $a0, 3688
	add.d	$a0, $sp, $a0
	lu12i.w	$a1, 2
	ori	$a1, $a1, 3688
	add.d	$a1, $sp, $a1
	ori	$a2, $zero, 3
	jirl	$ra, $a3, 0
.Ltmp160:                               # EH_LABEL
.LBB0_55:                               # %_ZNSt14_Function_baseD2Ev.exit42
	lu12i.w	$a0, 2
	ori	$a0, $a0, 3736
	add.d	$a0, $sp, $a0
	ld.d	$a3, $a0, 0
	beqz	$a3, .LBB0_57
# %bb.56:
.Ltmp162:                               # EH_LABEL
	lu12i.w	$a0, 2
	ori	$a0, $a0, 3720
	add.d	$a0, $sp, $a0
	lu12i.w	$a1, 2
	ori	$a1, $a1, 3720
	add.d	$a1, $sp, $a1
	ori	$a2, $zero, 3
	jirl	$ra, $a3, 0
.Ltmp163:                               # EH_LABEL
.LBB0_57:                               # %_ZNSt14_Function_baseD2Ev.exit44
	vld	$vr0, $sp, 16                   # 16-byte Folded Reload
	lu12i.w	$a0, 2
	ori	$a0, $a0, 3656
	add.d	$a0, $sp, $a0
	vst	$vr0, $a0, 0
	pcalau12i	$a0, %pc_hi20(_ZNSt17_Function_handlerIFjPfS0_jEZ4mainE4$_22E9_M_invokeERKSt9_Any_dataOS0_S7_Oj)
	addi.d	$a0, $a0, %pc_lo12(_ZNSt17_Function_handlerIFjPfS0_jEZ4mainE4$_22E9_M_invokeERKSt9_Any_dataOS0_S7_Oj)
	lu12i.w	$a1, 2
	ori	$a1, $a1, 3680
	add.d	$a1, $sp, $a1
	st.d	$a0, $a1, 0
	pcalau12i	$a0, %pc_hi20(_ZNSt17_Function_handlerIFjPfS0_jEZ4mainE4$_22E10_M_managerERSt9_Any_dataRKS4_St18_Manager_operation)
	addi.d	$a0, $a0, %pc_lo12(_ZNSt17_Function_handlerIFjPfS0_jEZ4mainE4$_22E10_M_managerERSt9_Any_dataRKS4_St18_Manager_operation)
	lu12i.w	$a1, 2
	ori	$a1, $a1, 3672
	add.d	$a1, $sp, $a1
	st.d	$a0, $a1, 0
	lu12i.w	$a0, 2
	ori	$a0, $a0, 3624
	add.d	$a0, $sp, $a0
	vst	$vr0, $a0, 0
	pcalau12i	$a0, %pc_hi20(_ZNSt17_Function_handlerIFjPfS0_jEZ4mainE4$_23E9_M_invokeERKSt9_Any_dataOS0_S7_Oj)
	addi.d	$a0, $a0, %pc_lo12(_ZNSt17_Function_handlerIFjPfS0_jEZ4mainE4$_23E9_M_invokeERKSt9_Any_dataOS0_S7_Oj)
	lu12i.w	$a1, 2
	ori	$a1, $a1, 3648
	add.d	$a1, $sp, $a1
	st.d	$a0, $a1, 0
	pcalau12i	$a0, %pc_hi20(_ZNSt17_Function_handlerIFjPfS0_jEZ4mainE4$_23E10_M_managerERSt9_Any_dataRKS4_St18_Manager_operation)
	addi.d	$a0, $a0, %pc_lo12(_ZNSt17_Function_handlerIFjPfS0_jEZ4mainE4$_23E10_M_managerERSt9_Any_dataRKS4_St18_Manager_operation)
	lu12i.w	$a1, 2
	ori	$a1, $a1, 3640
	add.d	$a1, $sp, $a1
	st.d	$a0, $a1, 0
.Ltmp165:                               # EH_LABEL
	pcalau12i	$a0, %pc_hi20(.L.str.11)
	addi.d	$a2, $a0, %pc_lo12(.L.str.11)
	lu12i.w	$a0, 2
	ori	$a0, $a0, 3656
	add.d	$a0, $sp, $a0
	lu12i.w	$a1, 2
	ori	$a1, $a1, 3624
	add.d	$a1, $sp, $a1
	pcaddu18i	$ra, %call36(_ZL19checkVectorFunctionIjfEvSt8functionIFT_PT0_S3_jEES5_PKc)
	jirl	$ra, $ra, 0
.Ltmp166:                               # EH_LABEL
# %bb.58:
	lu12i.w	$a0, 2
	ori	$a0, $a0, 3640
	add.d	$a0, $sp, $a0
	ld.d	$a3, $a0, 0
	beqz	$a3, .LBB0_60
# %bb.59:
.Ltmp174:                               # EH_LABEL
	lu12i.w	$a0, 2
	ori	$a0, $a0, 3624
	add.d	$a0, $sp, $a0
	lu12i.w	$a1, 2
	ori	$a1, $a1, 3624
	add.d	$a1, $sp, $a1
	ori	$a2, $zero, 3
	jirl	$ra, $a3, 0
.Ltmp175:                               # EH_LABEL
.LBB0_60:                               # %_ZNSt14_Function_baseD2Ev.exit46
	lu12i.w	$a0, 2
	ori	$a0, $a0, 3672
	add.d	$a0, $sp, $a0
	ld.d	$a3, $a0, 0
	beqz	$a3, .LBB0_62
# %bb.61:
.Ltmp177:                               # EH_LABEL
	lu12i.w	$a0, 2
	ori	$a0, $a0, 3656
	add.d	$a0, $sp, $a0
	lu12i.w	$a1, 2
	ori	$a1, $a1, 3656
	add.d	$a1, $sp, $a1
	ori	$a2, $zero, 3
	jirl	$ra, $a3, 0
.Ltmp178:                               # EH_LABEL
.LBB0_62:                               # %_ZNSt14_Function_baseD2Ev.exit48
	vld	$vr0, $sp, 16                   # 16-byte Folded Reload
	lu12i.w	$a0, 2
	ori	$a0, $a0, 3592
	add.d	$a0, $sp, $a0
	vst	$vr0, $a0, 0
	pcalau12i	$a0, %pc_hi20(_ZNSt17_Function_handlerIFjPfS0_jEZ4mainE4$_24E9_M_invokeERKSt9_Any_dataOS0_S7_Oj)
	addi.d	$a0, $a0, %pc_lo12(_ZNSt17_Function_handlerIFjPfS0_jEZ4mainE4$_24E9_M_invokeERKSt9_Any_dataOS0_S7_Oj)
	lu12i.w	$a1, 2
	ori	$a1, $a1, 3616
	add.d	$a1, $sp, $a1
	st.d	$a0, $a1, 0
	pcalau12i	$a0, %pc_hi20(_ZNSt17_Function_handlerIFjPfS0_jEZ4mainE4$_24E10_M_managerERSt9_Any_dataRKS4_St18_Manager_operation)
	addi.d	$a0, $a0, %pc_lo12(_ZNSt17_Function_handlerIFjPfS0_jEZ4mainE4$_24E10_M_managerERSt9_Any_dataRKS4_St18_Manager_operation)
	lu12i.w	$a1, 2
	ori	$a1, $a1, 3608
	add.d	$a1, $sp, $a1
	st.d	$a0, $a1, 0
	lu12i.w	$a0, 2
	ori	$a0, $a0, 3560
	add.d	$a0, $sp, $a0
	vst	$vr0, $a0, 0
	pcalau12i	$a0, %pc_hi20(_ZNSt17_Function_handlerIFjPfS0_jEZ4mainE4$_25E9_M_invokeERKSt9_Any_dataOS0_S7_Oj)
	addi.d	$a0, $a0, %pc_lo12(_ZNSt17_Function_handlerIFjPfS0_jEZ4mainE4$_25E9_M_invokeERKSt9_Any_dataOS0_S7_Oj)
	lu12i.w	$a1, 2
	ori	$a1, $a1, 3584
	add.d	$a1, $sp, $a1
	st.d	$a0, $a1, 0
	pcalau12i	$a0, %pc_hi20(_ZNSt17_Function_handlerIFjPfS0_jEZ4mainE4$_25E10_M_managerERSt9_Any_dataRKS4_St18_Manager_operation)
	addi.d	$a0, $a0, %pc_lo12(_ZNSt17_Function_handlerIFjPfS0_jEZ4mainE4$_25E10_M_managerERSt9_Any_dataRKS4_St18_Manager_operation)
	lu12i.w	$a1, 2
	ori	$a1, $a1, 3576
	add.d	$a1, $sp, $a1
	st.d	$a0, $a1, 0
.Ltmp180:                               # EH_LABEL
	pcalau12i	$a0, %pc_hi20(.L.str.12)
	addi.d	$a2, $a0, %pc_lo12(.L.str.12)
	lu12i.w	$a0, 2
	ori	$a0, $a0, 3592
	add.d	$a0, $sp, $a0
	lu12i.w	$a1, 2
	ori	$a1, $a1, 3560
	add.d	$a1, $sp, $a1
	pcaddu18i	$ra, %call36(_ZL19checkVectorFunctionIjfEvSt8functionIFT_PT0_S3_jEES5_PKc)
	jirl	$ra, $ra, 0
.Ltmp181:                               # EH_LABEL
# %bb.63:
	lu12i.w	$a0, 2
	ori	$a0, $a0, 3576
	add.d	$a0, $sp, $a0
	ld.d	$a3, $a0, 0
	beqz	$a3, .LBB0_65
# %bb.64:
.Ltmp189:                               # EH_LABEL
	lu12i.w	$a0, 2
	ori	$a0, $a0, 3560
	add.d	$a0, $sp, $a0
	lu12i.w	$a1, 2
	ori	$a1, $a1, 3560
	add.d	$a1, $sp, $a1
	ori	$a2, $zero, 3
	jirl	$ra, $a3, 0
.Ltmp190:                               # EH_LABEL
.LBB0_65:                               # %_ZNSt14_Function_baseD2Ev.exit50
	lu12i.w	$a0, 2
	ori	$a0, $a0, 3608
	add.d	$a0, $sp, $a0
	ld.d	$a3, $a0, 0
	beqz	$a3, .LBB0_67
# %bb.66:
.Ltmp192:                               # EH_LABEL
	lu12i.w	$a0, 2
	ori	$a0, $a0, 3592
	add.d	$a0, $sp, $a0
	lu12i.w	$a1, 2
	ori	$a1, $a1, 3592
	add.d	$a1, $sp, $a1
	ori	$a2, $zero, 3
	jirl	$ra, $a3, 0
.Ltmp193:                               # EH_LABEL
.LBB0_67:                               # %_ZNSt14_Function_baseD2Ev.exit52
	vld	$vr0, $sp, 16                   # 16-byte Folded Reload
	lu12i.w	$a0, 2
	ori	$a0, $a0, 3528
	add.d	$a0, $sp, $a0
	vst	$vr0, $a0, 0
	pcalau12i	$a0, %pc_hi20(_ZNSt17_Function_handlerIFjPfS0_jEZ4mainE4$_26E9_M_invokeERKSt9_Any_dataOS0_S7_Oj)
	addi.d	$a0, $a0, %pc_lo12(_ZNSt17_Function_handlerIFjPfS0_jEZ4mainE4$_26E9_M_invokeERKSt9_Any_dataOS0_S7_Oj)
	lu12i.w	$a1, 2
	ori	$a1, $a1, 3552
	add.d	$a1, $sp, $a1
	st.d	$a0, $a1, 0
	pcalau12i	$a0, %pc_hi20(_ZNSt17_Function_handlerIFjPfS0_jEZ4mainE4$_26E10_M_managerERSt9_Any_dataRKS4_St18_Manager_operation)
	addi.d	$a0, $a0, %pc_lo12(_ZNSt17_Function_handlerIFjPfS0_jEZ4mainE4$_26E10_M_managerERSt9_Any_dataRKS4_St18_Manager_operation)
	lu12i.w	$a1, 2
	ori	$a1, $a1, 3544
	add.d	$a1, $sp, $a1
	st.d	$a0, $a1, 0
	lu12i.w	$a0, 2
	ori	$a0, $a0, 3496
	add.d	$a0, $sp, $a0
	vst	$vr0, $a0, 0
	pcalau12i	$a0, %pc_hi20(_ZNSt17_Function_handlerIFjPfS0_jEZ4mainE4$_27E9_M_invokeERKSt9_Any_dataOS0_S7_Oj)
	addi.d	$a0, $a0, %pc_lo12(_ZNSt17_Function_handlerIFjPfS0_jEZ4mainE4$_27E9_M_invokeERKSt9_Any_dataOS0_S7_Oj)
	lu12i.w	$a1, 2
	ori	$a1, $a1, 3520
	add.d	$a1, $sp, $a1
	st.d	$a0, $a1, 0
	pcalau12i	$a0, %pc_hi20(_ZNSt17_Function_handlerIFjPfS0_jEZ4mainE4$_27E10_M_managerERSt9_Any_dataRKS4_St18_Manager_operation)
	addi.d	$a0, $a0, %pc_lo12(_ZNSt17_Function_handlerIFjPfS0_jEZ4mainE4$_27E10_M_managerERSt9_Any_dataRKS4_St18_Manager_operation)
	lu12i.w	$a1, 2
	ori	$a1, $a1, 3512
	add.d	$a1, $sp, $a1
	st.d	$a0, $a1, 0
.Ltmp195:                               # EH_LABEL
	pcalau12i	$a0, %pc_hi20(.L.str.13)
	addi.d	$a2, $a0, %pc_lo12(.L.str.13)
	lu12i.w	$a0, 2
	ori	$a0, $a0, 3528
	add.d	$a0, $sp, $a0
	lu12i.w	$a1, 2
	ori	$a1, $a1, 3496
	add.d	$a1, $sp, $a1
	pcaddu18i	$ra, %call36(_ZL19checkVectorFunctionIjfEvSt8functionIFT_PT0_S3_jEES5_PKc)
	jirl	$ra, $ra, 0
.Ltmp196:                               # EH_LABEL
# %bb.68:
	lu12i.w	$a0, 2
	ori	$a0, $a0, 3512
	add.d	$a0, $sp, $a0
	ld.d	$a3, $a0, 0
	beqz	$a3, .LBB0_70
# %bb.69:
.Ltmp204:                               # EH_LABEL
	lu12i.w	$a0, 2
	ori	$a0, $a0, 3496
	add.d	$a0, $sp, $a0
	lu12i.w	$a1, 2
	ori	$a1, $a1, 3496
	add.d	$a1, $sp, $a1
	ori	$a2, $zero, 3
	jirl	$ra, $a3, 0
.Ltmp205:                               # EH_LABEL
.LBB0_70:                               # %_ZNSt14_Function_baseD2Ev.exit54
	lu12i.w	$a0, 2
	ori	$a0, $a0, 3544
	add.d	$a0, $sp, $a0
	ld.d	$a3, $a0, 0
	beqz	$a3, .LBB0_72
# %bb.71:
.Ltmp207:                               # EH_LABEL
	lu12i.w	$a0, 2
	ori	$a0, $a0, 3528
	add.d	$a0, $sp, $a0
	lu12i.w	$a1, 2
	ori	$a1, $a1, 3528
	add.d	$a1, $sp, $a1
	ori	$a2, $zero, 3
	jirl	$ra, $a3, 0
.Ltmp208:                               # EH_LABEL
.LBB0_72:                               # %_ZNSt14_Function_baseD2Ev.exit56
	vld	$vr0, $sp, 16                   # 16-byte Folded Reload
	lu12i.w	$a0, 2
	ori	$a0, $a0, 3464
	add.d	$a0, $sp, $a0
	vst	$vr0, $a0, 0
	pcalau12i	$a0, %pc_hi20(_ZNSt17_Function_handlerIFjPfS0_jEZ4mainE4$_28E9_M_invokeERKSt9_Any_dataOS0_S7_Oj)
	addi.d	$a0, $a0, %pc_lo12(_ZNSt17_Function_handlerIFjPfS0_jEZ4mainE4$_28E9_M_invokeERKSt9_Any_dataOS0_S7_Oj)
	lu12i.w	$a1, 2
	ori	$a1, $a1, 3488
	add.d	$a1, $sp, $a1
	st.d	$a0, $a1, 0
	pcalau12i	$a0, %pc_hi20(_ZNSt17_Function_handlerIFjPfS0_jEZ4mainE4$_28E10_M_managerERSt9_Any_dataRKS4_St18_Manager_operation)
	addi.d	$a0, $a0, %pc_lo12(_ZNSt17_Function_handlerIFjPfS0_jEZ4mainE4$_28E10_M_managerERSt9_Any_dataRKS4_St18_Manager_operation)
	lu12i.w	$a1, 2
	ori	$a1, $a1, 3480
	add.d	$a1, $sp, $a1
	st.d	$a0, $a1, 0
	lu12i.w	$a0, 2
	ori	$a0, $a0, 3432
	add.d	$a0, $sp, $a0
	vst	$vr0, $a0, 0
	pcalau12i	$a0, %pc_hi20(_ZNSt17_Function_handlerIFjPfS0_jEZ4mainE4$_29E9_M_invokeERKSt9_Any_dataOS0_S7_Oj)
	addi.d	$a0, $a0, %pc_lo12(_ZNSt17_Function_handlerIFjPfS0_jEZ4mainE4$_29E9_M_invokeERKSt9_Any_dataOS0_S7_Oj)
	lu12i.w	$a1, 2
	ori	$a1, $a1, 3456
	add.d	$a1, $sp, $a1
	st.d	$a0, $a1, 0
	pcalau12i	$a0, %pc_hi20(_ZNSt17_Function_handlerIFjPfS0_jEZ4mainE4$_29E10_M_managerERSt9_Any_dataRKS4_St18_Manager_operation)
	addi.d	$a0, $a0, %pc_lo12(_ZNSt17_Function_handlerIFjPfS0_jEZ4mainE4$_29E10_M_managerERSt9_Any_dataRKS4_St18_Manager_operation)
	lu12i.w	$a1, 2
	ori	$a1, $a1, 3448
	add.d	$a1, $sp, $a1
	st.d	$a0, $a1, 0
.Ltmp210:                               # EH_LABEL
	pcalau12i	$a0, %pc_hi20(.L.str.14)
	addi.d	$a2, $a0, %pc_lo12(.L.str.14)
	lu12i.w	$a0, 2
	ori	$a0, $a0, 3464
	add.d	$a0, $sp, $a0
	lu12i.w	$a1, 2
	ori	$a1, $a1, 3432
	add.d	$a1, $sp, $a1
	pcaddu18i	$ra, %call36(_ZL19checkVectorFunctionIjfEvSt8functionIFT_PT0_S3_jEES5_PKc)
	jirl	$ra, $ra, 0
.Ltmp211:                               # EH_LABEL
# %bb.73:
	lu12i.w	$a0, 2
	ori	$a0, $a0, 3448
	add.d	$a0, $sp, $a0
	ld.d	$a3, $a0, 0
	beqz	$a3, .LBB0_75
# %bb.74:
.Ltmp219:                               # EH_LABEL
	lu12i.w	$a0, 2
	ori	$a0, $a0, 3432
	add.d	$a0, $sp, $a0
	lu12i.w	$a1, 2
	ori	$a1, $a1, 3432
	add.d	$a1, $sp, $a1
	ori	$a2, $zero, 3
	jirl	$ra, $a3, 0
.Ltmp220:                               # EH_LABEL
.LBB0_75:                               # %_ZNSt14_Function_baseD2Ev.exit58
	lu12i.w	$a0, 2
	ori	$a0, $a0, 3480
	add.d	$a0, $sp, $a0
	ld.d	$a3, $a0, 0
	beqz	$a3, .LBB0_77
# %bb.76:
.Ltmp222:                               # EH_LABEL
	lu12i.w	$a0, 2
	ori	$a0, $a0, 3464
	add.d	$a0, $sp, $a0
	lu12i.w	$a1, 2
	ori	$a1, $a1, 3464
	add.d	$a1, $sp, $a1
	ori	$a2, $zero, 3
	jirl	$ra, $a3, 0
.Ltmp223:                               # EH_LABEL
.LBB0_77:                               # %_ZNSt14_Function_baseD2Ev.exit60
	vld	$vr0, $sp, 16                   # 16-byte Folded Reload
	lu12i.w	$a0, 2
	ori	$a0, $a0, 3400
	add.d	$a0, $sp, $a0
	vst	$vr0, $a0, 0
	pcalau12i	$a0, %pc_hi20(_ZNSt17_Function_handlerIFjPfS0_jEZ4mainE4$_30E9_M_invokeERKSt9_Any_dataOS0_S7_Oj)
	addi.d	$a0, $a0, %pc_lo12(_ZNSt17_Function_handlerIFjPfS0_jEZ4mainE4$_30E9_M_invokeERKSt9_Any_dataOS0_S7_Oj)
	lu12i.w	$a1, 2
	ori	$a1, $a1, 3424
	add.d	$a1, $sp, $a1
	st.d	$a0, $a1, 0
	pcalau12i	$a0, %pc_hi20(_ZNSt17_Function_handlerIFjPfS0_jEZ4mainE4$_30E10_M_managerERSt9_Any_dataRKS4_St18_Manager_operation)
	addi.d	$a0, $a0, %pc_lo12(_ZNSt17_Function_handlerIFjPfS0_jEZ4mainE4$_30E10_M_managerERSt9_Any_dataRKS4_St18_Manager_operation)
	lu12i.w	$a1, 2
	ori	$a1, $a1, 3416
	add.d	$a1, $sp, $a1
	st.d	$a0, $a1, 0
	lu12i.w	$a0, 2
	ori	$a0, $a0, 3368
	add.d	$a0, $sp, $a0
	vst	$vr0, $a0, 0
	pcalau12i	$a0, %pc_hi20(_ZNSt17_Function_handlerIFjPfS0_jEZ4mainE4$_31E9_M_invokeERKSt9_Any_dataOS0_S7_Oj)
	addi.d	$a0, $a0, %pc_lo12(_ZNSt17_Function_handlerIFjPfS0_jEZ4mainE4$_31E9_M_invokeERKSt9_Any_dataOS0_S7_Oj)
	lu12i.w	$a1, 2
	ori	$a1, $a1, 3392
	add.d	$a1, $sp, $a1
	st.d	$a0, $a1, 0
	pcalau12i	$a0, %pc_hi20(_ZNSt17_Function_handlerIFjPfS0_jEZ4mainE4$_31E10_M_managerERSt9_Any_dataRKS4_St18_Manager_operation)
	addi.d	$a0, $a0, %pc_lo12(_ZNSt17_Function_handlerIFjPfS0_jEZ4mainE4$_31E10_M_managerERSt9_Any_dataRKS4_St18_Manager_operation)
	lu12i.w	$a1, 2
	ori	$a1, $a1, 3384
	add.d	$a1, $sp, $a1
	st.d	$a0, $a1, 0
.Ltmp225:                               # EH_LABEL
	pcalau12i	$a0, %pc_hi20(.L.str.15)
	addi.d	$a2, $a0, %pc_lo12(.L.str.15)
	lu12i.w	$a0, 2
	ori	$a0, $a0, 3400
	add.d	$a0, $sp, $a0
	lu12i.w	$a1, 2
	ori	$a1, $a1, 3368
	add.d	$a1, $sp, $a1
	pcaddu18i	$ra, %call36(_ZL19checkVectorFunctionIjfEvSt8functionIFT_PT0_S3_jEES5_PKc)
	jirl	$ra, $ra, 0
.Ltmp226:                               # EH_LABEL
# %bb.78:
	lu12i.w	$a0, 2
	ori	$a0, $a0, 3384
	add.d	$a0, $sp, $a0
	ld.d	$a3, $a0, 0
	beqz	$a3, .LBB0_80
# %bb.79:
.Ltmp234:                               # EH_LABEL
	lu12i.w	$a0, 2
	ori	$a0, $a0, 3368
	add.d	$a0, $sp, $a0
	lu12i.w	$a1, 2
	ori	$a1, $a1, 3368
	add.d	$a1, $sp, $a1
	ori	$a2, $zero, 3
	jirl	$ra, $a3, 0
.Ltmp235:                               # EH_LABEL
.LBB0_80:                               # %_ZNSt14_Function_baseD2Ev.exit62
	lu12i.w	$a0, 2
	ori	$a0, $a0, 3416
	add.d	$a0, $sp, $a0
	ld.d	$a3, $a0, 0
	beqz	$a3, .LBB0_82
# %bb.81:
.Ltmp237:                               # EH_LABEL
	lu12i.w	$a0, 2
	ori	$a0, $a0, 3400
	add.d	$a0, $sp, $a0
	lu12i.w	$a1, 2
	ori	$a1, $a1, 3400
	add.d	$a1, $sp, $a1
	ori	$a2, $zero, 3
	jirl	$ra, $a3, 0
.Ltmp238:                               # EH_LABEL
.LBB0_82:                               # %_ZNSt14_Function_baseD2Ev.exit64
	vld	$vr0, $sp, 16                   # 16-byte Folded Reload
	lu12i.w	$a0, 2
	ori	$a0, $a0, 3336
	add.d	$a0, $sp, $a0
	vst	$vr0, $a0, 0
	pcalau12i	$a0, %pc_hi20(_ZNSt17_Function_handlerIFjPfS0_jEZ4mainE4$_32E9_M_invokeERKSt9_Any_dataOS0_S7_Oj)
	addi.d	$a0, $a0, %pc_lo12(_ZNSt17_Function_handlerIFjPfS0_jEZ4mainE4$_32E9_M_invokeERKSt9_Any_dataOS0_S7_Oj)
	lu12i.w	$a1, 2
	ori	$a1, $a1, 3360
	add.d	$a1, $sp, $a1
	st.d	$a0, $a1, 0
	pcalau12i	$a0, %pc_hi20(_ZNSt17_Function_handlerIFjPfS0_jEZ4mainE4$_32E10_M_managerERSt9_Any_dataRKS4_St18_Manager_operation)
	addi.d	$a0, $a0, %pc_lo12(_ZNSt17_Function_handlerIFjPfS0_jEZ4mainE4$_32E10_M_managerERSt9_Any_dataRKS4_St18_Manager_operation)
	lu12i.w	$a1, 2
	ori	$a1, $a1, 3352
	add.d	$a1, $sp, $a1
	st.d	$a0, $a1, 0
	lu12i.w	$a0, 2
	ori	$a0, $a0, 3304
	add.d	$a0, $sp, $a0
	vst	$vr0, $a0, 0
	pcalau12i	$a0, %pc_hi20(_ZNSt17_Function_handlerIFjPfS0_jEZ4mainE4$_33E9_M_invokeERKSt9_Any_dataOS0_S7_Oj)
	addi.d	$a0, $a0, %pc_lo12(_ZNSt17_Function_handlerIFjPfS0_jEZ4mainE4$_33E9_M_invokeERKSt9_Any_dataOS0_S7_Oj)
	lu12i.w	$a1, 2
	ori	$a1, $a1, 3328
	add.d	$a1, $sp, $a1
	st.d	$a0, $a1, 0
	pcalau12i	$a0, %pc_hi20(_ZNSt17_Function_handlerIFjPfS0_jEZ4mainE4$_33E10_M_managerERSt9_Any_dataRKS4_St18_Manager_operation)
	addi.d	$a0, $a0, %pc_lo12(_ZNSt17_Function_handlerIFjPfS0_jEZ4mainE4$_33E10_M_managerERSt9_Any_dataRKS4_St18_Manager_operation)
	lu12i.w	$a1, 2
	ori	$a1, $a1, 3320
	add.d	$a1, $sp, $a1
	st.d	$a0, $a1, 0
.Ltmp240:                               # EH_LABEL
	pcalau12i	$a0, %pc_hi20(.L.str.16)
	addi.d	$a2, $a0, %pc_lo12(.L.str.16)
	lu12i.w	$a0, 2
	ori	$a0, $a0, 3336
	add.d	$a0, $sp, $a0
	lu12i.w	$a1, 2
	ori	$a1, $a1, 3304
	add.d	$a1, $sp, $a1
	pcaddu18i	$ra, %call36(_ZL19checkVectorFunctionIjfEvSt8functionIFT_PT0_S3_jEES5_PKc)
	jirl	$ra, $ra, 0
.Ltmp241:                               # EH_LABEL
# %bb.83:
	lu12i.w	$a0, 2
	ori	$a0, $a0, 3320
	add.d	$a0, $sp, $a0
	ld.d	$a3, $a0, 0
	beqz	$a3, .LBB0_85
# %bb.84:
.Ltmp249:                               # EH_LABEL
	lu12i.w	$a0, 2
	ori	$a0, $a0, 3304
	add.d	$a0, $sp, $a0
	lu12i.w	$a1, 2
	ori	$a1, $a1, 3304
	add.d	$a1, $sp, $a1
	ori	$a2, $zero, 3
	jirl	$ra, $a3, 0
.Ltmp250:                               # EH_LABEL
.LBB0_85:                               # %_ZNSt14_Function_baseD2Ev.exit66
	lu12i.w	$a0, 2
	ori	$a0, $a0, 3352
	add.d	$a0, $sp, $a0
	ld.d	$a3, $a0, 0
	beqz	$a3, .LBB0_87
# %bb.86:
.Ltmp252:                               # EH_LABEL
	lu12i.w	$a0, 2
	ori	$a0, $a0, 3336
	add.d	$a0, $sp, $a0
	lu12i.w	$a1, 2
	ori	$a1, $a1, 3336
	add.d	$a1, $sp, $a1
	ori	$a2, $zero, 3
	jirl	$ra, $a3, 0
.Ltmp253:                               # EH_LABEL
.LBB0_87:                               # %_ZNSt14_Function_baseD2Ev.exit68
	vld	$vr0, $sp, 16                   # 16-byte Folded Reload
	lu12i.w	$a0, 2
	ori	$a0, $a0, 3272
	add.d	$a0, $sp, $a0
	vst	$vr0, $a0, 0
	pcalau12i	$a0, %pc_hi20(_ZNSt17_Function_handlerIFjPfS0_jEZ4mainE4$_34E9_M_invokeERKSt9_Any_dataOS0_S7_Oj)
	addi.d	$a0, $a0, %pc_lo12(_ZNSt17_Function_handlerIFjPfS0_jEZ4mainE4$_34E9_M_invokeERKSt9_Any_dataOS0_S7_Oj)
	lu12i.w	$a1, 2
	ori	$a1, $a1, 3296
	add.d	$a1, $sp, $a1
	st.d	$a0, $a1, 0
	pcalau12i	$a0, %pc_hi20(_ZNSt17_Function_handlerIFjPfS0_jEZ4mainE4$_34E10_M_managerERSt9_Any_dataRKS4_St18_Manager_operation)
	addi.d	$a0, $a0, %pc_lo12(_ZNSt17_Function_handlerIFjPfS0_jEZ4mainE4$_34E10_M_managerERSt9_Any_dataRKS4_St18_Manager_operation)
	lu12i.w	$a1, 2
	ori	$a1, $a1, 3288
	add.d	$a1, $sp, $a1
	st.d	$a0, $a1, 0
	lu12i.w	$a0, 2
	ori	$a0, $a0, 3240
	add.d	$a0, $sp, $a0
	vst	$vr0, $a0, 0
	pcalau12i	$a0, %pc_hi20(_ZNSt17_Function_handlerIFjPfS0_jEZ4mainE4$_35E9_M_invokeERKSt9_Any_dataOS0_S7_Oj)
	addi.d	$a0, $a0, %pc_lo12(_ZNSt17_Function_handlerIFjPfS0_jEZ4mainE4$_35E9_M_invokeERKSt9_Any_dataOS0_S7_Oj)
	lu12i.w	$a1, 2
	ori	$a1, $a1, 3264
	add.d	$a1, $sp, $a1
	st.d	$a0, $a1, 0
	pcalau12i	$a0, %pc_hi20(_ZNSt17_Function_handlerIFjPfS0_jEZ4mainE4$_35E10_M_managerERSt9_Any_dataRKS4_St18_Manager_operation)
	addi.d	$a0, $a0, %pc_lo12(_ZNSt17_Function_handlerIFjPfS0_jEZ4mainE4$_35E10_M_managerERSt9_Any_dataRKS4_St18_Manager_operation)
	lu12i.w	$a1, 2
	ori	$a1, $a1, 3256
	add.d	$a1, $sp, $a1
	st.d	$a0, $a1, 0
.Ltmp255:                               # EH_LABEL
	pcalau12i	$a0, %pc_hi20(.L.str.17)
	addi.d	$a2, $a0, %pc_lo12(.L.str.17)
	lu12i.w	$a0, 2
	ori	$a0, $a0, 3272
	add.d	$a0, $sp, $a0
	lu12i.w	$a1, 2
	ori	$a1, $a1, 3240
	add.d	$a1, $sp, $a1
	pcaddu18i	$ra, %call36(_ZL19checkVectorFunctionIjfEvSt8functionIFT_PT0_S3_jEES5_PKc)
	jirl	$ra, $ra, 0
.Ltmp256:                               # EH_LABEL
# %bb.88:
	lu12i.w	$a0, 2
	ori	$a0, $a0, 3256
	add.d	$a0, $sp, $a0
	ld.d	$a3, $a0, 0
	beqz	$a3, .LBB0_90
# %bb.89:
.Ltmp264:                               # EH_LABEL
	lu12i.w	$a0, 2
	ori	$a0, $a0, 3240
	add.d	$a0, $sp, $a0
	lu12i.w	$a1, 2
	ori	$a1, $a1, 3240
	add.d	$a1, $sp, $a1
	ori	$a2, $zero, 3
	jirl	$ra, $a3, 0
.Ltmp265:                               # EH_LABEL
.LBB0_90:                               # %_ZNSt14_Function_baseD2Ev.exit70
	lu12i.w	$a0, 2
	ori	$a0, $a0, 3288
	add.d	$a0, $sp, $a0
	ld.d	$a3, $a0, 0
	beqz	$a3, .LBB0_92
# %bb.91:
.Ltmp267:                               # EH_LABEL
	lu12i.w	$a0, 2
	ori	$a0, $a0, 3272
	add.d	$a0, $sp, $a0
	lu12i.w	$a1, 2
	ori	$a1, $a1, 3272
	add.d	$a1, $sp, $a1
	ori	$a2, $zero, 3
	jirl	$ra, $a3, 0
.Ltmp268:                               # EH_LABEL
.LBB0_92:                               # %_ZNSt14_Function_baseD2Ev.exit72
	vld	$vr0, $sp, 16                   # 16-byte Folded Reload
	lu12i.w	$a0, 2
	ori	$a0, $a0, 3208
	add.d	$a0, $sp, $a0
	vst	$vr0, $a0, 0
	pcalau12i	$a0, %pc_hi20(_ZNSt17_Function_handlerIFjPfS0_jEZ4mainE4$_36E9_M_invokeERKSt9_Any_dataOS0_S7_Oj)
	addi.d	$a0, $a0, %pc_lo12(_ZNSt17_Function_handlerIFjPfS0_jEZ4mainE4$_36E9_M_invokeERKSt9_Any_dataOS0_S7_Oj)
	lu12i.w	$a1, 2
	ori	$a1, $a1, 3232
	add.d	$a1, $sp, $a1
	st.d	$a0, $a1, 0
	pcalau12i	$a0, %pc_hi20(_ZNSt17_Function_handlerIFjPfS0_jEZ4mainE4$_36E10_M_managerERSt9_Any_dataRKS4_St18_Manager_operation)
	addi.d	$a0, $a0, %pc_lo12(_ZNSt17_Function_handlerIFjPfS0_jEZ4mainE4$_36E10_M_managerERSt9_Any_dataRKS4_St18_Manager_operation)
	lu12i.w	$a1, 2
	ori	$a1, $a1, 3224
	add.d	$a1, $sp, $a1
	st.d	$a0, $a1, 0
	lu12i.w	$a0, 2
	ori	$a0, $a0, 3176
	add.d	$a0, $sp, $a0
	vst	$vr0, $a0, 0
	pcalau12i	$a0, %pc_hi20(_ZNSt17_Function_handlerIFjPfS0_jEZ4mainE4$_37E9_M_invokeERKSt9_Any_dataOS0_S7_Oj)
	addi.d	$a0, $a0, %pc_lo12(_ZNSt17_Function_handlerIFjPfS0_jEZ4mainE4$_37E9_M_invokeERKSt9_Any_dataOS0_S7_Oj)
	lu12i.w	$a1, 2
	ori	$a1, $a1, 3200
	add.d	$a1, $sp, $a1
	st.d	$a0, $a1, 0
	pcalau12i	$a0, %pc_hi20(_ZNSt17_Function_handlerIFjPfS0_jEZ4mainE4$_37E10_M_managerERSt9_Any_dataRKS4_St18_Manager_operation)
	addi.d	$a0, $a0, %pc_lo12(_ZNSt17_Function_handlerIFjPfS0_jEZ4mainE4$_37E10_M_managerERSt9_Any_dataRKS4_St18_Manager_operation)
	lu12i.w	$a1, 2
	ori	$a1, $a1, 3192
	add.d	$a1, $sp, $a1
	st.d	$a0, $a1, 0
.Ltmp270:                               # EH_LABEL
	pcalau12i	$a0, %pc_hi20(.L.str.18)
	addi.d	$a2, $a0, %pc_lo12(.L.str.18)
	lu12i.w	$a0, 2
	ori	$a0, $a0, 3208
	add.d	$a0, $sp, $a0
	lu12i.w	$a1, 2
	ori	$a1, $a1, 3176
	add.d	$a1, $sp, $a1
	pcaddu18i	$ra, %call36(_ZL19checkVectorFunctionIjfEvSt8functionIFT_PT0_S3_jEES5_PKc)
	jirl	$ra, $ra, 0
.Ltmp271:                               # EH_LABEL
# %bb.93:
	lu12i.w	$a0, 2
	ori	$a0, $a0, 3192
	add.d	$a0, $sp, $a0
	ld.d	$a3, $a0, 0
	beqz	$a3, .LBB0_95
# %bb.94:
.Ltmp279:                               # EH_LABEL
	lu12i.w	$a0, 2
	ori	$a0, $a0, 3176
	add.d	$a0, $sp, $a0
	lu12i.w	$a1, 2
	ori	$a1, $a1, 3176
	add.d	$a1, $sp, $a1
	ori	$a2, $zero, 3
	jirl	$ra, $a3, 0
.Ltmp280:                               # EH_LABEL
.LBB0_95:                               # %_ZNSt14_Function_baseD2Ev.exit74
	lu12i.w	$a0, 2
	ori	$a0, $a0, 3224
	add.d	$a0, $sp, $a0
	ld.d	$a3, $a0, 0
	beqz	$a3, .LBB0_97
# %bb.96:
.Ltmp282:                               # EH_LABEL
	lu12i.w	$a0, 2
	ori	$a0, $a0, 3208
	add.d	$a0, $sp, $a0
	lu12i.w	$a1, 2
	ori	$a1, $a1, 3208
	add.d	$a1, $sp, $a1
	ori	$a2, $zero, 3
	jirl	$ra, $a3, 0
.Ltmp283:                               # EH_LABEL
.LBB0_97:                               # %_ZNSt14_Function_baseD2Ev.exit76
	vld	$vr0, $sp, 16                   # 16-byte Folded Reload
	lu12i.w	$a0, 2
	ori	$a0, $a0, 3144
	add.d	$a0, $sp, $a0
	vst	$vr0, $a0, 0
	pcalau12i	$a0, %pc_hi20(_ZNSt17_Function_handlerIFjPfS0_jEZ4mainE4$_38E9_M_invokeERKSt9_Any_dataOS0_S7_Oj)
	addi.d	$a0, $a0, %pc_lo12(_ZNSt17_Function_handlerIFjPfS0_jEZ4mainE4$_38E9_M_invokeERKSt9_Any_dataOS0_S7_Oj)
	lu12i.w	$a1, 2
	ori	$a1, $a1, 3168
	add.d	$a1, $sp, $a1
	st.d	$a0, $a1, 0
	pcalau12i	$a0, %pc_hi20(_ZNSt17_Function_handlerIFjPfS0_jEZ4mainE4$_38E10_M_managerERSt9_Any_dataRKS4_St18_Manager_operation)
	addi.d	$a0, $a0, %pc_lo12(_ZNSt17_Function_handlerIFjPfS0_jEZ4mainE4$_38E10_M_managerERSt9_Any_dataRKS4_St18_Manager_operation)
	lu12i.w	$a1, 2
	ori	$a1, $a1, 3160
	add.d	$a1, $sp, $a1
	st.d	$a0, $a1, 0
	lu12i.w	$a0, 2
	ori	$a0, $a0, 3112
	add.d	$a0, $sp, $a0
	vst	$vr0, $a0, 0
	pcalau12i	$a0, %pc_hi20(_ZNSt17_Function_handlerIFjPfS0_jEZ4mainE4$_39E9_M_invokeERKSt9_Any_dataOS0_S7_Oj)
	addi.d	$a0, $a0, %pc_lo12(_ZNSt17_Function_handlerIFjPfS0_jEZ4mainE4$_39E9_M_invokeERKSt9_Any_dataOS0_S7_Oj)
	lu12i.w	$a1, 2
	ori	$a1, $a1, 3136
	add.d	$a1, $sp, $a1
	st.d	$a0, $a1, 0
	pcalau12i	$a0, %pc_hi20(_ZNSt17_Function_handlerIFjPfS0_jEZ4mainE4$_39E10_M_managerERSt9_Any_dataRKS4_St18_Manager_operation)
	addi.d	$a0, $a0, %pc_lo12(_ZNSt17_Function_handlerIFjPfS0_jEZ4mainE4$_39E10_M_managerERSt9_Any_dataRKS4_St18_Manager_operation)
	lu12i.w	$a1, 2
	ori	$a1, $a1, 3128
	add.d	$a1, $sp, $a1
	st.d	$a0, $a1, 0
.Ltmp285:                               # EH_LABEL
	pcalau12i	$a0, %pc_hi20(.L.str.19)
	addi.d	$a2, $a0, %pc_lo12(.L.str.19)
	lu12i.w	$a0, 2
	ori	$a0, $a0, 3144
	add.d	$a0, $sp, $a0
	lu12i.w	$a1, 2
	ori	$a1, $a1, 3112
	add.d	$a1, $sp, $a1
	pcaddu18i	$ra, %call36(_ZL19checkVectorFunctionIjfEvSt8functionIFT_PT0_S3_jEES5_PKc)
	jirl	$ra, $ra, 0
.Ltmp286:                               # EH_LABEL
# %bb.98:
	lu12i.w	$a0, 2
	ori	$a0, $a0, 3128
	add.d	$a0, $sp, $a0
	ld.d	$a3, $a0, 0
	beqz	$a3, .LBB0_100
# %bb.99:
.Ltmp294:                               # EH_LABEL
	lu12i.w	$a0, 2
	ori	$a0, $a0, 3112
	add.d	$a0, $sp, $a0
	lu12i.w	$a1, 2
	ori	$a1, $a1, 3112
	add.d	$a1, $sp, $a1
	ori	$a2, $zero, 3
	jirl	$ra, $a3, 0
.Ltmp295:                               # EH_LABEL
.LBB0_100:                              # %_ZNSt14_Function_baseD2Ev.exit78
	lu12i.w	$a0, 2
	ori	$a0, $a0, 3160
	add.d	$a0, $sp, $a0
	ld.d	$a3, $a0, 0
	beqz	$a3, .LBB0_102
# %bb.101:
.Ltmp297:                               # EH_LABEL
	lu12i.w	$a0, 2
	ori	$a0, $a0, 3144
	add.d	$a0, $sp, $a0
	lu12i.w	$a1, 2
	ori	$a1, $a1, 3144
	add.d	$a1, $sp, $a1
	ori	$a2, $zero, 3
	jirl	$ra, $a3, 0
.Ltmp298:                               # EH_LABEL
.LBB0_102:                              # %_ZNSt14_Function_baseD2Ev.exit80
	vld	$vr0, $sp, 16                   # 16-byte Folded Reload
	lu12i.w	$a0, 2
	ori	$a0, $a0, 3080
	add.d	$a0, $sp, $a0
	vst	$vr0, $a0, 0
	pcalau12i	$a0, %pc_hi20(_ZNSt17_Function_handlerIFjPfS0_jEZ4mainE4$_40E9_M_invokeERKSt9_Any_dataOS0_S7_Oj)
	addi.d	$a0, $a0, %pc_lo12(_ZNSt17_Function_handlerIFjPfS0_jEZ4mainE4$_40E9_M_invokeERKSt9_Any_dataOS0_S7_Oj)
	lu12i.w	$a1, 2
	ori	$a1, $a1, 3104
	add.d	$a1, $sp, $a1
	st.d	$a0, $a1, 0
	pcalau12i	$a0, %pc_hi20(_ZNSt17_Function_handlerIFjPfS0_jEZ4mainE4$_40E10_M_managerERSt9_Any_dataRKS4_St18_Manager_operation)
	addi.d	$a0, $a0, %pc_lo12(_ZNSt17_Function_handlerIFjPfS0_jEZ4mainE4$_40E10_M_managerERSt9_Any_dataRKS4_St18_Manager_operation)
	lu12i.w	$a1, 2
	ori	$a1, $a1, 3096
	add.d	$a1, $sp, $a1
	st.d	$a0, $a1, 0
	lu12i.w	$a0, 2
	ori	$a0, $a0, 3048
	add.d	$a0, $sp, $a0
	vst	$vr0, $a0, 0
	pcalau12i	$a0, %pc_hi20(_ZNSt17_Function_handlerIFjPfS0_jEZ4mainE4$_41E9_M_invokeERKSt9_Any_dataOS0_S7_Oj)
	addi.d	$a0, $a0, %pc_lo12(_ZNSt17_Function_handlerIFjPfS0_jEZ4mainE4$_41E9_M_invokeERKSt9_Any_dataOS0_S7_Oj)
	lu12i.w	$a1, 2
	ori	$a1, $a1, 3072
	add.d	$a1, $sp, $a1
	st.d	$a0, $a1, 0
	pcalau12i	$a0, %pc_hi20(_ZNSt17_Function_handlerIFjPfS0_jEZ4mainE4$_41E10_M_managerERSt9_Any_dataRKS4_St18_Manager_operation)
	addi.d	$a0, $a0, %pc_lo12(_ZNSt17_Function_handlerIFjPfS0_jEZ4mainE4$_41E10_M_managerERSt9_Any_dataRKS4_St18_Manager_operation)
	lu12i.w	$a1, 2
	ori	$a1, $a1, 3064
	add.d	$a1, $sp, $a1
	st.d	$a0, $a1, 0
.Ltmp300:                               # EH_LABEL
	pcalau12i	$a0, %pc_hi20(.L.str.20)
	addi.d	$a2, $a0, %pc_lo12(.L.str.20)
	lu12i.w	$a0, 2
	ori	$a0, $a0, 3080
	add.d	$a0, $sp, $a0
	lu12i.w	$a1, 2
	ori	$a1, $a1, 3048
	add.d	$a1, $sp, $a1
	pcaddu18i	$ra, %call36(_ZL19checkVectorFunctionIjfEvSt8functionIFT_PT0_S3_jEES5_PKc)
	jirl	$ra, $ra, 0
.Ltmp301:                               # EH_LABEL
# %bb.103:
	lu12i.w	$a0, 2
	ori	$a0, $a0, 3064
	add.d	$a0, $sp, $a0
	ld.d	$a3, $a0, 0
	beqz	$a3, .LBB0_105
# %bb.104:
.Ltmp309:                               # EH_LABEL
	lu12i.w	$a0, 2
	ori	$a0, $a0, 3048
	add.d	$a0, $sp, $a0
	lu12i.w	$a1, 2
	ori	$a1, $a1, 3048
	add.d	$a1, $sp, $a1
	ori	$a2, $zero, 3
	jirl	$ra, $a3, 0
.Ltmp310:                               # EH_LABEL
.LBB0_105:                              # %_ZNSt14_Function_baseD2Ev.exit82
	lu12i.w	$a0, 2
	ori	$a0, $a0, 3096
	add.d	$a0, $sp, $a0
	ld.d	$a3, $a0, 0
	beqz	$a3, .LBB0_107
# %bb.106:
.Ltmp312:                               # EH_LABEL
	lu12i.w	$a0, 2
	ori	$a0, $a0, 3080
	add.d	$a0, $sp, $a0
	lu12i.w	$a1, 2
	ori	$a1, $a1, 3080
	add.d	$a1, $sp, $a1
	ori	$a2, $zero, 3
	jirl	$ra, $a3, 0
.Ltmp313:                               # EH_LABEL
.LBB0_107:                              # %_ZNSt14_Function_baseD2Ev.exit84
	vld	$vr0, $sp, 16                   # 16-byte Folded Reload
	lu12i.w	$a0, 2
	ori	$a0, $a0, 3016
	add.d	$a0, $sp, $a0
	vst	$vr0, $a0, 0
	pcalau12i	$a0, %pc_hi20(_ZNSt17_Function_handlerIFjPfS0_jEZ4mainE4$_42E9_M_invokeERKSt9_Any_dataOS0_S7_Oj)
	addi.d	$a0, $a0, %pc_lo12(_ZNSt17_Function_handlerIFjPfS0_jEZ4mainE4$_42E9_M_invokeERKSt9_Any_dataOS0_S7_Oj)
	lu12i.w	$a1, 2
	ori	$a1, $a1, 3040
	add.d	$a1, $sp, $a1
	st.d	$a0, $a1, 0
	pcalau12i	$a0, %pc_hi20(_ZNSt17_Function_handlerIFjPfS0_jEZ4mainE4$_42E10_M_managerERSt9_Any_dataRKS4_St18_Manager_operation)
	addi.d	$a0, $a0, %pc_lo12(_ZNSt17_Function_handlerIFjPfS0_jEZ4mainE4$_42E10_M_managerERSt9_Any_dataRKS4_St18_Manager_operation)
	lu12i.w	$a1, 2
	ori	$a1, $a1, 3032
	add.d	$a1, $sp, $a1
	st.d	$a0, $a1, 0
	lu12i.w	$a0, 2
	ori	$a0, $a0, 2984
	add.d	$a0, $sp, $a0
	vst	$vr0, $a0, 0
	pcalau12i	$a0, %pc_hi20(_ZNSt17_Function_handlerIFjPfS0_jEZ4mainE4$_43E9_M_invokeERKSt9_Any_dataOS0_S7_Oj)
	addi.d	$a0, $a0, %pc_lo12(_ZNSt17_Function_handlerIFjPfS0_jEZ4mainE4$_43E9_M_invokeERKSt9_Any_dataOS0_S7_Oj)
	lu12i.w	$a1, 2
	ori	$a1, $a1, 3008
	add.d	$a1, $sp, $a1
	st.d	$a0, $a1, 0
	pcalau12i	$a0, %pc_hi20(_ZNSt17_Function_handlerIFjPfS0_jEZ4mainE4$_43E10_M_managerERSt9_Any_dataRKS4_St18_Manager_operation)
	addi.d	$a0, $a0, %pc_lo12(_ZNSt17_Function_handlerIFjPfS0_jEZ4mainE4$_43E10_M_managerERSt9_Any_dataRKS4_St18_Manager_operation)
	lu12i.w	$a1, 2
	ori	$a1, $a1, 3000
	add.d	$a1, $sp, $a1
	st.d	$a0, $a1, 0
.Ltmp315:                               # EH_LABEL
	pcalau12i	$a0, %pc_hi20(.L.str.21)
	addi.d	$a2, $a0, %pc_lo12(.L.str.21)
	lu12i.w	$a0, 2
	ori	$a0, $a0, 3016
	add.d	$a0, $sp, $a0
	lu12i.w	$a1, 2
	ori	$a1, $a1, 2984
	add.d	$a1, $sp, $a1
	pcaddu18i	$ra, %call36(_ZL19checkVectorFunctionIjfEvSt8functionIFT_PT0_S3_jEES5_PKc)
	jirl	$ra, $ra, 0
.Ltmp316:                               # EH_LABEL
# %bb.108:
	lu12i.w	$a0, 2
	ori	$a0, $a0, 3000
	add.d	$a0, $sp, $a0
	ld.d	$a3, $a0, 0
	beqz	$a3, .LBB0_110
# %bb.109:
.Ltmp324:                               # EH_LABEL
	lu12i.w	$a0, 2
	ori	$a0, $a0, 2984
	add.d	$a0, $sp, $a0
	lu12i.w	$a1, 2
	ori	$a1, $a1, 2984
	add.d	$a1, $sp, $a1
	ori	$a2, $zero, 3
	jirl	$ra, $a3, 0
.Ltmp325:                               # EH_LABEL
.LBB0_110:                              # %_ZNSt14_Function_baseD2Ev.exit86
	lu12i.w	$a0, 2
	ori	$a0, $a0, 3032
	add.d	$a0, $sp, $a0
	ld.d	$a3, $a0, 0
	beqz	$a3, .LBB0_112
# %bb.111:
.Ltmp327:                               # EH_LABEL
	lu12i.w	$a0, 2
	ori	$a0, $a0, 3016
	add.d	$a0, $sp, $a0
	lu12i.w	$a1, 2
	ori	$a1, $a1, 3016
	add.d	$a1, $sp, $a1
	ori	$a2, $zero, 3
	jirl	$ra, $a3, 0
.Ltmp328:                               # EH_LABEL
.LBB0_112:                              # %_ZNSt14_Function_baseD2Ev.exit88
	vld	$vr0, $sp, 16                   # 16-byte Folded Reload
	lu12i.w	$a0, 2
	ori	$a0, $a0, 2952
	add.d	$a0, $sp, $a0
	vst	$vr0, $a0, 0
	pcalau12i	$a0, %pc_hi20(_ZNSt17_Function_handlerIFjPfS0_jEZ4mainE4$_44E9_M_invokeERKSt9_Any_dataOS0_S7_Oj)
	addi.d	$a0, $a0, %pc_lo12(_ZNSt17_Function_handlerIFjPfS0_jEZ4mainE4$_44E9_M_invokeERKSt9_Any_dataOS0_S7_Oj)
	lu12i.w	$a1, 2
	ori	$a1, $a1, 2976
	add.d	$a1, $sp, $a1
	st.d	$a0, $a1, 0
	pcalau12i	$a0, %pc_hi20(_ZNSt17_Function_handlerIFjPfS0_jEZ4mainE4$_44E10_M_managerERSt9_Any_dataRKS4_St18_Manager_operation)
	addi.d	$a0, $a0, %pc_lo12(_ZNSt17_Function_handlerIFjPfS0_jEZ4mainE4$_44E10_M_managerERSt9_Any_dataRKS4_St18_Manager_operation)
	lu12i.w	$a1, 2
	ori	$a1, $a1, 2968
	add.d	$a1, $sp, $a1
	st.d	$a0, $a1, 0
	lu12i.w	$a0, 2
	ori	$a0, $a0, 2920
	add.d	$a0, $sp, $a0
	vst	$vr0, $a0, 0
	pcalau12i	$a0, %pc_hi20(_ZNSt17_Function_handlerIFjPfS0_jEZ4mainE4$_45E9_M_invokeERKSt9_Any_dataOS0_S7_Oj)
	addi.d	$a0, $a0, %pc_lo12(_ZNSt17_Function_handlerIFjPfS0_jEZ4mainE4$_45E9_M_invokeERKSt9_Any_dataOS0_S7_Oj)
	lu12i.w	$a1, 2
	ori	$a1, $a1, 2944
	add.d	$a1, $sp, $a1
	st.d	$a0, $a1, 0
	pcalau12i	$a0, %pc_hi20(_ZNSt17_Function_handlerIFjPfS0_jEZ4mainE4$_45E10_M_managerERSt9_Any_dataRKS4_St18_Manager_operation)
	addi.d	$a0, $a0, %pc_lo12(_ZNSt17_Function_handlerIFjPfS0_jEZ4mainE4$_45E10_M_managerERSt9_Any_dataRKS4_St18_Manager_operation)
	lu12i.w	$a1, 2
	ori	$a1, $a1, 2936
	add.d	$a1, $sp, $a1
	st.d	$a0, $a1, 0
.Ltmp330:                               # EH_LABEL
	pcalau12i	$a0, %pc_hi20(.L.str.22)
	addi.d	$a2, $a0, %pc_lo12(.L.str.22)
	lu12i.w	$a0, 2
	ori	$a0, $a0, 2952
	add.d	$a0, $sp, $a0
	lu12i.w	$a1, 2
	ori	$a1, $a1, 2920
	add.d	$a1, $sp, $a1
	pcaddu18i	$ra, %call36(_ZL19checkVectorFunctionIjfEvSt8functionIFT_PT0_S3_jEES5_PKc)
	jirl	$ra, $ra, 0
.Ltmp331:                               # EH_LABEL
# %bb.113:
	lu12i.w	$a0, 2
	ori	$a0, $a0, 2936
	add.d	$a0, $sp, $a0
	ld.d	$a3, $a0, 0
	beqz	$a3, .LBB0_115
# %bb.114:
.Ltmp339:                               # EH_LABEL
	lu12i.w	$a0, 2
	ori	$a0, $a0, 2920
	add.d	$a0, $sp, $a0
	lu12i.w	$a1, 2
	ori	$a1, $a1, 2920
	add.d	$a1, $sp, $a1
	ori	$a2, $zero, 3
	jirl	$ra, $a3, 0
.Ltmp340:                               # EH_LABEL
.LBB0_115:                              # %_ZNSt14_Function_baseD2Ev.exit90
	lu12i.w	$a0, 2
	ori	$a0, $a0, 2968
	add.d	$a0, $sp, $a0
	ld.d	$a3, $a0, 0
	beqz	$a3, .LBB0_117
# %bb.116:
.Ltmp342:                               # EH_LABEL
	lu12i.w	$a0, 2
	ori	$a0, $a0, 2952
	add.d	$a0, $sp, $a0
	lu12i.w	$a1, 2
	ori	$a1, $a1, 2952
	add.d	$a1, $sp, $a1
	ori	$a2, $zero, 3
	jirl	$ra, $a3, 0
.Ltmp343:                               # EH_LABEL
.LBB0_117:                              # %_ZNSt14_Function_baseD2Ev.exit92
	vld	$vr0, $sp, 16                   # 16-byte Folded Reload
	lu12i.w	$a0, 2
	ori	$a0, $a0, 2888
	add.d	$a0, $sp, $a0
	vst	$vr0, $a0, 0
	pcalau12i	$a0, %pc_hi20(_ZNSt17_Function_handlerIFjPfS0_jEZ4mainE4$_46E9_M_invokeERKSt9_Any_dataOS0_S7_Oj)
	addi.d	$a0, $a0, %pc_lo12(_ZNSt17_Function_handlerIFjPfS0_jEZ4mainE4$_46E9_M_invokeERKSt9_Any_dataOS0_S7_Oj)
	lu12i.w	$a1, 2
	ori	$a1, $a1, 2912
	add.d	$a1, $sp, $a1
	st.d	$a0, $a1, 0
	pcalau12i	$a0, %pc_hi20(_ZNSt17_Function_handlerIFjPfS0_jEZ4mainE4$_46E10_M_managerERSt9_Any_dataRKS4_St18_Manager_operation)
	addi.d	$a0, $a0, %pc_lo12(_ZNSt17_Function_handlerIFjPfS0_jEZ4mainE4$_46E10_M_managerERSt9_Any_dataRKS4_St18_Manager_operation)
	lu12i.w	$a1, 2
	ori	$a1, $a1, 2904
	add.d	$a1, $sp, $a1
	st.d	$a0, $a1, 0
	lu12i.w	$a0, 2
	ori	$a0, $a0, 2856
	add.d	$a0, $sp, $a0
	vst	$vr0, $a0, 0
	pcalau12i	$a0, %pc_hi20(_ZNSt17_Function_handlerIFjPfS0_jEZ4mainE4$_47E9_M_invokeERKSt9_Any_dataOS0_S7_Oj)
	addi.d	$a0, $a0, %pc_lo12(_ZNSt17_Function_handlerIFjPfS0_jEZ4mainE4$_47E9_M_invokeERKSt9_Any_dataOS0_S7_Oj)
	lu12i.w	$a1, 2
	ori	$a1, $a1, 2880
	add.d	$a1, $sp, $a1
	st.d	$a0, $a1, 0
	pcalau12i	$a0, %pc_hi20(_ZNSt17_Function_handlerIFjPfS0_jEZ4mainE4$_47E10_M_managerERSt9_Any_dataRKS4_St18_Manager_operation)
	addi.d	$a0, $a0, %pc_lo12(_ZNSt17_Function_handlerIFjPfS0_jEZ4mainE4$_47E10_M_managerERSt9_Any_dataRKS4_St18_Manager_operation)
	lu12i.w	$a1, 2
	ori	$a1, $a1, 2872
	add.d	$a1, $sp, $a1
	st.d	$a0, $a1, 0
.Ltmp345:                               # EH_LABEL
	pcalau12i	$a0, %pc_hi20(.L.str.23)
	addi.d	$a2, $a0, %pc_lo12(.L.str.23)
	lu12i.w	$a0, 2
	ori	$a0, $a0, 2888
	add.d	$a0, $sp, $a0
	lu12i.w	$a1, 2
	ori	$a1, $a1, 2856
	add.d	$a1, $sp, $a1
	pcaddu18i	$ra, %call36(_ZL19checkVectorFunctionIjfEvSt8functionIFT_PT0_S3_jEES5_PKc)
	jirl	$ra, $ra, 0
.Ltmp346:                               # EH_LABEL
# %bb.118:
	lu12i.w	$a0, 2
	ori	$a0, $a0, 2872
	add.d	$a0, $sp, $a0
	ld.d	$a3, $a0, 0
	beqz	$a3, .LBB0_120
# %bb.119:
.Ltmp354:                               # EH_LABEL
	lu12i.w	$a0, 2
	ori	$a0, $a0, 2856
	add.d	$a0, $sp, $a0
	lu12i.w	$a1, 2
	ori	$a1, $a1, 2856
	add.d	$a1, $sp, $a1
	ori	$a2, $zero, 3
	jirl	$ra, $a3, 0
.Ltmp355:                               # EH_LABEL
.LBB0_120:                              # %_ZNSt14_Function_baseD2Ev.exit94
	lu12i.w	$a0, 2
	ori	$a0, $a0, 2904
	add.d	$a0, $sp, $a0
	ld.d	$a3, $a0, 0
	beqz	$a3, .LBB0_122
# %bb.121:
.Ltmp357:                               # EH_LABEL
	lu12i.w	$a0, 2
	ori	$a0, $a0, 2888
	add.d	$a0, $sp, $a0
	lu12i.w	$a1, 2
	ori	$a1, $a1, 2888
	add.d	$a1, $sp, $a1
	ori	$a2, $zero, 3
	jirl	$ra, $a3, 0
.Ltmp358:                               # EH_LABEL
.LBB0_122:                              # %_ZNSt14_Function_baseD2Ev.exit96
	vld	$vr0, $sp, 16                   # 16-byte Folded Reload
	lu12i.w	$a0, 2
	ori	$a0, $a0, 2824
	add.d	$a0, $sp, $a0
	vst	$vr0, $a0, 0
	pcalau12i	$a0, %pc_hi20(_ZNSt17_Function_handlerIFjPfS0_jEZ4mainE4$_48E9_M_invokeERKSt9_Any_dataOS0_S7_Oj)
	addi.d	$a0, $a0, %pc_lo12(_ZNSt17_Function_handlerIFjPfS0_jEZ4mainE4$_48E9_M_invokeERKSt9_Any_dataOS0_S7_Oj)
	lu12i.w	$a1, 2
	ori	$a1, $a1, 2848
	add.d	$a1, $sp, $a1
	st.d	$a0, $a1, 0
	pcalau12i	$a0, %pc_hi20(_ZNSt17_Function_handlerIFjPfS0_jEZ4mainE4$_48E10_M_managerERSt9_Any_dataRKS4_St18_Manager_operation)
	addi.d	$a0, $a0, %pc_lo12(_ZNSt17_Function_handlerIFjPfS0_jEZ4mainE4$_48E10_M_managerERSt9_Any_dataRKS4_St18_Manager_operation)
	lu12i.w	$a1, 2
	ori	$a1, $a1, 2840
	add.d	$a1, $sp, $a1
	st.d	$a0, $a1, 0
	lu12i.w	$a0, 2
	ori	$a0, $a0, 2792
	add.d	$a0, $sp, $a0
	vst	$vr0, $a0, 0
	pcalau12i	$a0, %pc_hi20(_ZNSt17_Function_handlerIFjPfS0_jEZ4mainE4$_49E9_M_invokeERKSt9_Any_dataOS0_S7_Oj)
	addi.d	$a0, $a0, %pc_lo12(_ZNSt17_Function_handlerIFjPfS0_jEZ4mainE4$_49E9_M_invokeERKSt9_Any_dataOS0_S7_Oj)
	lu12i.w	$a1, 2
	ori	$a1, $a1, 2816
	add.d	$a1, $sp, $a1
	st.d	$a0, $a1, 0
	pcalau12i	$a0, %pc_hi20(_ZNSt17_Function_handlerIFjPfS0_jEZ4mainE4$_49E10_M_managerERSt9_Any_dataRKS4_St18_Manager_operation)
	addi.d	$a0, $a0, %pc_lo12(_ZNSt17_Function_handlerIFjPfS0_jEZ4mainE4$_49E10_M_managerERSt9_Any_dataRKS4_St18_Manager_operation)
	lu12i.w	$a1, 2
	ori	$a1, $a1, 2808
	add.d	$a1, $sp, $a1
	st.d	$a0, $a1, 0
.Ltmp360:                               # EH_LABEL
	pcalau12i	$a0, %pc_hi20(.L.str.24)
	addi.d	$a2, $a0, %pc_lo12(.L.str.24)
	lu12i.w	$a0, 2
	ori	$a0, $a0, 2824
	add.d	$a0, $sp, $a0
	lu12i.w	$a1, 2
	ori	$a1, $a1, 2792
	add.d	$a1, $sp, $a1
	pcaddu18i	$ra, %call36(_ZL19checkVectorFunctionIjfEvSt8functionIFT_PT0_S3_jEES5_PKc)
	jirl	$ra, $ra, 0
.Ltmp361:                               # EH_LABEL
# %bb.123:
	lu12i.w	$a0, 2
	ori	$a0, $a0, 2808
	add.d	$a0, $sp, $a0
	ld.d	$a3, $a0, 0
	beqz	$a3, .LBB0_125
# %bb.124:
.Ltmp369:                               # EH_LABEL
	lu12i.w	$a0, 2
	ori	$a0, $a0, 2792
	add.d	$a0, $sp, $a0
	lu12i.w	$a1, 2
	ori	$a1, $a1, 2792
	add.d	$a1, $sp, $a1
	ori	$a2, $zero, 3
	jirl	$ra, $a3, 0
.Ltmp370:                               # EH_LABEL
.LBB0_125:                              # %_ZNSt14_Function_baseD2Ev.exit98
	lu12i.w	$a0, 2
	ori	$a0, $a0, 2840
	add.d	$a0, $sp, $a0
	ld.d	$a3, $a0, 0
	beqz	$a3, .LBB0_127
# %bb.126:
.Ltmp372:                               # EH_LABEL
	lu12i.w	$a0, 2
	ori	$a0, $a0, 2824
	add.d	$a0, $sp, $a0
	lu12i.w	$a1, 2
	ori	$a1, $a1, 2824
	add.d	$a1, $sp, $a1
	ori	$a2, $zero, 3
	jirl	$ra, $a3, 0
.Ltmp373:                               # EH_LABEL
.LBB0_127:                              # %_ZNSt14_Function_baseD2Ev.exit100
	vld	$vr0, $sp, 16                   # 16-byte Folded Reload
	lu12i.w	$a0, 2
	ori	$a0, $a0, 2760
	add.d	$a0, $sp, $a0
	vst	$vr0, $a0, 0
	pcalau12i	$a0, %pc_hi20(_ZNSt17_Function_handlerIFjPfS0_jEZ4mainE4$_50E9_M_invokeERKSt9_Any_dataOS0_S7_Oj)
	addi.d	$a0, $a0, %pc_lo12(_ZNSt17_Function_handlerIFjPfS0_jEZ4mainE4$_50E9_M_invokeERKSt9_Any_dataOS0_S7_Oj)
	lu12i.w	$a1, 2
	ori	$a1, $a1, 2784
	add.d	$a1, $sp, $a1
	st.d	$a0, $a1, 0
	pcalau12i	$a0, %pc_hi20(_ZNSt17_Function_handlerIFjPfS0_jEZ4mainE4$_50E10_M_managerERSt9_Any_dataRKS4_St18_Manager_operation)
	addi.d	$a0, $a0, %pc_lo12(_ZNSt17_Function_handlerIFjPfS0_jEZ4mainE4$_50E10_M_managerERSt9_Any_dataRKS4_St18_Manager_operation)
	lu12i.w	$a1, 2
	ori	$a1, $a1, 2776
	add.d	$a1, $sp, $a1
	st.d	$a0, $a1, 0
	lu12i.w	$a0, 2
	ori	$a0, $a0, 2728
	add.d	$a0, $sp, $a0
	vst	$vr0, $a0, 0
	pcalau12i	$a0, %pc_hi20(_ZNSt17_Function_handlerIFjPfS0_jEZ4mainE4$_51E9_M_invokeERKSt9_Any_dataOS0_S7_Oj)
	addi.d	$a0, $a0, %pc_lo12(_ZNSt17_Function_handlerIFjPfS0_jEZ4mainE4$_51E9_M_invokeERKSt9_Any_dataOS0_S7_Oj)
	lu12i.w	$a1, 2
	ori	$a1, $a1, 2752
	add.d	$a1, $sp, $a1
	st.d	$a0, $a1, 0
	pcalau12i	$a0, %pc_hi20(_ZNSt17_Function_handlerIFjPfS0_jEZ4mainE4$_51E10_M_managerERSt9_Any_dataRKS4_St18_Manager_operation)
	addi.d	$a0, $a0, %pc_lo12(_ZNSt17_Function_handlerIFjPfS0_jEZ4mainE4$_51E10_M_managerERSt9_Any_dataRKS4_St18_Manager_operation)
	lu12i.w	$a1, 2
	ori	$a1, $a1, 2744
	add.d	$a1, $sp, $a1
	st.d	$a0, $a1, 0
.Ltmp375:                               # EH_LABEL
	pcalau12i	$a0, %pc_hi20(.L.str.25)
	addi.d	$a2, $a0, %pc_lo12(.L.str.25)
	lu12i.w	$a0, 2
	ori	$a0, $a0, 2760
	add.d	$a0, $sp, $a0
	lu12i.w	$a1, 2
	ori	$a1, $a1, 2728
	add.d	$a1, $sp, $a1
	pcaddu18i	$ra, %call36(_ZL19checkVectorFunctionIjfEvSt8functionIFT_PT0_S3_jEES5_PKc)
	jirl	$ra, $ra, 0
.Ltmp376:                               # EH_LABEL
# %bb.128:
	lu12i.w	$a0, 2
	ori	$a0, $a0, 2744
	add.d	$a0, $sp, $a0
	ld.d	$a3, $a0, 0
	beqz	$a3, .LBB0_130
# %bb.129:
.Ltmp384:                               # EH_LABEL
	lu12i.w	$a0, 2
	ori	$a0, $a0, 2728
	add.d	$a0, $sp, $a0
	lu12i.w	$a1, 2
	ori	$a1, $a1, 2728
	add.d	$a1, $sp, $a1
	ori	$a2, $zero, 3
	jirl	$ra, $a3, 0
.Ltmp385:                               # EH_LABEL
.LBB0_130:                              # %_ZNSt14_Function_baseD2Ev.exit102
	lu12i.w	$a0, 2
	ori	$a0, $a0, 2776
	add.d	$a0, $sp, $a0
	ld.d	$a3, $a0, 0
	beqz	$a3, .LBB0_132
# %bb.131:
.Ltmp387:                               # EH_LABEL
	lu12i.w	$a0, 2
	ori	$a0, $a0, 2760
	add.d	$a0, $sp, $a0
	lu12i.w	$a1, 2
	ori	$a1, $a1, 2760
	add.d	$a1, $sp, $a1
	ori	$a2, $zero, 3
	jirl	$ra, $a3, 0
.Ltmp388:                               # EH_LABEL
.LBB0_132:                              # %_ZNSt14_Function_baseD2Ev.exit104
	vld	$vr0, $sp, 16                   # 16-byte Folded Reload
	lu12i.w	$a0, 2
	ori	$a0, $a0, 2696
	add.d	$a0, $sp, $a0
	vst	$vr0, $a0, 0
	pcalau12i	$a0, %pc_hi20(_ZNSt17_Function_handlerIFjPfS0_jEZ4mainE4$_52E9_M_invokeERKSt9_Any_dataOS0_S7_Oj)
	addi.d	$a0, $a0, %pc_lo12(_ZNSt17_Function_handlerIFjPfS0_jEZ4mainE4$_52E9_M_invokeERKSt9_Any_dataOS0_S7_Oj)
	lu12i.w	$a1, 2
	ori	$a1, $a1, 2720
	add.d	$a1, $sp, $a1
	st.d	$a0, $a1, 0
	pcalau12i	$a0, %pc_hi20(_ZNSt17_Function_handlerIFjPfS0_jEZ4mainE4$_52E10_M_managerERSt9_Any_dataRKS4_St18_Manager_operation)
	addi.d	$a0, $a0, %pc_lo12(_ZNSt17_Function_handlerIFjPfS0_jEZ4mainE4$_52E10_M_managerERSt9_Any_dataRKS4_St18_Manager_operation)
	lu12i.w	$a1, 2
	ori	$a1, $a1, 2712
	add.d	$a1, $sp, $a1
	st.d	$a0, $a1, 0
	lu12i.w	$a0, 2
	ori	$a0, $a0, 2664
	add.d	$a0, $sp, $a0
	vst	$vr0, $a0, 0
	pcalau12i	$a0, %pc_hi20(_ZNSt17_Function_handlerIFjPfS0_jEZ4mainE4$_53E9_M_invokeERKSt9_Any_dataOS0_S7_Oj)
	addi.d	$a0, $a0, %pc_lo12(_ZNSt17_Function_handlerIFjPfS0_jEZ4mainE4$_53E9_M_invokeERKSt9_Any_dataOS0_S7_Oj)
	lu12i.w	$a1, 2
	ori	$a1, $a1, 2688
	add.d	$a1, $sp, $a1
	st.d	$a0, $a1, 0
	pcalau12i	$a0, %pc_hi20(_ZNSt17_Function_handlerIFjPfS0_jEZ4mainE4$_53E10_M_managerERSt9_Any_dataRKS4_St18_Manager_operation)
	addi.d	$a0, $a0, %pc_lo12(_ZNSt17_Function_handlerIFjPfS0_jEZ4mainE4$_53E10_M_managerERSt9_Any_dataRKS4_St18_Manager_operation)
	lu12i.w	$a1, 2
	ori	$a1, $a1, 2680
	add.d	$a1, $sp, $a1
	st.d	$a0, $a1, 0
.Ltmp390:                               # EH_LABEL
	pcalau12i	$a0, %pc_hi20(.L.str.26)
	addi.d	$a2, $a0, %pc_lo12(.L.str.26)
	lu12i.w	$a0, 2
	ori	$a0, $a0, 2696
	add.d	$a0, $sp, $a0
	lu12i.w	$a1, 2
	ori	$a1, $a1, 2664
	add.d	$a1, $sp, $a1
	pcaddu18i	$ra, %call36(_ZL19checkVectorFunctionIjfEvSt8functionIFT_PT0_S3_jEES5_PKc)
	jirl	$ra, $ra, 0
.Ltmp391:                               # EH_LABEL
# %bb.133:
	lu12i.w	$a0, 2
	ori	$a0, $a0, 2680
	add.d	$a0, $sp, $a0
	ld.d	$a3, $a0, 0
	beqz	$a3, .LBB0_135
# %bb.134:
.Ltmp399:                               # EH_LABEL
	lu12i.w	$a0, 2
	ori	$a0, $a0, 2664
	add.d	$a0, $sp, $a0
	lu12i.w	$a1, 2
	ori	$a1, $a1, 2664
	add.d	$a1, $sp, $a1
	ori	$a2, $zero, 3
	jirl	$ra, $a3, 0
.Ltmp400:                               # EH_LABEL
.LBB0_135:                              # %_ZNSt14_Function_baseD2Ev.exit106
	lu12i.w	$a0, 2
	ori	$a0, $a0, 2712
	add.d	$a0, $sp, $a0
	ld.d	$a3, $a0, 0
	beqz	$a3, .LBB0_137
# %bb.136:
.Ltmp402:                               # EH_LABEL
	lu12i.w	$a0, 2
	ori	$a0, $a0, 2696
	add.d	$a0, $sp, $a0
	lu12i.w	$a1, 2
	ori	$a1, $a1, 2696
	add.d	$a1, $sp, $a1
	ori	$a2, $zero, 3
	jirl	$ra, $a3, 0
.Ltmp403:                               # EH_LABEL
.LBB0_137:                              # %_ZNSt14_Function_baseD2Ev.exit108
	vld	$vr0, $sp, 16                   # 16-byte Folded Reload
	lu12i.w	$a0, 2
	ori	$a0, $a0, 2632
	add.d	$a0, $sp, $a0
	vst	$vr0, $a0, 0
	pcalau12i	$a0, %pc_hi20(_ZNSt17_Function_handlerIFjPfS0_jEZ4mainE4$_54E9_M_invokeERKSt9_Any_dataOS0_S7_Oj)
	addi.d	$a0, $a0, %pc_lo12(_ZNSt17_Function_handlerIFjPfS0_jEZ4mainE4$_54E9_M_invokeERKSt9_Any_dataOS0_S7_Oj)
	lu12i.w	$a1, 2
	ori	$a1, $a1, 2656
	add.d	$a1, $sp, $a1
	st.d	$a0, $a1, 0
	pcalau12i	$a0, %pc_hi20(_ZNSt17_Function_handlerIFjPfS0_jEZ4mainE4$_54E10_M_managerERSt9_Any_dataRKS4_St18_Manager_operation)
	addi.d	$a0, $a0, %pc_lo12(_ZNSt17_Function_handlerIFjPfS0_jEZ4mainE4$_54E10_M_managerERSt9_Any_dataRKS4_St18_Manager_operation)
	lu12i.w	$a1, 2
	ori	$a1, $a1, 2648
	add.d	$a1, $sp, $a1
	st.d	$a0, $a1, 0
	lu12i.w	$a0, 2
	ori	$a0, $a0, 2600
	add.d	$a0, $sp, $a0
	vst	$vr0, $a0, 0
	pcalau12i	$a0, %pc_hi20(_ZNSt17_Function_handlerIFjPfS0_jEZ4mainE4$_55E9_M_invokeERKSt9_Any_dataOS0_S7_Oj)
	addi.d	$a0, $a0, %pc_lo12(_ZNSt17_Function_handlerIFjPfS0_jEZ4mainE4$_55E9_M_invokeERKSt9_Any_dataOS0_S7_Oj)
	lu12i.w	$a1, 2
	ori	$a1, $a1, 2624
	add.d	$a1, $sp, $a1
	st.d	$a0, $a1, 0
	pcalau12i	$a0, %pc_hi20(_ZNSt17_Function_handlerIFjPfS0_jEZ4mainE4$_55E10_M_managerERSt9_Any_dataRKS4_St18_Manager_operation)
	addi.d	$a0, $a0, %pc_lo12(_ZNSt17_Function_handlerIFjPfS0_jEZ4mainE4$_55E10_M_managerERSt9_Any_dataRKS4_St18_Manager_operation)
	lu12i.w	$a1, 2
	ori	$a1, $a1, 2616
	add.d	$a1, $sp, $a1
	st.d	$a0, $a1, 0
.Ltmp405:                               # EH_LABEL
	pcalau12i	$a0, %pc_hi20(.L.str.27)
	addi.d	$a2, $a0, %pc_lo12(.L.str.27)
	lu12i.w	$a0, 2
	ori	$a0, $a0, 2632
	add.d	$a0, $sp, $a0
	lu12i.w	$a1, 2
	ori	$a1, $a1, 2600
	add.d	$a1, $sp, $a1
	pcaddu18i	$ra, %call36(_ZL19checkVectorFunctionIjfEvSt8functionIFT_PT0_S3_jEES5_PKc)
	jirl	$ra, $ra, 0
.Ltmp406:                               # EH_LABEL
# %bb.138:
	lu12i.w	$a0, 2
	ori	$a0, $a0, 2616
	add.d	$a0, $sp, $a0
	ld.d	$a3, $a0, 0
	beqz	$a3, .LBB0_140
# %bb.139:
.Ltmp414:                               # EH_LABEL
	lu12i.w	$a0, 2
	ori	$a0, $a0, 2600
	add.d	$a0, $sp, $a0
	lu12i.w	$a1, 2
	ori	$a1, $a1, 2600
	add.d	$a1, $sp, $a1
	ori	$a2, $zero, 3
	jirl	$ra, $a3, 0
.Ltmp415:                               # EH_LABEL
.LBB0_140:                              # %_ZNSt14_Function_baseD2Ev.exit110
	lu12i.w	$a0, 2
	ori	$a0, $a0, 2648
	add.d	$a0, $sp, $a0
	ld.d	$a3, $a0, 0
	beqz	$a3, .LBB0_142
# %bb.141:
.Ltmp417:                               # EH_LABEL
	lu12i.w	$a0, 2
	ori	$a0, $a0, 2632
	add.d	$a0, $sp, $a0
	lu12i.w	$a1, 2
	ori	$a1, $a1, 2632
	add.d	$a1, $sp, $a1
	ori	$a2, $zero, 3
	jirl	$ra, $a3, 0
.Ltmp418:                               # EH_LABEL
.LBB0_142:                              # %_ZNSt14_Function_baseD2Ev.exit112
	vld	$vr0, $sp, 16                   # 16-byte Folded Reload
	lu12i.w	$a0, 2
	ori	$a0, $a0, 2568
	add.d	$a0, $sp, $a0
	vst	$vr0, $a0, 0
	pcalau12i	$a0, %pc_hi20(_ZNSt17_Function_handlerIFjPfS0_jEZ4mainE4$_56E9_M_invokeERKSt9_Any_dataOS0_S7_Oj)
	addi.d	$a0, $a0, %pc_lo12(_ZNSt17_Function_handlerIFjPfS0_jEZ4mainE4$_56E9_M_invokeERKSt9_Any_dataOS0_S7_Oj)
	lu12i.w	$a1, 2
	ori	$a1, $a1, 2592
	add.d	$a1, $sp, $a1
	st.d	$a0, $a1, 0
	pcalau12i	$a0, %pc_hi20(_ZNSt17_Function_handlerIFjPfS0_jEZ4mainE4$_56E10_M_managerERSt9_Any_dataRKS4_St18_Manager_operation)
	addi.d	$a0, $a0, %pc_lo12(_ZNSt17_Function_handlerIFjPfS0_jEZ4mainE4$_56E10_M_managerERSt9_Any_dataRKS4_St18_Manager_operation)
	lu12i.w	$a1, 2
	ori	$a1, $a1, 2584
	add.d	$a1, $sp, $a1
	st.d	$a0, $a1, 0
	lu12i.w	$a0, 2
	ori	$a0, $a0, 2536
	add.d	$a0, $sp, $a0
	vst	$vr0, $a0, 0
	pcalau12i	$a0, %pc_hi20(_ZNSt17_Function_handlerIFjPfS0_jEZ4mainE4$_57E9_M_invokeERKSt9_Any_dataOS0_S7_Oj)
	addi.d	$a0, $a0, %pc_lo12(_ZNSt17_Function_handlerIFjPfS0_jEZ4mainE4$_57E9_M_invokeERKSt9_Any_dataOS0_S7_Oj)
	lu12i.w	$a1, 2
	ori	$a1, $a1, 2560
	add.d	$a1, $sp, $a1
	st.d	$a0, $a1, 0
	pcalau12i	$a0, %pc_hi20(_ZNSt17_Function_handlerIFjPfS0_jEZ4mainE4$_57E10_M_managerERSt9_Any_dataRKS4_St18_Manager_operation)
	addi.d	$a0, $a0, %pc_lo12(_ZNSt17_Function_handlerIFjPfS0_jEZ4mainE4$_57E10_M_managerERSt9_Any_dataRKS4_St18_Manager_operation)
	lu12i.w	$a1, 2
	ori	$a1, $a1, 2552
	add.d	$a1, $sp, $a1
	st.d	$a0, $a1, 0
.Ltmp420:                               # EH_LABEL
	pcalau12i	$a0, %pc_hi20(.L.str.28)
	addi.d	$a2, $a0, %pc_lo12(.L.str.28)
	lu12i.w	$a0, 2
	ori	$a0, $a0, 2568
	add.d	$a0, $sp, $a0
	lu12i.w	$a1, 2
	ori	$a1, $a1, 2536
	add.d	$a1, $sp, $a1
	pcaddu18i	$ra, %call36(_ZL19checkVectorFunctionIjfEvSt8functionIFT_PT0_S3_jEES5_PKc)
	jirl	$ra, $ra, 0
.Ltmp421:                               # EH_LABEL
# %bb.143:
	lu12i.w	$a0, 2
	ori	$a0, $a0, 2552
	add.d	$a0, $sp, $a0
	ld.d	$a3, $a0, 0
	beqz	$a3, .LBB0_145
# %bb.144:
.Ltmp429:                               # EH_LABEL
	lu12i.w	$a0, 2
	ori	$a0, $a0, 2536
	add.d	$a0, $sp, $a0
	lu12i.w	$a1, 2
	ori	$a1, $a1, 2536
	add.d	$a1, $sp, $a1
	ori	$a2, $zero, 3
	jirl	$ra, $a3, 0
.Ltmp430:                               # EH_LABEL
.LBB0_145:                              # %_ZNSt14_Function_baseD2Ev.exit114
	lu12i.w	$a0, 2
	ori	$a0, $a0, 2584
	add.d	$a0, $sp, $a0
	ld.d	$a3, $a0, 0
	beqz	$a3, .LBB0_147
# %bb.146:
.Ltmp432:                               # EH_LABEL
	lu12i.w	$a0, 2
	ori	$a0, $a0, 2568
	add.d	$a0, $sp, $a0
	lu12i.w	$a1, 2
	ori	$a1, $a1, 2568
	add.d	$a1, $sp, $a1
	ori	$a2, $zero, 3
	jirl	$ra, $a3, 0
.Ltmp433:                               # EH_LABEL
.LBB0_147:                              # %_ZNSt14_Function_baseD2Ev.exit116
	vld	$vr0, $sp, 16                   # 16-byte Folded Reload
	lu12i.w	$a0, 2
	ori	$a0, $a0, 2504
	add.d	$a0, $sp, $a0
	vst	$vr0, $a0, 0
	pcalau12i	$a0, %pc_hi20(_ZNSt17_Function_handlerIFjPfS0_jEZ4mainE4$_58E9_M_invokeERKSt9_Any_dataOS0_S7_Oj)
	addi.d	$a0, $a0, %pc_lo12(_ZNSt17_Function_handlerIFjPfS0_jEZ4mainE4$_58E9_M_invokeERKSt9_Any_dataOS0_S7_Oj)
	lu12i.w	$a1, 2
	ori	$a1, $a1, 2528
	add.d	$a1, $sp, $a1
	st.d	$a0, $a1, 0
	pcalau12i	$a0, %pc_hi20(_ZNSt17_Function_handlerIFjPfS0_jEZ4mainE4$_58E10_M_managerERSt9_Any_dataRKS4_St18_Manager_operation)
	addi.d	$a0, $a0, %pc_lo12(_ZNSt17_Function_handlerIFjPfS0_jEZ4mainE4$_58E10_M_managerERSt9_Any_dataRKS4_St18_Manager_operation)
	lu12i.w	$a1, 2
	ori	$a1, $a1, 2520
	add.d	$a1, $sp, $a1
	st.d	$a0, $a1, 0
	lu12i.w	$a0, 2
	ori	$a0, $a0, 2472
	add.d	$a0, $sp, $a0
	vst	$vr0, $a0, 0
	pcalau12i	$a0, %pc_hi20(_ZNSt17_Function_handlerIFjPfS0_jEZ4mainE4$_59E9_M_invokeERKSt9_Any_dataOS0_S7_Oj)
	addi.d	$a0, $a0, %pc_lo12(_ZNSt17_Function_handlerIFjPfS0_jEZ4mainE4$_59E9_M_invokeERKSt9_Any_dataOS0_S7_Oj)
	lu12i.w	$a1, 2
	ori	$a1, $a1, 2496
	add.d	$a1, $sp, $a1
	st.d	$a0, $a1, 0
	pcalau12i	$a0, %pc_hi20(_ZNSt17_Function_handlerIFjPfS0_jEZ4mainE4$_59E10_M_managerERSt9_Any_dataRKS4_St18_Manager_operation)
	addi.d	$a0, $a0, %pc_lo12(_ZNSt17_Function_handlerIFjPfS0_jEZ4mainE4$_59E10_M_managerERSt9_Any_dataRKS4_St18_Manager_operation)
	lu12i.w	$a1, 2
	ori	$a1, $a1, 2488
	add.d	$a1, $sp, $a1
	st.d	$a0, $a1, 0
.Ltmp435:                               # EH_LABEL
	pcalau12i	$a0, %pc_hi20(.L.str.29)
	addi.d	$a2, $a0, %pc_lo12(.L.str.29)
	lu12i.w	$a0, 2
	ori	$a0, $a0, 2504
	add.d	$a0, $sp, $a0
	lu12i.w	$a1, 2
	ori	$a1, $a1, 2472
	add.d	$a1, $sp, $a1
	pcaddu18i	$ra, %call36(_ZL19checkVectorFunctionIjfEvSt8functionIFT_PT0_S3_jEES5_PKc)
	jirl	$ra, $ra, 0
.Ltmp436:                               # EH_LABEL
# %bb.148:
	lu12i.w	$a0, 2
	ori	$a0, $a0, 2488
	add.d	$a0, $sp, $a0
	ld.d	$a3, $a0, 0
	beqz	$a3, .LBB0_150
# %bb.149:
.Ltmp444:                               # EH_LABEL
	lu12i.w	$a0, 2
	ori	$a0, $a0, 2472
	add.d	$a0, $sp, $a0
	lu12i.w	$a1, 2
	ori	$a1, $a1, 2472
	add.d	$a1, $sp, $a1
	ori	$a2, $zero, 3
	jirl	$ra, $a3, 0
.Ltmp445:                               # EH_LABEL
.LBB0_150:                              # %_ZNSt14_Function_baseD2Ev.exit118
	lu12i.w	$a0, 2
	ori	$a0, $a0, 2520
	add.d	$a0, $sp, $a0
	ld.d	$a3, $a0, 0
	beqz	$a3, .LBB0_152
# %bb.151:
.Ltmp447:                               # EH_LABEL
	lu12i.w	$a0, 2
	ori	$a0, $a0, 2504
	add.d	$a0, $sp, $a0
	lu12i.w	$a1, 2
	ori	$a1, $a1, 2504
	add.d	$a1, $sp, $a1
	ori	$a2, $zero, 3
	jirl	$ra, $a3, 0
.Ltmp448:                               # EH_LABEL
.LBB0_152:                              # %_ZNSt14_Function_baseD2Ev.exit120
	vld	$vr0, $sp, 16                   # 16-byte Folded Reload
	lu12i.w	$a0, 2
	ori	$a0, $a0, 2440
	add.d	$a0, $sp, $a0
	vst	$vr0, $a0, 0
	pcalau12i	$a0, %pc_hi20(_ZNSt17_Function_handlerIFjPfS0_jEZ4mainE4$_60E9_M_invokeERKSt9_Any_dataOS0_S7_Oj)
	addi.d	$a0, $a0, %pc_lo12(_ZNSt17_Function_handlerIFjPfS0_jEZ4mainE4$_60E9_M_invokeERKSt9_Any_dataOS0_S7_Oj)
	lu12i.w	$a1, 2
	ori	$a1, $a1, 2464
	add.d	$a1, $sp, $a1
	st.d	$a0, $a1, 0
	pcalau12i	$a0, %pc_hi20(_ZNSt17_Function_handlerIFjPfS0_jEZ4mainE4$_60E10_M_managerERSt9_Any_dataRKS4_St18_Manager_operation)
	addi.d	$a0, $a0, %pc_lo12(_ZNSt17_Function_handlerIFjPfS0_jEZ4mainE4$_60E10_M_managerERSt9_Any_dataRKS4_St18_Manager_operation)
	lu12i.w	$a1, 2
	ori	$a1, $a1, 2456
	add.d	$a1, $sp, $a1
	st.d	$a0, $a1, 0
	lu12i.w	$a0, 2
	ori	$a0, $a0, 2408
	add.d	$a0, $sp, $a0
	vst	$vr0, $a0, 0
	pcalau12i	$a0, %pc_hi20(_ZNSt17_Function_handlerIFjPfS0_jEZ4mainE4$_61E9_M_invokeERKSt9_Any_dataOS0_S7_Oj)
	addi.d	$a0, $a0, %pc_lo12(_ZNSt17_Function_handlerIFjPfS0_jEZ4mainE4$_61E9_M_invokeERKSt9_Any_dataOS0_S7_Oj)
	lu12i.w	$a1, 2
	ori	$a1, $a1, 2432
	add.d	$a1, $sp, $a1
	st.d	$a0, $a1, 0
	pcalau12i	$a0, %pc_hi20(_ZNSt17_Function_handlerIFjPfS0_jEZ4mainE4$_61E10_M_managerERSt9_Any_dataRKS4_St18_Manager_operation)
	addi.d	$a0, $a0, %pc_lo12(_ZNSt17_Function_handlerIFjPfS0_jEZ4mainE4$_61E10_M_managerERSt9_Any_dataRKS4_St18_Manager_operation)
	lu12i.w	$a1, 2
	ori	$a1, $a1, 2424
	add.d	$a1, $sp, $a1
	st.d	$a0, $a1, 0
.Ltmp450:                               # EH_LABEL
	pcalau12i	$a0, %pc_hi20(.L.str.30)
	addi.d	$a2, $a0, %pc_lo12(.L.str.30)
	lu12i.w	$a0, 2
	ori	$a0, $a0, 2440
	add.d	$a0, $sp, $a0
	lu12i.w	$a1, 2
	ori	$a1, $a1, 2408
	add.d	$a1, $sp, $a1
	pcaddu18i	$ra, %call36(_ZL19checkVectorFunctionIjfEvSt8functionIFT_PT0_S3_jEES5_PKc)
	jirl	$ra, $ra, 0
.Ltmp451:                               # EH_LABEL
# %bb.153:
	lu12i.w	$a0, 2
	ori	$a0, $a0, 2424
	add.d	$a0, $sp, $a0
	ld.d	$a3, $a0, 0
	beqz	$a3, .LBB0_155
# %bb.154:
.Ltmp459:                               # EH_LABEL
	lu12i.w	$a0, 2
	ori	$a0, $a0, 2408
	add.d	$a0, $sp, $a0
	lu12i.w	$a1, 2
	ori	$a1, $a1, 2408
	add.d	$a1, $sp, $a1
	ori	$a2, $zero, 3
	jirl	$ra, $a3, 0
.Ltmp460:                               # EH_LABEL
.LBB0_155:                              # %_ZNSt14_Function_baseD2Ev.exit122
	lu12i.w	$a0, 2
	ori	$a0, $a0, 2456
	add.d	$a0, $sp, $a0
	ld.d	$a3, $a0, 0
	beqz	$a3, .LBB0_157
# %bb.156:
.Ltmp462:                               # EH_LABEL
	lu12i.w	$a0, 2
	ori	$a0, $a0, 2440
	add.d	$a0, $sp, $a0
	lu12i.w	$a1, 2
	ori	$a1, $a1, 2440
	add.d	$a1, $sp, $a1
	ori	$a2, $zero, 3
	jirl	$ra, $a3, 0
.Ltmp463:                               # EH_LABEL
.LBB0_157:                              # %_ZNSt14_Function_baseD2Ev.exit124
	vld	$vr0, $sp, 16                   # 16-byte Folded Reload
	lu12i.w	$a0, 2
	ori	$a0, $a0, 2376
	add.d	$a0, $sp, $a0
	vst	$vr0, $a0, 0
	pcalau12i	$a0, %pc_hi20(_ZNSt17_Function_handlerIFjPfS0_jEZ4mainE4$_62E9_M_invokeERKSt9_Any_dataOS0_S7_Oj)
	addi.d	$a0, $a0, %pc_lo12(_ZNSt17_Function_handlerIFjPfS0_jEZ4mainE4$_62E9_M_invokeERKSt9_Any_dataOS0_S7_Oj)
	lu12i.w	$a1, 2
	ori	$a1, $a1, 2400
	add.d	$a1, $sp, $a1
	st.d	$a0, $a1, 0
	pcalau12i	$a0, %pc_hi20(_ZNSt17_Function_handlerIFjPfS0_jEZ4mainE4$_62E10_M_managerERSt9_Any_dataRKS4_St18_Manager_operation)
	addi.d	$a0, $a0, %pc_lo12(_ZNSt17_Function_handlerIFjPfS0_jEZ4mainE4$_62E10_M_managerERSt9_Any_dataRKS4_St18_Manager_operation)
	lu12i.w	$a1, 2
	ori	$a1, $a1, 2392
	add.d	$a1, $sp, $a1
	st.d	$a0, $a1, 0
	lu12i.w	$a0, 2
	ori	$a0, $a0, 2344
	add.d	$a0, $sp, $a0
	vst	$vr0, $a0, 0
	pcalau12i	$a0, %pc_hi20(_ZNSt17_Function_handlerIFjPfS0_jEZ4mainE4$_63E9_M_invokeERKSt9_Any_dataOS0_S7_Oj)
	addi.d	$a0, $a0, %pc_lo12(_ZNSt17_Function_handlerIFjPfS0_jEZ4mainE4$_63E9_M_invokeERKSt9_Any_dataOS0_S7_Oj)
	lu12i.w	$a1, 2
	ori	$a1, $a1, 2368
	add.d	$a1, $sp, $a1
	st.d	$a0, $a1, 0
	pcalau12i	$a0, %pc_hi20(_ZNSt17_Function_handlerIFjPfS0_jEZ4mainE4$_63E10_M_managerERSt9_Any_dataRKS4_St18_Manager_operation)
	addi.d	$a0, $a0, %pc_lo12(_ZNSt17_Function_handlerIFjPfS0_jEZ4mainE4$_63E10_M_managerERSt9_Any_dataRKS4_St18_Manager_operation)
	lu12i.w	$a1, 2
	ori	$a1, $a1, 2360
	add.d	$a1, $sp, $a1
	st.d	$a0, $a1, 0
.Ltmp465:                               # EH_LABEL
	pcalau12i	$a0, %pc_hi20(.L.str.31)
	addi.d	$a2, $a0, %pc_lo12(.L.str.31)
	lu12i.w	$a0, 2
	ori	$a0, $a0, 2376
	add.d	$a0, $sp, $a0
	lu12i.w	$a1, 2
	ori	$a1, $a1, 2344
	add.d	$a1, $sp, $a1
	pcaddu18i	$ra, %call36(_ZL19checkVectorFunctionIjfEvSt8functionIFT_PT0_S3_jEES5_PKc)
	jirl	$ra, $ra, 0
.Ltmp466:                               # EH_LABEL
# %bb.158:
	lu12i.w	$a0, 2
	ori	$a0, $a0, 2360
	add.d	$a0, $sp, $a0
	ld.d	$a3, $a0, 0
	beqz	$a3, .LBB0_160
# %bb.159:
.Ltmp474:                               # EH_LABEL
	lu12i.w	$a0, 2
	ori	$a0, $a0, 2344
	add.d	$a0, $sp, $a0
	lu12i.w	$a1, 2
	ori	$a1, $a1, 2344
	add.d	$a1, $sp, $a1
	ori	$a2, $zero, 3
	jirl	$ra, $a3, 0
.Ltmp475:                               # EH_LABEL
.LBB0_160:                              # %_ZNSt14_Function_baseD2Ev.exit126
	lu12i.w	$a0, 2
	ori	$a0, $a0, 2392
	add.d	$a0, $sp, $a0
	ld.d	$a3, $a0, 0
	beqz	$a3, .LBB0_162
# %bb.161:
.Ltmp477:                               # EH_LABEL
	lu12i.w	$a0, 2
	ori	$a0, $a0, 2376
	add.d	$a0, $sp, $a0
	lu12i.w	$a1, 2
	ori	$a1, $a1, 2376
	add.d	$a1, $sp, $a1
	ori	$a2, $zero, 3
	jirl	$ra, $a3, 0
.Ltmp478:                               # EH_LABEL
.LBB0_162:                              # %_ZNSt14_Function_baseD2Ev.exit128
	vld	$vr0, $sp, 16                   # 16-byte Folded Reload
	lu12i.w	$a0, 2
	ori	$a0, $a0, 2312
	add.d	$a0, $sp, $a0
	vst	$vr0, $a0, 0
	pcalau12i	$a0, %pc_hi20(_ZNSt17_Function_handlerIFjPfS0_jEZ4mainE4$_64E9_M_invokeERKSt9_Any_dataOS0_S7_Oj)
	addi.d	$a0, $a0, %pc_lo12(_ZNSt17_Function_handlerIFjPfS0_jEZ4mainE4$_64E9_M_invokeERKSt9_Any_dataOS0_S7_Oj)
	lu12i.w	$a1, 2
	ori	$a1, $a1, 2336
	add.d	$a1, $sp, $a1
	st.d	$a0, $a1, 0
	pcalau12i	$a0, %pc_hi20(_ZNSt17_Function_handlerIFjPfS0_jEZ4mainE4$_64E10_M_managerERSt9_Any_dataRKS4_St18_Manager_operation)
	addi.d	$a0, $a0, %pc_lo12(_ZNSt17_Function_handlerIFjPfS0_jEZ4mainE4$_64E10_M_managerERSt9_Any_dataRKS4_St18_Manager_operation)
	lu12i.w	$a1, 2
	ori	$a1, $a1, 2328
	add.d	$a1, $sp, $a1
	st.d	$a0, $a1, 0
	lu12i.w	$a0, 2
	ori	$a0, $a0, 2280
	add.d	$a0, $sp, $a0
	vst	$vr0, $a0, 0
	pcalau12i	$a0, %pc_hi20(_ZNSt17_Function_handlerIFjPfS0_jEZ4mainE4$_65E9_M_invokeERKSt9_Any_dataOS0_S7_Oj)
	addi.d	$a0, $a0, %pc_lo12(_ZNSt17_Function_handlerIFjPfS0_jEZ4mainE4$_65E9_M_invokeERKSt9_Any_dataOS0_S7_Oj)
	lu12i.w	$a1, 2
	ori	$a1, $a1, 2304
	add.d	$a1, $sp, $a1
	st.d	$a0, $a1, 0
	pcalau12i	$a0, %pc_hi20(_ZNSt17_Function_handlerIFjPfS0_jEZ4mainE4$_65E10_M_managerERSt9_Any_dataRKS4_St18_Manager_operation)
	addi.d	$a0, $a0, %pc_lo12(_ZNSt17_Function_handlerIFjPfS0_jEZ4mainE4$_65E10_M_managerERSt9_Any_dataRKS4_St18_Manager_operation)
	lu12i.w	$a1, 2
	ori	$a1, $a1, 2296
	add.d	$a1, $sp, $a1
	st.d	$a0, $a1, 0
.Ltmp480:                               # EH_LABEL
	pcalau12i	$a0, %pc_hi20(.L.str.32)
	addi.d	$a2, $a0, %pc_lo12(.L.str.32)
	lu12i.w	$a0, 2
	ori	$a0, $a0, 2312
	add.d	$a0, $sp, $a0
	lu12i.w	$a1, 2
	ori	$a1, $a1, 2280
	add.d	$a1, $sp, $a1
	pcaddu18i	$ra, %call36(_ZL19checkVectorFunctionIjfEvSt8functionIFT_PT0_S3_jEES5_PKc)
	jirl	$ra, $ra, 0
.Ltmp481:                               # EH_LABEL
# %bb.163:
	lu12i.w	$a0, 2
	ori	$a0, $a0, 2296
	add.d	$a0, $sp, $a0
	ld.d	$a3, $a0, 0
	beqz	$a3, .LBB0_165
# %bb.164:
.Ltmp489:                               # EH_LABEL
	lu12i.w	$a0, 2
	ori	$a0, $a0, 2280
	add.d	$a0, $sp, $a0
	lu12i.w	$a1, 2
	ori	$a1, $a1, 2280
	add.d	$a1, $sp, $a1
	ori	$a2, $zero, 3
	jirl	$ra, $a3, 0
.Ltmp490:                               # EH_LABEL
.LBB0_165:                              # %_ZNSt14_Function_baseD2Ev.exit130
	lu12i.w	$a0, 2
	ori	$a0, $a0, 2328
	add.d	$a0, $sp, $a0
	ld.d	$a3, $a0, 0
	beqz	$a3, .LBB0_167
# %bb.166:
.Ltmp492:                               # EH_LABEL
	lu12i.w	$a0, 2
	ori	$a0, $a0, 2312
	add.d	$a0, $sp, $a0
	lu12i.w	$a1, 2
	ori	$a1, $a1, 2312
	add.d	$a1, $sp, $a1
	ori	$a2, $zero, 3
	jirl	$ra, $a3, 0
.Ltmp493:                               # EH_LABEL
.LBB0_167:                              # %_ZNSt14_Function_baseD2Ev.exit132
	vld	$vr0, $sp, 16                   # 16-byte Folded Reload
	lu12i.w	$a0, 2
	ori	$a0, $a0, 2248
	add.d	$a0, $sp, $a0
	vst	$vr0, $a0, 0
	pcalau12i	$a0, %pc_hi20(_ZNSt17_Function_handlerIFjPfS0_jEZ4mainE4$_66E9_M_invokeERKSt9_Any_dataOS0_S7_Oj)
	addi.d	$a0, $a0, %pc_lo12(_ZNSt17_Function_handlerIFjPfS0_jEZ4mainE4$_66E9_M_invokeERKSt9_Any_dataOS0_S7_Oj)
	lu12i.w	$a1, 2
	ori	$a1, $a1, 2272
	add.d	$a1, $sp, $a1
	st.d	$a0, $a1, 0
	pcalau12i	$a0, %pc_hi20(_ZNSt17_Function_handlerIFjPfS0_jEZ4mainE4$_66E10_M_managerERSt9_Any_dataRKS4_St18_Manager_operation)
	addi.d	$a0, $a0, %pc_lo12(_ZNSt17_Function_handlerIFjPfS0_jEZ4mainE4$_66E10_M_managerERSt9_Any_dataRKS4_St18_Manager_operation)
	lu12i.w	$a1, 2
	ori	$a1, $a1, 2264
	add.d	$a1, $sp, $a1
	st.d	$a0, $a1, 0
	lu12i.w	$a0, 2
	ori	$a0, $a0, 2216
	add.d	$a0, $sp, $a0
	vst	$vr0, $a0, 0
	pcalau12i	$a0, %pc_hi20(_ZNSt17_Function_handlerIFjPfS0_jEZ4mainE4$_67E9_M_invokeERKSt9_Any_dataOS0_S7_Oj)
	addi.d	$a0, $a0, %pc_lo12(_ZNSt17_Function_handlerIFjPfS0_jEZ4mainE4$_67E9_M_invokeERKSt9_Any_dataOS0_S7_Oj)
	lu12i.w	$a1, 2
	ori	$a1, $a1, 2240
	add.d	$a1, $sp, $a1
	st.d	$a0, $a1, 0
	pcalau12i	$a0, %pc_hi20(_ZNSt17_Function_handlerIFjPfS0_jEZ4mainE4$_67E10_M_managerERSt9_Any_dataRKS4_St18_Manager_operation)
	addi.d	$a0, $a0, %pc_lo12(_ZNSt17_Function_handlerIFjPfS0_jEZ4mainE4$_67E10_M_managerERSt9_Any_dataRKS4_St18_Manager_operation)
	lu12i.w	$a1, 2
	ori	$a1, $a1, 2232
	add.d	$a1, $sp, $a1
	st.d	$a0, $a1, 0
.Ltmp495:                               # EH_LABEL
	pcalau12i	$a0, %pc_hi20(.L.str.33)
	addi.d	$a2, $a0, %pc_lo12(.L.str.33)
	lu12i.w	$a0, 2
	ori	$a0, $a0, 2248
	add.d	$a0, $sp, $a0
	lu12i.w	$a1, 2
	ori	$a1, $a1, 2216
	add.d	$a1, $sp, $a1
	pcaddu18i	$ra, %call36(_ZL19checkVectorFunctionIjfEvSt8functionIFT_PT0_S3_jEES5_PKc)
	jirl	$ra, $ra, 0
.Ltmp496:                               # EH_LABEL
# %bb.168:
	lu12i.w	$a0, 2
	ori	$a0, $a0, 2232
	add.d	$a0, $sp, $a0
	ld.d	$a3, $a0, 0
	beqz	$a3, .LBB0_170
# %bb.169:
.Ltmp504:                               # EH_LABEL
	lu12i.w	$a0, 2
	ori	$a0, $a0, 2216
	add.d	$a0, $sp, $a0
	lu12i.w	$a1, 2
	ori	$a1, $a1, 2216
	add.d	$a1, $sp, $a1
	ori	$a2, $zero, 3
	jirl	$ra, $a3, 0
.Ltmp505:                               # EH_LABEL
.LBB0_170:                              # %_ZNSt14_Function_baseD2Ev.exit134
	lu12i.w	$a0, 2
	ori	$a0, $a0, 2264
	add.d	$a0, $sp, $a0
	ld.d	$a3, $a0, 0
	beqz	$a3, .LBB0_172
# %bb.171:
.Ltmp507:                               # EH_LABEL
	lu12i.w	$a0, 2
	ori	$a0, $a0, 2248
	add.d	$a0, $sp, $a0
	lu12i.w	$a1, 2
	ori	$a1, $a1, 2248
	add.d	$a1, $sp, $a1
	ori	$a2, $zero, 3
	jirl	$ra, $a3, 0
.Ltmp508:                               # EH_LABEL
.LBB0_172:                              # %_ZNSt14_Function_baseD2Ev.exit136
	vld	$vr0, $sp, 16                   # 16-byte Folded Reload
	lu12i.w	$a0, 2
	ori	$a0, $a0, 2184
	add.d	$a0, $sp, $a0
	vst	$vr0, $a0, 0
	pcalau12i	$a0, %pc_hi20(_ZNSt17_Function_handlerIFiPfS0_jEZ4mainE4$_68E9_M_invokeERKSt9_Any_dataOS0_S7_Oj)
	addi.d	$a0, $a0, %pc_lo12(_ZNSt17_Function_handlerIFiPfS0_jEZ4mainE4$_68E9_M_invokeERKSt9_Any_dataOS0_S7_Oj)
	lu12i.w	$a1, 2
	ori	$a1, $a1, 2208
	add.d	$a1, $sp, $a1
	st.d	$a0, $a1, 0
	pcalau12i	$a0, %pc_hi20(_ZNSt17_Function_handlerIFiPfS0_jEZ4mainE4$_68E10_M_managerERSt9_Any_dataRKS4_St18_Manager_operation)
	addi.d	$a0, $a0, %pc_lo12(_ZNSt17_Function_handlerIFiPfS0_jEZ4mainE4$_68E10_M_managerERSt9_Any_dataRKS4_St18_Manager_operation)
	lu12i.w	$a1, 2
	ori	$a1, $a1, 2200
	add.d	$a1, $sp, $a1
	st.d	$a0, $a1, 0
	lu12i.w	$a0, 2
	ori	$a0, $a0, 2152
	add.d	$a0, $sp, $a0
	vst	$vr0, $a0, 0
	pcalau12i	$a0, %pc_hi20(_ZNSt17_Function_handlerIFiPfS0_jEZ4mainE4$_69E9_M_invokeERKSt9_Any_dataOS0_S7_Oj)
	addi.d	$a0, $a0, %pc_lo12(_ZNSt17_Function_handlerIFiPfS0_jEZ4mainE4$_69E9_M_invokeERKSt9_Any_dataOS0_S7_Oj)
	lu12i.w	$a1, 2
	ori	$a1, $a1, 2176
	add.d	$a1, $sp, $a1
	st.d	$a0, $a1, 0
	pcalau12i	$a0, %pc_hi20(_ZNSt17_Function_handlerIFiPfS0_jEZ4mainE4$_69E10_M_managerERSt9_Any_dataRKS4_St18_Manager_operation)
	addi.d	$a0, $a0, %pc_lo12(_ZNSt17_Function_handlerIFiPfS0_jEZ4mainE4$_69E10_M_managerERSt9_Any_dataRKS4_St18_Manager_operation)
	lu12i.w	$a1, 2
	ori	$a1, $a1, 2168
	add.d	$a1, $sp, $a1
	st.d	$a0, $a1, 0
.Ltmp510:                               # EH_LABEL
	pcalau12i	$a0, %pc_hi20(.L.str.34)
	addi.d	$a2, $a0, %pc_lo12(.L.str.34)
	lu12i.w	$a0, 2
	ori	$a0, $a0, 2184
	add.d	$a0, $sp, $a0
	lu12i.w	$a1, 2
	ori	$a1, $a1, 2152
	add.d	$a1, $sp, $a1
	pcaddu18i	$ra, %call36(_ZL19checkVectorFunctionIifEvSt8functionIFT_PT0_S3_jEES5_PKc)
	jirl	$ra, $ra, 0
.Ltmp511:                               # EH_LABEL
# %bb.173:
	lu12i.w	$a0, 2
	ori	$a0, $a0, 2168
	add.d	$a0, $sp, $a0
	ld.d	$a3, $a0, 0
	beqz	$a3, .LBB0_175
# %bb.174:
.Ltmp519:                               # EH_LABEL
	lu12i.w	$a0, 2
	ori	$a0, $a0, 2152
	add.d	$a0, $sp, $a0
	lu12i.w	$a1, 2
	ori	$a1, $a1, 2152
	add.d	$a1, $sp, $a1
	ori	$a2, $zero, 3
	jirl	$ra, $a3, 0
.Ltmp520:                               # EH_LABEL
.LBB0_175:                              # %_ZNSt14_Function_baseD2Ev.exit138
	lu12i.w	$a0, 2
	ori	$a0, $a0, 2200
	add.d	$a0, $sp, $a0
	ld.d	$a3, $a0, 0
	beqz	$a3, .LBB0_177
# %bb.176:
.Ltmp522:                               # EH_LABEL
	lu12i.w	$a0, 2
	ori	$a0, $a0, 2184
	add.d	$a0, $sp, $a0
	lu12i.w	$a1, 2
	ori	$a1, $a1, 2184
	add.d	$a1, $sp, $a1
	ori	$a2, $zero, 3
	jirl	$ra, $a3, 0
.Ltmp523:                               # EH_LABEL
.LBB0_177:                              # %_ZNSt14_Function_baseD2Ev.exit140
	vld	$vr0, $sp, 16                   # 16-byte Folded Reload
	lu12i.w	$a0, 2
	ori	$a0, $a0, 2120
	add.d	$a0, $sp, $a0
	vst	$vr0, $a0, 0
	pcalau12i	$a0, %pc_hi20(_ZNSt17_Function_handlerIFiPfS0_jEZ4mainE4$_70E9_M_invokeERKSt9_Any_dataOS0_S7_Oj)
	addi.d	$a0, $a0, %pc_lo12(_ZNSt17_Function_handlerIFiPfS0_jEZ4mainE4$_70E9_M_invokeERKSt9_Any_dataOS0_S7_Oj)
	lu12i.w	$a1, 2
	ori	$a1, $a1, 2144
	add.d	$a1, $sp, $a1
	st.d	$a0, $a1, 0
	pcalau12i	$a0, %pc_hi20(_ZNSt17_Function_handlerIFiPfS0_jEZ4mainE4$_70E10_M_managerERSt9_Any_dataRKS4_St18_Manager_operation)
	addi.d	$a0, $a0, %pc_lo12(_ZNSt17_Function_handlerIFiPfS0_jEZ4mainE4$_70E10_M_managerERSt9_Any_dataRKS4_St18_Manager_operation)
	lu12i.w	$a1, 2
	ori	$a1, $a1, 2136
	add.d	$a1, $sp, $a1
	st.d	$a0, $a1, 0
	lu12i.w	$a0, 2
	ori	$a0, $a0, 2088
	add.d	$a0, $sp, $a0
	vst	$vr0, $a0, 0
	pcalau12i	$a0, %pc_hi20(_ZNSt17_Function_handlerIFiPfS0_jEZ4mainE4$_71E9_M_invokeERKSt9_Any_dataOS0_S7_Oj)
	addi.d	$a0, $a0, %pc_lo12(_ZNSt17_Function_handlerIFiPfS0_jEZ4mainE4$_71E9_M_invokeERKSt9_Any_dataOS0_S7_Oj)
	lu12i.w	$a1, 2
	ori	$a1, $a1, 2112
	add.d	$a1, $sp, $a1
	st.d	$a0, $a1, 0
	pcalau12i	$a0, %pc_hi20(_ZNSt17_Function_handlerIFiPfS0_jEZ4mainE4$_71E10_M_managerERSt9_Any_dataRKS4_St18_Manager_operation)
	addi.d	$a0, $a0, %pc_lo12(_ZNSt17_Function_handlerIFiPfS0_jEZ4mainE4$_71E10_M_managerERSt9_Any_dataRKS4_St18_Manager_operation)
	lu12i.w	$a1, 2
	ori	$a1, $a1, 2104
	add.d	$a1, $sp, $a1
	st.d	$a0, $a1, 0
.Ltmp525:                               # EH_LABEL
	pcalau12i	$a0, %pc_hi20(.L.str.35)
	addi.d	$a2, $a0, %pc_lo12(.L.str.35)
	lu12i.w	$a0, 2
	ori	$a0, $a0, 2120
	add.d	$a0, $sp, $a0
	lu12i.w	$a1, 2
	ori	$a1, $a1, 2088
	add.d	$a1, $sp, $a1
	pcaddu18i	$ra, %call36(_ZL19checkVectorFunctionIifEvSt8functionIFT_PT0_S3_jEES5_PKc)
	jirl	$ra, $ra, 0
.Ltmp526:                               # EH_LABEL
# %bb.178:
	lu12i.w	$a0, 2
	ori	$a0, $a0, 2104
	add.d	$a0, $sp, $a0
	ld.d	$a3, $a0, 0
	beqz	$a3, .LBB0_180
# %bb.179:
.Ltmp534:                               # EH_LABEL
	lu12i.w	$a0, 2
	ori	$a0, $a0, 2088
	add.d	$a0, $sp, $a0
	lu12i.w	$a1, 2
	ori	$a1, $a1, 2088
	add.d	$a1, $sp, $a1
	ori	$a2, $zero, 3
	jirl	$ra, $a3, 0
.Ltmp535:                               # EH_LABEL
.LBB0_180:                              # %_ZNSt14_Function_baseD2Ev.exit142
	lu12i.w	$a0, 2
	ori	$a0, $a0, 2136
	add.d	$a0, $sp, $a0
	ld.d	$a3, $a0, 0
	beqz	$a3, .LBB0_182
# %bb.181:
.Ltmp537:                               # EH_LABEL
	lu12i.w	$a0, 2
	ori	$a0, $a0, 2120
	add.d	$a0, $sp, $a0
	lu12i.w	$a1, 2
	ori	$a1, $a1, 2120
	add.d	$a1, $sp, $a1
	ori	$a2, $zero, 3
	jirl	$ra, $a3, 0
.Ltmp538:                               # EH_LABEL
.LBB0_182:                              # %_ZNSt14_Function_baseD2Ev.exit144
	vld	$vr0, $sp, 16                   # 16-byte Folded Reload
	lu12i.w	$a0, 2
	ori	$a0, $a0, 2056
	add.d	$a0, $sp, $a0
	vst	$vr0, $a0, 0
	pcalau12i	$a0, %pc_hi20(_ZNSt17_Function_handlerIFiPfS0_jEZ4mainE4$_72E9_M_invokeERKSt9_Any_dataOS0_S7_Oj)
	addi.d	$a0, $a0, %pc_lo12(_ZNSt17_Function_handlerIFiPfS0_jEZ4mainE4$_72E9_M_invokeERKSt9_Any_dataOS0_S7_Oj)
	lu12i.w	$a1, 2
	ori	$a1, $a1, 2080
	add.d	$a1, $sp, $a1
	st.d	$a0, $a1, 0
	pcalau12i	$a0, %pc_hi20(_ZNSt17_Function_handlerIFiPfS0_jEZ4mainE4$_72E10_M_managerERSt9_Any_dataRKS4_St18_Manager_operation)
	addi.d	$a0, $a0, %pc_lo12(_ZNSt17_Function_handlerIFiPfS0_jEZ4mainE4$_72E10_M_managerERSt9_Any_dataRKS4_St18_Manager_operation)
	lu12i.w	$a1, 2
	ori	$a1, $a1, 2072
	add.d	$a1, $sp, $a1
	st.d	$a0, $a1, 0
	lu12i.w	$a0, 2
	ori	$a0, $a0, 2024
	add.d	$a0, $sp, $a0
	vst	$vr0, $a0, 0
	pcalau12i	$a0, %pc_hi20(_ZNSt17_Function_handlerIFiPfS0_jEZ4mainE4$_73E9_M_invokeERKSt9_Any_dataOS0_S7_Oj)
	addi.d	$a0, $a0, %pc_lo12(_ZNSt17_Function_handlerIFiPfS0_jEZ4mainE4$_73E9_M_invokeERKSt9_Any_dataOS0_S7_Oj)
	lu12i.w	$a1, 2
	ori	$a1, $a1, 2048
	add.d	$a1, $sp, $a1
	st.d	$a0, $a1, 0
	pcalau12i	$a0, %pc_hi20(_ZNSt17_Function_handlerIFiPfS0_jEZ4mainE4$_73E10_M_managerERSt9_Any_dataRKS4_St18_Manager_operation)
	addi.d	$a0, $a0, %pc_lo12(_ZNSt17_Function_handlerIFiPfS0_jEZ4mainE4$_73E10_M_managerERSt9_Any_dataRKS4_St18_Manager_operation)
	lu12i.w	$a1, 2
	ori	$a1, $a1, 2040
	add.d	$a1, $sp, $a1
	st.d	$a0, $a1, 0
.Ltmp540:                               # EH_LABEL
	pcalau12i	$a0, %pc_hi20(.L.str.36)
	addi.d	$a2, $a0, %pc_lo12(.L.str.36)
	lu12i.w	$a0, 2
	ori	$a0, $a0, 2056
	add.d	$a0, $sp, $a0
	lu12i.w	$a1, 2
	ori	$a1, $a1, 2024
	add.d	$a1, $sp, $a1
	pcaddu18i	$ra, %call36(_ZL19checkVectorFunctionIifEvSt8functionIFT_PT0_S3_jEES5_PKc)
	jirl	$ra, $ra, 0
.Ltmp541:                               # EH_LABEL
# %bb.183:
	lu12i.w	$a0, 2
	ori	$a0, $a0, 2040
	add.d	$a0, $sp, $a0
	ld.d	$a3, $a0, 0
	beqz	$a3, .LBB0_185
# %bb.184:
.Ltmp549:                               # EH_LABEL
	lu12i.w	$a0, 2
	ori	$a0, $a0, 2024
	add.d	$a0, $sp, $a0
	lu12i.w	$a1, 2
	ori	$a1, $a1, 2024
	add.d	$a1, $sp, $a1
	ori	$a2, $zero, 3
	jirl	$ra, $a3, 0
.Ltmp550:                               # EH_LABEL
.LBB0_185:                              # %_ZNSt14_Function_baseD2Ev.exit146
	lu12i.w	$a0, 2
	ori	$a0, $a0, 2072
	add.d	$a0, $sp, $a0
	ld.d	$a3, $a0, 0
	beqz	$a3, .LBB0_187
# %bb.186:
.Ltmp552:                               # EH_LABEL
	lu12i.w	$a0, 2
	ori	$a0, $a0, 2056
	add.d	$a0, $sp, $a0
	lu12i.w	$a1, 2
	ori	$a1, $a1, 2056
	add.d	$a1, $sp, $a1
	ori	$a2, $zero, 3
	jirl	$ra, $a3, 0
.Ltmp553:                               # EH_LABEL
.LBB0_187:                              # %_ZNSt14_Function_baseD2Ev.exit148
	vld	$vr0, $sp, 16                   # 16-byte Folded Reload
	lu12i.w	$a0, 2
	ori	$a0, $a0, 1992
	add.d	$a0, $sp, $a0
	vst	$vr0, $a0, 0
	pcalau12i	$a0, %pc_hi20(_ZNSt17_Function_handlerIFiPfS0_jEZ4mainE4$_74E9_M_invokeERKSt9_Any_dataOS0_S7_Oj)
	addi.d	$a0, $a0, %pc_lo12(_ZNSt17_Function_handlerIFiPfS0_jEZ4mainE4$_74E9_M_invokeERKSt9_Any_dataOS0_S7_Oj)
	lu12i.w	$a1, 2
	ori	$a1, $a1, 2016
	add.d	$a1, $sp, $a1
	st.d	$a0, $a1, 0
	pcalau12i	$a0, %pc_hi20(_ZNSt17_Function_handlerIFiPfS0_jEZ4mainE4$_74E10_M_managerERSt9_Any_dataRKS4_St18_Manager_operation)
	addi.d	$a0, $a0, %pc_lo12(_ZNSt17_Function_handlerIFiPfS0_jEZ4mainE4$_74E10_M_managerERSt9_Any_dataRKS4_St18_Manager_operation)
	lu12i.w	$a1, 2
	ori	$a1, $a1, 2008
	add.d	$a1, $sp, $a1
	st.d	$a0, $a1, 0
	lu12i.w	$a0, 2
	ori	$a0, $a0, 1960
	add.d	$a0, $sp, $a0
	vst	$vr0, $a0, 0
	pcalau12i	$a0, %pc_hi20(_ZNSt17_Function_handlerIFiPfS0_jEZ4mainE4$_75E9_M_invokeERKSt9_Any_dataOS0_S7_Oj)
	addi.d	$a0, $a0, %pc_lo12(_ZNSt17_Function_handlerIFiPfS0_jEZ4mainE4$_75E9_M_invokeERKSt9_Any_dataOS0_S7_Oj)
	lu12i.w	$a1, 2
	ori	$a1, $a1, 1984
	add.d	$a1, $sp, $a1
	st.d	$a0, $a1, 0
	pcalau12i	$a0, %pc_hi20(_ZNSt17_Function_handlerIFiPfS0_jEZ4mainE4$_75E10_M_managerERSt9_Any_dataRKS4_St18_Manager_operation)
	addi.d	$a0, $a0, %pc_lo12(_ZNSt17_Function_handlerIFiPfS0_jEZ4mainE4$_75E10_M_managerERSt9_Any_dataRKS4_St18_Manager_operation)
	lu12i.w	$a1, 2
	ori	$a1, $a1, 1976
	add.d	$a1, $sp, $a1
	st.d	$a0, $a1, 0
.Ltmp555:                               # EH_LABEL
	pcalau12i	$a0, %pc_hi20(.L.str.37)
	addi.d	$a2, $a0, %pc_lo12(.L.str.37)
	lu12i.w	$a0, 2
	ori	$a0, $a0, 1992
	add.d	$a0, $sp, $a0
	lu12i.w	$a1, 2
	ori	$a1, $a1, 1960
	add.d	$a1, $sp, $a1
	pcaddu18i	$ra, %call36(_ZL19checkVectorFunctionIifEvSt8functionIFT_PT0_S3_jEES5_PKc)
	jirl	$ra, $ra, 0
.Ltmp556:                               # EH_LABEL
# %bb.188:
	lu12i.w	$a0, 2
	ori	$a0, $a0, 1976
	add.d	$a0, $sp, $a0
	ld.d	$a3, $a0, 0
	beqz	$a3, .LBB0_190
# %bb.189:
.Ltmp564:                               # EH_LABEL
	lu12i.w	$a0, 2
	ori	$a0, $a0, 1960
	add.d	$a0, $sp, $a0
	lu12i.w	$a1, 2
	ori	$a1, $a1, 1960
	add.d	$a1, $sp, $a1
	ori	$a2, $zero, 3
	jirl	$ra, $a3, 0
.Ltmp565:                               # EH_LABEL
.LBB0_190:                              # %_ZNSt14_Function_baseD2Ev.exit150
	lu12i.w	$a0, 2
	ori	$a0, $a0, 2008
	add.d	$a0, $sp, $a0
	ld.d	$a3, $a0, 0
	beqz	$a3, .LBB0_192
# %bb.191:
.Ltmp567:                               # EH_LABEL
	lu12i.w	$a0, 2
	ori	$a0, $a0, 1992
	add.d	$a0, $sp, $a0
	lu12i.w	$a1, 2
	ori	$a1, $a1, 1992
	add.d	$a1, $sp, $a1
	ori	$a2, $zero, 3
	jirl	$ra, $a3, 0
.Ltmp568:                               # EH_LABEL
.LBB0_192:                              # %_ZNSt14_Function_baseD2Ev.exit152
	vld	$vr0, $sp, 16                   # 16-byte Folded Reload
	lu12i.w	$a0, 2
	ori	$a0, $a0, 1928
	add.d	$a0, $sp, $a0
	vst	$vr0, $a0, 0
	pcalau12i	$a0, %pc_hi20(_ZNSt17_Function_handlerIFiPfS0_jEZ4mainE4$_76E9_M_invokeERKSt9_Any_dataOS0_S7_Oj)
	addi.d	$a0, $a0, %pc_lo12(_ZNSt17_Function_handlerIFiPfS0_jEZ4mainE4$_76E9_M_invokeERKSt9_Any_dataOS0_S7_Oj)
	lu12i.w	$a1, 2
	ori	$a1, $a1, 1952
	add.d	$a1, $sp, $a1
	st.d	$a0, $a1, 0
	pcalau12i	$a0, %pc_hi20(_ZNSt17_Function_handlerIFiPfS0_jEZ4mainE4$_76E10_M_managerERSt9_Any_dataRKS4_St18_Manager_operation)
	addi.d	$a0, $a0, %pc_lo12(_ZNSt17_Function_handlerIFiPfS0_jEZ4mainE4$_76E10_M_managerERSt9_Any_dataRKS4_St18_Manager_operation)
	lu12i.w	$a1, 2
	ori	$a1, $a1, 1944
	add.d	$a1, $sp, $a1
	st.d	$a0, $a1, 0
	lu12i.w	$a0, 2
	ori	$a0, $a0, 1896
	add.d	$a0, $sp, $a0
	vst	$vr0, $a0, 0
	pcalau12i	$a0, %pc_hi20(_ZNSt17_Function_handlerIFiPfS0_jEZ4mainE4$_77E9_M_invokeERKSt9_Any_dataOS0_S7_Oj)
	addi.d	$a0, $a0, %pc_lo12(_ZNSt17_Function_handlerIFiPfS0_jEZ4mainE4$_77E9_M_invokeERKSt9_Any_dataOS0_S7_Oj)
	lu12i.w	$a1, 2
	ori	$a1, $a1, 1920
	add.d	$a1, $sp, $a1
	st.d	$a0, $a1, 0
	pcalau12i	$a0, %pc_hi20(_ZNSt17_Function_handlerIFiPfS0_jEZ4mainE4$_77E10_M_managerERSt9_Any_dataRKS4_St18_Manager_operation)
	addi.d	$a0, $a0, %pc_lo12(_ZNSt17_Function_handlerIFiPfS0_jEZ4mainE4$_77E10_M_managerERSt9_Any_dataRKS4_St18_Manager_operation)
	lu12i.w	$a1, 2
	ori	$a1, $a1, 1912
	add.d	$a1, $sp, $a1
	st.d	$a0, $a1, 0
.Ltmp570:                               # EH_LABEL
	pcalau12i	$a0, %pc_hi20(.L.str.38)
	addi.d	$a2, $a0, %pc_lo12(.L.str.38)
	lu12i.w	$a0, 2
	ori	$a0, $a0, 1928
	add.d	$a0, $sp, $a0
	lu12i.w	$a1, 2
	ori	$a1, $a1, 1896
	add.d	$a1, $sp, $a1
	pcaddu18i	$ra, %call36(_ZL19checkVectorFunctionIifEvSt8functionIFT_PT0_S3_jEES5_PKc)
	jirl	$ra, $ra, 0
.Ltmp571:                               # EH_LABEL
# %bb.193:
	lu12i.w	$a0, 2
	ori	$a0, $a0, 1912
	add.d	$a0, $sp, $a0
	ld.d	$a3, $a0, 0
	beqz	$a3, .LBB0_195
# %bb.194:
.Ltmp579:                               # EH_LABEL
	lu12i.w	$a0, 2
	ori	$a0, $a0, 1896
	add.d	$a0, $sp, $a0
	lu12i.w	$a1, 2
	ori	$a1, $a1, 1896
	add.d	$a1, $sp, $a1
	ori	$a2, $zero, 3
	jirl	$ra, $a3, 0
.Ltmp580:                               # EH_LABEL
.LBB0_195:                              # %_ZNSt14_Function_baseD2Ev.exit154
	lu12i.w	$a0, 2
	ori	$a0, $a0, 1944
	add.d	$a0, $sp, $a0
	ld.d	$a3, $a0, 0
	beqz	$a3, .LBB0_197
# %bb.196:
.Ltmp582:                               # EH_LABEL
	lu12i.w	$a0, 2
	ori	$a0, $a0, 1928
	add.d	$a0, $sp, $a0
	lu12i.w	$a1, 2
	ori	$a1, $a1, 1928
	add.d	$a1, $sp, $a1
	ori	$a2, $zero, 3
	jirl	$ra, $a3, 0
.Ltmp583:                               # EH_LABEL
.LBB0_197:                              # %_ZNSt14_Function_baseD2Ev.exit156
	vld	$vr0, $sp, 16                   # 16-byte Folded Reload
	lu12i.w	$a0, 2
	ori	$a0, $a0, 1864
	add.d	$a0, $sp, $a0
	vst	$vr0, $a0, 0
	pcalau12i	$a0, %pc_hi20(_ZNSt17_Function_handlerIFiPfS0_jEZ4mainE4$_78E9_M_invokeERKSt9_Any_dataOS0_S7_Oj)
	addi.d	$a0, $a0, %pc_lo12(_ZNSt17_Function_handlerIFiPfS0_jEZ4mainE4$_78E9_M_invokeERKSt9_Any_dataOS0_S7_Oj)
	lu12i.w	$a1, 2
	ori	$a1, $a1, 1888
	add.d	$a1, $sp, $a1
	st.d	$a0, $a1, 0
	pcalau12i	$a0, %pc_hi20(_ZNSt17_Function_handlerIFiPfS0_jEZ4mainE4$_78E10_M_managerERSt9_Any_dataRKS4_St18_Manager_operation)
	addi.d	$a0, $a0, %pc_lo12(_ZNSt17_Function_handlerIFiPfS0_jEZ4mainE4$_78E10_M_managerERSt9_Any_dataRKS4_St18_Manager_operation)
	lu12i.w	$a1, 2
	ori	$a1, $a1, 1880
	add.d	$a1, $sp, $a1
	st.d	$a0, $a1, 0
	lu12i.w	$a0, 2
	ori	$a0, $a0, 1832
	add.d	$a0, $sp, $a0
	vst	$vr0, $a0, 0
	pcalau12i	$a0, %pc_hi20(_ZNSt17_Function_handlerIFiPfS0_jEZ4mainE4$_79E9_M_invokeERKSt9_Any_dataOS0_S7_Oj)
	addi.d	$a0, $a0, %pc_lo12(_ZNSt17_Function_handlerIFiPfS0_jEZ4mainE4$_79E9_M_invokeERKSt9_Any_dataOS0_S7_Oj)
	lu12i.w	$a1, 2
	ori	$a1, $a1, 1856
	add.d	$a1, $sp, $a1
	st.d	$a0, $a1, 0
	pcalau12i	$a0, %pc_hi20(_ZNSt17_Function_handlerIFiPfS0_jEZ4mainE4$_79E10_M_managerERSt9_Any_dataRKS4_St18_Manager_operation)
	addi.d	$a0, $a0, %pc_lo12(_ZNSt17_Function_handlerIFiPfS0_jEZ4mainE4$_79E10_M_managerERSt9_Any_dataRKS4_St18_Manager_operation)
	lu12i.w	$a1, 2
	ori	$a1, $a1, 1848
	add.d	$a1, $sp, $a1
	st.d	$a0, $a1, 0
.Ltmp585:                               # EH_LABEL
	pcalau12i	$a0, %pc_hi20(.L.str.39)
	addi.d	$a2, $a0, %pc_lo12(.L.str.39)
	lu12i.w	$a0, 2
	ori	$a0, $a0, 1864
	add.d	$a0, $sp, $a0
	lu12i.w	$a1, 2
	ori	$a1, $a1, 1832
	add.d	$a1, $sp, $a1
	pcaddu18i	$ra, %call36(_ZL19checkVectorFunctionIifEvSt8functionIFT_PT0_S3_jEES5_PKc)
	jirl	$ra, $ra, 0
.Ltmp586:                               # EH_LABEL
# %bb.198:
	lu12i.w	$a0, 2
	ori	$a0, $a0, 1848
	add.d	$a0, $sp, $a0
	ld.d	$a3, $a0, 0
	beqz	$a3, .LBB0_200
# %bb.199:
.Ltmp594:                               # EH_LABEL
	lu12i.w	$a0, 2
	ori	$a0, $a0, 1832
	add.d	$a0, $sp, $a0
	lu12i.w	$a1, 2
	ori	$a1, $a1, 1832
	add.d	$a1, $sp, $a1
	ori	$a2, $zero, 3
	jirl	$ra, $a3, 0
.Ltmp595:                               # EH_LABEL
.LBB0_200:                              # %_ZNSt14_Function_baseD2Ev.exit158
	lu12i.w	$a0, 2
	ori	$a0, $a0, 1880
	add.d	$a0, $sp, $a0
	ld.d	$a3, $a0, 0
	beqz	$a3, .LBB0_202
# %bb.201:
.Ltmp597:                               # EH_LABEL
	lu12i.w	$a0, 2
	ori	$a0, $a0, 1864
	add.d	$a0, $sp, $a0
	lu12i.w	$a1, 2
	ori	$a1, $a1, 1864
	add.d	$a1, $sp, $a1
	ori	$a2, $zero, 3
	jirl	$ra, $a3, 0
.Ltmp598:                               # EH_LABEL
.LBB0_202:                              # %_ZNSt14_Function_baseD2Ev.exit160
	vld	$vr0, $sp, 16                   # 16-byte Folded Reload
	lu12i.w	$a0, 2
	ori	$a0, $a0, 1800
	add.d	$a0, $sp, $a0
	vst	$vr0, $a0, 0
	pcalau12i	$a0, %pc_hi20(_ZNSt17_Function_handlerIFiPfS0_jEZ4mainE4$_80E9_M_invokeERKSt9_Any_dataOS0_S7_Oj)
	addi.d	$a0, $a0, %pc_lo12(_ZNSt17_Function_handlerIFiPfS0_jEZ4mainE4$_80E9_M_invokeERKSt9_Any_dataOS0_S7_Oj)
	lu12i.w	$a1, 2
	ori	$a1, $a1, 1824
	add.d	$a1, $sp, $a1
	st.d	$a0, $a1, 0
	pcalau12i	$a0, %pc_hi20(_ZNSt17_Function_handlerIFiPfS0_jEZ4mainE4$_80E10_M_managerERSt9_Any_dataRKS4_St18_Manager_operation)
	addi.d	$a0, $a0, %pc_lo12(_ZNSt17_Function_handlerIFiPfS0_jEZ4mainE4$_80E10_M_managerERSt9_Any_dataRKS4_St18_Manager_operation)
	lu12i.w	$a1, 2
	ori	$a1, $a1, 1816
	add.d	$a1, $sp, $a1
	st.d	$a0, $a1, 0
	lu12i.w	$a0, 2
	ori	$a0, $a0, 1768
	add.d	$a0, $sp, $a0
	vst	$vr0, $a0, 0
	pcalau12i	$a0, %pc_hi20(_ZNSt17_Function_handlerIFiPfS0_jEZ4mainE4$_81E9_M_invokeERKSt9_Any_dataOS0_S7_Oj)
	addi.d	$a0, $a0, %pc_lo12(_ZNSt17_Function_handlerIFiPfS0_jEZ4mainE4$_81E9_M_invokeERKSt9_Any_dataOS0_S7_Oj)
	lu12i.w	$a1, 2
	ori	$a1, $a1, 1792
	add.d	$a1, $sp, $a1
	st.d	$a0, $a1, 0
	pcalau12i	$a0, %pc_hi20(_ZNSt17_Function_handlerIFiPfS0_jEZ4mainE4$_81E10_M_managerERSt9_Any_dataRKS4_St18_Manager_operation)
	addi.d	$a0, $a0, %pc_lo12(_ZNSt17_Function_handlerIFiPfS0_jEZ4mainE4$_81E10_M_managerERSt9_Any_dataRKS4_St18_Manager_operation)
	lu12i.w	$a1, 2
	ori	$a1, $a1, 1784
	add.d	$a1, $sp, $a1
	st.d	$a0, $a1, 0
.Ltmp600:                               # EH_LABEL
	pcalau12i	$a0, %pc_hi20(.L.str.40)
	addi.d	$a2, $a0, %pc_lo12(.L.str.40)
	lu12i.w	$a0, 2
	ori	$a0, $a0, 1800
	add.d	$a0, $sp, $a0
	lu12i.w	$a1, 2
	ori	$a1, $a1, 1768
	add.d	$a1, $sp, $a1
	pcaddu18i	$ra, %call36(_ZL19checkVectorFunctionIifEvSt8functionIFT_PT0_S3_jEES5_PKc)
	jirl	$ra, $ra, 0
.Ltmp601:                               # EH_LABEL
# %bb.203:
	lu12i.w	$a0, 2
	ori	$a0, $a0, 1784
	add.d	$a0, $sp, $a0
	ld.d	$a3, $a0, 0
	beqz	$a3, .LBB0_205
# %bb.204:
.Ltmp609:                               # EH_LABEL
	lu12i.w	$a0, 2
	ori	$a0, $a0, 1768
	add.d	$a0, $sp, $a0
	lu12i.w	$a1, 2
	ori	$a1, $a1, 1768
	add.d	$a1, $sp, $a1
	ori	$a2, $zero, 3
	jirl	$ra, $a3, 0
.Ltmp610:                               # EH_LABEL
.LBB0_205:                              # %_ZNSt14_Function_baseD2Ev.exit162
	lu12i.w	$a0, 2
	ori	$a0, $a0, 1816
	add.d	$a0, $sp, $a0
	ld.d	$a3, $a0, 0
	beqz	$a3, .LBB0_207
# %bb.206:
.Ltmp612:                               # EH_LABEL
	lu12i.w	$a0, 2
	ori	$a0, $a0, 1800
	add.d	$a0, $sp, $a0
	lu12i.w	$a1, 2
	ori	$a1, $a1, 1800
	add.d	$a1, $sp, $a1
	ori	$a2, $zero, 3
	jirl	$ra, $a3, 0
.Ltmp613:                               # EH_LABEL
.LBB0_207:                              # %_ZNSt14_Function_baseD2Ev.exit164
	vld	$vr0, $sp, 16                   # 16-byte Folded Reload
	lu12i.w	$a0, 2
	ori	$a0, $a0, 1736
	add.d	$a0, $sp, $a0
	vst	$vr0, $a0, 0
	pcalau12i	$a0, %pc_hi20(_ZNSt17_Function_handlerIFiPfS0_jEZ4mainE4$_82E9_M_invokeERKSt9_Any_dataOS0_S7_Oj)
	addi.d	$a0, $a0, %pc_lo12(_ZNSt17_Function_handlerIFiPfS0_jEZ4mainE4$_82E9_M_invokeERKSt9_Any_dataOS0_S7_Oj)
	lu12i.w	$a1, 2
	ori	$a1, $a1, 1760
	add.d	$a1, $sp, $a1
	st.d	$a0, $a1, 0
	pcalau12i	$a0, %pc_hi20(_ZNSt17_Function_handlerIFiPfS0_jEZ4mainE4$_82E10_M_managerERSt9_Any_dataRKS4_St18_Manager_operation)
	addi.d	$a0, $a0, %pc_lo12(_ZNSt17_Function_handlerIFiPfS0_jEZ4mainE4$_82E10_M_managerERSt9_Any_dataRKS4_St18_Manager_operation)
	lu12i.w	$a1, 2
	ori	$a1, $a1, 1752
	add.d	$a1, $sp, $a1
	st.d	$a0, $a1, 0
	lu12i.w	$a0, 2
	ori	$a0, $a0, 1704
	add.d	$a0, $sp, $a0
	vst	$vr0, $a0, 0
	pcalau12i	$a0, %pc_hi20(_ZNSt17_Function_handlerIFiPfS0_jEZ4mainE4$_83E9_M_invokeERKSt9_Any_dataOS0_S7_Oj)
	addi.d	$a0, $a0, %pc_lo12(_ZNSt17_Function_handlerIFiPfS0_jEZ4mainE4$_83E9_M_invokeERKSt9_Any_dataOS0_S7_Oj)
	lu12i.w	$a1, 2
	ori	$a1, $a1, 1728
	add.d	$a1, $sp, $a1
	st.d	$a0, $a1, 0
	pcalau12i	$a0, %pc_hi20(_ZNSt17_Function_handlerIFiPfS0_jEZ4mainE4$_83E10_M_managerERSt9_Any_dataRKS4_St18_Manager_operation)
	addi.d	$a0, $a0, %pc_lo12(_ZNSt17_Function_handlerIFiPfS0_jEZ4mainE4$_83E10_M_managerERSt9_Any_dataRKS4_St18_Manager_operation)
	lu12i.w	$a1, 2
	ori	$a1, $a1, 1720
	add.d	$a1, $sp, $a1
	st.d	$a0, $a1, 0
.Ltmp615:                               # EH_LABEL
	pcalau12i	$a0, %pc_hi20(.L.str.41)
	addi.d	$a2, $a0, %pc_lo12(.L.str.41)
	lu12i.w	$a0, 2
	ori	$a0, $a0, 1736
	add.d	$a0, $sp, $a0
	lu12i.w	$a1, 2
	ori	$a1, $a1, 1704
	add.d	$a1, $sp, $a1
	pcaddu18i	$ra, %call36(_ZL19checkVectorFunctionIifEvSt8functionIFT_PT0_S3_jEES5_PKc)
	jirl	$ra, $ra, 0
.Ltmp616:                               # EH_LABEL
# %bb.208:
	lu12i.w	$a0, 2
	ori	$a0, $a0, 1720
	add.d	$a0, $sp, $a0
	ld.d	$a3, $a0, 0
	beqz	$a3, .LBB0_210
# %bb.209:
.Ltmp624:                               # EH_LABEL
	lu12i.w	$a0, 2
	ori	$a0, $a0, 1704
	add.d	$a0, $sp, $a0
	lu12i.w	$a1, 2
	ori	$a1, $a1, 1704
	add.d	$a1, $sp, $a1
	ori	$a2, $zero, 3
	jirl	$ra, $a3, 0
.Ltmp625:                               # EH_LABEL
.LBB0_210:                              # %_ZNSt14_Function_baseD2Ev.exit166
	lu12i.w	$a0, 2
	ori	$a0, $a0, 1752
	add.d	$a0, $sp, $a0
	ld.d	$a3, $a0, 0
	beqz	$a3, .LBB0_212
# %bb.211:
.Ltmp627:                               # EH_LABEL
	lu12i.w	$a0, 2
	ori	$a0, $a0, 1736
	add.d	$a0, $sp, $a0
	lu12i.w	$a1, 2
	ori	$a1, $a1, 1736
	add.d	$a1, $sp, $a1
	ori	$a2, $zero, 3
	jirl	$ra, $a3, 0
.Ltmp628:                               # EH_LABEL
.LBB0_212:                              # %_ZNSt14_Function_baseD2Ev.exit168
	vld	$vr0, $sp, 16                   # 16-byte Folded Reload
	lu12i.w	$a0, 2
	ori	$a0, $a0, 1672
	add.d	$a0, $sp, $a0
	vst	$vr0, $a0, 0
	pcalau12i	$a0, %pc_hi20(_ZNSt17_Function_handlerIFiPfS0_jEZ4mainE4$_84E9_M_invokeERKSt9_Any_dataOS0_S7_Oj)
	addi.d	$a0, $a0, %pc_lo12(_ZNSt17_Function_handlerIFiPfS0_jEZ4mainE4$_84E9_M_invokeERKSt9_Any_dataOS0_S7_Oj)
	lu12i.w	$a1, 2
	ori	$a1, $a1, 1696
	add.d	$a1, $sp, $a1
	st.d	$a0, $a1, 0
	pcalau12i	$a0, %pc_hi20(_ZNSt17_Function_handlerIFiPfS0_jEZ4mainE4$_84E10_M_managerERSt9_Any_dataRKS4_St18_Manager_operation)
	addi.d	$a0, $a0, %pc_lo12(_ZNSt17_Function_handlerIFiPfS0_jEZ4mainE4$_84E10_M_managerERSt9_Any_dataRKS4_St18_Manager_operation)
	lu12i.w	$a1, 2
	ori	$a1, $a1, 1688
	add.d	$a1, $sp, $a1
	st.d	$a0, $a1, 0
	lu12i.w	$a0, 2
	ori	$a0, $a0, 1640
	add.d	$a0, $sp, $a0
	vst	$vr0, $a0, 0
	pcalau12i	$a0, %pc_hi20(_ZNSt17_Function_handlerIFiPfS0_jEZ4mainE4$_85E9_M_invokeERKSt9_Any_dataOS0_S7_Oj)
	addi.d	$a0, $a0, %pc_lo12(_ZNSt17_Function_handlerIFiPfS0_jEZ4mainE4$_85E9_M_invokeERKSt9_Any_dataOS0_S7_Oj)
	lu12i.w	$a1, 2
	ori	$a1, $a1, 1664
	add.d	$a1, $sp, $a1
	st.d	$a0, $a1, 0
	pcalau12i	$a0, %pc_hi20(_ZNSt17_Function_handlerIFiPfS0_jEZ4mainE4$_85E10_M_managerERSt9_Any_dataRKS4_St18_Manager_operation)
	addi.d	$a0, $a0, %pc_lo12(_ZNSt17_Function_handlerIFiPfS0_jEZ4mainE4$_85E10_M_managerERSt9_Any_dataRKS4_St18_Manager_operation)
	lu12i.w	$a1, 2
	ori	$a1, $a1, 1656
	add.d	$a1, $sp, $a1
	st.d	$a0, $a1, 0
.Ltmp630:                               # EH_LABEL
	pcalau12i	$a0, %pc_hi20(.L.str.42)
	addi.d	$a2, $a0, %pc_lo12(.L.str.42)
	lu12i.w	$a0, 2
	ori	$a0, $a0, 1672
	add.d	$a0, $sp, $a0
	lu12i.w	$a1, 2
	ori	$a1, $a1, 1640
	add.d	$a1, $sp, $a1
	pcaddu18i	$ra, %call36(_ZL19checkVectorFunctionIifEvSt8functionIFT_PT0_S3_jEES5_PKc)
	jirl	$ra, $ra, 0
.Ltmp631:                               # EH_LABEL
# %bb.213:
	lu12i.w	$a0, 2
	ori	$a0, $a0, 1656
	add.d	$a0, $sp, $a0
	ld.d	$a3, $a0, 0
	beqz	$a3, .LBB0_215
# %bb.214:
.Ltmp639:                               # EH_LABEL
	lu12i.w	$a0, 2
	ori	$a0, $a0, 1640
	add.d	$a0, $sp, $a0
	lu12i.w	$a1, 2
	ori	$a1, $a1, 1640
	add.d	$a1, $sp, $a1
	ori	$a2, $zero, 3
	jirl	$ra, $a3, 0
.Ltmp640:                               # EH_LABEL
.LBB0_215:                              # %_ZNSt14_Function_baseD2Ev.exit170
	lu12i.w	$a0, 2
	ori	$a0, $a0, 1688
	add.d	$a0, $sp, $a0
	ld.d	$a3, $a0, 0
	beqz	$a3, .LBB0_217
# %bb.216:
.Ltmp642:                               # EH_LABEL
	lu12i.w	$a0, 2
	ori	$a0, $a0, 1672
	add.d	$a0, $sp, $a0
	lu12i.w	$a1, 2
	ori	$a1, $a1, 1672
	add.d	$a1, $sp, $a1
	ori	$a2, $zero, 3
	jirl	$ra, $a3, 0
.Ltmp643:                               # EH_LABEL
.LBB0_217:                              # %_ZNSt14_Function_baseD2Ev.exit172
	vld	$vr0, $sp, 16                   # 16-byte Folded Reload
	lu12i.w	$a0, 2
	ori	$a0, $a0, 1608
	add.d	$a0, $sp, $a0
	vst	$vr0, $a0, 0
	pcalau12i	$a0, %pc_hi20(_ZNSt17_Function_handlerIFiPfS0_jEZ4mainE4$_86E9_M_invokeERKSt9_Any_dataOS0_S7_Oj)
	addi.d	$a0, $a0, %pc_lo12(_ZNSt17_Function_handlerIFiPfS0_jEZ4mainE4$_86E9_M_invokeERKSt9_Any_dataOS0_S7_Oj)
	lu12i.w	$a1, 2
	ori	$a1, $a1, 1632
	add.d	$a1, $sp, $a1
	st.d	$a0, $a1, 0
	pcalau12i	$a0, %pc_hi20(_ZNSt17_Function_handlerIFiPfS0_jEZ4mainE4$_86E10_M_managerERSt9_Any_dataRKS4_St18_Manager_operation)
	addi.d	$a0, $a0, %pc_lo12(_ZNSt17_Function_handlerIFiPfS0_jEZ4mainE4$_86E10_M_managerERSt9_Any_dataRKS4_St18_Manager_operation)
	lu12i.w	$a1, 2
	ori	$a1, $a1, 1624
	add.d	$a1, $sp, $a1
	st.d	$a0, $a1, 0
	lu12i.w	$a0, 2
	ori	$a0, $a0, 1576
	add.d	$a0, $sp, $a0
	vst	$vr0, $a0, 0
	pcalau12i	$a0, %pc_hi20(_ZNSt17_Function_handlerIFiPfS0_jEZ4mainE4$_87E9_M_invokeERKSt9_Any_dataOS0_S7_Oj)
	addi.d	$a0, $a0, %pc_lo12(_ZNSt17_Function_handlerIFiPfS0_jEZ4mainE4$_87E9_M_invokeERKSt9_Any_dataOS0_S7_Oj)
	lu12i.w	$a1, 2
	ori	$a1, $a1, 1600
	add.d	$a1, $sp, $a1
	st.d	$a0, $a1, 0
	pcalau12i	$a0, %pc_hi20(_ZNSt17_Function_handlerIFiPfS0_jEZ4mainE4$_87E10_M_managerERSt9_Any_dataRKS4_St18_Manager_operation)
	addi.d	$a0, $a0, %pc_lo12(_ZNSt17_Function_handlerIFiPfS0_jEZ4mainE4$_87E10_M_managerERSt9_Any_dataRKS4_St18_Manager_operation)
	lu12i.w	$a1, 2
	ori	$a1, $a1, 1592
	add.d	$a1, $sp, $a1
	st.d	$a0, $a1, 0
.Ltmp645:                               # EH_LABEL
	pcalau12i	$a0, %pc_hi20(.L.str.43)
	addi.d	$a2, $a0, %pc_lo12(.L.str.43)
	lu12i.w	$a0, 2
	ori	$a0, $a0, 1608
	add.d	$a0, $sp, $a0
	lu12i.w	$a1, 2
	ori	$a1, $a1, 1576
	add.d	$a1, $sp, $a1
	pcaddu18i	$ra, %call36(_ZL19checkVectorFunctionIifEvSt8functionIFT_PT0_S3_jEES5_PKc)
	jirl	$ra, $ra, 0
.Ltmp646:                               # EH_LABEL
# %bb.218:
	lu12i.w	$a0, 2
	ori	$a0, $a0, 1592
	add.d	$a0, $sp, $a0
	ld.d	$a3, $a0, 0
	beqz	$a3, .LBB0_220
# %bb.219:
.Ltmp654:                               # EH_LABEL
	lu12i.w	$a0, 2
	ori	$a0, $a0, 1576
	add.d	$a0, $sp, $a0
	lu12i.w	$a1, 2
	ori	$a1, $a1, 1576
	add.d	$a1, $sp, $a1
	ori	$a2, $zero, 3
	jirl	$ra, $a3, 0
.Ltmp655:                               # EH_LABEL
.LBB0_220:                              # %_ZNSt14_Function_baseD2Ev.exit174
	lu12i.w	$a0, 2
	ori	$a0, $a0, 1624
	add.d	$a0, $sp, $a0
	ld.d	$a3, $a0, 0
	beqz	$a3, .LBB0_222
# %bb.221:
.Ltmp657:                               # EH_LABEL
	lu12i.w	$a0, 2
	ori	$a0, $a0, 1608
	add.d	$a0, $sp, $a0
	lu12i.w	$a1, 2
	ori	$a1, $a1, 1608
	add.d	$a1, $sp, $a1
	ori	$a2, $zero, 3
	jirl	$ra, $a3, 0
.Ltmp658:                               # EH_LABEL
.LBB0_222:                              # %_ZNSt14_Function_baseD2Ev.exit176
	vld	$vr0, $sp, 16                   # 16-byte Folded Reload
	lu12i.w	$a0, 2
	ori	$a0, $a0, 1544
	add.d	$a0, $sp, $a0
	vst	$vr0, $a0, 0
	pcalau12i	$a0, %pc_hi20(_ZNSt17_Function_handlerIFiPfS0_jEZ4mainE4$_88E9_M_invokeERKSt9_Any_dataOS0_S7_Oj)
	addi.d	$a0, $a0, %pc_lo12(_ZNSt17_Function_handlerIFiPfS0_jEZ4mainE4$_88E9_M_invokeERKSt9_Any_dataOS0_S7_Oj)
	lu12i.w	$a1, 2
	ori	$a1, $a1, 1568
	add.d	$a1, $sp, $a1
	st.d	$a0, $a1, 0
	pcalau12i	$a0, %pc_hi20(_ZNSt17_Function_handlerIFiPfS0_jEZ4mainE4$_88E10_M_managerERSt9_Any_dataRKS4_St18_Manager_operation)
	addi.d	$a0, $a0, %pc_lo12(_ZNSt17_Function_handlerIFiPfS0_jEZ4mainE4$_88E10_M_managerERSt9_Any_dataRKS4_St18_Manager_operation)
	lu12i.w	$a1, 2
	ori	$a1, $a1, 1560
	add.d	$a1, $sp, $a1
	st.d	$a0, $a1, 0
	lu12i.w	$a0, 2
	ori	$a0, $a0, 1512
	add.d	$a0, $sp, $a0
	vst	$vr0, $a0, 0
	pcalau12i	$a0, %pc_hi20(_ZNSt17_Function_handlerIFiPfS0_jEZ4mainE4$_89E9_M_invokeERKSt9_Any_dataOS0_S7_Oj)
	addi.d	$a0, $a0, %pc_lo12(_ZNSt17_Function_handlerIFiPfS0_jEZ4mainE4$_89E9_M_invokeERKSt9_Any_dataOS0_S7_Oj)
	lu12i.w	$a1, 2
	ori	$a1, $a1, 1536
	add.d	$a1, $sp, $a1
	st.d	$a0, $a1, 0
	pcalau12i	$a0, %pc_hi20(_ZNSt17_Function_handlerIFiPfS0_jEZ4mainE4$_89E10_M_managerERSt9_Any_dataRKS4_St18_Manager_operation)
	addi.d	$a0, $a0, %pc_lo12(_ZNSt17_Function_handlerIFiPfS0_jEZ4mainE4$_89E10_M_managerERSt9_Any_dataRKS4_St18_Manager_operation)
	lu12i.w	$a1, 2
	ori	$a1, $a1, 1528
	add.d	$a1, $sp, $a1
	st.d	$a0, $a1, 0
.Ltmp660:                               # EH_LABEL
	pcalau12i	$a0, %pc_hi20(.L.str.44)
	addi.d	$a2, $a0, %pc_lo12(.L.str.44)
	lu12i.w	$a0, 2
	ori	$a0, $a0, 1544
	add.d	$a0, $sp, $a0
	lu12i.w	$a1, 2
	ori	$a1, $a1, 1512
	add.d	$a1, $sp, $a1
	pcaddu18i	$ra, %call36(_ZL19checkVectorFunctionIifEvSt8functionIFT_PT0_S3_jEES5_PKc)
	jirl	$ra, $ra, 0
.Ltmp661:                               # EH_LABEL
# %bb.223:
	lu12i.w	$a0, 2
	ori	$a0, $a0, 1528
	add.d	$a0, $sp, $a0
	ld.d	$a3, $a0, 0
	beqz	$a3, .LBB0_225
# %bb.224:
.Ltmp669:                               # EH_LABEL
	lu12i.w	$a0, 2
	ori	$a0, $a0, 1512
	add.d	$a0, $sp, $a0
	lu12i.w	$a1, 2
	ori	$a1, $a1, 1512
	add.d	$a1, $sp, $a1
	ori	$a2, $zero, 3
	jirl	$ra, $a3, 0
.Ltmp670:                               # EH_LABEL
.LBB0_225:                              # %_ZNSt14_Function_baseD2Ev.exit178
	lu12i.w	$a0, 2
	ori	$a0, $a0, 1560
	add.d	$a0, $sp, $a0
	ld.d	$a3, $a0, 0
	beqz	$a3, .LBB0_227
# %bb.226:
.Ltmp672:                               # EH_LABEL
	lu12i.w	$a0, 2
	ori	$a0, $a0, 1544
	add.d	$a0, $sp, $a0
	lu12i.w	$a1, 2
	ori	$a1, $a1, 1544
	add.d	$a1, $sp, $a1
	ori	$a2, $zero, 3
	jirl	$ra, $a3, 0
.Ltmp673:                               # EH_LABEL
.LBB0_227:                              # %_ZNSt14_Function_baseD2Ev.exit180
	vld	$vr0, $sp, 16                   # 16-byte Folded Reload
	lu12i.w	$a0, 2
	ori	$a0, $a0, 1480
	add.d	$a0, $sp, $a0
	vst	$vr0, $a0, 0
	pcalau12i	$a0, %pc_hi20(_ZNSt17_Function_handlerIFiPfS0_jEZ4mainE4$_90E9_M_invokeERKSt9_Any_dataOS0_S7_Oj)
	addi.d	$a0, $a0, %pc_lo12(_ZNSt17_Function_handlerIFiPfS0_jEZ4mainE4$_90E9_M_invokeERKSt9_Any_dataOS0_S7_Oj)
	lu12i.w	$a1, 2
	ori	$a1, $a1, 1504
	add.d	$a1, $sp, $a1
	st.d	$a0, $a1, 0
	pcalau12i	$a0, %pc_hi20(_ZNSt17_Function_handlerIFiPfS0_jEZ4mainE4$_90E10_M_managerERSt9_Any_dataRKS4_St18_Manager_operation)
	addi.d	$a0, $a0, %pc_lo12(_ZNSt17_Function_handlerIFiPfS0_jEZ4mainE4$_90E10_M_managerERSt9_Any_dataRKS4_St18_Manager_operation)
	lu12i.w	$a1, 2
	ori	$a1, $a1, 1496
	add.d	$a1, $sp, $a1
	st.d	$a0, $a1, 0
	lu12i.w	$a0, 2
	ori	$a0, $a0, 1448
	add.d	$a0, $sp, $a0
	vst	$vr0, $a0, 0
	pcalau12i	$a0, %pc_hi20(_ZNSt17_Function_handlerIFiPfS0_jEZ4mainE4$_91E9_M_invokeERKSt9_Any_dataOS0_S7_Oj)
	addi.d	$a0, $a0, %pc_lo12(_ZNSt17_Function_handlerIFiPfS0_jEZ4mainE4$_91E9_M_invokeERKSt9_Any_dataOS0_S7_Oj)
	lu12i.w	$a1, 2
	ori	$a1, $a1, 1472
	add.d	$a1, $sp, $a1
	st.d	$a0, $a1, 0
	pcalau12i	$a0, %pc_hi20(_ZNSt17_Function_handlerIFiPfS0_jEZ4mainE4$_91E10_M_managerERSt9_Any_dataRKS4_St18_Manager_operation)
	addi.d	$a0, $a0, %pc_lo12(_ZNSt17_Function_handlerIFiPfS0_jEZ4mainE4$_91E10_M_managerERSt9_Any_dataRKS4_St18_Manager_operation)
	lu12i.w	$a1, 2
	ori	$a1, $a1, 1464
	add.d	$a1, $sp, $a1
	st.d	$a0, $a1, 0
.Ltmp675:                               # EH_LABEL
	pcalau12i	$a0, %pc_hi20(.L.str.45)
	addi.d	$a2, $a0, %pc_lo12(.L.str.45)
	lu12i.w	$a0, 2
	ori	$a0, $a0, 1480
	add.d	$a0, $sp, $a0
	lu12i.w	$a1, 2
	ori	$a1, $a1, 1448
	add.d	$a1, $sp, $a1
	pcaddu18i	$ra, %call36(_ZL19checkVectorFunctionIifEvSt8functionIFT_PT0_S3_jEES5_PKc)
	jirl	$ra, $ra, 0
.Ltmp676:                               # EH_LABEL
# %bb.228:
	lu12i.w	$a0, 2
	ori	$a0, $a0, 1464
	add.d	$a0, $sp, $a0
	ld.d	$a3, $a0, 0
	beqz	$a3, .LBB0_230
# %bb.229:
.Ltmp684:                               # EH_LABEL
	lu12i.w	$a0, 2
	ori	$a0, $a0, 1448
	add.d	$a0, $sp, $a0
	lu12i.w	$a1, 2
	ori	$a1, $a1, 1448
	add.d	$a1, $sp, $a1
	ori	$a2, $zero, 3
	jirl	$ra, $a3, 0
.Ltmp685:                               # EH_LABEL
.LBB0_230:                              # %_ZNSt14_Function_baseD2Ev.exit182
	lu12i.w	$a0, 2
	ori	$a0, $a0, 1496
	add.d	$a0, $sp, $a0
	ld.d	$a3, $a0, 0
	beqz	$a3, .LBB0_232
# %bb.231:
.Ltmp687:                               # EH_LABEL
	lu12i.w	$a0, 2
	ori	$a0, $a0, 1480
	add.d	$a0, $sp, $a0
	lu12i.w	$a1, 2
	ori	$a1, $a1, 1480
	add.d	$a1, $sp, $a1
	ori	$a2, $zero, 3
	jirl	$ra, $a3, 0
.Ltmp688:                               # EH_LABEL
.LBB0_232:                              # %_ZNSt14_Function_baseD2Ev.exit184
	vld	$vr0, $sp, 16                   # 16-byte Folded Reload
	lu12i.w	$a0, 2
	ori	$a0, $a0, 1416
	add.d	$a0, $sp, $a0
	vst	$vr0, $a0, 0
	pcalau12i	$a0, %pc_hi20(_ZNSt17_Function_handlerIFiPfS0_jEZ4mainE4$_92E9_M_invokeERKSt9_Any_dataOS0_S7_Oj)
	addi.d	$a0, $a0, %pc_lo12(_ZNSt17_Function_handlerIFiPfS0_jEZ4mainE4$_92E9_M_invokeERKSt9_Any_dataOS0_S7_Oj)
	lu12i.w	$a1, 2
	ori	$a1, $a1, 1440
	add.d	$a1, $sp, $a1
	st.d	$a0, $a1, 0
	pcalau12i	$a0, %pc_hi20(_ZNSt17_Function_handlerIFiPfS0_jEZ4mainE4$_92E10_M_managerERSt9_Any_dataRKS4_St18_Manager_operation)
	addi.d	$a0, $a0, %pc_lo12(_ZNSt17_Function_handlerIFiPfS0_jEZ4mainE4$_92E10_M_managerERSt9_Any_dataRKS4_St18_Manager_operation)
	lu12i.w	$a1, 2
	ori	$a1, $a1, 1432
	add.d	$a1, $sp, $a1
	st.d	$a0, $a1, 0
	lu12i.w	$a0, 2
	ori	$a0, $a0, 1384
	add.d	$a0, $sp, $a0
	vst	$vr0, $a0, 0
	pcalau12i	$a0, %pc_hi20(_ZNSt17_Function_handlerIFiPfS0_jEZ4mainE4$_93E9_M_invokeERKSt9_Any_dataOS0_S7_Oj)
	addi.d	$a0, $a0, %pc_lo12(_ZNSt17_Function_handlerIFiPfS0_jEZ4mainE4$_93E9_M_invokeERKSt9_Any_dataOS0_S7_Oj)
	lu12i.w	$a1, 2
	ori	$a1, $a1, 1408
	add.d	$a1, $sp, $a1
	st.d	$a0, $a1, 0
	pcalau12i	$a0, %pc_hi20(_ZNSt17_Function_handlerIFiPfS0_jEZ4mainE4$_93E10_M_managerERSt9_Any_dataRKS4_St18_Manager_operation)
	addi.d	$a0, $a0, %pc_lo12(_ZNSt17_Function_handlerIFiPfS0_jEZ4mainE4$_93E10_M_managerERSt9_Any_dataRKS4_St18_Manager_operation)
	lu12i.w	$a1, 2
	ori	$a1, $a1, 1400
	add.d	$a1, $sp, $a1
	st.d	$a0, $a1, 0
.Ltmp690:                               # EH_LABEL
	pcalau12i	$a0, %pc_hi20(.L.str.46)
	addi.d	$a2, $a0, %pc_lo12(.L.str.46)
	lu12i.w	$a0, 2
	ori	$a0, $a0, 1416
	add.d	$a0, $sp, $a0
	lu12i.w	$a1, 2
	ori	$a1, $a1, 1384
	add.d	$a1, $sp, $a1
	pcaddu18i	$ra, %call36(_ZL19checkVectorFunctionIifEvSt8functionIFT_PT0_S3_jEES5_PKc)
	jirl	$ra, $ra, 0
.Ltmp691:                               # EH_LABEL
# %bb.233:
	lu12i.w	$a0, 2
	ori	$a0, $a0, 1400
	add.d	$a0, $sp, $a0
	ld.d	$a3, $a0, 0
	beqz	$a3, .LBB0_235
# %bb.234:
.Ltmp699:                               # EH_LABEL
	lu12i.w	$a0, 2
	ori	$a0, $a0, 1384
	add.d	$a0, $sp, $a0
	lu12i.w	$a1, 2
	ori	$a1, $a1, 1384
	add.d	$a1, $sp, $a1
	ori	$a2, $zero, 3
	jirl	$ra, $a3, 0
.Ltmp700:                               # EH_LABEL
.LBB0_235:                              # %_ZNSt14_Function_baseD2Ev.exit186
	lu12i.w	$a0, 2
	ori	$a0, $a0, 1432
	add.d	$a0, $sp, $a0
	ld.d	$a3, $a0, 0
	beqz	$a3, .LBB0_237
# %bb.236:
.Ltmp702:                               # EH_LABEL
	lu12i.w	$a0, 2
	ori	$a0, $a0, 1416
	add.d	$a0, $sp, $a0
	lu12i.w	$a1, 2
	ori	$a1, $a1, 1416
	add.d	$a1, $sp, $a1
	ori	$a2, $zero, 3
	jirl	$ra, $a3, 0
.Ltmp703:                               # EH_LABEL
.LBB0_237:                              # %_ZNSt14_Function_baseD2Ev.exit188
	vld	$vr0, $sp, 16                   # 16-byte Folded Reload
	lu12i.w	$a0, 2
	ori	$a0, $a0, 1352
	add.d	$a0, $sp, $a0
	vst	$vr0, $a0, 0
	pcalau12i	$a0, %pc_hi20(_ZNSt17_Function_handlerIFiPfS0_jEZ4mainE4$_94E9_M_invokeERKSt9_Any_dataOS0_S7_Oj)
	addi.d	$a0, $a0, %pc_lo12(_ZNSt17_Function_handlerIFiPfS0_jEZ4mainE4$_94E9_M_invokeERKSt9_Any_dataOS0_S7_Oj)
	lu12i.w	$a1, 2
	ori	$a1, $a1, 1376
	add.d	$a1, $sp, $a1
	st.d	$a0, $a1, 0
	pcalau12i	$a0, %pc_hi20(_ZNSt17_Function_handlerIFiPfS0_jEZ4mainE4$_94E10_M_managerERSt9_Any_dataRKS4_St18_Manager_operation)
	addi.d	$a0, $a0, %pc_lo12(_ZNSt17_Function_handlerIFiPfS0_jEZ4mainE4$_94E10_M_managerERSt9_Any_dataRKS4_St18_Manager_operation)
	lu12i.w	$a1, 2
	ori	$a1, $a1, 1368
	add.d	$a1, $sp, $a1
	st.d	$a0, $a1, 0
	lu12i.w	$a0, 2
	ori	$a0, $a0, 1320
	add.d	$a0, $sp, $a0
	vst	$vr0, $a0, 0
	pcalau12i	$a0, %pc_hi20(_ZNSt17_Function_handlerIFiPfS0_jEZ4mainE4$_95E9_M_invokeERKSt9_Any_dataOS0_S7_Oj)
	addi.d	$a0, $a0, %pc_lo12(_ZNSt17_Function_handlerIFiPfS0_jEZ4mainE4$_95E9_M_invokeERKSt9_Any_dataOS0_S7_Oj)
	lu12i.w	$a1, 2
	ori	$a1, $a1, 1344
	add.d	$a1, $sp, $a1
	st.d	$a0, $a1, 0
	pcalau12i	$a0, %pc_hi20(_ZNSt17_Function_handlerIFiPfS0_jEZ4mainE4$_95E10_M_managerERSt9_Any_dataRKS4_St18_Manager_operation)
	addi.d	$a0, $a0, %pc_lo12(_ZNSt17_Function_handlerIFiPfS0_jEZ4mainE4$_95E10_M_managerERSt9_Any_dataRKS4_St18_Manager_operation)
	lu12i.w	$a1, 2
	ori	$a1, $a1, 1336
	add.d	$a1, $sp, $a1
	st.d	$a0, $a1, 0
.Ltmp705:                               # EH_LABEL
	pcalau12i	$a0, %pc_hi20(.L.str.47)
	addi.d	$a2, $a0, %pc_lo12(.L.str.47)
	lu12i.w	$a0, 2
	ori	$a0, $a0, 1352
	add.d	$a0, $sp, $a0
	lu12i.w	$a1, 2
	ori	$a1, $a1, 1320
	add.d	$a1, $sp, $a1
	pcaddu18i	$ra, %call36(_ZL19checkVectorFunctionIifEvSt8functionIFT_PT0_S3_jEES5_PKc)
	jirl	$ra, $ra, 0
.Ltmp706:                               # EH_LABEL
# %bb.238:
	lu12i.w	$a0, 2
	ori	$a0, $a0, 1336
	add.d	$a0, $sp, $a0
	ld.d	$a3, $a0, 0
	beqz	$a3, .LBB0_240
# %bb.239:
.Ltmp714:                               # EH_LABEL
	lu12i.w	$a0, 2
	ori	$a0, $a0, 1320
	add.d	$a0, $sp, $a0
	lu12i.w	$a1, 2
	ori	$a1, $a1, 1320
	add.d	$a1, $sp, $a1
	ori	$a2, $zero, 3
	jirl	$ra, $a3, 0
.Ltmp715:                               # EH_LABEL
.LBB0_240:                              # %_ZNSt14_Function_baseD2Ev.exit190
	lu12i.w	$a0, 2
	ori	$a0, $a0, 1368
	add.d	$a0, $sp, $a0
	ld.d	$a3, $a0, 0
	beqz	$a3, .LBB0_242
# %bb.241:
.Ltmp717:                               # EH_LABEL
	lu12i.w	$a0, 2
	ori	$a0, $a0, 1352
	add.d	$a0, $sp, $a0
	lu12i.w	$a1, 2
	ori	$a1, $a1, 1352
	add.d	$a1, $sp, $a1
	ori	$a2, $zero, 3
	jirl	$ra, $a3, 0
.Ltmp718:                               # EH_LABEL
.LBB0_242:                              # %_ZNSt14_Function_baseD2Ev.exit192
	vld	$vr0, $sp, 16                   # 16-byte Folded Reload
	lu12i.w	$a0, 2
	ori	$a0, $a0, 1288
	add.d	$a0, $sp, $a0
	vst	$vr0, $a0, 0
	pcalau12i	$a0, %pc_hi20(_ZNSt17_Function_handlerIFiPfS0_jEZ4mainE4$_96E9_M_invokeERKSt9_Any_dataOS0_S7_Oj)
	addi.d	$a0, $a0, %pc_lo12(_ZNSt17_Function_handlerIFiPfS0_jEZ4mainE4$_96E9_M_invokeERKSt9_Any_dataOS0_S7_Oj)
	lu12i.w	$a1, 2
	ori	$a1, $a1, 1312
	add.d	$a1, $sp, $a1
	st.d	$a0, $a1, 0
	pcalau12i	$a0, %pc_hi20(_ZNSt17_Function_handlerIFiPfS0_jEZ4mainE4$_96E10_M_managerERSt9_Any_dataRKS4_St18_Manager_operation)
	addi.d	$a0, $a0, %pc_lo12(_ZNSt17_Function_handlerIFiPfS0_jEZ4mainE4$_96E10_M_managerERSt9_Any_dataRKS4_St18_Manager_operation)
	lu12i.w	$a1, 2
	ori	$a1, $a1, 1304
	add.d	$a1, $sp, $a1
	st.d	$a0, $a1, 0
	lu12i.w	$a0, 2
	ori	$a0, $a0, 1256
	add.d	$a0, $sp, $a0
	vst	$vr0, $a0, 0
	pcalau12i	$a0, %pc_hi20(_ZNSt17_Function_handlerIFiPfS0_jEZ4mainE4$_97E9_M_invokeERKSt9_Any_dataOS0_S7_Oj)
	addi.d	$a0, $a0, %pc_lo12(_ZNSt17_Function_handlerIFiPfS0_jEZ4mainE4$_97E9_M_invokeERKSt9_Any_dataOS0_S7_Oj)
	lu12i.w	$a1, 2
	ori	$a1, $a1, 1280
	add.d	$a1, $sp, $a1
	st.d	$a0, $a1, 0
	pcalau12i	$a0, %pc_hi20(_ZNSt17_Function_handlerIFiPfS0_jEZ4mainE4$_97E10_M_managerERSt9_Any_dataRKS4_St18_Manager_operation)
	addi.d	$a0, $a0, %pc_lo12(_ZNSt17_Function_handlerIFiPfS0_jEZ4mainE4$_97E10_M_managerERSt9_Any_dataRKS4_St18_Manager_operation)
	lu12i.w	$a1, 2
	ori	$a1, $a1, 1272
	add.d	$a1, $sp, $a1
	st.d	$a0, $a1, 0
.Ltmp720:                               # EH_LABEL
	pcalau12i	$a0, %pc_hi20(.L.str.48)
	addi.d	$a2, $a0, %pc_lo12(.L.str.48)
	lu12i.w	$a0, 2
	ori	$a0, $a0, 1288
	add.d	$a0, $sp, $a0
	lu12i.w	$a1, 2
	ori	$a1, $a1, 1256
	add.d	$a1, $sp, $a1
	pcaddu18i	$ra, %call36(_ZL19checkVectorFunctionIifEvSt8functionIFT_PT0_S3_jEES5_PKc)
	jirl	$ra, $ra, 0
.Ltmp721:                               # EH_LABEL
# %bb.243:
	lu12i.w	$a0, 2
	ori	$a0, $a0, 1272
	add.d	$a0, $sp, $a0
	ld.d	$a3, $a0, 0
	beqz	$a3, .LBB0_245
# %bb.244:
.Ltmp729:                               # EH_LABEL
	lu12i.w	$a0, 2
	ori	$a0, $a0, 1256
	add.d	$a0, $sp, $a0
	lu12i.w	$a1, 2
	ori	$a1, $a1, 1256
	add.d	$a1, $sp, $a1
	ori	$a2, $zero, 3
	jirl	$ra, $a3, 0
.Ltmp730:                               # EH_LABEL
.LBB0_245:                              # %_ZNSt14_Function_baseD2Ev.exit194
	lu12i.w	$a0, 2
	ori	$a0, $a0, 1304
	add.d	$a0, $sp, $a0
	ld.d	$a3, $a0, 0
	beqz	$a3, .LBB0_247
# %bb.246:
.Ltmp732:                               # EH_LABEL
	lu12i.w	$a0, 2
	ori	$a0, $a0, 1288
	add.d	$a0, $sp, $a0
	lu12i.w	$a1, 2
	ori	$a1, $a1, 1288
	add.d	$a1, $sp, $a1
	ori	$a2, $zero, 3
	jirl	$ra, $a3, 0
.Ltmp733:                               # EH_LABEL
.LBB0_247:                              # %_ZNSt14_Function_baseD2Ev.exit196
	vld	$vr0, $sp, 16                   # 16-byte Folded Reload
	lu12i.w	$a0, 2
	ori	$a0, $a0, 1224
	add.d	$a0, $sp, $a0
	vst	$vr0, $a0, 0
	pcalau12i	$a0, %pc_hi20(_ZNSt17_Function_handlerIFiPfS0_jEZ4mainE4$_98E9_M_invokeERKSt9_Any_dataOS0_S7_Oj)
	addi.d	$a0, $a0, %pc_lo12(_ZNSt17_Function_handlerIFiPfS0_jEZ4mainE4$_98E9_M_invokeERKSt9_Any_dataOS0_S7_Oj)
	lu12i.w	$a1, 2
	ori	$a1, $a1, 1248
	add.d	$a1, $sp, $a1
	st.d	$a0, $a1, 0
	pcalau12i	$a0, %pc_hi20(_ZNSt17_Function_handlerIFiPfS0_jEZ4mainE4$_98E10_M_managerERSt9_Any_dataRKS4_St18_Manager_operation)
	addi.d	$a0, $a0, %pc_lo12(_ZNSt17_Function_handlerIFiPfS0_jEZ4mainE4$_98E10_M_managerERSt9_Any_dataRKS4_St18_Manager_operation)
	lu12i.w	$a1, 2
	ori	$a1, $a1, 1240
	add.d	$a1, $sp, $a1
	st.d	$a0, $a1, 0
	lu12i.w	$a0, 2
	ori	$a0, $a0, 1192
	add.d	$a0, $sp, $a0
	vst	$vr0, $a0, 0
	pcalau12i	$a0, %pc_hi20(_ZNSt17_Function_handlerIFiPfS0_jEZ4mainE4$_99E9_M_invokeERKSt9_Any_dataOS0_S7_Oj)
	addi.d	$a0, $a0, %pc_lo12(_ZNSt17_Function_handlerIFiPfS0_jEZ4mainE4$_99E9_M_invokeERKSt9_Any_dataOS0_S7_Oj)
	lu12i.w	$a1, 2
	ori	$a1, $a1, 1216
	add.d	$a1, $sp, $a1
	st.d	$a0, $a1, 0
	pcalau12i	$a0, %pc_hi20(_ZNSt17_Function_handlerIFiPfS0_jEZ4mainE4$_99E10_M_managerERSt9_Any_dataRKS4_St18_Manager_operation)
	addi.d	$a0, $a0, %pc_lo12(_ZNSt17_Function_handlerIFiPfS0_jEZ4mainE4$_99E10_M_managerERSt9_Any_dataRKS4_St18_Manager_operation)
	lu12i.w	$a1, 2
	ori	$a1, $a1, 1208
	add.d	$a1, $sp, $a1
	st.d	$a0, $a1, 0
.Ltmp735:                               # EH_LABEL
	pcalau12i	$a0, %pc_hi20(.L.str.49)
	addi.d	$a2, $a0, %pc_lo12(.L.str.49)
	lu12i.w	$a0, 2
	ori	$a0, $a0, 1224
	add.d	$a0, $sp, $a0
	lu12i.w	$a1, 2
	ori	$a1, $a1, 1192
	add.d	$a1, $sp, $a1
	pcaddu18i	$ra, %call36(_ZL19checkVectorFunctionIifEvSt8functionIFT_PT0_S3_jEES5_PKc)
	jirl	$ra, $ra, 0
.Ltmp736:                               # EH_LABEL
# %bb.248:
	lu12i.w	$a0, 2
	ori	$a0, $a0, 1208
	add.d	$a0, $sp, $a0
	ld.d	$a3, $a0, 0
	beqz	$a3, .LBB0_250
# %bb.249:
.Ltmp744:                               # EH_LABEL
	lu12i.w	$a0, 2
	ori	$a0, $a0, 1192
	add.d	$a0, $sp, $a0
	lu12i.w	$a1, 2
	ori	$a1, $a1, 1192
	add.d	$a1, $sp, $a1
	ori	$a2, $zero, 3
	jirl	$ra, $a3, 0
.Ltmp745:                               # EH_LABEL
.LBB0_250:                              # %_ZNSt14_Function_baseD2Ev.exit198
	lu12i.w	$a0, 2
	ori	$a0, $a0, 1240
	add.d	$a0, $sp, $a0
	ld.d	$a3, $a0, 0
	beqz	$a3, .LBB0_252
# %bb.251:
.Ltmp747:                               # EH_LABEL
	lu12i.w	$a0, 2
	ori	$a0, $a0, 1224
	add.d	$a0, $sp, $a0
	lu12i.w	$a1, 2
	ori	$a1, $a1, 1224
	add.d	$a1, $sp, $a1
	ori	$a2, $zero, 3
	jirl	$ra, $a3, 0
.Ltmp748:                               # EH_LABEL
.LBB0_252:                              # %_ZNSt14_Function_baseD2Ev.exit200
	vld	$vr0, $sp, 16                   # 16-byte Folded Reload
	lu12i.w	$a0, 2
	ori	$a0, $a0, 1160
	add.d	$a0, $sp, $a0
	vst	$vr0, $a0, 0
	pcalau12i	$a0, %pc_hi20(_ZNSt17_Function_handlerIFiPfS0_jEZ4mainE5$_100E9_M_invokeERKSt9_Any_dataOS0_S7_Oj)
	addi.d	$a0, $a0, %pc_lo12(_ZNSt17_Function_handlerIFiPfS0_jEZ4mainE5$_100E9_M_invokeERKSt9_Any_dataOS0_S7_Oj)
	lu12i.w	$a1, 2
	ori	$a1, $a1, 1184
	add.d	$a1, $sp, $a1
	st.d	$a0, $a1, 0
	pcalau12i	$a0, %pc_hi20(_ZNSt17_Function_handlerIFiPfS0_jEZ4mainE5$_100E10_M_managerERSt9_Any_dataRKS4_St18_Manager_operation)
	addi.d	$a0, $a0, %pc_lo12(_ZNSt17_Function_handlerIFiPfS0_jEZ4mainE5$_100E10_M_managerERSt9_Any_dataRKS4_St18_Manager_operation)
	lu12i.w	$a1, 2
	ori	$a1, $a1, 1176
	add.d	$a1, $sp, $a1
	st.d	$a0, $a1, 0
	lu12i.w	$a0, 2
	ori	$a0, $a0, 1128
	add.d	$a0, $sp, $a0
	vst	$vr0, $a0, 0
	pcalau12i	$a0, %pc_hi20(_ZNSt17_Function_handlerIFiPfS0_jEZ4mainE5$_101E9_M_invokeERKSt9_Any_dataOS0_S7_Oj)
	addi.d	$a0, $a0, %pc_lo12(_ZNSt17_Function_handlerIFiPfS0_jEZ4mainE5$_101E9_M_invokeERKSt9_Any_dataOS0_S7_Oj)
	lu12i.w	$a1, 2
	ori	$a1, $a1, 1152
	add.d	$a1, $sp, $a1
	st.d	$a0, $a1, 0
	pcalau12i	$a0, %pc_hi20(_ZNSt17_Function_handlerIFiPfS0_jEZ4mainE5$_101E10_M_managerERSt9_Any_dataRKS4_St18_Manager_operation)
	addi.d	$a0, $a0, %pc_lo12(_ZNSt17_Function_handlerIFiPfS0_jEZ4mainE5$_101E10_M_managerERSt9_Any_dataRKS4_St18_Manager_operation)
	lu12i.w	$a1, 2
	ori	$a1, $a1, 1144
	add.d	$a1, $sp, $a1
	st.d	$a0, $a1, 0
.Ltmp750:                               # EH_LABEL
	pcalau12i	$a0, %pc_hi20(.L.str.50)
	addi.d	$a2, $a0, %pc_lo12(.L.str.50)
	lu12i.w	$a0, 2
	ori	$a0, $a0, 1160
	add.d	$a0, $sp, $a0
	lu12i.w	$a1, 2
	ori	$a1, $a1, 1128
	add.d	$a1, $sp, $a1
	pcaddu18i	$ra, %call36(_ZL19checkVectorFunctionIifEvSt8functionIFT_PT0_S3_jEES5_PKc)
	jirl	$ra, $ra, 0
.Ltmp751:                               # EH_LABEL
# %bb.253:
	lu12i.w	$a0, 2
	ori	$a0, $a0, 1144
	add.d	$a0, $sp, $a0
	ld.d	$a3, $a0, 0
	beqz	$a3, .LBB0_255
# %bb.254:
.Ltmp759:                               # EH_LABEL
	lu12i.w	$a0, 2
	ori	$a0, $a0, 1128
	add.d	$a0, $sp, $a0
	lu12i.w	$a1, 2
	ori	$a1, $a1, 1128
	add.d	$a1, $sp, $a1
	ori	$a2, $zero, 3
	jirl	$ra, $a3, 0
.Ltmp760:                               # EH_LABEL
.LBB0_255:                              # %_ZNSt14_Function_baseD2Ev.exit202
	lu12i.w	$a0, 2
	ori	$a0, $a0, 1176
	add.d	$a0, $sp, $a0
	ld.d	$a3, $a0, 0
	beqz	$a3, .LBB0_257
# %bb.256:
.Ltmp762:                               # EH_LABEL
	lu12i.w	$a0, 2
	ori	$a0, $a0, 1160
	add.d	$a0, $sp, $a0
	lu12i.w	$a1, 2
	ori	$a1, $a1, 1160
	add.d	$a1, $sp, $a1
	ori	$a2, $zero, 3
	jirl	$ra, $a3, 0
.Ltmp763:                               # EH_LABEL
.LBB0_257:                              # %_ZNSt14_Function_baseD2Ev.exit204
	vld	$vr0, $sp, 16                   # 16-byte Folded Reload
	lu12i.w	$a0, 2
	ori	$a0, $a0, 1096
	add.d	$a0, $sp, $a0
	vst	$vr0, $a0, 0
	pcalau12i	$a0, %pc_hi20(_ZNSt17_Function_handlerIFiPfS0_jEZ4mainE5$_102E9_M_invokeERKSt9_Any_dataOS0_S7_Oj)
	addi.d	$a0, $a0, %pc_lo12(_ZNSt17_Function_handlerIFiPfS0_jEZ4mainE5$_102E9_M_invokeERKSt9_Any_dataOS0_S7_Oj)
	lu12i.w	$a1, 2
	ori	$a1, $a1, 1120
	add.d	$a1, $sp, $a1
	st.d	$a0, $a1, 0
	pcalau12i	$a0, %pc_hi20(_ZNSt17_Function_handlerIFiPfS0_jEZ4mainE5$_102E10_M_managerERSt9_Any_dataRKS4_St18_Manager_operation)
	addi.d	$a0, $a0, %pc_lo12(_ZNSt17_Function_handlerIFiPfS0_jEZ4mainE5$_102E10_M_managerERSt9_Any_dataRKS4_St18_Manager_operation)
	lu12i.w	$a1, 2
	ori	$a1, $a1, 1112
	add.d	$a1, $sp, $a1
	st.d	$a0, $a1, 0
	lu12i.w	$a0, 2
	ori	$a0, $a0, 1064
	add.d	$a0, $sp, $a0
	vst	$vr0, $a0, 0
	pcalau12i	$a0, %pc_hi20(_ZNSt17_Function_handlerIFiPfS0_jEZ4mainE5$_103E9_M_invokeERKSt9_Any_dataOS0_S7_Oj)
	addi.d	$a0, $a0, %pc_lo12(_ZNSt17_Function_handlerIFiPfS0_jEZ4mainE5$_103E9_M_invokeERKSt9_Any_dataOS0_S7_Oj)
	lu12i.w	$a1, 2
	ori	$a1, $a1, 1088
	add.d	$a1, $sp, $a1
	st.d	$a0, $a1, 0
	pcalau12i	$a0, %pc_hi20(_ZNSt17_Function_handlerIFiPfS0_jEZ4mainE5$_103E10_M_managerERSt9_Any_dataRKS4_St18_Manager_operation)
	addi.d	$a0, $a0, %pc_lo12(_ZNSt17_Function_handlerIFiPfS0_jEZ4mainE5$_103E10_M_managerERSt9_Any_dataRKS4_St18_Manager_operation)
	lu12i.w	$a1, 2
	ori	$a1, $a1, 1080
	add.d	$a1, $sp, $a1
	st.d	$a0, $a1, 0
.Ltmp765:                               # EH_LABEL
	pcalau12i	$a0, %pc_hi20(.L.str.51)
	addi.d	$a2, $a0, %pc_lo12(.L.str.51)
	lu12i.w	$a0, 2
	ori	$a0, $a0, 1096
	add.d	$a0, $sp, $a0
	lu12i.w	$a1, 2
	ori	$a1, $a1, 1064
	add.d	$a1, $sp, $a1
	pcaddu18i	$ra, %call36(_ZL19checkVectorFunctionIifEvSt8functionIFT_PT0_S3_jEES5_PKc)
	jirl	$ra, $ra, 0
.Ltmp766:                               # EH_LABEL
# %bb.258:
	lu12i.w	$a0, 2
	ori	$a0, $a0, 1080
	add.d	$a0, $sp, $a0
	ld.d	$a3, $a0, 0
	beqz	$a3, .LBB0_260
# %bb.259:
.Ltmp774:                               # EH_LABEL
	lu12i.w	$a0, 2
	ori	$a0, $a0, 1064
	add.d	$a0, $sp, $a0
	lu12i.w	$a1, 2
	ori	$a1, $a1, 1064
	add.d	$a1, $sp, $a1
	ori	$a2, $zero, 3
	jirl	$ra, $a3, 0
.Ltmp775:                               # EH_LABEL
.LBB0_260:                              # %_ZNSt14_Function_baseD2Ev.exit206
	lu12i.w	$a0, 2
	ori	$a0, $a0, 1112
	add.d	$a0, $sp, $a0
	ld.d	$a3, $a0, 0
	beqz	$a3, .LBB0_262
# %bb.261:
.Ltmp777:                               # EH_LABEL
	lu12i.w	$a0, 2
	ori	$a0, $a0, 1096
	add.d	$a0, $sp, $a0
	lu12i.w	$a1, 2
	ori	$a1, $a1, 1096
	add.d	$a1, $sp, $a1
	ori	$a2, $zero, 3
	jirl	$ra, $a3, 0
.Ltmp778:                               # EH_LABEL
.LBB0_262:                              # %_ZNSt14_Function_baseD2Ev.exit208
	vld	$vr0, $sp, 16                   # 16-byte Folded Reload
	lu12i.w	$a0, 2
	ori	$a0, $a0, 1032
	add.d	$a0, $sp, $a0
	vst	$vr0, $a0, 0
	pcalau12i	$a0, %pc_hi20(_ZNSt17_Function_handlerIFiPfS0_jEZ4mainE5$_104E9_M_invokeERKSt9_Any_dataOS0_S7_Oj)
	addi.d	$a0, $a0, %pc_lo12(_ZNSt17_Function_handlerIFiPfS0_jEZ4mainE5$_104E9_M_invokeERKSt9_Any_dataOS0_S7_Oj)
	lu12i.w	$a1, 2
	ori	$a1, $a1, 1056
	add.d	$a1, $sp, $a1
	st.d	$a0, $a1, 0
	pcalau12i	$a0, %pc_hi20(_ZNSt17_Function_handlerIFiPfS0_jEZ4mainE5$_104E10_M_managerERSt9_Any_dataRKS4_St18_Manager_operation)
	addi.d	$a0, $a0, %pc_lo12(_ZNSt17_Function_handlerIFiPfS0_jEZ4mainE5$_104E10_M_managerERSt9_Any_dataRKS4_St18_Manager_operation)
	lu12i.w	$a1, 2
	ori	$a1, $a1, 1048
	add.d	$a1, $sp, $a1
	st.d	$a0, $a1, 0
	lu12i.w	$a0, 2
	ori	$a0, $a0, 1000
	add.d	$a0, $sp, $a0
	vst	$vr0, $a0, 0
	pcalau12i	$a0, %pc_hi20(_ZNSt17_Function_handlerIFiPfS0_jEZ4mainE5$_105E9_M_invokeERKSt9_Any_dataOS0_S7_Oj)
	addi.d	$a0, $a0, %pc_lo12(_ZNSt17_Function_handlerIFiPfS0_jEZ4mainE5$_105E9_M_invokeERKSt9_Any_dataOS0_S7_Oj)
	lu12i.w	$a1, 2
	ori	$a1, $a1, 1024
	add.d	$a1, $sp, $a1
	st.d	$a0, $a1, 0
	pcalau12i	$a0, %pc_hi20(_ZNSt17_Function_handlerIFiPfS0_jEZ4mainE5$_105E10_M_managerERSt9_Any_dataRKS4_St18_Manager_operation)
	addi.d	$a0, $a0, %pc_lo12(_ZNSt17_Function_handlerIFiPfS0_jEZ4mainE5$_105E10_M_managerERSt9_Any_dataRKS4_St18_Manager_operation)
	lu12i.w	$a1, 2
	ori	$a1, $a1, 1016
	add.d	$a1, $sp, $a1
	st.d	$a0, $a1, 0
.Ltmp780:                               # EH_LABEL
	pcalau12i	$a0, %pc_hi20(.L.str.52)
	addi.d	$a2, $a0, %pc_lo12(.L.str.52)
	lu12i.w	$a0, 2
	ori	$a0, $a0, 1032
	add.d	$a0, $sp, $a0
	lu12i.w	$a1, 2
	ori	$a1, $a1, 1000
	add.d	$a1, $sp, $a1
	pcaddu18i	$ra, %call36(_ZL19checkVectorFunctionIifEvSt8functionIFT_PT0_S3_jEES5_PKc)
	jirl	$ra, $ra, 0
.Ltmp781:                               # EH_LABEL
# %bb.263:
	lu12i.w	$a0, 2
	ori	$a0, $a0, 1016
	add.d	$a0, $sp, $a0
	ld.d	$a3, $a0, 0
	beqz	$a3, .LBB0_265
# %bb.264:
.Ltmp789:                               # EH_LABEL
	lu12i.w	$a0, 2
	ori	$a0, $a0, 1000
	add.d	$a0, $sp, $a0
	lu12i.w	$a1, 2
	ori	$a1, $a1, 1000
	add.d	$a1, $sp, $a1
	ori	$a2, $zero, 3
	jirl	$ra, $a3, 0
.Ltmp790:                               # EH_LABEL
.LBB0_265:                              # %_ZNSt14_Function_baseD2Ev.exit210
	lu12i.w	$a0, 2
	ori	$a0, $a0, 1048
	add.d	$a0, $sp, $a0
	ld.d	$a3, $a0, 0
	beqz	$a3, .LBB0_267
# %bb.266:
.Ltmp792:                               # EH_LABEL
	lu12i.w	$a0, 2
	ori	$a0, $a0, 1032
	add.d	$a0, $sp, $a0
	lu12i.w	$a1, 2
	ori	$a1, $a1, 1032
	add.d	$a1, $sp, $a1
	ori	$a2, $zero, 3
	jirl	$ra, $a3, 0
.Ltmp793:                               # EH_LABEL
.LBB0_267:                              # %_ZNSt14_Function_baseD2Ev.exit212
	vld	$vr0, $sp, 16                   # 16-byte Folded Reload
	lu12i.w	$a0, 2
	ori	$a0, $a0, 968
	add.d	$a0, $sp, $a0
	vst	$vr0, $a0, 0
	pcalau12i	$a0, %pc_hi20(_ZNSt17_Function_handlerIFiPfS0_jEZ4mainE5$_106E9_M_invokeERKSt9_Any_dataOS0_S7_Oj)
	addi.d	$a0, $a0, %pc_lo12(_ZNSt17_Function_handlerIFiPfS0_jEZ4mainE5$_106E9_M_invokeERKSt9_Any_dataOS0_S7_Oj)
	lu12i.w	$a1, 2
	ori	$a1, $a1, 992
	add.d	$a1, $sp, $a1
	st.d	$a0, $a1, 0
	pcalau12i	$a0, %pc_hi20(_ZNSt17_Function_handlerIFiPfS0_jEZ4mainE5$_106E10_M_managerERSt9_Any_dataRKS4_St18_Manager_operation)
	addi.d	$a0, $a0, %pc_lo12(_ZNSt17_Function_handlerIFiPfS0_jEZ4mainE5$_106E10_M_managerERSt9_Any_dataRKS4_St18_Manager_operation)
	lu12i.w	$a1, 2
	ori	$a1, $a1, 984
	add.d	$a1, $sp, $a1
	st.d	$a0, $a1, 0
	lu12i.w	$a0, 2
	ori	$a0, $a0, 936
	add.d	$a0, $sp, $a0
	vst	$vr0, $a0, 0
	pcalau12i	$a0, %pc_hi20(_ZNSt17_Function_handlerIFiPfS0_jEZ4mainE5$_107E9_M_invokeERKSt9_Any_dataOS0_S7_Oj)
	addi.d	$a0, $a0, %pc_lo12(_ZNSt17_Function_handlerIFiPfS0_jEZ4mainE5$_107E9_M_invokeERKSt9_Any_dataOS0_S7_Oj)
	lu12i.w	$a1, 2
	ori	$a1, $a1, 960
	add.d	$a1, $sp, $a1
	st.d	$a0, $a1, 0
	pcalau12i	$a0, %pc_hi20(_ZNSt17_Function_handlerIFiPfS0_jEZ4mainE5$_107E10_M_managerERSt9_Any_dataRKS4_St18_Manager_operation)
	addi.d	$a0, $a0, %pc_lo12(_ZNSt17_Function_handlerIFiPfS0_jEZ4mainE5$_107E10_M_managerERSt9_Any_dataRKS4_St18_Manager_operation)
	lu12i.w	$a1, 2
	ori	$a1, $a1, 952
	add.d	$a1, $sp, $a1
	st.d	$a0, $a1, 0
.Ltmp795:                               # EH_LABEL
	pcalau12i	$a0, %pc_hi20(.L.str.53)
	addi.d	$a2, $a0, %pc_lo12(.L.str.53)
	lu12i.w	$a0, 2
	ori	$a0, $a0, 968
	add.d	$a0, $sp, $a0
	lu12i.w	$a1, 2
	ori	$a1, $a1, 936
	add.d	$a1, $sp, $a1
	pcaddu18i	$ra, %call36(_ZL19checkVectorFunctionIifEvSt8functionIFT_PT0_S3_jEES5_PKc)
	jirl	$ra, $ra, 0
.Ltmp796:                               # EH_LABEL
# %bb.268:
	lu12i.w	$a0, 2
	ori	$a0, $a0, 952
	add.d	$a0, $sp, $a0
	ld.d	$a3, $a0, 0
	beqz	$a3, .LBB0_270
# %bb.269:
.Ltmp804:                               # EH_LABEL
	lu12i.w	$a0, 2
	ori	$a0, $a0, 936
	add.d	$a0, $sp, $a0
	lu12i.w	$a1, 2
	ori	$a1, $a1, 936
	add.d	$a1, $sp, $a1
	ori	$a2, $zero, 3
	jirl	$ra, $a3, 0
.Ltmp805:                               # EH_LABEL
.LBB0_270:                              # %_ZNSt14_Function_baseD2Ev.exit214
	lu12i.w	$a0, 2
	ori	$a0, $a0, 984
	add.d	$a0, $sp, $a0
	ld.d	$a3, $a0, 0
	beqz	$a3, .LBB0_272
# %bb.271:
.Ltmp807:                               # EH_LABEL
	lu12i.w	$a0, 2
	ori	$a0, $a0, 968
	add.d	$a0, $sp, $a0
	lu12i.w	$a1, 2
	ori	$a1, $a1, 968
	add.d	$a1, $sp, $a1
	ori	$a2, $zero, 3
	jirl	$ra, $a3, 0
.Ltmp808:                               # EH_LABEL
.LBB0_272:                              # %_ZNSt14_Function_baseD2Ev.exit216
	vld	$vr0, $sp, 16                   # 16-byte Folded Reload
	lu12i.w	$a0, 2
	ori	$a0, $a0, 904
	add.d	$a0, $sp, $a0
	vst	$vr0, $a0, 0
	pcalau12i	$a0, %pc_hi20(_ZNSt17_Function_handlerIFiPfS0_jEZ4mainE5$_108E9_M_invokeERKSt9_Any_dataOS0_S7_Oj)
	addi.d	$a0, $a0, %pc_lo12(_ZNSt17_Function_handlerIFiPfS0_jEZ4mainE5$_108E9_M_invokeERKSt9_Any_dataOS0_S7_Oj)
	lu12i.w	$a1, 2
	ori	$a1, $a1, 928
	add.d	$a1, $sp, $a1
	st.d	$a0, $a1, 0
	pcalau12i	$a0, %pc_hi20(_ZNSt17_Function_handlerIFiPfS0_jEZ4mainE5$_108E10_M_managerERSt9_Any_dataRKS4_St18_Manager_operation)
	addi.d	$a0, $a0, %pc_lo12(_ZNSt17_Function_handlerIFiPfS0_jEZ4mainE5$_108E10_M_managerERSt9_Any_dataRKS4_St18_Manager_operation)
	lu12i.w	$a1, 2
	ori	$a1, $a1, 920
	add.d	$a1, $sp, $a1
	st.d	$a0, $a1, 0
	lu12i.w	$a0, 2
	ori	$a0, $a0, 872
	add.d	$a0, $sp, $a0
	vst	$vr0, $a0, 0
	pcalau12i	$a0, %pc_hi20(_ZNSt17_Function_handlerIFiPfS0_jEZ4mainE5$_109E9_M_invokeERKSt9_Any_dataOS0_S7_Oj)
	addi.d	$a0, $a0, %pc_lo12(_ZNSt17_Function_handlerIFiPfS0_jEZ4mainE5$_109E9_M_invokeERKSt9_Any_dataOS0_S7_Oj)
	lu12i.w	$a1, 2
	ori	$a1, $a1, 896
	add.d	$a1, $sp, $a1
	st.d	$a0, $a1, 0
	pcalau12i	$a0, %pc_hi20(_ZNSt17_Function_handlerIFiPfS0_jEZ4mainE5$_109E10_M_managerERSt9_Any_dataRKS4_St18_Manager_operation)
	addi.d	$a0, $a0, %pc_lo12(_ZNSt17_Function_handlerIFiPfS0_jEZ4mainE5$_109E10_M_managerERSt9_Any_dataRKS4_St18_Manager_operation)
	lu12i.w	$a1, 2
	ori	$a1, $a1, 888
	add.d	$a1, $sp, $a1
	st.d	$a0, $a1, 0
.Ltmp810:                               # EH_LABEL
	pcalau12i	$a0, %pc_hi20(.L.str.54)
	addi.d	$a2, $a0, %pc_lo12(.L.str.54)
	lu12i.w	$a0, 2
	ori	$a0, $a0, 904
	add.d	$a0, $sp, $a0
	lu12i.w	$a1, 2
	ori	$a1, $a1, 872
	add.d	$a1, $sp, $a1
	pcaddu18i	$ra, %call36(_ZL19checkVectorFunctionIifEvSt8functionIFT_PT0_S3_jEES5_PKc)
	jirl	$ra, $ra, 0
.Ltmp811:                               # EH_LABEL
# %bb.273:
	lu12i.w	$a0, 2
	ori	$a0, $a0, 888
	add.d	$a0, $sp, $a0
	ld.d	$a3, $a0, 0
	beqz	$a3, .LBB0_275
# %bb.274:
.Ltmp819:                               # EH_LABEL
	lu12i.w	$a0, 2
	ori	$a0, $a0, 872
	add.d	$a0, $sp, $a0
	lu12i.w	$a1, 2
	ori	$a1, $a1, 872
	add.d	$a1, $sp, $a1
	ori	$a2, $zero, 3
	jirl	$ra, $a3, 0
.Ltmp820:                               # EH_LABEL
.LBB0_275:                              # %_ZNSt14_Function_baseD2Ev.exit218
	lu12i.w	$a0, 2
	ori	$a0, $a0, 920
	add.d	$a0, $sp, $a0
	ld.d	$a3, $a0, 0
	beqz	$a3, .LBB0_277
# %bb.276:
.Ltmp822:                               # EH_LABEL
	lu12i.w	$a0, 2
	ori	$a0, $a0, 904
	add.d	$a0, $sp, $a0
	lu12i.w	$a1, 2
	ori	$a1, $a1, 904
	add.d	$a1, $sp, $a1
	ori	$a2, $zero, 3
	jirl	$ra, $a3, 0
.Ltmp823:                               # EH_LABEL
.LBB0_277:                              # %_ZNSt14_Function_baseD2Ev.exit220
	vld	$vr0, $sp, 16                   # 16-byte Folded Reload
	lu12i.w	$a0, 2
	ori	$a0, $a0, 840
	add.d	$a0, $sp, $a0
	vst	$vr0, $a0, 0
	pcalau12i	$a0, %pc_hi20(_ZNSt17_Function_handlerIFiPfS0_jEZ4mainE5$_110E9_M_invokeERKSt9_Any_dataOS0_S7_Oj)
	addi.d	$a0, $a0, %pc_lo12(_ZNSt17_Function_handlerIFiPfS0_jEZ4mainE5$_110E9_M_invokeERKSt9_Any_dataOS0_S7_Oj)
	lu12i.w	$a1, 2
	ori	$a1, $a1, 864
	add.d	$a1, $sp, $a1
	st.d	$a0, $a1, 0
	pcalau12i	$a0, %pc_hi20(_ZNSt17_Function_handlerIFiPfS0_jEZ4mainE5$_110E10_M_managerERSt9_Any_dataRKS4_St18_Manager_operation)
	addi.d	$a0, $a0, %pc_lo12(_ZNSt17_Function_handlerIFiPfS0_jEZ4mainE5$_110E10_M_managerERSt9_Any_dataRKS4_St18_Manager_operation)
	lu12i.w	$a1, 2
	ori	$a1, $a1, 856
	add.d	$a1, $sp, $a1
	st.d	$a0, $a1, 0
	lu12i.w	$a0, 2
	ori	$a0, $a0, 808
	add.d	$a0, $sp, $a0
	vst	$vr0, $a0, 0
	pcalau12i	$a0, %pc_hi20(_ZNSt17_Function_handlerIFiPfS0_jEZ4mainE5$_111E9_M_invokeERKSt9_Any_dataOS0_S7_Oj)
	addi.d	$a0, $a0, %pc_lo12(_ZNSt17_Function_handlerIFiPfS0_jEZ4mainE5$_111E9_M_invokeERKSt9_Any_dataOS0_S7_Oj)
	lu12i.w	$a1, 2
	ori	$a1, $a1, 832
	add.d	$a1, $sp, $a1
	st.d	$a0, $a1, 0
	pcalau12i	$a0, %pc_hi20(_ZNSt17_Function_handlerIFiPfS0_jEZ4mainE5$_111E10_M_managerERSt9_Any_dataRKS4_St18_Manager_operation)
	addi.d	$a0, $a0, %pc_lo12(_ZNSt17_Function_handlerIFiPfS0_jEZ4mainE5$_111E10_M_managerERSt9_Any_dataRKS4_St18_Manager_operation)
	lu12i.w	$a1, 2
	ori	$a1, $a1, 824
	add.d	$a1, $sp, $a1
	st.d	$a0, $a1, 0
.Ltmp825:                               # EH_LABEL
	pcalau12i	$a0, %pc_hi20(.L.str.55)
	addi.d	$a2, $a0, %pc_lo12(.L.str.55)
	lu12i.w	$a0, 2
	ori	$a0, $a0, 840
	add.d	$a0, $sp, $a0
	lu12i.w	$a1, 2
	ori	$a1, $a1, 808
	add.d	$a1, $sp, $a1
	pcaddu18i	$ra, %call36(_ZL19checkVectorFunctionIifEvSt8functionIFT_PT0_S3_jEES5_PKc)
	jirl	$ra, $ra, 0
.Ltmp826:                               # EH_LABEL
# %bb.278:
	lu12i.w	$a0, 2
	ori	$a0, $a0, 824
	add.d	$a0, $sp, $a0
	ld.d	$a3, $a0, 0
	beqz	$a3, .LBB0_280
# %bb.279:
.Ltmp834:                               # EH_LABEL
	lu12i.w	$a0, 2
	ori	$a0, $a0, 808
	add.d	$a0, $sp, $a0
	lu12i.w	$a1, 2
	ori	$a1, $a1, 808
	add.d	$a1, $sp, $a1
	ori	$a2, $zero, 3
	jirl	$ra, $a3, 0
.Ltmp835:                               # EH_LABEL
.LBB0_280:                              # %_ZNSt14_Function_baseD2Ev.exit222
	lu12i.w	$a0, 2
	ori	$a0, $a0, 856
	add.d	$a0, $sp, $a0
	ld.d	$a3, $a0, 0
	beqz	$a3, .LBB0_282
# %bb.281:
.Ltmp837:                               # EH_LABEL
	lu12i.w	$a0, 2
	ori	$a0, $a0, 840
	add.d	$a0, $sp, $a0
	lu12i.w	$a1, 2
	ori	$a1, $a1, 840
	add.d	$a1, $sp, $a1
	ori	$a2, $zero, 3
	jirl	$ra, $a3, 0
.Ltmp838:                               # EH_LABEL
.LBB0_282:                              # %_ZNSt14_Function_baseD2Ev.exit224
	vld	$vr0, $sp, 16                   # 16-byte Folded Reload
	lu12i.w	$a0, 2
	ori	$a0, $a0, 776
	add.d	$a0, $sp, $a0
	vst	$vr0, $a0, 0
	pcalau12i	$a0, %pc_hi20(_ZNSt17_Function_handlerIFiPfS0_jEZ4mainE5$_112E9_M_invokeERKSt9_Any_dataOS0_S7_Oj)
	addi.d	$a0, $a0, %pc_lo12(_ZNSt17_Function_handlerIFiPfS0_jEZ4mainE5$_112E9_M_invokeERKSt9_Any_dataOS0_S7_Oj)
	lu12i.w	$a1, 2
	ori	$a1, $a1, 800
	add.d	$a1, $sp, $a1
	st.d	$a0, $a1, 0
	pcalau12i	$a0, %pc_hi20(_ZNSt17_Function_handlerIFiPfS0_jEZ4mainE5$_112E10_M_managerERSt9_Any_dataRKS4_St18_Manager_operation)
	addi.d	$a0, $a0, %pc_lo12(_ZNSt17_Function_handlerIFiPfS0_jEZ4mainE5$_112E10_M_managerERSt9_Any_dataRKS4_St18_Manager_operation)
	lu12i.w	$a1, 2
	ori	$a1, $a1, 792
	add.d	$a1, $sp, $a1
	st.d	$a0, $a1, 0
	lu12i.w	$a0, 2
	ori	$a0, $a0, 744
	add.d	$a0, $sp, $a0
	vst	$vr0, $a0, 0
	pcalau12i	$a0, %pc_hi20(_ZNSt17_Function_handlerIFiPfS0_jEZ4mainE5$_113E9_M_invokeERKSt9_Any_dataOS0_S7_Oj)
	addi.d	$a0, $a0, %pc_lo12(_ZNSt17_Function_handlerIFiPfS0_jEZ4mainE5$_113E9_M_invokeERKSt9_Any_dataOS0_S7_Oj)
	lu12i.w	$a1, 2
	ori	$a1, $a1, 768
	add.d	$a1, $sp, $a1
	st.d	$a0, $a1, 0
	pcalau12i	$a0, %pc_hi20(_ZNSt17_Function_handlerIFiPfS0_jEZ4mainE5$_113E10_M_managerERSt9_Any_dataRKS4_St18_Manager_operation)
	addi.d	$a0, $a0, %pc_lo12(_ZNSt17_Function_handlerIFiPfS0_jEZ4mainE5$_113E10_M_managerERSt9_Any_dataRKS4_St18_Manager_operation)
	lu12i.w	$a1, 2
	ori	$a1, $a1, 760
	add.d	$a1, $sp, $a1
	st.d	$a0, $a1, 0
.Ltmp840:                               # EH_LABEL
	pcalau12i	$a0, %pc_hi20(.L.str.56)
	addi.d	$a2, $a0, %pc_lo12(.L.str.56)
	lu12i.w	$a0, 2
	ori	$a0, $a0, 776
	add.d	$a0, $sp, $a0
	lu12i.w	$a1, 2
	ori	$a1, $a1, 744
	add.d	$a1, $sp, $a1
	pcaddu18i	$ra, %call36(_ZL19checkVectorFunctionIifEvSt8functionIFT_PT0_S3_jEES5_PKc)
	jirl	$ra, $ra, 0
.Ltmp841:                               # EH_LABEL
# %bb.283:
	lu12i.w	$a0, 2
	ori	$a0, $a0, 760
	add.d	$a0, $sp, $a0
	ld.d	$a3, $a0, 0
	beqz	$a3, .LBB0_285
# %bb.284:
.Ltmp849:                               # EH_LABEL
	lu12i.w	$a0, 2
	ori	$a0, $a0, 744
	add.d	$a0, $sp, $a0
	lu12i.w	$a1, 2
	ori	$a1, $a1, 744
	add.d	$a1, $sp, $a1
	ori	$a2, $zero, 3
	jirl	$ra, $a3, 0
.Ltmp850:                               # EH_LABEL
.LBB0_285:                              # %_ZNSt14_Function_baseD2Ev.exit226
	lu12i.w	$a0, 2
	ori	$a0, $a0, 792
	add.d	$a0, $sp, $a0
	ld.d	$a3, $a0, 0
	beqz	$a3, .LBB0_287
# %bb.286:
.Ltmp852:                               # EH_LABEL
	lu12i.w	$a0, 2
	ori	$a0, $a0, 776
	add.d	$a0, $sp, $a0
	lu12i.w	$a1, 2
	ori	$a1, $a1, 776
	add.d	$a1, $sp, $a1
	ori	$a2, $zero, 3
	jirl	$ra, $a3, 0
.Ltmp853:                               # EH_LABEL
.LBB0_287:                              # %_ZNSt14_Function_baseD2Ev.exit228
	vld	$vr0, $sp, 16                   # 16-byte Folded Reload
	lu12i.w	$a0, 2
	ori	$a0, $a0, 712
	add.d	$a0, $sp, $a0
	vst	$vr0, $a0, 0
	pcalau12i	$a0, %pc_hi20(_ZNSt17_Function_handlerIFiPfS0_jEZ4mainE5$_114E9_M_invokeERKSt9_Any_dataOS0_S7_Oj)
	addi.d	$a0, $a0, %pc_lo12(_ZNSt17_Function_handlerIFiPfS0_jEZ4mainE5$_114E9_M_invokeERKSt9_Any_dataOS0_S7_Oj)
	lu12i.w	$a1, 2
	ori	$a1, $a1, 736
	add.d	$a1, $sp, $a1
	st.d	$a0, $a1, 0
	pcalau12i	$a0, %pc_hi20(_ZNSt17_Function_handlerIFiPfS0_jEZ4mainE5$_114E10_M_managerERSt9_Any_dataRKS4_St18_Manager_operation)
	addi.d	$a0, $a0, %pc_lo12(_ZNSt17_Function_handlerIFiPfS0_jEZ4mainE5$_114E10_M_managerERSt9_Any_dataRKS4_St18_Manager_operation)
	lu12i.w	$a1, 2
	ori	$a1, $a1, 728
	add.d	$a1, $sp, $a1
	st.d	$a0, $a1, 0
	lu12i.w	$a0, 2
	ori	$a0, $a0, 680
	add.d	$a0, $sp, $a0
	vst	$vr0, $a0, 0
	pcalau12i	$a0, %pc_hi20(_ZNSt17_Function_handlerIFiPfS0_jEZ4mainE5$_115E9_M_invokeERKSt9_Any_dataOS0_S7_Oj)
	addi.d	$a0, $a0, %pc_lo12(_ZNSt17_Function_handlerIFiPfS0_jEZ4mainE5$_115E9_M_invokeERKSt9_Any_dataOS0_S7_Oj)
	lu12i.w	$a1, 2
	ori	$a1, $a1, 704
	add.d	$a1, $sp, $a1
	st.d	$a0, $a1, 0
	pcalau12i	$a0, %pc_hi20(_ZNSt17_Function_handlerIFiPfS0_jEZ4mainE5$_115E10_M_managerERSt9_Any_dataRKS4_St18_Manager_operation)
	addi.d	$a0, $a0, %pc_lo12(_ZNSt17_Function_handlerIFiPfS0_jEZ4mainE5$_115E10_M_managerERSt9_Any_dataRKS4_St18_Manager_operation)
	lu12i.w	$a1, 2
	ori	$a1, $a1, 696
	add.d	$a1, $sp, $a1
	st.d	$a0, $a1, 0
.Ltmp855:                               # EH_LABEL
	pcalau12i	$a0, %pc_hi20(.L.str.57)
	addi.d	$a2, $a0, %pc_lo12(.L.str.57)
	lu12i.w	$a0, 2
	ori	$a0, $a0, 712
	add.d	$a0, $sp, $a0
	lu12i.w	$a1, 2
	ori	$a1, $a1, 680
	add.d	$a1, $sp, $a1
	pcaddu18i	$ra, %call36(_ZL19checkVectorFunctionIifEvSt8functionIFT_PT0_S3_jEES5_PKc)
	jirl	$ra, $ra, 0
.Ltmp856:                               # EH_LABEL
# %bb.288:
	lu12i.w	$a0, 2
	ori	$a0, $a0, 696
	add.d	$a0, $sp, $a0
	ld.d	$a3, $a0, 0
	beqz	$a3, .LBB0_290
# %bb.289:
.Ltmp864:                               # EH_LABEL
	lu12i.w	$a0, 2
	ori	$a0, $a0, 680
	add.d	$a0, $sp, $a0
	lu12i.w	$a1, 2
	ori	$a1, $a1, 680
	add.d	$a1, $sp, $a1
	ori	$a2, $zero, 3
	jirl	$ra, $a3, 0
.Ltmp865:                               # EH_LABEL
.LBB0_290:                              # %_ZNSt14_Function_baseD2Ev.exit230
	lu12i.w	$a0, 2
	ori	$a0, $a0, 728
	add.d	$a0, $sp, $a0
	ld.d	$a3, $a0, 0
	beqz	$a3, .LBB0_292
# %bb.291:
.Ltmp867:                               # EH_LABEL
	lu12i.w	$a0, 2
	ori	$a0, $a0, 712
	add.d	$a0, $sp, $a0
	lu12i.w	$a1, 2
	ori	$a1, $a1, 712
	add.d	$a1, $sp, $a1
	ori	$a2, $zero, 3
	jirl	$ra, $a3, 0
.Ltmp868:                               # EH_LABEL
.LBB0_292:                              # %_ZNSt14_Function_baseD2Ev.exit232
	vld	$vr0, $sp, 16                   # 16-byte Folded Reload
	lu12i.w	$a0, 2
	ori	$a0, $a0, 648
	add.d	$a0, $sp, $a0
	vst	$vr0, $a0, 0
	pcalau12i	$a0, %pc_hi20(_ZNSt17_Function_handlerIFiPfS0_jEZ4mainE5$_116E9_M_invokeERKSt9_Any_dataOS0_S7_Oj)
	addi.d	$a0, $a0, %pc_lo12(_ZNSt17_Function_handlerIFiPfS0_jEZ4mainE5$_116E9_M_invokeERKSt9_Any_dataOS0_S7_Oj)
	lu12i.w	$a1, 2
	ori	$a1, $a1, 672
	add.d	$a1, $sp, $a1
	st.d	$a0, $a1, 0
	pcalau12i	$a0, %pc_hi20(_ZNSt17_Function_handlerIFiPfS0_jEZ4mainE5$_116E10_M_managerERSt9_Any_dataRKS4_St18_Manager_operation)
	addi.d	$a0, $a0, %pc_lo12(_ZNSt17_Function_handlerIFiPfS0_jEZ4mainE5$_116E10_M_managerERSt9_Any_dataRKS4_St18_Manager_operation)
	lu12i.w	$a1, 2
	ori	$a1, $a1, 664
	add.d	$a1, $sp, $a1
	st.d	$a0, $a1, 0
	lu12i.w	$a0, 2
	ori	$a0, $a0, 616
	add.d	$a0, $sp, $a0
	vst	$vr0, $a0, 0
	pcalau12i	$a0, %pc_hi20(_ZNSt17_Function_handlerIFiPfS0_jEZ4mainE5$_117E9_M_invokeERKSt9_Any_dataOS0_S7_Oj)
	addi.d	$a0, $a0, %pc_lo12(_ZNSt17_Function_handlerIFiPfS0_jEZ4mainE5$_117E9_M_invokeERKSt9_Any_dataOS0_S7_Oj)
	lu12i.w	$a1, 2
	ori	$a1, $a1, 640
	add.d	$a1, $sp, $a1
	st.d	$a0, $a1, 0
	pcalau12i	$a0, %pc_hi20(_ZNSt17_Function_handlerIFiPfS0_jEZ4mainE5$_117E10_M_managerERSt9_Any_dataRKS4_St18_Manager_operation)
	addi.d	$a0, $a0, %pc_lo12(_ZNSt17_Function_handlerIFiPfS0_jEZ4mainE5$_117E10_M_managerERSt9_Any_dataRKS4_St18_Manager_operation)
	lu12i.w	$a1, 2
	ori	$a1, $a1, 632
	add.d	$a1, $sp, $a1
	st.d	$a0, $a1, 0
.Ltmp870:                               # EH_LABEL
	pcalau12i	$a0, %pc_hi20(.L.str.58)
	addi.d	$a2, $a0, %pc_lo12(.L.str.58)
	lu12i.w	$a0, 2
	ori	$a0, $a0, 648
	add.d	$a0, $sp, $a0
	lu12i.w	$a1, 2
	ori	$a1, $a1, 616
	add.d	$a1, $sp, $a1
	pcaddu18i	$ra, %call36(_ZL19checkVectorFunctionIifEvSt8functionIFT_PT0_S3_jEES5_PKc)
	jirl	$ra, $ra, 0
.Ltmp871:                               # EH_LABEL
# %bb.293:
	lu12i.w	$a0, 2
	ori	$a0, $a0, 632
	add.d	$a0, $sp, $a0
	ld.d	$a3, $a0, 0
	beqz	$a3, .LBB0_295
# %bb.294:
.Ltmp879:                               # EH_LABEL
	lu12i.w	$a0, 2
	ori	$a0, $a0, 616
	add.d	$a0, $sp, $a0
	lu12i.w	$a1, 2
	ori	$a1, $a1, 616
	add.d	$a1, $sp, $a1
	ori	$a2, $zero, 3
	jirl	$ra, $a3, 0
.Ltmp880:                               # EH_LABEL
.LBB0_295:                              # %_ZNSt14_Function_baseD2Ev.exit234
	lu12i.w	$a0, 2
	ori	$a0, $a0, 664
	add.d	$a0, $sp, $a0
	ld.d	$a3, $a0, 0
	beqz	$a3, .LBB0_297
# %bb.296:
.Ltmp882:                               # EH_LABEL
	lu12i.w	$a0, 2
	ori	$a0, $a0, 648
	add.d	$a0, $sp, $a0
	lu12i.w	$a1, 2
	ori	$a1, $a1, 648
	add.d	$a1, $sp, $a1
	ori	$a2, $zero, 3
	jirl	$ra, $a3, 0
.Ltmp883:                               # EH_LABEL
.LBB0_297:                              # %_ZNSt14_Function_baseD2Ev.exit236
	vld	$vr0, $sp, 16                   # 16-byte Folded Reload
	lu12i.w	$a0, 2
	ori	$a0, $a0, 584
	add.d	$a0, $sp, $a0
	vst	$vr0, $a0, 0
	pcalau12i	$a0, %pc_hi20(_ZNSt17_Function_handlerIFiPfS0_jEZ4mainE5$_118E9_M_invokeERKSt9_Any_dataOS0_S7_Oj)
	addi.d	$a0, $a0, %pc_lo12(_ZNSt17_Function_handlerIFiPfS0_jEZ4mainE5$_118E9_M_invokeERKSt9_Any_dataOS0_S7_Oj)
	lu12i.w	$a1, 2
	ori	$a1, $a1, 608
	add.d	$a1, $sp, $a1
	st.d	$a0, $a1, 0
	pcalau12i	$a0, %pc_hi20(_ZNSt17_Function_handlerIFiPfS0_jEZ4mainE5$_118E10_M_managerERSt9_Any_dataRKS4_St18_Manager_operation)
	addi.d	$a0, $a0, %pc_lo12(_ZNSt17_Function_handlerIFiPfS0_jEZ4mainE5$_118E10_M_managerERSt9_Any_dataRKS4_St18_Manager_operation)
	lu12i.w	$a1, 2
	ori	$a1, $a1, 600
	add.d	$a1, $sp, $a1
	st.d	$a0, $a1, 0
	lu12i.w	$a0, 2
	ori	$a0, $a0, 552
	add.d	$a0, $sp, $a0
	vst	$vr0, $a0, 0
	pcalau12i	$a0, %pc_hi20(_ZNSt17_Function_handlerIFiPfS0_jEZ4mainE5$_119E9_M_invokeERKSt9_Any_dataOS0_S7_Oj)
	addi.d	$a0, $a0, %pc_lo12(_ZNSt17_Function_handlerIFiPfS0_jEZ4mainE5$_119E9_M_invokeERKSt9_Any_dataOS0_S7_Oj)
	lu12i.w	$a1, 2
	ori	$a1, $a1, 576
	add.d	$a1, $sp, $a1
	st.d	$a0, $a1, 0
	pcalau12i	$a0, %pc_hi20(_ZNSt17_Function_handlerIFiPfS0_jEZ4mainE5$_119E10_M_managerERSt9_Any_dataRKS4_St18_Manager_operation)
	addi.d	$a0, $a0, %pc_lo12(_ZNSt17_Function_handlerIFiPfS0_jEZ4mainE5$_119E10_M_managerERSt9_Any_dataRKS4_St18_Manager_operation)
	lu12i.w	$a1, 2
	ori	$a1, $a1, 568
	add.d	$a1, $sp, $a1
	st.d	$a0, $a1, 0
.Ltmp885:                               # EH_LABEL
	pcalau12i	$a0, %pc_hi20(.L.str.59)
	addi.d	$a2, $a0, %pc_lo12(.L.str.59)
	lu12i.w	$a0, 2
	ori	$a0, $a0, 584
	add.d	$a0, $sp, $a0
	lu12i.w	$a1, 2
	ori	$a1, $a1, 552
	add.d	$a1, $sp, $a1
	pcaddu18i	$ra, %call36(_ZL19checkVectorFunctionIifEvSt8functionIFT_PT0_S3_jEES5_PKc)
	jirl	$ra, $ra, 0
.Ltmp886:                               # EH_LABEL
# %bb.298:
	lu12i.w	$a0, 2
	ori	$a0, $a0, 568
	add.d	$a0, $sp, $a0
	ld.d	$a3, $a0, 0
	beqz	$a3, .LBB0_300
# %bb.299:
.Ltmp894:                               # EH_LABEL
	lu12i.w	$a0, 2
	ori	$a0, $a0, 552
	add.d	$a0, $sp, $a0
	lu12i.w	$a1, 2
	ori	$a1, $a1, 552
	add.d	$a1, $sp, $a1
	ori	$a2, $zero, 3
	jirl	$ra, $a3, 0
.Ltmp895:                               # EH_LABEL
.LBB0_300:                              # %_ZNSt14_Function_baseD2Ev.exit238
	lu12i.w	$a0, 2
	ori	$a0, $a0, 600
	add.d	$a0, $sp, $a0
	ld.d	$a3, $a0, 0
	beqz	$a3, .LBB0_302
# %bb.301:
.Ltmp897:                               # EH_LABEL
	lu12i.w	$a0, 2
	ori	$a0, $a0, 584
	add.d	$a0, $sp, $a0
	lu12i.w	$a1, 2
	ori	$a1, $a1, 584
	add.d	$a1, $sp, $a1
	ori	$a2, $zero, 3
	jirl	$ra, $a3, 0
.Ltmp898:                               # EH_LABEL
.LBB0_302:                              # %_ZNSt14_Function_baseD2Ev.exit240
	vld	$vr0, $sp, 16                   # 16-byte Folded Reload
	lu12i.w	$a0, 2
	ori	$a0, $a0, 520
	add.d	$a0, $sp, $a0
	vst	$vr0, $a0, 0
	pcalau12i	$a0, %pc_hi20(_ZNSt17_Function_handlerIFiPfS0_jEZ4mainE5$_120E9_M_invokeERKSt9_Any_dataOS0_S7_Oj)
	addi.d	$a0, $a0, %pc_lo12(_ZNSt17_Function_handlerIFiPfS0_jEZ4mainE5$_120E9_M_invokeERKSt9_Any_dataOS0_S7_Oj)
	lu12i.w	$a1, 2
	ori	$a1, $a1, 544
	add.d	$a1, $sp, $a1
	st.d	$a0, $a1, 0
	pcalau12i	$a0, %pc_hi20(_ZNSt17_Function_handlerIFiPfS0_jEZ4mainE5$_120E10_M_managerERSt9_Any_dataRKS4_St18_Manager_operation)
	addi.d	$a0, $a0, %pc_lo12(_ZNSt17_Function_handlerIFiPfS0_jEZ4mainE5$_120E10_M_managerERSt9_Any_dataRKS4_St18_Manager_operation)
	lu12i.w	$a1, 2
	ori	$a1, $a1, 536
	add.d	$a1, $sp, $a1
	st.d	$a0, $a1, 0
	lu12i.w	$a0, 2
	ori	$a0, $a0, 488
	add.d	$a0, $sp, $a0
	vst	$vr0, $a0, 0
	pcalau12i	$a0, %pc_hi20(_ZNSt17_Function_handlerIFiPfS0_jEZ4mainE5$_121E9_M_invokeERKSt9_Any_dataOS0_S7_Oj)
	addi.d	$a0, $a0, %pc_lo12(_ZNSt17_Function_handlerIFiPfS0_jEZ4mainE5$_121E9_M_invokeERKSt9_Any_dataOS0_S7_Oj)
	lu12i.w	$a1, 2
	ori	$a1, $a1, 512
	add.d	$a1, $sp, $a1
	st.d	$a0, $a1, 0
	pcalau12i	$a0, %pc_hi20(_ZNSt17_Function_handlerIFiPfS0_jEZ4mainE5$_121E10_M_managerERSt9_Any_dataRKS4_St18_Manager_operation)
	addi.d	$a0, $a0, %pc_lo12(_ZNSt17_Function_handlerIFiPfS0_jEZ4mainE5$_121E10_M_managerERSt9_Any_dataRKS4_St18_Manager_operation)
	lu12i.w	$a1, 2
	ori	$a1, $a1, 504
	add.d	$a1, $sp, $a1
	st.d	$a0, $a1, 0
.Ltmp900:                               # EH_LABEL
	pcalau12i	$a0, %pc_hi20(.L.str.60)
	addi.d	$a2, $a0, %pc_lo12(.L.str.60)
	lu12i.w	$a0, 2
	ori	$a0, $a0, 520
	add.d	$a0, $sp, $a0
	lu12i.w	$a1, 2
	ori	$a1, $a1, 488
	add.d	$a1, $sp, $a1
	pcaddu18i	$ra, %call36(_ZL19checkVectorFunctionIifEvSt8functionIFT_PT0_S3_jEES5_PKc)
	jirl	$ra, $ra, 0
.Ltmp901:                               # EH_LABEL
# %bb.303:
	lu12i.w	$a0, 2
	ori	$a0, $a0, 504
	add.d	$a0, $sp, $a0
	ld.d	$a3, $a0, 0
	beqz	$a3, .LBB0_305
# %bb.304:
.Ltmp909:                               # EH_LABEL
	lu12i.w	$a0, 2
	ori	$a0, $a0, 488
	add.d	$a0, $sp, $a0
	lu12i.w	$a1, 2
	ori	$a1, $a1, 488
	add.d	$a1, $sp, $a1
	ori	$a2, $zero, 3
	jirl	$ra, $a3, 0
.Ltmp910:                               # EH_LABEL
.LBB0_305:                              # %_ZNSt14_Function_baseD2Ev.exit242
	lu12i.w	$a0, 2
	ori	$a0, $a0, 536
	add.d	$a0, $sp, $a0
	ld.d	$a3, $a0, 0
	beqz	$a3, .LBB0_307
# %bb.306:
.Ltmp912:                               # EH_LABEL
	lu12i.w	$a0, 2
	ori	$a0, $a0, 520
	add.d	$a0, $sp, $a0
	lu12i.w	$a1, 2
	ori	$a1, $a1, 520
	add.d	$a1, $sp, $a1
	ori	$a2, $zero, 3
	jirl	$ra, $a3, 0
.Ltmp913:                               # EH_LABEL
.LBB0_307:                              # %_ZNSt14_Function_baseD2Ev.exit244
	vld	$vr0, $sp, 16                   # 16-byte Folded Reload
	lu12i.w	$a0, 2
	ori	$a0, $a0, 456
	add.d	$a0, $sp, $a0
	vst	$vr0, $a0, 0
	pcalau12i	$a0, %pc_hi20(_ZNSt17_Function_handlerIFiPfS0_jEZ4mainE5$_122E9_M_invokeERKSt9_Any_dataOS0_S7_Oj)
	addi.d	$a0, $a0, %pc_lo12(_ZNSt17_Function_handlerIFiPfS0_jEZ4mainE5$_122E9_M_invokeERKSt9_Any_dataOS0_S7_Oj)
	lu12i.w	$a1, 2
	ori	$a1, $a1, 480
	add.d	$a1, $sp, $a1
	st.d	$a0, $a1, 0
	pcalau12i	$a0, %pc_hi20(_ZNSt17_Function_handlerIFiPfS0_jEZ4mainE5$_122E10_M_managerERSt9_Any_dataRKS4_St18_Manager_operation)
	addi.d	$a0, $a0, %pc_lo12(_ZNSt17_Function_handlerIFiPfS0_jEZ4mainE5$_122E10_M_managerERSt9_Any_dataRKS4_St18_Manager_operation)
	lu12i.w	$a1, 2
	ori	$a1, $a1, 472
	add.d	$a1, $sp, $a1
	st.d	$a0, $a1, 0
	lu12i.w	$a0, 2
	ori	$a0, $a0, 424
	add.d	$a0, $sp, $a0
	vst	$vr0, $a0, 0
	pcalau12i	$a0, %pc_hi20(_ZNSt17_Function_handlerIFiPfS0_jEZ4mainE5$_123E9_M_invokeERKSt9_Any_dataOS0_S7_Oj)
	addi.d	$a0, $a0, %pc_lo12(_ZNSt17_Function_handlerIFiPfS0_jEZ4mainE5$_123E9_M_invokeERKSt9_Any_dataOS0_S7_Oj)
	lu12i.w	$a1, 2
	ori	$a1, $a1, 448
	add.d	$a1, $sp, $a1
	st.d	$a0, $a1, 0
	pcalau12i	$a0, %pc_hi20(_ZNSt17_Function_handlerIFiPfS0_jEZ4mainE5$_123E10_M_managerERSt9_Any_dataRKS4_St18_Manager_operation)
	addi.d	$a0, $a0, %pc_lo12(_ZNSt17_Function_handlerIFiPfS0_jEZ4mainE5$_123E10_M_managerERSt9_Any_dataRKS4_St18_Manager_operation)
	lu12i.w	$a1, 2
	ori	$a1, $a1, 440
	add.d	$a1, $sp, $a1
	st.d	$a0, $a1, 0
.Ltmp915:                               # EH_LABEL
	pcalau12i	$a0, %pc_hi20(.L.str.61)
	addi.d	$a2, $a0, %pc_lo12(.L.str.61)
	lu12i.w	$a0, 2
	ori	$a0, $a0, 456
	add.d	$a0, $sp, $a0
	lu12i.w	$a1, 2
	ori	$a1, $a1, 424
	add.d	$a1, $sp, $a1
	pcaddu18i	$ra, %call36(_ZL19checkVectorFunctionIifEvSt8functionIFT_PT0_S3_jEES5_PKc)
	jirl	$ra, $ra, 0
.Ltmp916:                               # EH_LABEL
# %bb.308:
	lu12i.w	$a0, 2
	ori	$a0, $a0, 440
	add.d	$a0, $sp, $a0
	ld.d	$a3, $a0, 0
	beqz	$a3, .LBB0_310
# %bb.309:
.Ltmp924:                               # EH_LABEL
	lu12i.w	$a0, 2
	ori	$a0, $a0, 424
	add.d	$a0, $sp, $a0
	lu12i.w	$a1, 2
	ori	$a1, $a1, 424
	add.d	$a1, $sp, $a1
	ori	$a2, $zero, 3
	jirl	$ra, $a3, 0
.Ltmp925:                               # EH_LABEL
.LBB0_310:                              # %_ZNSt14_Function_baseD2Ev.exit246
	lu12i.w	$a0, 2
	ori	$a0, $a0, 472
	add.d	$a0, $sp, $a0
	ld.d	$a3, $a0, 0
	beqz	$a3, .LBB0_312
# %bb.311:
.Ltmp927:                               # EH_LABEL
	lu12i.w	$a0, 2
	ori	$a0, $a0, 456
	add.d	$a0, $sp, $a0
	lu12i.w	$a1, 2
	ori	$a1, $a1, 456
	add.d	$a1, $sp, $a1
	ori	$a2, $zero, 3
	jirl	$ra, $a3, 0
.Ltmp928:                               # EH_LABEL
.LBB0_312:                              # %_ZNSt14_Function_baseD2Ev.exit248
	vld	$vr0, $sp, 16                   # 16-byte Folded Reload
	lu12i.w	$a0, 2
	ori	$a0, $a0, 392
	add.d	$a0, $sp, $a0
	vst	$vr0, $a0, 0
	pcalau12i	$a0, %pc_hi20(_ZNSt17_Function_handlerIFiPfS0_jEZ4mainE5$_124E9_M_invokeERKSt9_Any_dataOS0_S7_Oj)
	addi.d	$a0, $a0, %pc_lo12(_ZNSt17_Function_handlerIFiPfS0_jEZ4mainE5$_124E9_M_invokeERKSt9_Any_dataOS0_S7_Oj)
	lu12i.w	$a1, 2
	ori	$a1, $a1, 416
	add.d	$a1, $sp, $a1
	st.d	$a0, $a1, 0
	pcalau12i	$a0, %pc_hi20(_ZNSt17_Function_handlerIFiPfS0_jEZ4mainE5$_124E10_M_managerERSt9_Any_dataRKS4_St18_Manager_operation)
	addi.d	$a0, $a0, %pc_lo12(_ZNSt17_Function_handlerIFiPfS0_jEZ4mainE5$_124E10_M_managerERSt9_Any_dataRKS4_St18_Manager_operation)
	lu12i.w	$a1, 2
	ori	$a1, $a1, 408
	add.d	$a1, $sp, $a1
	st.d	$a0, $a1, 0
	lu12i.w	$a0, 2
	ori	$a0, $a0, 360
	add.d	$a0, $sp, $a0
	vst	$vr0, $a0, 0
	pcalau12i	$a0, %pc_hi20(_ZNSt17_Function_handlerIFiPfS0_jEZ4mainE5$_125E9_M_invokeERKSt9_Any_dataOS0_S7_Oj)
	addi.d	$a0, $a0, %pc_lo12(_ZNSt17_Function_handlerIFiPfS0_jEZ4mainE5$_125E9_M_invokeERKSt9_Any_dataOS0_S7_Oj)
	lu12i.w	$a1, 2
	ori	$a1, $a1, 384
	add.d	$a1, $sp, $a1
	st.d	$a0, $a1, 0
	pcalau12i	$a0, %pc_hi20(_ZNSt17_Function_handlerIFiPfS0_jEZ4mainE5$_125E10_M_managerERSt9_Any_dataRKS4_St18_Manager_operation)
	addi.d	$a0, $a0, %pc_lo12(_ZNSt17_Function_handlerIFiPfS0_jEZ4mainE5$_125E10_M_managerERSt9_Any_dataRKS4_St18_Manager_operation)
	lu12i.w	$a1, 2
	ori	$a1, $a1, 376
	add.d	$a1, $sp, $a1
	st.d	$a0, $a1, 0
.Ltmp930:                               # EH_LABEL
	pcalau12i	$a0, %pc_hi20(.L.str.62)
	addi.d	$a2, $a0, %pc_lo12(.L.str.62)
	lu12i.w	$a0, 2
	ori	$a0, $a0, 392
	add.d	$a0, $sp, $a0
	lu12i.w	$a1, 2
	ori	$a1, $a1, 360
	add.d	$a1, $sp, $a1
	pcaddu18i	$ra, %call36(_ZL19checkVectorFunctionIifEvSt8functionIFT_PT0_S3_jEES5_PKc)
	jirl	$ra, $ra, 0
.Ltmp931:                               # EH_LABEL
# %bb.313:
	lu12i.w	$a0, 2
	ori	$a0, $a0, 376
	add.d	$a0, $sp, $a0
	ld.d	$a3, $a0, 0
	beqz	$a3, .LBB0_315
# %bb.314:
.Ltmp939:                               # EH_LABEL
	lu12i.w	$a0, 2
	ori	$a0, $a0, 360
	add.d	$a0, $sp, $a0
	lu12i.w	$a1, 2
	ori	$a1, $a1, 360
	add.d	$a1, $sp, $a1
	ori	$a2, $zero, 3
	jirl	$ra, $a3, 0
.Ltmp940:                               # EH_LABEL
.LBB0_315:                              # %_ZNSt14_Function_baseD2Ev.exit250
	lu12i.w	$a0, 2
	ori	$a0, $a0, 408
	add.d	$a0, $sp, $a0
	ld.d	$a3, $a0, 0
	beqz	$a3, .LBB0_317
# %bb.316:
.Ltmp942:                               # EH_LABEL
	lu12i.w	$a0, 2
	ori	$a0, $a0, 392
	add.d	$a0, $sp, $a0
	lu12i.w	$a1, 2
	ori	$a1, $a1, 392
	add.d	$a1, $sp, $a1
	ori	$a2, $zero, 3
	jirl	$ra, $a3, 0
.Ltmp943:                               # EH_LABEL
.LBB0_317:                              # %_ZNSt14_Function_baseD2Ev.exit252
	vld	$vr0, $sp, 16                   # 16-byte Folded Reload
	lu12i.w	$a0, 2
	ori	$a0, $a0, 328
	add.d	$a0, $sp, $a0
	vst	$vr0, $a0, 0
	pcalau12i	$a0, %pc_hi20(_ZNSt17_Function_handlerIFiPfS0_jEZ4mainE5$_126E9_M_invokeERKSt9_Any_dataOS0_S7_Oj)
	addi.d	$a0, $a0, %pc_lo12(_ZNSt17_Function_handlerIFiPfS0_jEZ4mainE5$_126E9_M_invokeERKSt9_Any_dataOS0_S7_Oj)
	lu12i.w	$a1, 2
	ori	$a1, $a1, 352
	add.d	$a1, $sp, $a1
	st.d	$a0, $a1, 0
	pcalau12i	$a0, %pc_hi20(_ZNSt17_Function_handlerIFiPfS0_jEZ4mainE5$_126E10_M_managerERSt9_Any_dataRKS4_St18_Manager_operation)
	addi.d	$a0, $a0, %pc_lo12(_ZNSt17_Function_handlerIFiPfS0_jEZ4mainE5$_126E10_M_managerERSt9_Any_dataRKS4_St18_Manager_operation)
	lu12i.w	$a1, 2
	ori	$a1, $a1, 344
	add.d	$a1, $sp, $a1
	st.d	$a0, $a1, 0
	lu12i.w	$a0, 2
	ori	$a0, $a0, 296
	add.d	$a0, $sp, $a0
	vst	$vr0, $a0, 0
	pcalau12i	$a0, %pc_hi20(_ZNSt17_Function_handlerIFiPfS0_jEZ4mainE5$_127E9_M_invokeERKSt9_Any_dataOS0_S7_Oj)
	addi.d	$a0, $a0, %pc_lo12(_ZNSt17_Function_handlerIFiPfS0_jEZ4mainE5$_127E9_M_invokeERKSt9_Any_dataOS0_S7_Oj)
	lu12i.w	$a1, 2
	ori	$a1, $a1, 320
	add.d	$a1, $sp, $a1
	st.d	$a0, $a1, 0
	pcalau12i	$a0, %pc_hi20(_ZNSt17_Function_handlerIFiPfS0_jEZ4mainE5$_127E10_M_managerERSt9_Any_dataRKS4_St18_Manager_operation)
	addi.d	$a0, $a0, %pc_lo12(_ZNSt17_Function_handlerIFiPfS0_jEZ4mainE5$_127E10_M_managerERSt9_Any_dataRKS4_St18_Manager_operation)
	lu12i.w	$a1, 2
	ori	$a1, $a1, 312
	add.d	$a1, $sp, $a1
	st.d	$a0, $a1, 0
.Ltmp945:                               # EH_LABEL
	pcalau12i	$a0, %pc_hi20(.L.str.63)
	addi.d	$a2, $a0, %pc_lo12(.L.str.63)
	lu12i.w	$a0, 2
	ori	$a0, $a0, 328
	add.d	$a0, $sp, $a0
	lu12i.w	$a1, 2
	ori	$a1, $a1, 296
	add.d	$a1, $sp, $a1
	pcaddu18i	$ra, %call36(_ZL19checkVectorFunctionIifEvSt8functionIFT_PT0_S3_jEES5_PKc)
	jirl	$ra, $ra, 0
.Ltmp946:                               # EH_LABEL
# %bb.318:
	lu12i.w	$a0, 2
	ori	$a0, $a0, 312
	add.d	$a0, $sp, $a0
	ld.d	$a3, $a0, 0
	beqz	$a3, .LBB0_320
# %bb.319:
.Ltmp954:                               # EH_LABEL
	lu12i.w	$a0, 2
	ori	$a0, $a0, 296
	add.d	$a0, $sp, $a0
	lu12i.w	$a1, 2
	ori	$a1, $a1, 296
	add.d	$a1, $sp, $a1
	ori	$a2, $zero, 3
	jirl	$ra, $a3, 0
.Ltmp955:                               # EH_LABEL
.LBB0_320:                              # %_ZNSt14_Function_baseD2Ev.exit254
	lu12i.w	$a0, 2
	ori	$a0, $a0, 344
	add.d	$a0, $sp, $a0
	ld.d	$a3, $a0, 0
	beqz	$a3, .LBB0_322
# %bb.321:
.Ltmp957:                               # EH_LABEL
	lu12i.w	$a0, 2
	ori	$a0, $a0, 328
	add.d	$a0, $sp, $a0
	lu12i.w	$a1, 2
	ori	$a1, $a1, 328
	add.d	$a1, $sp, $a1
	ori	$a2, $zero, 3
	jirl	$ra, $a3, 0
.Ltmp958:                               # EH_LABEL
.LBB0_322:                              # %_ZNSt14_Function_baseD2Ev.exit256
	vld	$vr0, $sp, 16                   # 16-byte Folded Reload
	lu12i.w	$a0, 2
	ori	$a0, $a0, 264
	add.d	$a0, $sp, $a0
	vst	$vr0, $a0, 0
	pcalau12i	$a0, %pc_hi20(_ZNSt17_Function_handlerIFiPfS0_jEZ4mainE5$_128E9_M_invokeERKSt9_Any_dataOS0_S7_Oj)
	addi.d	$a0, $a0, %pc_lo12(_ZNSt17_Function_handlerIFiPfS0_jEZ4mainE5$_128E9_M_invokeERKSt9_Any_dataOS0_S7_Oj)
	lu12i.w	$a1, 2
	ori	$a1, $a1, 288
	add.d	$a1, $sp, $a1
	st.d	$a0, $a1, 0
	pcalau12i	$a0, %pc_hi20(_ZNSt17_Function_handlerIFiPfS0_jEZ4mainE5$_128E10_M_managerERSt9_Any_dataRKS4_St18_Manager_operation)
	addi.d	$a0, $a0, %pc_lo12(_ZNSt17_Function_handlerIFiPfS0_jEZ4mainE5$_128E10_M_managerERSt9_Any_dataRKS4_St18_Manager_operation)
	lu12i.w	$a1, 2
	ori	$a1, $a1, 280
	add.d	$a1, $sp, $a1
	st.d	$a0, $a1, 0
	lu12i.w	$a0, 2
	ori	$a0, $a0, 232
	add.d	$a0, $sp, $a0
	vst	$vr0, $a0, 0
	pcalau12i	$a0, %pc_hi20(_ZNSt17_Function_handlerIFiPfS0_jEZ4mainE5$_129E9_M_invokeERKSt9_Any_dataOS0_S7_Oj)
	addi.d	$a0, $a0, %pc_lo12(_ZNSt17_Function_handlerIFiPfS0_jEZ4mainE5$_129E9_M_invokeERKSt9_Any_dataOS0_S7_Oj)
	lu12i.w	$a1, 2
	ori	$a1, $a1, 256
	add.d	$a1, $sp, $a1
	st.d	$a0, $a1, 0
	pcalau12i	$a0, %pc_hi20(_ZNSt17_Function_handlerIFiPfS0_jEZ4mainE5$_129E10_M_managerERSt9_Any_dataRKS4_St18_Manager_operation)
	addi.d	$a0, $a0, %pc_lo12(_ZNSt17_Function_handlerIFiPfS0_jEZ4mainE5$_129E10_M_managerERSt9_Any_dataRKS4_St18_Manager_operation)
	lu12i.w	$a1, 2
	ori	$a1, $a1, 248
	add.d	$a1, $sp, $a1
	st.d	$a0, $a1, 0
.Ltmp960:                               # EH_LABEL
	pcalau12i	$a0, %pc_hi20(.L.str.64)
	addi.d	$a2, $a0, %pc_lo12(.L.str.64)
	lu12i.w	$a0, 2
	ori	$a0, $a0, 264
	add.d	$a0, $sp, $a0
	lu12i.w	$a1, 2
	ori	$a1, $a1, 232
	add.d	$a1, $sp, $a1
	pcaddu18i	$ra, %call36(_ZL19checkVectorFunctionIifEvSt8functionIFT_PT0_S3_jEES5_PKc)
	jirl	$ra, $ra, 0
.Ltmp961:                               # EH_LABEL
# %bb.323:
	lu12i.w	$a0, 2
	ori	$a0, $a0, 248
	add.d	$a0, $sp, $a0
	ld.d	$a3, $a0, 0
	beqz	$a3, .LBB0_325
# %bb.324:
.Ltmp969:                               # EH_LABEL
	lu12i.w	$a0, 2
	ori	$a0, $a0, 232
	add.d	$a0, $sp, $a0
	lu12i.w	$a1, 2
	ori	$a1, $a1, 232
	add.d	$a1, $sp, $a1
	ori	$a2, $zero, 3
	jirl	$ra, $a3, 0
.Ltmp970:                               # EH_LABEL
.LBB0_325:                              # %_ZNSt14_Function_baseD2Ev.exit258
	lu12i.w	$a0, 2
	ori	$a0, $a0, 280
	add.d	$a0, $sp, $a0
	ld.d	$a3, $a0, 0
	beqz	$a3, .LBB0_327
# %bb.326:
.Ltmp972:                               # EH_LABEL
	lu12i.w	$a0, 2
	ori	$a0, $a0, 264
	add.d	$a0, $sp, $a0
	lu12i.w	$a1, 2
	ori	$a1, $a1, 264
	add.d	$a1, $sp, $a1
	ori	$a2, $zero, 3
	jirl	$ra, $a3, 0
.Ltmp973:                               # EH_LABEL
.LBB0_327:                              # %_ZNSt14_Function_baseD2Ev.exit260
	vld	$vr0, $sp, 16                   # 16-byte Folded Reload
	lu12i.w	$a0, 2
	ori	$a0, $a0, 200
	add.d	$a0, $sp, $a0
	vst	$vr0, $a0, 0
	pcalau12i	$a0, %pc_hi20(_ZNSt17_Function_handlerIFiPfS0_jEZ4mainE5$_130E9_M_invokeERKSt9_Any_dataOS0_S7_Oj)
	addi.d	$a0, $a0, %pc_lo12(_ZNSt17_Function_handlerIFiPfS0_jEZ4mainE5$_130E9_M_invokeERKSt9_Any_dataOS0_S7_Oj)
	lu12i.w	$a1, 2
	ori	$a1, $a1, 224
	add.d	$a1, $sp, $a1
	st.d	$a0, $a1, 0
	pcalau12i	$a0, %pc_hi20(_ZNSt17_Function_handlerIFiPfS0_jEZ4mainE5$_130E10_M_managerERSt9_Any_dataRKS4_St18_Manager_operation)
	addi.d	$a0, $a0, %pc_lo12(_ZNSt17_Function_handlerIFiPfS0_jEZ4mainE5$_130E10_M_managerERSt9_Any_dataRKS4_St18_Manager_operation)
	lu12i.w	$a1, 2
	ori	$a1, $a1, 216
	add.d	$a1, $sp, $a1
	st.d	$a0, $a1, 0
	lu12i.w	$a0, 2
	ori	$a0, $a0, 168
	add.d	$a0, $sp, $a0
	vst	$vr0, $a0, 0
	pcalau12i	$a0, %pc_hi20(_ZNSt17_Function_handlerIFiPfS0_jEZ4mainE5$_131E9_M_invokeERKSt9_Any_dataOS0_S7_Oj)
	addi.d	$a0, $a0, %pc_lo12(_ZNSt17_Function_handlerIFiPfS0_jEZ4mainE5$_131E9_M_invokeERKSt9_Any_dataOS0_S7_Oj)
	lu12i.w	$a1, 2
	ori	$a1, $a1, 192
	add.d	$a1, $sp, $a1
	st.d	$a0, $a1, 0
	pcalau12i	$a0, %pc_hi20(_ZNSt17_Function_handlerIFiPfS0_jEZ4mainE5$_131E10_M_managerERSt9_Any_dataRKS4_St18_Manager_operation)
	addi.d	$a0, $a0, %pc_lo12(_ZNSt17_Function_handlerIFiPfS0_jEZ4mainE5$_131E10_M_managerERSt9_Any_dataRKS4_St18_Manager_operation)
	lu12i.w	$a1, 2
	ori	$a1, $a1, 184
	add.d	$a1, $sp, $a1
	st.d	$a0, $a1, 0
.Ltmp975:                               # EH_LABEL
	pcalau12i	$a0, %pc_hi20(.L.str.65)
	addi.d	$a2, $a0, %pc_lo12(.L.str.65)
	lu12i.w	$a0, 2
	ori	$a0, $a0, 200
	add.d	$a0, $sp, $a0
	lu12i.w	$a1, 2
	ori	$a1, $a1, 168
	add.d	$a1, $sp, $a1
	pcaddu18i	$ra, %call36(_ZL19checkVectorFunctionIifEvSt8functionIFT_PT0_S3_jEES5_PKc)
	jirl	$ra, $ra, 0
.Ltmp976:                               # EH_LABEL
# %bb.328:
	lu12i.w	$a0, 2
	ori	$a0, $a0, 184
	add.d	$a0, $sp, $a0
	ld.d	$a3, $a0, 0
	beqz	$a3, .LBB0_330
# %bb.329:
.Ltmp984:                               # EH_LABEL
	lu12i.w	$a0, 2
	ori	$a0, $a0, 168
	add.d	$a0, $sp, $a0
	lu12i.w	$a1, 2
	ori	$a1, $a1, 168
	add.d	$a1, $sp, $a1
	ori	$a2, $zero, 3
	jirl	$ra, $a3, 0
.Ltmp985:                               # EH_LABEL
.LBB0_330:                              # %_ZNSt14_Function_baseD2Ev.exit262
	lu12i.w	$a0, 2
	ori	$a0, $a0, 216
	add.d	$a0, $sp, $a0
	ld.d	$a3, $a0, 0
	beqz	$a3, .LBB0_332
# %bb.331:
.Ltmp987:                               # EH_LABEL
	lu12i.w	$a0, 2
	ori	$a0, $a0, 200
	add.d	$a0, $sp, $a0
	lu12i.w	$a1, 2
	ori	$a1, $a1, 200
	add.d	$a1, $sp, $a1
	ori	$a2, $zero, 3
	jirl	$ra, $a3, 0
.Ltmp988:                               # EH_LABEL
.LBB0_332:                              # %_ZNSt14_Function_baseD2Ev.exit264
	vld	$vr0, $sp, 16                   # 16-byte Folded Reload
	lu12i.w	$a0, 2
	ori	$a0, $a0, 136
	add.d	$a0, $sp, $a0
	vst	$vr0, $a0, 0
	pcalau12i	$a0, %pc_hi20(_ZNSt17_Function_handlerIFmPdS0_jEZ4mainE5$_132E9_M_invokeERKSt9_Any_dataOS0_S7_Oj)
	addi.d	$a0, $a0, %pc_lo12(_ZNSt17_Function_handlerIFmPdS0_jEZ4mainE5$_132E9_M_invokeERKSt9_Any_dataOS0_S7_Oj)
	lu12i.w	$a1, 2
	ori	$a1, $a1, 160
	add.d	$a1, $sp, $a1
	st.d	$a0, $a1, 0
	pcalau12i	$a0, %pc_hi20(_ZNSt17_Function_handlerIFmPdS0_jEZ4mainE5$_132E10_M_managerERSt9_Any_dataRKS4_St18_Manager_operation)
	addi.d	$a0, $a0, %pc_lo12(_ZNSt17_Function_handlerIFmPdS0_jEZ4mainE5$_132E10_M_managerERSt9_Any_dataRKS4_St18_Manager_operation)
	lu12i.w	$a1, 2
	ori	$a1, $a1, 152
	add.d	$a1, $sp, $a1
	st.d	$a0, $a1, 0
	lu12i.w	$a0, 2
	ori	$a0, $a0, 104
	add.d	$a0, $sp, $a0
	vst	$vr0, $a0, 0
	pcalau12i	$a0, %pc_hi20(_ZNSt17_Function_handlerIFmPdS0_jEZ4mainE5$_133E9_M_invokeERKSt9_Any_dataOS0_S7_Oj)
	addi.d	$a0, $a0, %pc_lo12(_ZNSt17_Function_handlerIFmPdS0_jEZ4mainE5$_133E9_M_invokeERKSt9_Any_dataOS0_S7_Oj)
	lu12i.w	$a1, 2
	ori	$a1, $a1, 128
	add.d	$a1, $sp, $a1
	st.d	$a0, $a1, 0
	pcalau12i	$a0, %pc_hi20(_ZNSt17_Function_handlerIFmPdS0_jEZ4mainE5$_133E10_M_managerERSt9_Any_dataRKS4_St18_Manager_operation)
	addi.d	$a0, $a0, %pc_lo12(_ZNSt17_Function_handlerIFmPdS0_jEZ4mainE5$_133E10_M_managerERSt9_Any_dataRKS4_St18_Manager_operation)
	lu12i.w	$a1, 2
	ori	$a1, $a1, 120
	add.d	$a1, $sp, $a1
	st.d	$a0, $a1, 0
.Ltmp990:                               # EH_LABEL
	pcalau12i	$a0, %pc_hi20(.L.str.66)
	addi.d	$a2, $a0, %pc_lo12(.L.str.66)
	lu12i.w	$a0, 2
	ori	$a0, $a0, 136
	add.d	$a0, $sp, $a0
	lu12i.w	$a1, 2
	ori	$a1, $a1, 104
	add.d	$a1, $sp, $a1
	pcaddu18i	$ra, %call36(_ZL19checkVectorFunctionImdEvSt8functionIFT_PT0_S3_jEES5_PKc)
	jirl	$ra, $ra, 0
.Ltmp991:                               # EH_LABEL
# %bb.333:
	lu12i.w	$a0, 2
	ori	$a0, $a0, 120
	add.d	$a0, $sp, $a0
	ld.d	$a3, $a0, 0
	beqz	$a3, .LBB0_335
# %bb.334:
.Ltmp999:                               # EH_LABEL
	lu12i.w	$a0, 2
	ori	$a0, $a0, 104
	add.d	$a0, $sp, $a0
	lu12i.w	$a1, 2
	ori	$a1, $a1, 104
	add.d	$a1, $sp, $a1
	ori	$a2, $zero, 3
	jirl	$ra, $a3, 0
.Ltmp1000:                              # EH_LABEL
.LBB0_335:                              # %_ZNSt14_Function_baseD2Ev.exit266
	lu12i.w	$a0, 2
	ori	$a0, $a0, 152
	add.d	$a0, $sp, $a0
	ld.d	$a3, $a0, 0
	beqz	$a3, .LBB0_337
# %bb.336:
.Ltmp1002:                              # EH_LABEL
	lu12i.w	$a0, 2
	ori	$a0, $a0, 136
	add.d	$a0, $sp, $a0
	lu12i.w	$a1, 2
	ori	$a1, $a1, 136
	add.d	$a1, $sp, $a1
	ori	$a2, $zero, 3
	jirl	$ra, $a3, 0
.Ltmp1003:                              # EH_LABEL
.LBB0_337:                              # %_ZNSt14_Function_baseD2Ev.exit268
	vld	$vr0, $sp, 16                   # 16-byte Folded Reload
	lu12i.w	$a0, 2
	ori	$a0, $a0, 72
	add.d	$a0, $sp, $a0
	vst	$vr0, $a0, 0
	pcalau12i	$a0, %pc_hi20(_ZNSt17_Function_handlerIFmPdS0_jEZ4mainE5$_134E9_M_invokeERKSt9_Any_dataOS0_S7_Oj)
	addi.d	$a0, $a0, %pc_lo12(_ZNSt17_Function_handlerIFmPdS0_jEZ4mainE5$_134E9_M_invokeERKSt9_Any_dataOS0_S7_Oj)
	lu12i.w	$a1, 2
	ori	$a1, $a1, 96
	add.d	$a1, $sp, $a1
	st.d	$a0, $a1, 0
	pcalau12i	$a0, %pc_hi20(_ZNSt17_Function_handlerIFmPdS0_jEZ4mainE5$_134E10_M_managerERSt9_Any_dataRKS4_St18_Manager_operation)
	addi.d	$a0, $a0, %pc_lo12(_ZNSt17_Function_handlerIFmPdS0_jEZ4mainE5$_134E10_M_managerERSt9_Any_dataRKS4_St18_Manager_operation)
	lu12i.w	$a1, 2
	ori	$a1, $a1, 88
	add.d	$a1, $sp, $a1
	st.d	$a0, $a1, 0
	lu12i.w	$a0, 2
	ori	$a0, $a0, 40
	add.d	$a0, $sp, $a0
	vst	$vr0, $a0, 0
	pcalau12i	$a0, %pc_hi20(_ZNSt17_Function_handlerIFmPdS0_jEZ4mainE5$_135E9_M_invokeERKSt9_Any_dataOS0_S7_Oj)
	addi.d	$a0, $a0, %pc_lo12(_ZNSt17_Function_handlerIFmPdS0_jEZ4mainE5$_135E9_M_invokeERKSt9_Any_dataOS0_S7_Oj)
	lu12i.w	$a1, 2
	ori	$a1, $a1, 64
	add.d	$a1, $sp, $a1
	st.d	$a0, $a1, 0
	pcalau12i	$a0, %pc_hi20(_ZNSt17_Function_handlerIFmPdS0_jEZ4mainE5$_135E10_M_managerERSt9_Any_dataRKS4_St18_Manager_operation)
	addi.d	$a0, $a0, %pc_lo12(_ZNSt17_Function_handlerIFmPdS0_jEZ4mainE5$_135E10_M_managerERSt9_Any_dataRKS4_St18_Manager_operation)
	lu12i.w	$a1, 2
	ori	$a1, $a1, 56
	add.d	$a1, $sp, $a1
	st.d	$a0, $a1, 0
.Ltmp1005:                              # EH_LABEL
	pcalau12i	$a0, %pc_hi20(.L.str.67)
	addi.d	$a2, $a0, %pc_lo12(.L.str.67)
	lu12i.w	$a0, 2
	ori	$a0, $a0, 72
	add.d	$a0, $sp, $a0
	lu12i.w	$a1, 2
	ori	$a1, $a1, 40
	add.d	$a1, $sp, $a1
	pcaddu18i	$ra, %call36(_ZL19checkVectorFunctionImdEvSt8functionIFT_PT0_S3_jEES5_PKc)
	jirl	$ra, $ra, 0
.Ltmp1006:                              # EH_LABEL
# %bb.338:
	lu12i.w	$a0, 2
	ori	$a0, $a0, 56
	add.d	$a0, $sp, $a0
	ld.d	$a3, $a0, 0
	beqz	$a3, .LBB0_340
# %bb.339:
.Ltmp1014:                              # EH_LABEL
	lu12i.w	$a0, 2
	ori	$a0, $a0, 40
	add.d	$a0, $sp, $a0
	lu12i.w	$a1, 2
	ori	$a1, $a1, 40
	add.d	$a1, $sp, $a1
	ori	$a2, $zero, 3
	jirl	$ra, $a3, 0
.Ltmp1015:                              # EH_LABEL
.LBB0_340:                              # %_ZNSt14_Function_baseD2Ev.exit270
	lu12i.w	$a0, 2
	ori	$a0, $a0, 88
	add.d	$a0, $sp, $a0
	ld.d	$a3, $a0, 0
	beqz	$a3, .LBB0_342
# %bb.341:
.Ltmp1017:                              # EH_LABEL
	lu12i.w	$a0, 2
	ori	$a0, $a0, 72
	add.d	$a0, $sp, $a0
	lu12i.w	$a1, 2
	ori	$a1, $a1, 72
	add.d	$a1, $sp, $a1
	ori	$a2, $zero, 3
	jirl	$ra, $a3, 0
.Ltmp1018:                              # EH_LABEL
.LBB0_342:                              # %_ZNSt14_Function_baseD2Ev.exit272
	vld	$vr0, $sp, 16                   # 16-byte Folded Reload
	lu12i.w	$a0, 2
	ori	$a0, $a0, 8
	add.d	$a0, $sp, $a0
	vst	$vr0, $a0, 0
	pcalau12i	$a0, %pc_hi20(_ZNSt17_Function_handlerIFmPdS0_jEZ4mainE5$_136E9_M_invokeERKSt9_Any_dataOS0_S7_Oj)
	addi.d	$a0, $a0, %pc_lo12(_ZNSt17_Function_handlerIFmPdS0_jEZ4mainE5$_136E9_M_invokeERKSt9_Any_dataOS0_S7_Oj)
	lu12i.w	$a1, 2
	ori	$a1, $a1, 32
	add.d	$a1, $sp, $a1
	st.d	$a0, $a1, 0
	pcalau12i	$a0, %pc_hi20(_ZNSt17_Function_handlerIFmPdS0_jEZ4mainE5$_136E10_M_managerERSt9_Any_dataRKS4_St18_Manager_operation)
	addi.d	$a0, $a0, %pc_lo12(_ZNSt17_Function_handlerIFmPdS0_jEZ4mainE5$_136E10_M_managerERSt9_Any_dataRKS4_St18_Manager_operation)
	lu12i.w	$a1, 2
	ori	$a1, $a1, 24
	add.d	$a1, $sp, $a1
	st.d	$a0, $a1, 0
	lu12i.w	$a0, 1
	ori	$a0, $a0, 4072
	add.d	$a0, $sp, $a0
	vst	$vr0, $a0, 0
	pcalau12i	$a0, %pc_hi20(_ZNSt17_Function_handlerIFmPdS0_jEZ4mainE5$_137E9_M_invokeERKSt9_Any_dataOS0_S7_Oj)
	addi.d	$a0, $a0, %pc_lo12(_ZNSt17_Function_handlerIFmPdS0_jEZ4mainE5$_137E9_M_invokeERKSt9_Any_dataOS0_S7_Oj)
	lu12i.w	$a1, 2
	add.d	$a1, $sp, $a1
	st.d	$a0, $a1, 0
	pcalau12i	$a0, %pc_hi20(_ZNSt17_Function_handlerIFmPdS0_jEZ4mainE5$_137E10_M_managerERSt9_Any_dataRKS4_St18_Manager_operation)
	addi.d	$a0, $a0, %pc_lo12(_ZNSt17_Function_handlerIFmPdS0_jEZ4mainE5$_137E10_M_managerERSt9_Any_dataRKS4_St18_Manager_operation)
	lu12i.w	$a1, 1
	ori	$a1, $a1, 4088
	add.d	$a1, $sp, $a1
	st.d	$a0, $a1, 0
.Ltmp1020:                              # EH_LABEL
	pcalau12i	$a0, %pc_hi20(.L.str.68)
	addi.d	$a2, $a0, %pc_lo12(.L.str.68)
	lu12i.w	$a0, 2
	ori	$a0, $a0, 8
	add.d	$a0, $sp, $a0
	lu12i.w	$a1, 1
	ori	$a1, $a1, 4072
	add.d	$a1, $sp, $a1
	pcaddu18i	$ra, %call36(_ZL19checkVectorFunctionImdEvSt8functionIFT_PT0_S3_jEES5_PKc)
	jirl	$ra, $ra, 0
.Ltmp1021:                              # EH_LABEL
# %bb.343:
	lu12i.w	$a0, 1
	ori	$a0, $a0, 4088
	add.d	$a0, $sp, $a0
	ld.d	$a3, $a0, 0
	beqz	$a3, .LBB0_345
# %bb.344:
.Ltmp1029:                              # EH_LABEL
	lu12i.w	$a0, 1
	ori	$a0, $a0, 4072
	add.d	$a0, $sp, $a0
	lu12i.w	$a1, 1
	ori	$a1, $a1, 4072
	add.d	$a1, $sp, $a1
	ori	$a2, $zero, 3
	jirl	$ra, $a3, 0
.Ltmp1030:                              # EH_LABEL
.LBB0_345:                              # %_ZNSt14_Function_baseD2Ev.exit274
	lu12i.w	$a0, 2
	ori	$a0, $a0, 24
	add.d	$a0, $sp, $a0
	ld.d	$a3, $a0, 0
	beqz	$a3, .LBB0_347
# %bb.346:
.Ltmp1032:                              # EH_LABEL
	lu12i.w	$a0, 2
	ori	$a0, $a0, 8
	add.d	$a0, $sp, $a0
	lu12i.w	$a1, 2
	ori	$a1, $a1, 8
	add.d	$a1, $sp, $a1
	ori	$a2, $zero, 3
	jirl	$ra, $a3, 0
.Ltmp1033:                              # EH_LABEL
.LBB0_347:                              # %_ZNSt14_Function_baseD2Ev.exit276
	vld	$vr0, $sp, 16                   # 16-byte Folded Reload
	lu12i.w	$a0, 1
	ori	$a0, $a0, 4040
	add.d	$a0, $sp, $a0
	vst	$vr0, $a0, 0
	pcalau12i	$a0, %pc_hi20(_ZNSt17_Function_handlerIFmPdS0_jEZ4mainE5$_138E9_M_invokeERKSt9_Any_dataOS0_S7_Oj)
	addi.d	$a0, $a0, %pc_lo12(_ZNSt17_Function_handlerIFmPdS0_jEZ4mainE5$_138E9_M_invokeERKSt9_Any_dataOS0_S7_Oj)
	lu12i.w	$a1, 1
	ori	$a1, $a1, 4064
	add.d	$a1, $sp, $a1
	st.d	$a0, $a1, 0
	pcalau12i	$a0, %pc_hi20(_ZNSt17_Function_handlerIFmPdS0_jEZ4mainE5$_138E10_M_managerERSt9_Any_dataRKS4_St18_Manager_operation)
	addi.d	$a0, $a0, %pc_lo12(_ZNSt17_Function_handlerIFmPdS0_jEZ4mainE5$_138E10_M_managerERSt9_Any_dataRKS4_St18_Manager_operation)
	lu12i.w	$a1, 1
	ori	$a1, $a1, 4056
	add.d	$a1, $sp, $a1
	st.d	$a0, $a1, 0
	lu12i.w	$a0, 1
	ori	$a0, $a0, 4008
	add.d	$a0, $sp, $a0
	vst	$vr0, $a0, 0
	pcalau12i	$a0, %pc_hi20(_ZNSt17_Function_handlerIFmPdS0_jEZ4mainE5$_139E9_M_invokeERKSt9_Any_dataOS0_S7_Oj)
	addi.d	$a0, $a0, %pc_lo12(_ZNSt17_Function_handlerIFmPdS0_jEZ4mainE5$_139E9_M_invokeERKSt9_Any_dataOS0_S7_Oj)
	lu12i.w	$a1, 1
	ori	$a1, $a1, 4032
	add.d	$a1, $sp, $a1
	st.d	$a0, $a1, 0
	pcalau12i	$a0, %pc_hi20(_ZNSt17_Function_handlerIFmPdS0_jEZ4mainE5$_139E10_M_managerERSt9_Any_dataRKS4_St18_Manager_operation)
	addi.d	$a0, $a0, %pc_lo12(_ZNSt17_Function_handlerIFmPdS0_jEZ4mainE5$_139E10_M_managerERSt9_Any_dataRKS4_St18_Manager_operation)
	lu12i.w	$a1, 1
	ori	$a1, $a1, 4024
	add.d	$a1, $sp, $a1
	st.d	$a0, $a1, 0
.Ltmp1035:                              # EH_LABEL
	pcalau12i	$a0, %pc_hi20(.L.str.69)
	addi.d	$a2, $a0, %pc_lo12(.L.str.69)
	lu12i.w	$a0, 1
	ori	$a0, $a0, 4040
	add.d	$a0, $sp, $a0
	lu12i.w	$a1, 1
	ori	$a1, $a1, 4008
	add.d	$a1, $sp, $a1
	pcaddu18i	$ra, %call36(_ZL19checkVectorFunctionImdEvSt8functionIFT_PT0_S3_jEES5_PKc)
	jirl	$ra, $ra, 0
.Ltmp1036:                              # EH_LABEL
# %bb.348:
	lu12i.w	$a0, 1
	ori	$a0, $a0, 4024
	add.d	$a0, $sp, $a0
	ld.d	$a3, $a0, 0
	beqz	$a3, .LBB0_350
# %bb.349:
.Ltmp1044:                              # EH_LABEL
	lu12i.w	$a0, 1
	ori	$a0, $a0, 4008
	add.d	$a0, $sp, $a0
	lu12i.w	$a1, 1
	ori	$a1, $a1, 4008
	add.d	$a1, $sp, $a1
	ori	$a2, $zero, 3
	jirl	$ra, $a3, 0
.Ltmp1045:                              # EH_LABEL
.LBB0_350:                              # %_ZNSt14_Function_baseD2Ev.exit278
	lu12i.w	$a0, 1
	ori	$a0, $a0, 4056
	add.d	$a0, $sp, $a0
	ld.d	$a3, $a0, 0
	beqz	$a3, .LBB0_352
# %bb.351:
.Ltmp1047:                              # EH_LABEL
	lu12i.w	$a0, 1
	ori	$a0, $a0, 4040
	add.d	$a0, $sp, $a0
	lu12i.w	$a1, 1
	ori	$a1, $a1, 4040
	add.d	$a1, $sp, $a1
	ori	$a2, $zero, 3
	jirl	$ra, $a3, 0
.Ltmp1048:                              # EH_LABEL
.LBB0_352:                              # %_ZNSt14_Function_baseD2Ev.exit280
	vld	$vr0, $sp, 16                   # 16-byte Folded Reload
	lu12i.w	$a0, 1
	ori	$a0, $a0, 3976
	add.d	$a0, $sp, $a0
	vst	$vr0, $a0, 0
	pcalau12i	$a0, %pc_hi20(_ZNSt17_Function_handlerIFmPdS0_jEZ4mainE5$_140E9_M_invokeERKSt9_Any_dataOS0_S7_Oj)
	addi.d	$a0, $a0, %pc_lo12(_ZNSt17_Function_handlerIFmPdS0_jEZ4mainE5$_140E9_M_invokeERKSt9_Any_dataOS0_S7_Oj)
	lu12i.w	$a1, 1
	ori	$a1, $a1, 4000
	add.d	$a1, $sp, $a1
	st.d	$a0, $a1, 0
	pcalau12i	$a0, %pc_hi20(_ZNSt17_Function_handlerIFmPdS0_jEZ4mainE5$_140E10_M_managerERSt9_Any_dataRKS4_St18_Manager_operation)
	addi.d	$a0, $a0, %pc_lo12(_ZNSt17_Function_handlerIFmPdS0_jEZ4mainE5$_140E10_M_managerERSt9_Any_dataRKS4_St18_Manager_operation)
	lu12i.w	$a1, 1
	ori	$a1, $a1, 3992
	add.d	$a1, $sp, $a1
	st.d	$a0, $a1, 0
	lu12i.w	$a0, 1
	ori	$a0, $a0, 3944
	add.d	$a0, $sp, $a0
	vst	$vr0, $a0, 0
	pcalau12i	$a0, %pc_hi20(_ZNSt17_Function_handlerIFmPdS0_jEZ4mainE5$_141E9_M_invokeERKSt9_Any_dataOS0_S7_Oj)
	addi.d	$a0, $a0, %pc_lo12(_ZNSt17_Function_handlerIFmPdS0_jEZ4mainE5$_141E9_M_invokeERKSt9_Any_dataOS0_S7_Oj)
	lu12i.w	$a1, 1
	ori	$a1, $a1, 3968
	add.d	$a1, $sp, $a1
	st.d	$a0, $a1, 0
	pcalau12i	$a0, %pc_hi20(_ZNSt17_Function_handlerIFmPdS0_jEZ4mainE5$_141E10_M_managerERSt9_Any_dataRKS4_St18_Manager_operation)
	addi.d	$a0, $a0, %pc_lo12(_ZNSt17_Function_handlerIFmPdS0_jEZ4mainE5$_141E10_M_managerERSt9_Any_dataRKS4_St18_Manager_operation)
	lu12i.w	$a1, 1
	ori	$a1, $a1, 3960
	add.d	$a1, $sp, $a1
	st.d	$a0, $a1, 0
.Ltmp1050:                              # EH_LABEL
	pcalau12i	$a0, %pc_hi20(.L.str.70)
	addi.d	$a2, $a0, %pc_lo12(.L.str.70)
	lu12i.w	$a0, 1
	ori	$a0, $a0, 3976
	add.d	$a0, $sp, $a0
	lu12i.w	$a1, 1
	ori	$a1, $a1, 3944
	add.d	$a1, $sp, $a1
	pcaddu18i	$ra, %call36(_ZL19checkVectorFunctionImdEvSt8functionIFT_PT0_S3_jEES5_PKc)
	jirl	$ra, $ra, 0
.Ltmp1051:                              # EH_LABEL
# %bb.353:
	lu12i.w	$a0, 1
	ori	$a0, $a0, 3960
	add.d	$a0, $sp, $a0
	ld.d	$a3, $a0, 0
	beqz	$a3, .LBB0_355
# %bb.354:
.Ltmp1059:                              # EH_LABEL
	lu12i.w	$a0, 1
	ori	$a0, $a0, 3944
	add.d	$a0, $sp, $a0
	lu12i.w	$a1, 1
	ori	$a1, $a1, 3944
	add.d	$a1, $sp, $a1
	ori	$a2, $zero, 3
	jirl	$ra, $a3, 0
.Ltmp1060:                              # EH_LABEL
.LBB0_355:                              # %_ZNSt14_Function_baseD2Ev.exit282
	lu12i.w	$a0, 1
	ori	$a0, $a0, 3992
	add.d	$a0, $sp, $a0
	ld.d	$a3, $a0, 0
	beqz	$a3, .LBB0_357
# %bb.356:
.Ltmp1062:                              # EH_LABEL
	lu12i.w	$a0, 1
	ori	$a0, $a0, 3976
	add.d	$a0, $sp, $a0
	lu12i.w	$a1, 1
	ori	$a1, $a1, 3976
	add.d	$a1, $sp, $a1
	ori	$a2, $zero, 3
	jirl	$ra, $a3, 0
.Ltmp1063:                              # EH_LABEL
.LBB0_357:                              # %_ZNSt14_Function_baseD2Ev.exit284
	vld	$vr0, $sp, 16                   # 16-byte Folded Reload
	lu12i.w	$a0, 1
	ori	$a0, $a0, 3912
	add.d	$a0, $sp, $a0
	vst	$vr0, $a0, 0
	pcalau12i	$a0, %pc_hi20(_ZNSt17_Function_handlerIFmPdS0_jEZ4mainE5$_142E9_M_invokeERKSt9_Any_dataOS0_S7_Oj)
	addi.d	$a0, $a0, %pc_lo12(_ZNSt17_Function_handlerIFmPdS0_jEZ4mainE5$_142E9_M_invokeERKSt9_Any_dataOS0_S7_Oj)
	lu12i.w	$a1, 1
	ori	$a1, $a1, 3936
	add.d	$a1, $sp, $a1
	st.d	$a0, $a1, 0
	pcalau12i	$a0, %pc_hi20(_ZNSt17_Function_handlerIFmPdS0_jEZ4mainE5$_142E10_M_managerERSt9_Any_dataRKS4_St18_Manager_operation)
	addi.d	$a0, $a0, %pc_lo12(_ZNSt17_Function_handlerIFmPdS0_jEZ4mainE5$_142E10_M_managerERSt9_Any_dataRKS4_St18_Manager_operation)
	lu12i.w	$a1, 1
	ori	$a1, $a1, 3928
	add.d	$a1, $sp, $a1
	st.d	$a0, $a1, 0
	lu12i.w	$a0, 1
	ori	$a0, $a0, 3880
	add.d	$a0, $sp, $a0
	vst	$vr0, $a0, 0
	pcalau12i	$a0, %pc_hi20(_ZNSt17_Function_handlerIFmPdS0_jEZ4mainE5$_143E9_M_invokeERKSt9_Any_dataOS0_S7_Oj)
	addi.d	$a0, $a0, %pc_lo12(_ZNSt17_Function_handlerIFmPdS0_jEZ4mainE5$_143E9_M_invokeERKSt9_Any_dataOS0_S7_Oj)
	lu12i.w	$a1, 1
	ori	$a1, $a1, 3904
	add.d	$a1, $sp, $a1
	st.d	$a0, $a1, 0
	pcalau12i	$a0, %pc_hi20(_ZNSt17_Function_handlerIFmPdS0_jEZ4mainE5$_143E10_M_managerERSt9_Any_dataRKS4_St18_Manager_operation)
	addi.d	$a0, $a0, %pc_lo12(_ZNSt17_Function_handlerIFmPdS0_jEZ4mainE5$_143E10_M_managerERSt9_Any_dataRKS4_St18_Manager_operation)
	lu12i.w	$a1, 1
	ori	$a1, $a1, 3896
	add.d	$a1, $sp, $a1
	st.d	$a0, $a1, 0
.Ltmp1065:                              # EH_LABEL
	pcalau12i	$a0, %pc_hi20(.L.str.71)
	addi.d	$a2, $a0, %pc_lo12(.L.str.71)
	lu12i.w	$a0, 1
	ori	$a0, $a0, 3912
	add.d	$a0, $sp, $a0
	lu12i.w	$a1, 1
	ori	$a1, $a1, 3880
	add.d	$a1, $sp, $a1
	pcaddu18i	$ra, %call36(_ZL19checkVectorFunctionImdEvSt8functionIFT_PT0_S3_jEES5_PKc)
	jirl	$ra, $ra, 0
.Ltmp1066:                              # EH_LABEL
# %bb.358:
	lu12i.w	$a0, 1
	ori	$a0, $a0, 3896
	add.d	$a0, $sp, $a0
	ld.d	$a3, $a0, 0
	beqz	$a3, .LBB0_360
# %bb.359:
.Ltmp1074:                              # EH_LABEL
	lu12i.w	$a0, 1
	ori	$a0, $a0, 3880
	add.d	$a0, $sp, $a0
	lu12i.w	$a1, 1
	ori	$a1, $a1, 3880
	add.d	$a1, $sp, $a1
	ori	$a2, $zero, 3
	jirl	$ra, $a3, 0
.Ltmp1075:                              # EH_LABEL
.LBB0_360:                              # %_ZNSt14_Function_baseD2Ev.exit286
	lu12i.w	$a0, 1
	ori	$a0, $a0, 3928
	add.d	$a0, $sp, $a0
	ld.d	$a3, $a0, 0
	beqz	$a3, .LBB0_362
# %bb.361:
.Ltmp1077:                              # EH_LABEL
	lu12i.w	$a0, 1
	ori	$a0, $a0, 3912
	add.d	$a0, $sp, $a0
	lu12i.w	$a1, 1
	ori	$a1, $a1, 3912
	add.d	$a1, $sp, $a1
	ori	$a2, $zero, 3
	jirl	$ra, $a3, 0
.Ltmp1078:                              # EH_LABEL
.LBB0_362:                              # %_ZNSt14_Function_baseD2Ev.exit288
	vld	$vr0, $sp, 16                   # 16-byte Folded Reload
	lu12i.w	$a0, 1
	ori	$a0, $a0, 3848
	add.d	$a0, $sp, $a0
	vst	$vr0, $a0, 0
	pcalau12i	$a0, %pc_hi20(_ZNSt17_Function_handlerIFmPdS0_jEZ4mainE5$_144E9_M_invokeERKSt9_Any_dataOS0_S7_Oj)
	addi.d	$a0, $a0, %pc_lo12(_ZNSt17_Function_handlerIFmPdS0_jEZ4mainE5$_144E9_M_invokeERKSt9_Any_dataOS0_S7_Oj)
	lu12i.w	$a1, 1
	ori	$a1, $a1, 3872
	add.d	$a1, $sp, $a1
	st.d	$a0, $a1, 0
	pcalau12i	$a0, %pc_hi20(_ZNSt17_Function_handlerIFmPdS0_jEZ4mainE5$_144E10_M_managerERSt9_Any_dataRKS4_St18_Manager_operation)
	addi.d	$a0, $a0, %pc_lo12(_ZNSt17_Function_handlerIFmPdS0_jEZ4mainE5$_144E10_M_managerERSt9_Any_dataRKS4_St18_Manager_operation)
	lu12i.w	$a1, 1
	ori	$a1, $a1, 3864
	add.d	$a1, $sp, $a1
	st.d	$a0, $a1, 0
	lu12i.w	$a0, 1
	ori	$a0, $a0, 3816
	add.d	$a0, $sp, $a0
	vst	$vr0, $a0, 0
	pcalau12i	$a0, %pc_hi20(_ZNSt17_Function_handlerIFmPdS0_jEZ4mainE5$_145E9_M_invokeERKSt9_Any_dataOS0_S7_Oj)
	addi.d	$a0, $a0, %pc_lo12(_ZNSt17_Function_handlerIFmPdS0_jEZ4mainE5$_145E9_M_invokeERKSt9_Any_dataOS0_S7_Oj)
	lu12i.w	$a1, 1
	ori	$a1, $a1, 3840
	add.d	$a1, $sp, $a1
	st.d	$a0, $a1, 0
	pcalau12i	$a0, %pc_hi20(_ZNSt17_Function_handlerIFmPdS0_jEZ4mainE5$_145E10_M_managerERSt9_Any_dataRKS4_St18_Manager_operation)
	addi.d	$a0, $a0, %pc_lo12(_ZNSt17_Function_handlerIFmPdS0_jEZ4mainE5$_145E10_M_managerERSt9_Any_dataRKS4_St18_Manager_operation)
	lu12i.w	$a1, 1
	ori	$a1, $a1, 3832
	add.d	$a1, $sp, $a1
	st.d	$a0, $a1, 0
.Ltmp1080:                              # EH_LABEL
	pcalau12i	$a0, %pc_hi20(.L.str.72)
	addi.d	$a2, $a0, %pc_lo12(.L.str.72)
	lu12i.w	$a0, 1
	ori	$a0, $a0, 3848
	add.d	$a0, $sp, $a0
	lu12i.w	$a1, 1
	ori	$a1, $a1, 3816
	add.d	$a1, $sp, $a1
	pcaddu18i	$ra, %call36(_ZL19checkVectorFunctionImdEvSt8functionIFT_PT0_S3_jEES5_PKc)
	jirl	$ra, $ra, 0
.Ltmp1081:                              # EH_LABEL
# %bb.363:
	lu12i.w	$a0, 1
	ori	$a0, $a0, 3832
	add.d	$a0, $sp, $a0
	ld.d	$a3, $a0, 0
	beqz	$a3, .LBB0_365
# %bb.364:
.Ltmp1089:                              # EH_LABEL
	lu12i.w	$a0, 1
	ori	$a0, $a0, 3816
	add.d	$a0, $sp, $a0
	lu12i.w	$a1, 1
	ori	$a1, $a1, 3816
	add.d	$a1, $sp, $a1
	ori	$a2, $zero, 3
	jirl	$ra, $a3, 0
.Ltmp1090:                              # EH_LABEL
.LBB0_365:                              # %_ZNSt14_Function_baseD2Ev.exit290
	lu12i.w	$a0, 1
	ori	$a0, $a0, 3864
	add.d	$a0, $sp, $a0
	ld.d	$a3, $a0, 0
	beqz	$a3, .LBB0_367
# %bb.366:
.Ltmp1092:                              # EH_LABEL
	lu12i.w	$a0, 1
	ori	$a0, $a0, 3848
	add.d	$a0, $sp, $a0
	lu12i.w	$a1, 1
	ori	$a1, $a1, 3848
	add.d	$a1, $sp, $a1
	ori	$a2, $zero, 3
	jirl	$ra, $a3, 0
.Ltmp1093:                              # EH_LABEL
.LBB0_367:                              # %_ZNSt14_Function_baseD2Ev.exit292
	vld	$vr0, $sp, 16                   # 16-byte Folded Reload
	lu12i.w	$a0, 1
	ori	$a0, $a0, 3784
	add.d	$a0, $sp, $a0
	vst	$vr0, $a0, 0
	pcalau12i	$a0, %pc_hi20(_ZNSt17_Function_handlerIFmPdS0_jEZ4mainE5$_146E9_M_invokeERKSt9_Any_dataOS0_S7_Oj)
	addi.d	$a0, $a0, %pc_lo12(_ZNSt17_Function_handlerIFmPdS0_jEZ4mainE5$_146E9_M_invokeERKSt9_Any_dataOS0_S7_Oj)
	lu12i.w	$a1, 1
	ori	$a1, $a1, 3808
	add.d	$a1, $sp, $a1
	st.d	$a0, $a1, 0
	pcalau12i	$a0, %pc_hi20(_ZNSt17_Function_handlerIFmPdS0_jEZ4mainE5$_146E10_M_managerERSt9_Any_dataRKS4_St18_Manager_operation)
	addi.d	$a0, $a0, %pc_lo12(_ZNSt17_Function_handlerIFmPdS0_jEZ4mainE5$_146E10_M_managerERSt9_Any_dataRKS4_St18_Manager_operation)
	lu12i.w	$a1, 1
	ori	$a1, $a1, 3800
	add.d	$a1, $sp, $a1
	st.d	$a0, $a1, 0
	lu12i.w	$a0, 1
	ori	$a0, $a0, 3752
	add.d	$a0, $sp, $a0
	vst	$vr0, $a0, 0
	pcalau12i	$a0, %pc_hi20(_ZNSt17_Function_handlerIFmPdS0_jEZ4mainE5$_147E9_M_invokeERKSt9_Any_dataOS0_S7_Oj)
	addi.d	$a0, $a0, %pc_lo12(_ZNSt17_Function_handlerIFmPdS0_jEZ4mainE5$_147E9_M_invokeERKSt9_Any_dataOS0_S7_Oj)
	lu12i.w	$a1, 1
	ori	$a1, $a1, 3776
	add.d	$a1, $sp, $a1
	st.d	$a0, $a1, 0
	pcalau12i	$a0, %pc_hi20(_ZNSt17_Function_handlerIFmPdS0_jEZ4mainE5$_147E10_M_managerERSt9_Any_dataRKS4_St18_Manager_operation)
	addi.d	$a0, $a0, %pc_lo12(_ZNSt17_Function_handlerIFmPdS0_jEZ4mainE5$_147E10_M_managerERSt9_Any_dataRKS4_St18_Manager_operation)
	lu12i.w	$a1, 1
	ori	$a1, $a1, 3768
	add.d	$a1, $sp, $a1
	st.d	$a0, $a1, 0
.Ltmp1095:                              # EH_LABEL
	pcalau12i	$a0, %pc_hi20(.L.str.73)
	addi.d	$a2, $a0, %pc_lo12(.L.str.73)
	lu12i.w	$a0, 1
	ori	$a0, $a0, 3784
	add.d	$a0, $sp, $a0
	lu12i.w	$a1, 1
	ori	$a1, $a1, 3752
	add.d	$a1, $sp, $a1
	pcaddu18i	$ra, %call36(_ZL19checkVectorFunctionImdEvSt8functionIFT_PT0_S3_jEES5_PKc)
	jirl	$ra, $ra, 0
.Ltmp1096:                              # EH_LABEL
# %bb.368:
	lu12i.w	$a0, 1
	ori	$a0, $a0, 3768
	add.d	$a0, $sp, $a0
	ld.d	$a3, $a0, 0
	beqz	$a3, .LBB0_370
# %bb.369:
.Ltmp1104:                              # EH_LABEL
	lu12i.w	$a0, 1
	ori	$a0, $a0, 3752
	add.d	$a0, $sp, $a0
	lu12i.w	$a1, 1
	ori	$a1, $a1, 3752
	add.d	$a1, $sp, $a1
	ori	$a2, $zero, 3
	jirl	$ra, $a3, 0
.Ltmp1105:                              # EH_LABEL
.LBB0_370:                              # %_ZNSt14_Function_baseD2Ev.exit294
	lu12i.w	$a0, 1
	ori	$a0, $a0, 3800
	add.d	$a0, $sp, $a0
	ld.d	$a3, $a0, 0
	beqz	$a3, .LBB0_372
# %bb.371:
.Ltmp1107:                              # EH_LABEL
	lu12i.w	$a0, 1
	ori	$a0, $a0, 3784
	add.d	$a0, $sp, $a0
	lu12i.w	$a1, 1
	ori	$a1, $a1, 3784
	add.d	$a1, $sp, $a1
	ori	$a2, $zero, 3
	jirl	$ra, $a3, 0
.Ltmp1108:                              # EH_LABEL
.LBB0_372:                              # %_ZNSt14_Function_baseD2Ev.exit296
	vld	$vr0, $sp, 16                   # 16-byte Folded Reload
	lu12i.w	$a0, 1
	ori	$a0, $a0, 3720
	add.d	$a0, $sp, $a0
	vst	$vr0, $a0, 0
	pcalau12i	$a0, %pc_hi20(_ZNSt17_Function_handlerIFmPdS0_jEZ4mainE5$_148E9_M_invokeERKSt9_Any_dataOS0_S7_Oj)
	addi.d	$a0, $a0, %pc_lo12(_ZNSt17_Function_handlerIFmPdS0_jEZ4mainE5$_148E9_M_invokeERKSt9_Any_dataOS0_S7_Oj)
	lu12i.w	$a1, 1
	ori	$a1, $a1, 3744
	add.d	$a1, $sp, $a1
	st.d	$a0, $a1, 0
	pcalau12i	$a0, %pc_hi20(_ZNSt17_Function_handlerIFmPdS0_jEZ4mainE5$_148E10_M_managerERSt9_Any_dataRKS4_St18_Manager_operation)
	addi.d	$a0, $a0, %pc_lo12(_ZNSt17_Function_handlerIFmPdS0_jEZ4mainE5$_148E10_M_managerERSt9_Any_dataRKS4_St18_Manager_operation)
	lu12i.w	$a1, 1
	ori	$a1, $a1, 3736
	add.d	$a1, $sp, $a1
	st.d	$a0, $a1, 0
	lu12i.w	$a0, 1
	ori	$a0, $a0, 3688
	add.d	$a0, $sp, $a0
	vst	$vr0, $a0, 0
	pcalau12i	$a0, %pc_hi20(_ZNSt17_Function_handlerIFmPdS0_jEZ4mainE5$_149E9_M_invokeERKSt9_Any_dataOS0_S7_Oj)
	addi.d	$a0, $a0, %pc_lo12(_ZNSt17_Function_handlerIFmPdS0_jEZ4mainE5$_149E9_M_invokeERKSt9_Any_dataOS0_S7_Oj)
	lu12i.w	$a1, 1
	ori	$a1, $a1, 3712
	add.d	$a1, $sp, $a1
	st.d	$a0, $a1, 0
	pcalau12i	$a0, %pc_hi20(_ZNSt17_Function_handlerIFmPdS0_jEZ4mainE5$_149E10_M_managerERSt9_Any_dataRKS4_St18_Manager_operation)
	addi.d	$a0, $a0, %pc_lo12(_ZNSt17_Function_handlerIFmPdS0_jEZ4mainE5$_149E10_M_managerERSt9_Any_dataRKS4_St18_Manager_operation)
	lu12i.w	$a1, 1
	ori	$a1, $a1, 3704
	add.d	$a1, $sp, $a1
	st.d	$a0, $a1, 0
.Ltmp1110:                              # EH_LABEL
	pcalau12i	$a0, %pc_hi20(.L.str.74)
	addi.d	$a2, $a0, %pc_lo12(.L.str.74)
	lu12i.w	$a0, 1
	ori	$a0, $a0, 3720
	add.d	$a0, $sp, $a0
	lu12i.w	$a1, 1
	ori	$a1, $a1, 3688
	add.d	$a1, $sp, $a1
	pcaddu18i	$ra, %call36(_ZL19checkVectorFunctionImdEvSt8functionIFT_PT0_S3_jEES5_PKc)
	jirl	$ra, $ra, 0
.Ltmp1111:                              # EH_LABEL
# %bb.373:
	lu12i.w	$a0, 1
	ori	$a0, $a0, 3704
	add.d	$a0, $sp, $a0
	ld.d	$a3, $a0, 0
	beqz	$a3, .LBB0_375
# %bb.374:
.Ltmp1119:                              # EH_LABEL
	lu12i.w	$a0, 1
	ori	$a0, $a0, 3688
	add.d	$a0, $sp, $a0
	lu12i.w	$a1, 1
	ori	$a1, $a1, 3688
	add.d	$a1, $sp, $a1
	ori	$a2, $zero, 3
	jirl	$ra, $a3, 0
.Ltmp1120:                              # EH_LABEL
.LBB0_375:                              # %_ZNSt14_Function_baseD2Ev.exit298
	lu12i.w	$a0, 1
	ori	$a0, $a0, 3736
	add.d	$a0, $sp, $a0
	ld.d	$a3, $a0, 0
	beqz	$a3, .LBB0_377
# %bb.376:
.Ltmp1122:                              # EH_LABEL
	lu12i.w	$a0, 1
	ori	$a0, $a0, 3720
	add.d	$a0, $sp, $a0
	lu12i.w	$a1, 1
	ori	$a1, $a1, 3720
	add.d	$a1, $sp, $a1
	ori	$a2, $zero, 3
	jirl	$ra, $a3, 0
.Ltmp1123:                              # EH_LABEL
.LBB0_377:                              # %_ZNSt14_Function_baseD2Ev.exit300
	vld	$vr0, $sp, 16                   # 16-byte Folded Reload
	lu12i.w	$a0, 1
	ori	$a0, $a0, 3656
	add.d	$a0, $sp, $a0
	vst	$vr0, $a0, 0
	pcalau12i	$a0, %pc_hi20(_ZNSt17_Function_handlerIFmPdS0_jEZ4mainE5$_150E9_M_invokeERKSt9_Any_dataOS0_S7_Oj)
	addi.d	$a0, $a0, %pc_lo12(_ZNSt17_Function_handlerIFmPdS0_jEZ4mainE5$_150E9_M_invokeERKSt9_Any_dataOS0_S7_Oj)
	lu12i.w	$a1, 1
	ori	$a1, $a1, 3680
	add.d	$a1, $sp, $a1
	st.d	$a0, $a1, 0
	pcalau12i	$a0, %pc_hi20(_ZNSt17_Function_handlerIFmPdS0_jEZ4mainE5$_150E10_M_managerERSt9_Any_dataRKS4_St18_Manager_operation)
	addi.d	$a0, $a0, %pc_lo12(_ZNSt17_Function_handlerIFmPdS0_jEZ4mainE5$_150E10_M_managerERSt9_Any_dataRKS4_St18_Manager_operation)
	lu12i.w	$a1, 1
	ori	$a1, $a1, 3672
	add.d	$a1, $sp, $a1
	st.d	$a0, $a1, 0
	lu12i.w	$a0, 1
	ori	$a0, $a0, 3624
	add.d	$a0, $sp, $a0
	vst	$vr0, $a0, 0
	pcalau12i	$a0, %pc_hi20(_ZNSt17_Function_handlerIFmPdS0_jEZ4mainE5$_151E9_M_invokeERKSt9_Any_dataOS0_S7_Oj)
	addi.d	$a0, $a0, %pc_lo12(_ZNSt17_Function_handlerIFmPdS0_jEZ4mainE5$_151E9_M_invokeERKSt9_Any_dataOS0_S7_Oj)
	lu12i.w	$a1, 1
	ori	$a1, $a1, 3648
	add.d	$a1, $sp, $a1
	st.d	$a0, $a1, 0
	pcalau12i	$a0, %pc_hi20(_ZNSt17_Function_handlerIFmPdS0_jEZ4mainE5$_151E10_M_managerERSt9_Any_dataRKS4_St18_Manager_operation)
	addi.d	$a0, $a0, %pc_lo12(_ZNSt17_Function_handlerIFmPdS0_jEZ4mainE5$_151E10_M_managerERSt9_Any_dataRKS4_St18_Manager_operation)
	lu12i.w	$a1, 1
	ori	$a1, $a1, 3640
	add.d	$a1, $sp, $a1
	st.d	$a0, $a1, 0
.Ltmp1125:                              # EH_LABEL
	pcalau12i	$a0, %pc_hi20(.L.str.75)
	addi.d	$a2, $a0, %pc_lo12(.L.str.75)
	lu12i.w	$a0, 1
	ori	$a0, $a0, 3656
	add.d	$a0, $sp, $a0
	lu12i.w	$a1, 1
	ori	$a1, $a1, 3624
	add.d	$a1, $sp, $a1
	pcaddu18i	$ra, %call36(_ZL19checkVectorFunctionImdEvSt8functionIFT_PT0_S3_jEES5_PKc)
	jirl	$ra, $ra, 0
.Ltmp1126:                              # EH_LABEL
# %bb.378:
	lu12i.w	$a0, 1
	ori	$a0, $a0, 3640
	add.d	$a0, $sp, $a0
	ld.d	$a3, $a0, 0
	beqz	$a3, .LBB0_380
# %bb.379:
.Ltmp1134:                              # EH_LABEL
	lu12i.w	$a0, 1
	ori	$a0, $a0, 3624
	add.d	$a0, $sp, $a0
	lu12i.w	$a1, 1
	ori	$a1, $a1, 3624
	add.d	$a1, $sp, $a1
	ori	$a2, $zero, 3
	jirl	$ra, $a3, 0
.Ltmp1135:                              # EH_LABEL
.LBB0_380:                              # %_ZNSt14_Function_baseD2Ev.exit302
	lu12i.w	$a0, 1
	ori	$a0, $a0, 3672
	add.d	$a0, $sp, $a0
	ld.d	$a3, $a0, 0
	beqz	$a3, .LBB0_382
# %bb.381:
.Ltmp1137:                              # EH_LABEL
	lu12i.w	$a0, 1
	ori	$a0, $a0, 3656
	add.d	$a0, $sp, $a0
	lu12i.w	$a1, 1
	ori	$a1, $a1, 3656
	add.d	$a1, $sp, $a1
	ori	$a2, $zero, 3
	jirl	$ra, $a3, 0
.Ltmp1138:                              # EH_LABEL
.LBB0_382:                              # %_ZNSt14_Function_baseD2Ev.exit304
	vld	$vr0, $sp, 16                   # 16-byte Folded Reload
	lu12i.w	$a0, 1
	ori	$a0, $a0, 3592
	add.d	$a0, $sp, $a0
	vst	$vr0, $a0, 0
	pcalau12i	$a0, %pc_hi20(_ZNSt17_Function_handlerIFmPdS0_jEZ4mainE5$_152E9_M_invokeERKSt9_Any_dataOS0_S7_Oj)
	addi.d	$a0, $a0, %pc_lo12(_ZNSt17_Function_handlerIFmPdS0_jEZ4mainE5$_152E9_M_invokeERKSt9_Any_dataOS0_S7_Oj)
	lu12i.w	$a1, 1
	ori	$a1, $a1, 3616
	add.d	$a1, $sp, $a1
	st.d	$a0, $a1, 0
	pcalau12i	$a0, %pc_hi20(_ZNSt17_Function_handlerIFmPdS0_jEZ4mainE5$_152E10_M_managerERSt9_Any_dataRKS4_St18_Manager_operation)
	addi.d	$a0, $a0, %pc_lo12(_ZNSt17_Function_handlerIFmPdS0_jEZ4mainE5$_152E10_M_managerERSt9_Any_dataRKS4_St18_Manager_operation)
	lu12i.w	$a1, 1
	ori	$a1, $a1, 3608
	add.d	$a1, $sp, $a1
	st.d	$a0, $a1, 0
	lu12i.w	$a0, 1
	ori	$a0, $a0, 3560
	add.d	$a0, $sp, $a0
	vst	$vr0, $a0, 0
	pcalau12i	$a0, %pc_hi20(_ZNSt17_Function_handlerIFmPdS0_jEZ4mainE5$_153E9_M_invokeERKSt9_Any_dataOS0_S7_Oj)
	addi.d	$a0, $a0, %pc_lo12(_ZNSt17_Function_handlerIFmPdS0_jEZ4mainE5$_153E9_M_invokeERKSt9_Any_dataOS0_S7_Oj)
	lu12i.w	$a1, 1
	ori	$a1, $a1, 3584
	add.d	$a1, $sp, $a1
	st.d	$a0, $a1, 0
	pcalau12i	$a0, %pc_hi20(_ZNSt17_Function_handlerIFmPdS0_jEZ4mainE5$_153E10_M_managerERSt9_Any_dataRKS4_St18_Manager_operation)
	addi.d	$a0, $a0, %pc_lo12(_ZNSt17_Function_handlerIFmPdS0_jEZ4mainE5$_153E10_M_managerERSt9_Any_dataRKS4_St18_Manager_operation)
	lu12i.w	$a1, 1
	ori	$a1, $a1, 3576
	add.d	$a1, $sp, $a1
	st.d	$a0, $a1, 0
.Ltmp1140:                              # EH_LABEL
	pcalau12i	$a0, %pc_hi20(.L.str.76)
	addi.d	$a2, $a0, %pc_lo12(.L.str.76)
	lu12i.w	$a0, 1
	ori	$a0, $a0, 3592
	add.d	$a0, $sp, $a0
	lu12i.w	$a1, 1
	ori	$a1, $a1, 3560
	add.d	$a1, $sp, $a1
	pcaddu18i	$ra, %call36(_ZL19checkVectorFunctionImdEvSt8functionIFT_PT0_S3_jEES5_PKc)
	jirl	$ra, $ra, 0
.Ltmp1141:                              # EH_LABEL
# %bb.383:
	lu12i.w	$a0, 1
	ori	$a0, $a0, 3576
	add.d	$a0, $sp, $a0
	ld.d	$a3, $a0, 0
	beqz	$a3, .LBB0_385
# %bb.384:
.Ltmp1149:                              # EH_LABEL
	lu12i.w	$a0, 1
	ori	$a0, $a0, 3560
	add.d	$a0, $sp, $a0
	lu12i.w	$a1, 1
	ori	$a1, $a1, 3560
	add.d	$a1, $sp, $a1
	ori	$a2, $zero, 3
	jirl	$ra, $a3, 0
.Ltmp1150:                              # EH_LABEL
.LBB0_385:                              # %_ZNSt14_Function_baseD2Ev.exit306
	lu12i.w	$a0, 1
	ori	$a0, $a0, 3608
	add.d	$a0, $sp, $a0
	ld.d	$a3, $a0, 0
	beqz	$a3, .LBB0_387
# %bb.386:
.Ltmp1152:                              # EH_LABEL
	lu12i.w	$a0, 1
	ori	$a0, $a0, 3592
	add.d	$a0, $sp, $a0
	lu12i.w	$a1, 1
	ori	$a1, $a1, 3592
	add.d	$a1, $sp, $a1
	ori	$a2, $zero, 3
	jirl	$ra, $a3, 0
.Ltmp1153:                              # EH_LABEL
.LBB0_387:                              # %_ZNSt14_Function_baseD2Ev.exit308
	vld	$vr0, $sp, 16                   # 16-byte Folded Reload
	lu12i.w	$a0, 1
	ori	$a0, $a0, 3528
	add.d	$a0, $sp, $a0
	vst	$vr0, $a0, 0
	pcalau12i	$a0, %pc_hi20(_ZNSt17_Function_handlerIFmPdS0_jEZ4mainE5$_154E9_M_invokeERKSt9_Any_dataOS0_S7_Oj)
	addi.d	$a0, $a0, %pc_lo12(_ZNSt17_Function_handlerIFmPdS0_jEZ4mainE5$_154E9_M_invokeERKSt9_Any_dataOS0_S7_Oj)
	lu12i.w	$a1, 1
	ori	$a1, $a1, 3552
	add.d	$a1, $sp, $a1
	st.d	$a0, $a1, 0
	pcalau12i	$a0, %pc_hi20(_ZNSt17_Function_handlerIFmPdS0_jEZ4mainE5$_154E10_M_managerERSt9_Any_dataRKS4_St18_Manager_operation)
	addi.d	$a0, $a0, %pc_lo12(_ZNSt17_Function_handlerIFmPdS0_jEZ4mainE5$_154E10_M_managerERSt9_Any_dataRKS4_St18_Manager_operation)
	lu12i.w	$a1, 1
	ori	$a1, $a1, 3544
	add.d	$a1, $sp, $a1
	st.d	$a0, $a1, 0
	lu12i.w	$a0, 1
	ori	$a0, $a0, 3496
	add.d	$a0, $sp, $a0
	vst	$vr0, $a0, 0
	pcalau12i	$a0, %pc_hi20(_ZNSt17_Function_handlerIFmPdS0_jEZ4mainE5$_155E9_M_invokeERKSt9_Any_dataOS0_S7_Oj)
	addi.d	$a0, $a0, %pc_lo12(_ZNSt17_Function_handlerIFmPdS0_jEZ4mainE5$_155E9_M_invokeERKSt9_Any_dataOS0_S7_Oj)
	lu12i.w	$a1, 1
	ori	$a1, $a1, 3520
	add.d	$a1, $sp, $a1
	st.d	$a0, $a1, 0
	pcalau12i	$a0, %pc_hi20(_ZNSt17_Function_handlerIFmPdS0_jEZ4mainE5$_155E10_M_managerERSt9_Any_dataRKS4_St18_Manager_operation)
	addi.d	$a0, $a0, %pc_lo12(_ZNSt17_Function_handlerIFmPdS0_jEZ4mainE5$_155E10_M_managerERSt9_Any_dataRKS4_St18_Manager_operation)
	lu12i.w	$a1, 1
	ori	$a1, $a1, 3512
	add.d	$a1, $sp, $a1
	st.d	$a0, $a1, 0
.Ltmp1155:                              # EH_LABEL
	pcalau12i	$a0, %pc_hi20(.L.str.77)
	addi.d	$a2, $a0, %pc_lo12(.L.str.77)
	lu12i.w	$a0, 1
	ori	$a0, $a0, 3528
	add.d	$a0, $sp, $a0
	lu12i.w	$a1, 1
	ori	$a1, $a1, 3496
	add.d	$a1, $sp, $a1
	pcaddu18i	$ra, %call36(_ZL19checkVectorFunctionImdEvSt8functionIFT_PT0_S3_jEES5_PKc)
	jirl	$ra, $ra, 0
.Ltmp1156:                              # EH_LABEL
# %bb.388:
	lu12i.w	$a0, 1
	ori	$a0, $a0, 3512
	add.d	$a0, $sp, $a0
	ld.d	$a3, $a0, 0
	beqz	$a3, .LBB0_390
# %bb.389:
.Ltmp1164:                              # EH_LABEL
	lu12i.w	$a0, 1
	ori	$a0, $a0, 3496
	add.d	$a0, $sp, $a0
	lu12i.w	$a1, 1
	ori	$a1, $a1, 3496
	add.d	$a1, $sp, $a1
	ori	$a2, $zero, 3
	jirl	$ra, $a3, 0
.Ltmp1165:                              # EH_LABEL
.LBB0_390:                              # %_ZNSt14_Function_baseD2Ev.exit310
	lu12i.w	$a0, 1
	ori	$a0, $a0, 3544
	add.d	$a0, $sp, $a0
	ld.d	$a3, $a0, 0
	beqz	$a3, .LBB0_392
# %bb.391:
.Ltmp1167:                              # EH_LABEL
	lu12i.w	$a0, 1
	ori	$a0, $a0, 3528
	add.d	$a0, $sp, $a0
	lu12i.w	$a1, 1
	ori	$a1, $a1, 3528
	add.d	$a1, $sp, $a1
	ori	$a2, $zero, 3
	jirl	$ra, $a3, 0
.Ltmp1168:                              # EH_LABEL
.LBB0_392:                              # %_ZNSt14_Function_baseD2Ev.exit312
	vld	$vr0, $sp, 16                   # 16-byte Folded Reload
	lu12i.w	$a0, 1
	ori	$a0, $a0, 3464
	add.d	$a0, $sp, $a0
	vst	$vr0, $a0, 0
	pcalau12i	$a0, %pc_hi20(_ZNSt17_Function_handlerIFmPdS0_jEZ4mainE5$_156E9_M_invokeERKSt9_Any_dataOS0_S7_Oj)
	addi.d	$a0, $a0, %pc_lo12(_ZNSt17_Function_handlerIFmPdS0_jEZ4mainE5$_156E9_M_invokeERKSt9_Any_dataOS0_S7_Oj)
	lu12i.w	$a1, 1
	ori	$a1, $a1, 3488
	add.d	$a1, $sp, $a1
	st.d	$a0, $a1, 0
	pcalau12i	$a0, %pc_hi20(_ZNSt17_Function_handlerIFmPdS0_jEZ4mainE5$_156E10_M_managerERSt9_Any_dataRKS4_St18_Manager_operation)
	addi.d	$a0, $a0, %pc_lo12(_ZNSt17_Function_handlerIFmPdS0_jEZ4mainE5$_156E10_M_managerERSt9_Any_dataRKS4_St18_Manager_operation)
	lu12i.w	$a1, 1
	ori	$a1, $a1, 3480
	add.d	$a1, $sp, $a1
	st.d	$a0, $a1, 0
	lu12i.w	$a0, 1
	ori	$a0, $a0, 3432
	add.d	$a0, $sp, $a0
	vst	$vr0, $a0, 0
	pcalau12i	$a0, %pc_hi20(_ZNSt17_Function_handlerIFmPdS0_jEZ4mainE5$_157E9_M_invokeERKSt9_Any_dataOS0_S7_Oj)
	addi.d	$a0, $a0, %pc_lo12(_ZNSt17_Function_handlerIFmPdS0_jEZ4mainE5$_157E9_M_invokeERKSt9_Any_dataOS0_S7_Oj)
	lu12i.w	$a1, 1
	ori	$a1, $a1, 3456
	add.d	$a1, $sp, $a1
	st.d	$a0, $a1, 0
	pcalau12i	$a0, %pc_hi20(_ZNSt17_Function_handlerIFmPdS0_jEZ4mainE5$_157E10_M_managerERSt9_Any_dataRKS4_St18_Manager_operation)
	addi.d	$a0, $a0, %pc_lo12(_ZNSt17_Function_handlerIFmPdS0_jEZ4mainE5$_157E10_M_managerERSt9_Any_dataRKS4_St18_Manager_operation)
	lu12i.w	$a1, 1
	ori	$a1, $a1, 3448
	add.d	$a1, $sp, $a1
	st.d	$a0, $a1, 0
.Ltmp1170:                              # EH_LABEL
	pcalau12i	$a0, %pc_hi20(.L.str.78)
	addi.d	$a2, $a0, %pc_lo12(.L.str.78)
	lu12i.w	$a0, 1
	ori	$a0, $a0, 3464
	add.d	$a0, $sp, $a0
	lu12i.w	$a1, 1
	ori	$a1, $a1, 3432
	add.d	$a1, $sp, $a1
	pcaddu18i	$ra, %call36(_ZL19checkVectorFunctionImdEvSt8functionIFT_PT0_S3_jEES5_PKc)
	jirl	$ra, $ra, 0
.Ltmp1171:                              # EH_LABEL
# %bb.393:
	lu12i.w	$a0, 1
	ori	$a0, $a0, 3448
	add.d	$a0, $sp, $a0
	ld.d	$a3, $a0, 0
	beqz	$a3, .LBB0_395
# %bb.394:
.Ltmp1179:                              # EH_LABEL
	lu12i.w	$a0, 1
	ori	$a0, $a0, 3432
	add.d	$a0, $sp, $a0
	lu12i.w	$a1, 1
	ori	$a1, $a1, 3432
	add.d	$a1, $sp, $a1
	ori	$a2, $zero, 3
	jirl	$ra, $a3, 0
.Ltmp1180:                              # EH_LABEL
.LBB0_395:                              # %_ZNSt14_Function_baseD2Ev.exit314
	lu12i.w	$a0, 1
	ori	$a0, $a0, 3480
	add.d	$a0, $sp, $a0
	ld.d	$a3, $a0, 0
	beqz	$a3, .LBB0_397
# %bb.396:
.Ltmp1182:                              # EH_LABEL
	lu12i.w	$a0, 1
	ori	$a0, $a0, 3464
	add.d	$a0, $sp, $a0
	lu12i.w	$a1, 1
	ori	$a1, $a1, 3464
	add.d	$a1, $sp, $a1
	ori	$a2, $zero, 3
	jirl	$ra, $a3, 0
.Ltmp1183:                              # EH_LABEL
.LBB0_397:                              # %_ZNSt14_Function_baseD2Ev.exit316
	vld	$vr0, $sp, 16                   # 16-byte Folded Reload
	lu12i.w	$a0, 1
	ori	$a0, $a0, 3400
	add.d	$a0, $sp, $a0
	vst	$vr0, $a0, 0
	pcalau12i	$a0, %pc_hi20(_ZNSt17_Function_handlerIFmPdS0_jEZ4mainE5$_158E9_M_invokeERKSt9_Any_dataOS0_S7_Oj)
	addi.d	$a0, $a0, %pc_lo12(_ZNSt17_Function_handlerIFmPdS0_jEZ4mainE5$_158E9_M_invokeERKSt9_Any_dataOS0_S7_Oj)
	lu12i.w	$a1, 1
	ori	$a1, $a1, 3424
	add.d	$a1, $sp, $a1
	st.d	$a0, $a1, 0
	pcalau12i	$a0, %pc_hi20(_ZNSt17_Function_handlerIFmPdS0_jEZ4mainE5$_158E10_M_managerERSt9_Any_dataRKS4_St18_Manager_operation)
	addi.d	$a0, $a0, %pc_lo12(_ZNSt17_Function_handlerIFmPdS0_jEZ4mainE5$_158E10_M_managerERSt9_Any_dataRKS4_St18_Manager_operation)
	lu12i.w	$a1, 1
	ori	$a1, $a1, 3416
	add.d	$a1, $sp, $a1
	st.d	$a0, $a1, 0
	lu12i.w	$a0, 1
	ori	$a0, $a0, 3368
	add.d	$a0, $sp, $a0
	vst	$vr0, $a0, 0
	pcalau12i	$a0, %pc_hi20(_ZNSt17_Function_handlerIFmPdS0_jEZ4mainE5$_159E9_M_invokeERKSt9_Any_dataOS0_S7_Oj)
	addi.d	$a0, $a0, %pc_lo12(_ZNSt17_Function_handlerIFmPdS0_jEZ4mainE5$_159E9_M_invokeERKSt9_Any_dataOS0_S7_Oj)
	lu12i.w	$a1, 1
	ori	$a1, $a1, 3392
	add.d	$a1, $sp, $a1
	st.d	$a0, $a1, 0
	pcalau12i	$a0, %pc_hi20(_ZNSt17_Function_handlerIFmPdS0_jEZ4mainE5$_159E10_M_managerERSt9_Any_dataRKS4_St18_Manager_operation)
	addi.d	$a0, $a0, %pc_lo12(_ZNSt17_Function_handlerIFmPdS0_jEZ4mainE5$_159E10_M_managerERSt9_Any_dataRKS4_St18_Manager_operation)
	lu12i.w	$a1, 1
	ori	$a1, $a1, 3384
	add.d	$a1, $sp, $a1
	st.d	$a0, $a1, 0
.Ltmp1185:                              # EH_LABEL
	pcalau12i	$a0, %pc_hi20(.L.str.79)
	addi.d	$a2, $a0, %pc_lo12(.L.str.79)
	lu12i.w	$a0, 1
	ori	$a0, $a0, 3400
	add.d	$a0, $sp, $a0
	lu12i.w	$a1, 1
	ori	$a1, $a1, 3368
	add.d	$a1, $sp, $a1
	pcaddu18i	$ra, %call36(_ZL19checkVectorFunctionImdEvSt8functionIFT_PT0_S3_jEES5_PKc)
	jirl	$ra, $ra, 0
.Ltmp1186:                              # EH_LABEL
# %bb.398:
	lu12i.w	$a0, 1
	ori	$a0, $a0, 3384
	add.d	$a0, $sp, $a0
	ld.d	$a3, $a0, 0
	beqz	$a3, .LBB0_400
# %bb.399:
.Ltmp1194:                              # EH_LABEL
	lu12i.w	$a0, 1
	ori	$a0, $a0, 3368
	add.d	$a0, $sp, $a0
	lu12i.w	$a1, 1
	ori	$a1, $a1, 3368
	add.d	$a1, $sp, $a1
	ori	$a2, $zero, 3
	jirl	$ra, $a3, 0
.Ltmp1195:                              # EH_LABEL
.LBB0_400:                              # %_ZNSt14_Function_baseD2Ev.exit318
	lu12i.w	$a0, 1
	ori	$a0, $a0, 3416
	add.d	$a0, $sp, $a0
	ld.d	$a3, $a0, 0
	beqz	$a3, .LBB0_402
# %bb.401:
.Ltmp1197:                              # EH_LABEL
	lu12i.w	$a0, 1
	ori	$a0, $a0, 3400
	add.d	$a0, $sp, $a0
	lu12i.w	$a1, 1
	ori	$a1, $a1, 3400
	add.d	$a1, $sp, $a1
	ori	$a2, $zero, 3
	jirl	$ra, $a3, 0
.Ltmp1198:                              # EH_LABEL
.LBB0_402:                              # %_ZNSt14_Function_baseD2Ev.exit320
	vld	$vr0, $sp, 16                   # 16-byte Folded Reload
	lu12i.w	$a0, 1
	ori	$a0, $a0, 3336
	add.d	$a0, $sp, $a0
	vst	$vr0, $a0, 0
	pcalau12i	$a0, %pc_hi20(_ZNSt17_Function_handlerIFmPdS0_jEZ4mainE5$_160E9_M_invokeERKSt9_Any_dataOS0_S7_Oj)
	addi.d	$a0, $a0, %pc_lo12(_ZNSt17_Function_handlerIFmPdS0_jEZ4mainE5$_160E9_M_invokeERKSt9_Any_dataOS0_S7_Oj)
	lu12i.w	$a1, 1
	ori	$a1, $a1, 3360
	add.d	$a1, $sp, $a1
	st.d	$a0, $a1, 0
	pcalau12i	$a0, %pc_hi20(_ZNSt17_Function_handlerIFmPdS0_jEZ4mainE5$_160E10_M_managerERSt9_Any_dataRKS4_St18_Manager_operation)
	addi.d	$a0, $a0, %pc_lo12(_ZNSt17_Function_handlerIFmPdS0_jEZ4mainE5$_160E10_M_managerERSt9_Any_dataRKS4_St18_Manager_operation)
	lu12i.w	$a1, 1
	ori	$a1, $a1, 3352
	add.d	$a1, $sp, $a1
	st.d	$a0, $a1, 0
	lu12i.w	$a0, 1
	ori	$a0, $a0, 3304
	add.d	$a0, $sp, $a0
	vst	$vr0, $a0, 0
	pcalau12i	$a0, %pc_hi20(_ZNSt17_Function_handlerIFmPdS0_jEZ4mainE5$_161E9_M_invokeERKSt9_Any_dataOS0_S7_Oj)
	addi.d	$a0, $a0, %pc_lo12(_ZNSt17_Function_handlerIFmPdS0_jEZ4mainE5$_161E9_M_invokeERKSt9_Any_dataOS0_S7_Oj)
	lu12i.w	$a1, 1
	ori	$a1, $a1, 3328
	add.d	$a1, $sp, $a1
	st.d	$a0, $a1, 0
	pcalau12i	$a0, %pc_hi20(_ZNSt17_Function_handlerIFmPdS0_jEZ4mainE5$_161E10_M_managerERSt9_Any_dataRKS4_St18_Manager_operation)
	addi.d	$a0, $a0, %pc_lo12(_ZNSt17_Function_handlerIFmPdS0_jEZ4mainE5$_161E10_M_managerERSt9_Any_dataRKS4_St18_Manager_operation)
	lu12i.w	$a1, 1
	ori	$a1, $a1, 3320
	add.d	$a1, $sp, $a1
	st.d	$a0, $a1, 0
.Ltmp1200:                              # EH_LABEL
	pcalau12i	$a0, %pc_hi20(.L.str.80)
	addi.d	$a2, $a0, %pc_lo12(.L.str.80)
	lu12i.w	$a0, 1
	ori	$a0, $a0, 3336
	add.d	$a0, $sp, $a0
	lu12i.w	$a1, 1
	ori	$a1, $a1, 3304
	add.d	$a1, $sp, $a1
	pcaddu18i	$ra, %call36(_ZL19checkVectorFunctionImdEvSt8functionIFT_PT0_S3_jEES5_PKc)
	jirl	$ra, $ra, 0
.Ltmp1201:                              # EH_LABEL
# %bb.403:
	lu12i.w	$a0, 1
	ori	$a0, $a0, 3320
	add.d	$a0, $sp, $a0
	ld.d	$a3, $a0, 0
	beqz	$a3, .LBB0_405
# %bb.404:
.Ltmp1209:                              # EH_LABEL
	lu12i.w	$a0, 1
	ori	$a0, $a0, 3304
	add.d	$a0, $sp, $a0
	lu12i.w	$a1, 1
	ori	$a1, $a1, 3304
	add.d	$a1, $sp, $a1
	ori	$a2, $zero, 3
	jirl	$ra, $a3, 0
.Ltmp1210:                              # EH_LABEL
.LBB0_405:                              # %_ZNSt14_Function_baseD2Ev.exit322
	lu12i.w	$a0, 1
	ori	$a0, $a0, 3352
	add.d	$a0, $sp, $a0
	ld.d	$a3, $a0, 0
	beqz	$a3, .LBB0_407
# %bb.406:
.Ltmp1212:                              # EH_LABEL
	lu12i.w	$a0, 1
	ori	$a0, $a0, 3336
	add.d	$a0, $sp, $a0
	lu12i.w	$a1, 1
	ori	$a1, $a1, 3336
	add.d	$a1, $sp, $a1
	ori	$a2, $zero, 3
	jirl	$ra, $a3, 0
.Ltmp1213:                              # EH_LABEL
.LBB0_407:                              # %_ZNSt14_Function_baseD2Ev.exit324
	vld	$vr0, $sp, 16                   # 16-byte Folded Reload
	lu12i.w	$a0, 1
	ori	$a0, $a0, 3272
	add.d	$a0, $sp, $a0
	vst	$vr0, $a0, 0
	pcalau12i	$a0, %pc_hi20(_ZNSt17_Function_handlerIFmPdS0_jEZ4mainE5$_162E9_M_invokeERKSt9_Any_dataOS0_S7_Oj)
	addi.d	$a0, $a0, %pc_lo12(_ZNSt17_Function_handlerIFmPdS0_jEZ4mainE5$_162E9_M_invokeERKSt9_Any_dataOS0_S7_Oj)
	lu12i.w	$a1, 1
	ori	$a1, $a1, 3296
	add.d	$a1, $sp, $a1
	st.d	$a0, $a1, 0
	pcalau12i	$a0, %pc_hi20(_ZNSt17_Function_handlerIFmPdS0_jEZ4mainE5$_162E10_M_managerERSt9_Any_dataRKS4_St18_Manager_operation)
	addi.d	$a0, $a0, %pc_lo12(_ZNSt17_Function_handlerIFmPdS0_jEZ4mainE5$_162E10_M_managerERSt9_Any_dataRKS4_St18_Manager_operation)
	lu12i.w	$a1, 1
	ori	$a1, $a1, 3288
	add.d	$a1, $sp, $a1
	st.d	$a0, $a1, 0
	lu12i.w	$a0, 1
	ori	$a0, $a0, 3240
	add.d	$a0, $sp, $a0
	vst	$vr0, $a0, 0
	pcalau12i	$a0, %pc_hi20(_ZNSt17_Function_handlerIFmPdS0_jEZ4mainE5$_163E9_M_invokeERKSt9_Any_dataOS0_S7_Oj)
	addi.d	$a0, $a0, %pc_lo12(_ZNSt17_Function_handlerIFmPdS0_jEZ4mainE5$_163E9_M_invokeERKSt9_Any_dataOS0_S7_Oj)
	lu12i.w	$a1, 1
	ori	$a1, $a1, 3264
	add.d	$a1, $sp, $a1
	st.d	$a0, $a1, 0
	pcalau12i	$a0, %pc_hi20(_ZNSt17_Function_handlerIFmPdS0_jEZ4mainE5$_163E10_M_managerERSt9_Any_dataRKS4_St18_Manager_operation)
	addi.d	$a0, $a0, %pc_lo12(_ZNSt17_Function_handlerIFmPdS0_jEZ4mainE5$_163E10_M_managerERSt9_Any_dataRKS4_St18_Manager_operation)
	lu12i.w	$a1, 1
	ori	$a1, $a1, 3256
	add.d	$a1, $sp, $a1
	st.d	$a0, $a1, 0
.Ltmp1215:                              # EH_LABEL
	pcalau12i	$a0, %pc_hi20(.L.str.81)
	addi.d	$a2, $a0, %pc_lo12(.L.str.81)
	lu12i.w	$a0, 1
	ori	$a0, $a0, 3272
	add.d	$a0, $sp, $a0
	lu12i.w	$a1, 1
	ori	$a1, $a1, 3240
	add.d	$a1, $sp, $a1
	pcaddu18i	$ra, %call36(_ZL19checkVectorFunctionImdEvSt8functionIFT_PT0_S3_jEES5_PKc)
	jirl	$ra, $ra, 0
.Ltmp1216:                              # EH_LABEL
# %bb.408:
	lu12i.w	$a0, 1
	ori	$a0, $a0, 3256
	add.d	$a0, $sp, $a0
	ld.d	$a3, $a0, 0
	beqz	$a3, .LBB0_410
# %bb.409:
.Ltmp1224:                              # EH_LABEL
	lu12i.w	$a0, 1
	ori	$a0, $a0, 3240
	add.d	$a0, $sp, $a0
	lu12i.w	$a1, 1
	ori	$a1, $a1, 3240
	add.d	$a1, $sp, $a1
	ori	$a2, $zero, 3
	jirl	$ra, $a3, 0
.Ltmp1225:                              # EH_LABEL
.LBB0_410:                              # %_ZNSt14_Function_baseD2Ev.exit326
	lu12i.w	$a0, 1
	ori	$a0, $a0, 3288
	add.d	$a0, $sp, $a0
	ld.d	$a3, $a0, 0
	beqz	$a3, .LBB0_412
# %bb.411:
.Ltmp1227:                              # EH_LABEL
	lu12i.w	$a0, 1
	ori	$a0, $a0, 3272
	add.d	$a0, $sp, $a0
	lu12i.w	$a1, 1
	ori	$a1, $a1, 3272
	add.d	$a1, $sp, $a1
	ori	$a2, $zero, 3
	jirl	$ra, $a3, 0
.Ltmp1228:                              # EH_LABEL
.LBB0_412:                              # %_ZNSt14_Function_baseD2Ev.exit328
	vld	$vr0, $sp, 16                   # 16-byte Folded Reload
	lu12i.w	$a0, 1
	ori	$a0, $a0, 3208
	add.d	$a0, $sp, $a0
	vst	$vr0, $a0, 0
	pcalau12i	$a0, %pc_hi20(_ZNSt17_Function_handlerIFmPdS0_jEZ4mainE5$_164E9_M_invokeERKSt9_Any_dataOS0_S7_Oj)
	addi.d	$a0, $a0, %pc_lo12(_ZNSt17_Function_handlerIFmPdS0_jEZ4mainE5$_164E9_M_invokeERKSt9_Any_dataOS0_S7_Oj)
	lu12i.w	$a1, 1
	ori	$a1, $a1, 3232
	add.d	$a1, $sp, $a1
	st.d	$a0, $a1, 0
	pcalau12i	$a0, %pc_hi20(_ZNSt17_Function_handlerIFmPdS0_jEZ4mainE5$_164E10_M_managerERSt9_Any_dataRKS4_St18_Manager_operation)
	addi.d	$a0, $a0, %pc_lo12(_ZNSt17_Function_handlerIFmPdS0_jEZ4mainE5$_164E10_M_managerERSt9_Any_dataRKS4_St18_Manager_operation)
	lu12i.w	$a1, 1
	ori	$a1, $a1, 3224
	add.d	$a1, $sp, $a1
	st.d	$a0, $a1, 0
	lu12i.w	$a0, 1
	ori	$a0, $a0, 3176
	add.d	$a0, $sp, $a0
	vst	$vr0, $a0, 0
	pcalau12i	$a0, %pc_hi20(_ZNSt17_Function_handlerIFmPdS0_jEZ4mainE5$_165E9_M_invokeERKSt9_Any_dataOS0_S7_Oj)
	addi.d	$a0, $a0, %pc_lo12(_ZNSt17_Function_handlerIFmPdS0_jEZ4mainE5$_165E9_M_invokeERKSt9_Any_dataOS0_S7_Oj)
	lu12i.w	$a1, 1
	ori	$a1, $a1, 3200
	add.d	$a1, $sp, $a1
	st.d	$a0, $a1, 0
	pcalau12i	$a0, %pc_hi20(_ZNSt17_Function_handlerIFmPdS0_jEZ4mainE5$_165E10_M_managerERSt9_Any_dataRKS4_St18_Manager_operation)
	addi.d	$a0, $a0, %pc_lo12(_ZNSt17_Function_handlerIFmPdS0_jEZ4mainE5$_165E10_M_managerERSt9_Any_dataRKS4_St18_Manager_operation)
	lu12i.w	$a1, 1
	ori	$a1, $a1, 3192
	add.d	$a1, $sp, $a1
	st.d	$a0, $a1, 0
.Ltmp1230:                              # EH_LABEL
	pcalau12i	$a0, %pc_hi20(.L.str.82)
	addi.d	$a2, $a0, %pc_lo12(.L.str.82)
	lu12i.w	$a0, 1
	ori	$a0, $a0, 3208
	add.d	$a0, $sp, $a0
	lu12i.w	$a1, 1
	ori	$a1, $a1, 3176
	add.d	$a1, $sp, $a1
	pcaddu18i	$ra, %call36(_ZL19checkVectorFunctionImdEvSt8functionIFT_PT0_S3_jEES5_PKc)
	jirl	$ra, $ra, 0
.Ltmp1231:                              # EH_LABEL
# %bb.413:
	lu12i.w	$a0, 1
	ori	$a0, $a0, 3192
	add.d	$a0, $sp, $a0
	ld.d	$a3, $a0, 0
	beqz	$a3, .LBB0_415
# %bb.414:
.Ltmp1239:                              # EH_LABEL
	lu12i.w	$a0, 1
	ori	$a0, $a0, 3176
	add.d	$a0, $sp, $a0
	lu12i.w	$a1, 1
	ori	$a1, $a1, 3176
	add.d	$a1, $sp, $a1
	ori	$a2, $zero, 3
	jirl	$ra, $a3, 0
.Ltmp1240:                              # EH_LABEL
.LBB0_415:                              # %_ZNSt14_Function_baseD2Ev.exit330
	lu12i.w	$a0, 1
	ori	$a0, $a0, 3224
	add.d	$a0, $sp, $a0
	ld.d	$a3, $a0, 0
	beqz	$a3, .LBB0_417
# %bb.416:
.Ltmp1242:                              # EH_LABEL
	lu12i.w	$a0, 1
	ori	$a0, $a0, 3208
	add.d	$a0, $sp, $a0
	lu12i.w	$a1, 1
	ori	$a1, $a1, 3208
	add.d	$a1, $sp, $a1
	ori	$a2, $zero, 3
	jirl	$ra, $a3, 0
.Ltmp1243:                              # EH_LABEL
.LBB0_417:                              # %_ZNSt14_Function_baseD2Ev.exit332
	vld	$vr0, $sp, 16                   # 16-byte Folded Reload
	lu12i.w	$a0, 1
	ori	$a0, $a0, 3144
	add.d	$a0, $sp, $a0
	vst	$vr0, $a0, 0
	pcalau12i	$a0, %pc_hi20(_ZNSt17_Function_handlerIFmPdS0_jEZ4mainE5$_166E9_M_invokeERKSt9_Any_dataOS0_S7_Oj)
	addi.d	$a0, $a0, %pc_lo12(_ZNSt17_Function_handlerIFmPdS0_jEZ4mainE5$_166E9_M_invokeERKSt9_Any_dataOS0_S7_Oj)
	lu12i.w	$a1, 1
	ori	$a1, $a1, 3168
	add.d	$a1, $sp, $a1
	st.d	$a0, $a1, 0
	pcalau12i	$a0, %pc_hi20(_ZNSt17_Function_handlerIFmPdS0_jEZ4mainE5$_166E10_M_managerERSt9_Any_dataRKS4_St18_Manager_operation)
	addi.d	$a0, $a0, %pc_lo12(_ZNSt17_Function_handlerIFmPdS0_jEZ4mainE5$_166E10_M_managerERSt9_Any_dataRKS4_St18_Manager_operation)
	lu12i.w	$a1, 1
	ori	$a1, $a1, 3160
	add.d	$a1, $sp, $a1
	st.d	$a0, $a1, 0
	lu12i.w	$a0, 1
	ori	$a0, $a0, 3112
	add.d	$a0, $sp, $a0
	vst	$vr0, $a0, 0
	pcalau12i	$a0, %pc_hi20(_ZNSt17_Function_handlerIFmPdS0_jEZ4mainE5$_167E9_M_invokeERKSt9_Any_dataOS0_S7_Oj)
	addi.d	$a0, $a0, %pc_lo12(_ZNSt17_Function_handlerIFmPdS0_jEZ4mainE5$_167E9_M_invokeERKSt9_Any_dataOS0_S7_Oj)
	lu12i.w	$a1, 1
	ori	$a1, $a1, 3136
	add.d	$a1, $sp, $a1
	st.d	$a0, $a1, 0
	pcalau12i	$a0, %pc_hi20(_ZNSt17_Function_handlerIFmPdS0_jEZ4mainE5$_167E10_M_managerERSt9_Any_dataRKS4_St18_Manager_operation)
	addi.d	$a0, $a0, %pc_lo12(_ZNSt17_Function_handlerIFmPdS0_jEZ4mainE5$_167E10_M_managerERSt9_Any_dataRKS4_St18_Manager_operation)
	lu12i.w	$a1, 1
	ori	$a1, $a1, 3128
	add.d	$a1, $sp, $a1
	st.d	$a0, $a1, 0
.Ltmp1245:                              # EH_LABEL
	pcalau12i	$a0, %pc_hi20(.L.str.83)
	addi.d	$a2, $a0, %pc_lo12(.L.str.83)
	lu12i.w	$a0, 1
	ori	$a0, $a0, 3144
	add.d	$a0, $sp, $a0
	lu12i.w	$a1, 1
	ori	$a1, $a1, 3112
	add.d	$a1, $sp, $a1
	pcaddu18i	$ra, %call36(_ZL19checkVectorFunctionImdEvSt8functionIFT_PT0_S3_jEES5_PKc)
	jirl	$ra, $ra, 0
.Ltmp1246:                              # EH_LABEL
# %bb.418:
	lu12i.w	$a0, 1
	ori	$a0, $a0, 3128
	add.d	$a0, $sp, $a0
	ld.d	$a3, $a0, 0
	beqz	$a3, .LBB0_420
# %bb.419:
.Ltmp1254:                              # EH_LABEL
	lu12i.w	$a0, 1
	ori	$a0, $a0, 3112
	add.d	$a0, $sp, $a0
	lu12i.w	$a1, 1
	ori	$a1, $a1, 3112
	add.d	$a1, $sp, $a1
	ori	$a2, $zero, 3
	jirl	$ra, $a3, 0
.Ltmp1255:                              # EH_LABEL
.LBB0_420:                              # %_ZNSt14_Function_baseD2Ev.exit334
	lu12i.w	$a0, 1
	ori	$a0, $a0, 3160
	add.d	$a0, $sp, $a0
	ld.d	$a3, $a0, 0
	beqz	$a3, .LBB0_422
# %bb.421:
.Ltmp1257:                              # EH_LABEL
	lu12i.w	$a0, 1
	ori	$a0, $a0, 3144
	add.d	$a0, $sp, $a0
	lu12i.w	$a1, 1
	ori	$a1, $a1, 3144
	add.d	$a1, $sp, $a1
	ori	$a2, $zero, 3
	jirl	$ra, $a3, 0
.Ltmp1258:                              # EH_LABEL
.LBB0_422:                              # %_ZNSt14_Function_baseD2Ev.exit336
	vld	$vr0, $sp, 16                   # 16-byte Folded Reload
	lu12i.w	$a0, 1
	ori	$a0, $a0, 3080
	add.d	$a0, $sp, $a0
	vst	$vr0, $a0, 0
	pcalau12i	$a0, %pc_hi20(_ZNSt17_Function_handlerIFmPdS0_jEZ4mainE5$_168E9_M_invokeERKSt9_Any_dataOS0_S7_Oj)
	addi.d	$a0, $a0, %pc_lo12(_ZNSt17_Function_handlerIFmPdS0_jEZ4mainE5$_168E9_M_invokeERKSt9_Any_dataOS0_S7_Oj)
	lu12i.w	$a1, 1
	ori	$a1, $a1, 3104
	add.d	$a1, $sp, $a1
	st.d	$a0, $a1, 0
	pcalau12i	$a0, %pc_hi20(_ZNSt17_Function_handlerIFmPdS0_jEZ4mainE5$_168E10_M_managerERSt9_Any_dataRKS4_St18_Manager_operation)
	addi.d	$a0, $a0, %pc_lo12(_ZNSt17_Function_handlerIFmPdS0_jEZ4mainE5$_168E10_M_managerERSt9_Any_dataRKS4_St18_Manager_operation)
	lu12i.w	$a1, 1
	ori	$a1, $a1, 3096
	add.d	$a1, $sp, $a1
	st.d	$a0, $a1, 0
	lu12i.w	$a0, 1
	ori	$a0, $a0, 3048
	add.d	$a0, $sp, $a0
	vst	$vr0, $a0, 0
	pcalau12i	$a0, %pc_hi20(_ZNSt17_Function_handlerIFmPdS0_jEZ4mainE5$_169E9_M_invokeERKSt9_Any_dataOS0_S7_Oj)
	addi.d	$a0, $a0, %pc_lo12(_ZNSt17_Function_handlerIFmPdS0_jEZ4mainE5$_169E9_M_invokeERKSt9_Any_dataOS0_S7_Oj)
	lu12i.w	$a1, 1
	ori	$a1, $a1, 3072
	add.d	$a1, $sp, $a1
	st.d	$a0, $a1, 0
	pcalau12i	$a0, %pc_hi20(_ZNSt17_Function_handlerIFmPdS0_jEZ4mainE5$_169E10_M_managerERSt9_Any_dataRKS4_St18_Manager_operation)
	addi.d	$a0, $a0, %pc_lo12(_ZNSt17_Function_handlerIFmPdS0_jEZ4mainE5$_169E10_M_managerERSt9_Any_dataRKS4_St18_Manager_operation)
	lu12i.w	$a1, 1
	ori	$a1, $a1, 3064
	add.d	$a1, $sp, $a1
	st.d	$a0, $a1, 0
.Ltmp1260:                              # EH_LABEL
	pcalau12i	$a0, %pc_hi20(.L.str.84)
	addi.d	$a2, $a0, %pc_lo12(.L.str.84)
	lu12i.w	$a0, 1
	ori	$a0, $a0, 3080
	add.d	$a0, $sp, $a0
	lu12i.w	$a1, 1
	ori	$a1, $a1, 3048
	add.d	$a1, $sp, $a1
	pcaddu18i	$ra, %call36(_ZL19checkVectorFunctionImdEvSt8functionIFT_PT0_S3_jEES5_PKc)
	jirl	$ra, $ra, 0
.Ltmp1261:                              # EH_LABEL
# %bb.423:
	lu12i.w	$a0, 1
	ori	$a0, $a0, 3064
	add.d	$a0, $sp, $a0
	ld.d	$a3, $a0, 0
	beqz	$a3, .LBB0_425
# %bb.424:
.Ltmp1269:                              # EH_LABEL
	lu12i.w	$a0, 1
	ori	$a0, $a0, 3048
	add.d	$a0, $sp, $a0
	lu12i.w	$a1, 1
	ori	$a1, $a1, 3048
	add.d	$a1, $sp, $a1
	ori	$a2, $zero, 3
	jirl	$ra, $a3, 0
.Ltmp1270:                              # EH_LABEL
.LBB0_425:                              # %_ZNSt14_Function_baseD2Ev.exit338
	lu12i.w	$a0, 1
	ori	$a0, $a0, 3096
	add.d	$a0, $sp, $a0
	ld.d	$a3, $a0, 0
	beqz	$a3, .LBB0_427
# %bb.426:
.Ltmp1272:                              # EH_LABEL
	lu12i.w	$a0, 1
	ori	$a0, $a0, 3080
	add.d	$a0, $sp, $a0
	lu12i.w	$a1, 1
	ori	$a1, $a1, 3080
	add.d	$a1, $sp, $a1
	ori	$a2, $zero, 3
	jirl	$ra, $a3, 0
.Ltmp1273:                              # EH_LABEL
.LBB0_427:                              # %_ZNSt14_Function_baseD2Ev.exit340
	vld	$vr0, $sp, 16                   # 16-byte Folded Reload
	lu12i.w	$a0, 1
	ori	$a0, $a0, 3016
	add.d	$a0, $sp, $a0
	vst	$vr0, $a0, 0
	pcalau12i	$a0, %pc_hi20(_ZNSt17_Function_handlerIFmPdS0_jEZ4mainE5$_170E9_M_invokeERKSt9_Any_dataOS0_S7_Oj)
	addi.d	$a0, $a0, %pc_lo12(_ZNSt17_Function_handlerIFmPdS0_jEZ4mainE5$_170E9_M_invokeERKSt9_Any_dataOS0_S7_Oj)
	lu12i.w	$a1, 1
	ori	$a1, $a1, 3040
	add.d	$a1, $sp, $a1
	st.d	$a0, $a1, 0
	pcalau12i	$a0, %pc_hi20(_ZNSt17_Function_handlerIFmPdS0_jEZ4mainE5$_170E10_M_managerERSt9_Any_dataRKS4_St18_Manager_operation)
	addi.d	$a0, $a0, %pc_lo12(_ZNSt17_Function_handlerIFmPdS0_jEZ4mainE5$_170E10_M_managerERSt9_Any_dataRKS4_St18_Manager_operation)
	lu12i.w	$a1, 1
	ori	$a1, $a1, 3032
	add.d	$a1, $sp, $a1
	st.d	$a0, $a1, 0
	lu12i.w	$a0, 1
	ori	$a0, $a0, 2984
	add.d	$a0, $sp, $a0
	vst	$vr0, $a0, 0
	pcalau12i	$a0, %pc_hi20(_ZNSt17_Function_handlerIFmPdS0_jEZ4mainE5$_171E9_M_invokeERKSt9_Any_dataOS0_S7_Oj)
	addi.d	$a0, $a0, %pc_lo12(_ZNSt17_Function_handlerIFmPdS0_jEZ4mainE5$_171E9_M_invokeERKSt9_Any_dataOS0_S7_Oj)
	lu12i.w	$a1, 1
	ori	$a1, $a1, 3008
	add.d	$a1, $sp, $a1
	st.d	$a0, $a1, 0
	pcalau12i	$a0, %pc_hi20(_ZNSt17_Function_handlerIFmPdS0_jEZ4mainE5$_171E10_M_managerERSt9_Any_dataRKS4_St18_Manager_operation)
	addi.d	$a0, $a0, %pc_lo12(_ZNSt17_Function_handlerIFmPdS0_jEZ4mainE5$_171E10_M_managerERSt9_Any_dataRKS4_St18_Manager_operation)
	lu12i.w	$a1, 1
	ori	$a1, $a1, 3000
	add.d	$a1, $sp, $a1
	st.d	$a0, $a1, 0
.Ltmp1275:                              # EH_LABEL
	pcalau12i	$a0, %pc_hi20(.L.str.85)
	addi.d	$a2, $a0, %pc_lo12(.L.str.85)
	lu12i.w	$a0, 1
	ori	$a0, $a0, 3016
	add.d	$a0, $sp, $a0
	lu12i.w	$a1, 1
	ori	$a1, $a1, 2984
	add.d	$a1, $sp, $a1
	pcaddu18i	$ra, %call36(_ZL19checkVectorFunctionImdEvSt8functionIFT_PT0_S3_jEES5_PKc)
	jirl	$ra, $ra, 0
.Ltmp1276:                              # EH_LABEL
# %bb.428:
	lu12i.w	$a0, 1
	ori	$a0, $a0, 3000
	add.d	$a0, $sp, $a0
	ld.d	$a3, $a0, 0
	beqz	$a3, .LBB0_430
# %bb.429:
.Ltmp1284:                              # EH_LABEL
	lu12i.w	$a0, 1
	ori	$a0, $a0, 2984
	add.d	$a0, $sp, $a0
	lu12i.w	$a1, 1
	ori	$a1, $a1, 2984
	add.d	$a1, $sp, $a1
	ori	$a2, $zero, 3
	jirl	$ra, $a3, 0
.Ltmp1285:                              # EH_LABEL
.LBB0_430:                              # %_ZNSt14_Function_baseD2Ev.exit342
	lu12i.w	$a0, 1
	ori	$a0, $a0, 3032
	add.d	$a0, $sp, $a0
	ld.d	$a3, $a0, 0
	beqz	$a3, .LBB0_432
# %bb.431:
.Ltmp1287:                              # EH_LABEL
	lu12i.w	$a0, 1
	ori	$a0, $a0, 3016
	add.d	$a0, $sp, $a0
	lu12i.w	$a1, 1
	ori	$a1, $a1, 3016
	add.d	$a1, $sp, $a1
	ori	$a2, $zero, 3
	jirl	$ra, $a3, 0
.Ltmp1288:                              # EH_LABEL
.LBB0_432:                              # %_ZNSt14_Function_baseD2Ev.exit344
	vld	$vr0, $sp, 16                   # 16-byte Folded Reload
	lu12i.w	$a0, 1
	ori	$a0, $a0, 2952
	add.d	$a0, $sp, $a0
	vst	$vr0, $a0, 0
	pcalau12i	$a0, %pc_hi20(_ZNSt17_Function_handlerIFmPdS0_jEZ4mainE5$_172E9_M_invokeERKSt9_Any_dataOS0_S7_Oj)
	addi.d	$a0, $a0, %pc_lo12(_ZNSt17_Function_handlerIFmPdS0_jEZ4mainE5$_172E9_M_invokeERKSt9_Any_dataOS0_S7_Oj)
	lu12i.w	$a1, 1
	ori	$a1, $a1, 2976
	add.d	$a1, $sp, $a1
	st.d	$a0, $a1, 0
	pcalau12i	$a0, %pc_hi20(_ZNSt17_Function_handlerIFmPdS0_jEZ4mainE5$_172E10_M_managerERSt9_Any_dataRKS4_St18_Manager_operation)
	addi.d	$a0, $a0, %pc_lo12(_ZNSt17_Function_handlerIFmPdS0_jEZ4mainE5$_172E10_M_managerERSt9_Any_dataRKS4_St18_Manager_operation)
	lu12i.w	$a1, 1
	ori	$a1, $a1, 2968
	add.d	$a1, $sp, $a1
	st.d	$a0, $a1, 0
	lu12i.w	$a0, 1
	ori	$a0, $a0, 2920
	add.d	$a0, $sp, $a0
	vst	$vr0, $a0, 0
	pcalau12i	$a0, %pc_hi20(_ZNSt17_Function_handlerIFmPdS0_jEZ4mainE5$_173E9_M_invokeERKSt9_Any_dataOS0_S7_Oj)
	addi.d	$a0, $a0, %pc_lo12(_ZNSt17_Function_handlerIFmPdS0_jEZ4mainE5$_173E9_M_invokeERKSt9_Any_dataOS0_S7_Oj)
	lu12i.w	$a1, 1
	ori	$a1, $a1, 2944
	add.d	$a1, $sp, $a1
	st.d	$a0, $a1, 0
	pcalau12i	$a0, %pc_hi20(_ZNSt17_Function_handlerIFmPdS0_jEZ4mainE5$_173E10_M_managerERSt9_Any_dataRKS4_St18_Manager_operation)
	addi.d	$a0, $a0, %pc_lo12(_ZNSt17_Function_handlerIFmPdS0_jEZ4mainE5$_173E10_M_managerERSt9_Any_dataRKS4_St18_Manager_operation)
	lu12i.w	$a1, 1
	ori	$a1, $a1, 2936
	add.d	$a1, $sp, $a1
	st.d	$a0, $a1, 0
.Ltmp1290:                              # EH_LABEL
	pcalau12i	$a0, %pc_hi20(.L.str.86)
	addi.d	$a2, $a0, %pc_lo12(.L.str.86)
	lu12i.w	$a0, 1
	ori	$a0, $a0, 2952
	add.d	$a0, $sp, $a0
	lu12i.w	$a1, 1
	ori	$a1, $a1, 2920
	add.d	$a1, $sp, $a1
	pcaddu18i	$ra, %call36(_ZL19checkVectorFunctionImdEvSt8functionIFT_PT0_S3_jEES5_PKc)
	jirl	$ra, $ra, 0
.Ltmp1291:                              # EH_LABEL
# %bb.433:
	lu12i.w	$a0, 1
	ori	$a0, $a0, 2936
	add.d	$a0, $sp, $a0
	ld.d	$a3, $a0, 0
	beqz	$a3, .LBB0_435
# %bb.434:
.Ltmp1299:                              # EH_LABEL
	lu12i.w	$a0, 1
	ori	$a0, $a0, 2920
	add.d	$a0, $sp, $a0
	lu12i.w	$a1, 1
	ori	$a1, $a1, 2920
	add.d	$a1, $sp, $a1
	ori	$a2, $zero, 3
	jirl	$ra, $a3, 0
.Ltmp1300:                              # EH_LABEL
.LBB0_435:                              # %_ZNSt14_Function_baseD2Ev.exit346
	lu12i.w	$a0, 1
	ori	$a0, $a0, 2968
	add.d	$a0, $sp, $a0
	ld.d	$a3, $a0, 0
	beqz	$a3, .LBB0_437
# %bb.436:
.Ltmp1302:                              # EH_LABEL
	lu12i.w	$a0, 1
	ori	$a0, $a0, 2952
	add.d	$a0, $sp, $a0
	lu12i.w	$a1, 1
	ori	$a1, $a1, 2952
	add.d	$a1, $sp, $a1
	ori	$a2, $zero, 3
	jirl	$ra, $a3, 0
.Ltmp1303:                              # EH_LABEL
.LBB0_437:                              # %_ZNSt14_Function_baseD2Ev.exit348
	vld	$vr0, $sp, 16                   # 16-byte Folded Reload
	lu12i.w	$a0, 1
	ori	$a0, $a0, 2888
	add.d	$a0, $sp, $a0
	vst	$vr0, $a0, 0
	pcalau12i	$a0, %pc_hi20(_ZNSt17_Function_handlerIFmPdS0_jEZ4mainE5$_174E9_M_invokeERKSt9_Any_dataOS0_S7_Oj)
	addi.d	$a0, $a0, %pc_lo12(_ZNSt17_Function_handlerIFmPdS0_jEZ4mainE5$_174E9_M_invokeERKSt9_Any_dataOS0_S7_Oj)
	lu12i.w	$a1, 1
	ori	$a1, $a1, 2912
	add.d	$a1, $sp, $a1
	st.d	$a0, $a1, 0
	pcalau12i	$a0, %pc_hi20(_ZNSt17_Function_handlerIFmPdS0_jEZ4mainE5$_174E10_M_managerERSt9_Any_dataRKS4_St18_Manager_operation)
	addi.d	$a0, $a0, %pc_lo12(_ZNSt17_Function_handlerIFmPdS0_jEZ4mainE5$_174E10_M_managerERSt9_Any_dataRKS4_St18_Manager_operation)
	lu12i.w	$a1, 1
	ori	$a1, $a1, 2904
	add.d	$a1, $sp, $a1
	st.d	$a0, $a1, 0
	lu12i.w	$a0, 1
	ori	$a0, $a0, 2856
	add.d	$a0, $sp, $a0
	vst	$vr0, $a0, 0
	pcalau12i	$a0, %pc_hi20(_ZNSt17_Function_handlerIFmPdS0_jEZ4mainE5$_175E9_M_invokeERKSt9_Any_dataOS0_S7_Oj)
	addi.d	$a0, $a0, %pc_lo12(_ZNSt17_Function_handlerIFmPdS0_jEZ4mainE5$_175E9_M_invokeERKSt9_Any_dataOS0_S7_Oj)
	lu12i.w	$a1, 1
	ori	$a1, $a1, 2880
	add.d	$a1, $sp, $a1
	st.d	$a0, $a1, 0
	pcalau12i	$a0, %pc_hi20(_ZNSt17_Function_handlerIFmPdS0_jEZ4mainE5$_175E10_M_managerERSt9_Any_dataRKS4_St18_Manager_operation)
	addi.d	$a0, $a0, %pc_lo12(_ZNSt17_Function_handlerIFmPdS0_jEZ4mainE5$_175E10_M_managerERSt9_Any_dataRKS4_St18_Manager_operation)
	lu12i.w	$a1, 1
	ori	$a1, $a1, 2872
	add.d	$a1, $sp, $a1
	st.d	$a0, $a1, 0
.Ltmp1305:                              # EH_LABEL
	pcalau12i	$a0, %pc_hi20(.L.str.87)
	addi.d	$a2, $a0, %pc_lo12(.L.str.87)
	lu12i.w	$a0, 1
	ori	$a0, $a0, 2888
	add.d	$a0, $sp, $a0
	lu12i.w	$a1, 1
	ori	$a1, $a1, 2856
	add.d	$a1, $sp, $a1
	pcaddu18i	$ra, %call36(_ZL19checkVectorFunctionImdEvSt8functionIFT_PT0_S3_jEES5_PKc)
	jirl	$ra, $ra, 0
.Ltmp1306:                              # EH_LABEL
# %bb.438:
	lu12i.w	$a0, 1
	ori	$a0, $a0, 2872
	add.d	$a0, $sp, $a0
	ld.d	$a3, $a0, 0
	beqz	$a3, .LBB0_440
# %bb.439:
.Ltmp1314:                              # EH_LABEL
	lu12i.w	$a0, 1
	ori	$a0, $a0, 2856
	add.d	$a0, $sp, $a0
	lu12i.w	$a1, 1
	ori	$a1, $a1, 2856
	add.d	$a1, $sp, $a1
	ori	$a2, $zero, 3
	jirl	$ra, $a3, 0
.Ltmp1315:                              # EH_LABEL
.LBB0_440:                              # %_ZNSt14_Function_baseD2Ev.exit350
	lu12i.w	$a0, 1
	ori	$a0, $a0, 2904
	add.d	$a0, $sp, $a0
	ld.d	$a3, $a0, 0
	beqz	$a3, .LBB0_442
# %bb.441:
.Ltmp1317:                              # EH_LABEL
	lu12i.w	$a0, 1
	ori	$a0, $a0, 2888
	add.d	$a0, $sp, $a0
	lu12i.w	$a1, 1
	ori	$a1, $a1, 2888
	add.d	$a1, $sp, $a1
	ori	$a2, $zero, 3
	jirl	$ra, $a3, 0
.Ltmp1318:                              # EH_LABEL
.LBB0_442:                              # %_ZNSt14_Function_baseD2Ev.exit352
	vld	$vr0, $sp, 16                   # 16-byte Folded Reload
	lu12i.w	$a0, 1
	ori	$a0, $a0, 2824
	add.d	$a0, $sp, $a0
	vst	$vr0, $a0, 0
	pcalau12i	$a0, %pc_hi20(_ZNSt17_Function_handlerIFmPdS0_jEZ4mainE5$_176E9_M_invokeERKSt9_Any_dataOS0_S7_Oj)
	addi.d	$a0, $a0, %pc_lo12(_ZNSt17_Function_handlerIFmPdS0_jEZ4mainE5$_176E9_M_invokeERKSt9_Any_dataOS0_S7_Oj)
	lu12i.w	$a1, 1
	ori	$a1, $a1, 2848
	add.d	$a1, $sp, $a1
	st.d	$a0, $a1, 0
	pcalau12i	$a0, %pc_hi20(_ZNSt17_Function_handlerIFmPdS0_jEZ4mainE5$_176E10_M_managerERSt9_Any_dataRKS4_St18_Manager_operation)
	addi.d	$a0, $a0, %pc_lo12(_ZNSt17_Function_handlerIFmPdS0_jEZ4mainE5$_176E10_M_managerERSt9_Any_dataRKS4_St18_Manager_operation)
	lu12i.w	$a1, 1
	ori	$a1, $a1, 2840
	add.d	$a1, $sp, $a1
	st.d	$a0, $a1, 0
	lu12i.w	$a0, 1
	ori	$a0, $a0, 2792
	add.d	$a0, $sp, $a0
	vst	$vr0, $a0, 0
	pcalau12i	$a0, %pc_hi20(_ZNSt17_Function_handlerIFmPdS0_jEZ4mainE5$_177E9_M_invokeERKSt9_Any_dataOS0_S7_Oj)
	addi.d	$a0, $a0, %pc_lo12(_ZNSt17_Function_handlerIFmPdS0_jEZ4mainE5$_177E9_M_invokeERKSt9_Any_dataOS0_S7_Oj)
	lu12i.w	$a1, 1
	ori	$a1, $a1, 2816
	add.d	$a1, $sp, $a1
	st.d	$a0, $a1, 0
	pcalau12i	$a0, %pc_hi20(_ZNSt17_Function_handlerIFmPdS0_jEZ4mainE5$_177E10_M_managerERSt9_Any_dataRKS4_St18_Manager_operation)
	addi.d	$a0, $a0, %pc_lo12(_ZNSt17_Function_handlerIFmPdS0_jEZ4mainE5$_177E10_M_managerERSt9_Any_dataRKS4_St18_Manager_operation)
	lu12i.w	$a1, 1
	ori	$a1, $a1, 2808
	add.d	$a1, $sp, $a1
	st.d	$a0, $a1, 0
.Ltmp1320:                              # EH_LABEL
	pcalau12i	$a0, %pc_hi20(.L.str.88)
	addi.d	$a2, $a0, %pc_lo12(.L.str.88)
	lu12i.w	$a0, 1
	ori	$a0, $a0, 2824
	add.d	$a0, $sp, $a0
	lu12i.w	$a1, 1
	ori	$a1, $a1, 2792
	add.d	$a1, $sp, $a1
	pcaddu18i	$ra, %call36(_ZL19checkVectorFunctionImdEvSt8functionIFT_PT0_S3_jEES5_PKc)
	jirl	$ra, $ra, 0
.Ltmp1321:                              # EH_LABEL
# %bb.443:
	lu12i.w	$a0, 1
	ori	$a0, $a0, 2808
	add.d	$a0, $sp, $a0
	ld.d	$a3, $a0, 0
	beqz	$a3, .LBB0_445
# %bb.444:
.Ltmp1329:                              # EH_LABEL
	lu12i.w	$a0, 1
	ori	$a0, $a0, 2792
	add.d	$a0, $sp, $a0
	lu12i.w	$a1, 1
	ori	$a1, $a1, 2792
	add.d	$a1, $sp, $a1
	ori	$a2, $zero, 3
	jirl	$ra, $a3, 0
.Ltmp1330:                              # EH_LABEL
.LBB0_445:                              # %_ZNSt14_Function_baseD2Ev.exit354
	lu12i.w	$a0, 1
	ori	$a0, $a0, 2840
	add.d	$a0, $sp, $a0
	ld.d	$a3, $a0, 0
	beqz	$a3, .LBB0_447
# %bb.446:
.Ltmp1332:                              # EH_LABEL
	lu12i.w	$a0, 1
	ori	$a0, $a0, 2824
	add.d	$a0, $sp, $a0
	lu12i.w	$a1, 1
	ori	$a1, $a1, 2824
	add.d	$a1, $sp, $a1
	ori	$a2, $zero, 3
	jirl	$ra, $a3, 0
.Ltmp1333:                              # EH_LABEL
.LBB0_447:                              # %_ZNSt14_Function_baseD2Ev.exit356
	vld	$vr0, $sp, 16                   # 16-byte Folded Reload
	lu12i.w	$a0, 1
	ori	$a0, $a0, 2760
	add.d	$a0, $sp, $a0
	vst	$vr0, $a0, 0
	pcalau12i	$a0, %pc_hi20(_ZNSt17_Function_handlerIFmPdS0_jEZ4mainE5$_178E9_M_invokeERKSt9_Any_dataOS0_S7_Oj)
	addi.d	$a0, $a0, %pc_lo12(_ZNSt17_Function_handlerIFmPdS0_jEZ4mainE5$_178E9_M_invokeERKSt9_Any_dataOS0_S7_Oj)
	lu12i.w	$a1, 1
	ori	$a1, $a1, 2784
	add.d	$a1, $sp, $a1
	st.d	$a0, $a1, 0
	pcalau12i	$a0, %pc_hi20(_ZNSt17_Function_handlerIFmPdS0_jEZ4mainE5$_178E10_M_managerERSt9_Any_dataRKS4_St18_Manager_operation)
	addi.d	$a0, $a0, %pc_lo12(_ZNSt17_Function_handlerIFmPdS0_jEZ4mainE5$_178E10_M_managerERSt9_Any_dataRKS4_St18_Manager_operation)
	lu12i.w	$a1, 1
	ori	$a1, $a1, 2776
	add.d	$a1, $sp, $a1
	st.d	$a0, $a1, 0
	lu12i.w	$a0, 1
	ori	$a0, $a0, 2728
	add.d	$a0, $sp, $a0
	vst	$vr0, $a0, 0
	pcalau12i	$a0, %pc_hi20(_ZNSt17_Function_handlerIFmPdS0_jEZ4mainE5$_179E9_M_invokeERKSt9_Any_dataOS0_S7_Oj)
	addi.d	$a0, $a0, %pc_lo12(_ZNSt17_Function_handlerIFmPdS0_jEZ4mainE5$_179E9_M_invokeERKSt9_Any_dataOS0_S7_Oj)
	lu12i.w	$a1, 1
	ori	$a1, $a1, 2752
	add.d	$a1, $sp, $a1
	st.d	$a0, $a1, 0
	pcalau12i	$a0, %pc_hi20(_ZNSt17_Function_handlerIFmPdS0_jEZ4mainE5$_179E10_M_managerERSt9_Any_dataRKS4_St18_Manager_operation)
	addi.d	$a0, $a0, %pc_lo12(_ZNSt17_Function_handlerIFmPdS0_jEZ4mainE5$_179E10_M_managerERSt9_Any_dataRKS4_St18_Manager_operation)
	lu12i.w	$a1, 1
	ori	$a1, $a1, 2744
	add.d	$a1, $sp, $a1
	st.d	$a0, $a1, 0
.Ltmp1335:                              # EH_LABEL
	pcalau12i	$a0, %pc_hi20(.L.str.89)
	addi.d	$a2, $a0, %pc_lo12(.L.str.89)
	lu12i.w	$a0, 1
	ori	$a0, $a0, 2760
	add.d	$a0, $sp, $a0
	lu12i.w	$a1, 1
	ori	$a1, $a1, 2728
	add.d	$a1, $sp, $a1
	pcaddu18i	$ra, %call36(_ZL19checkVectorFunctionImdEvSt8functionIFT_PT0_S3_jEES5_PKc)
	jirl	$ra, $ra, 0
.Ltmp1336:                              # EH_LABEL
# %bb.448:
	lu12i.w	$a0, 1
	ori	$a0, $a0, 2744
	add.d	$a0, $sp, $a0
	ld.d	$a3, $a0, 0
	beqz	$a3, .LBB0_450
# %bb.449:
.Ltmp1344:                              # EH_LABEL
	lu12i.w	$a0, 1
	ori	$a0, $a0, 2728
	add.d	$a0, $sp, $a0
	lu12i.w	$a1, 1
	ori	$a1, $a1, 2728
	add.d	$a1, $sp, $a1
	ori	$a2, $zero, 3
	jirl	$ra, $a3, 0
.Ltmp1345:                              # EH_LABEL
.LBB0_450:                              # %_ZNSt14_Function_baseD2Ev.exit358
	lu12i.w	$a0, 1
	ori	$a0, $a0, 2776
	add.d	$a0, $sp, $a0
	ld.d	$a3, $a0, 0
	beqz	$a3, .LBB0_452
# %bb.451:
.Ltmp1347:                              # EH_LABEL
	lu12i.w	$a0, 1
	ori	$a0, $a0, 2760
	add.d	$a0, $sp, $a0
	lu12i.w	$a1, 1
	ori	$a1, $a1, 2760
	add.d	$a1, $sp, $a1
	ori	$a2, $zero, 3
	jirl	$ra, $a3, 0
.Ltmp1348:                              # EH_LABEL
.LBB0_452:                              # %_ZNSt14_Function_baseD2Ev.exit360
	vld	$vr0, $sp, 16                   # 16-byte Folded Reload
	lu12i.w	$a0, 1
	ori	$a0, $a0, 2696
	add.d	$a0, $sp, $a0
	vst	$vr0, $a0, 0
	pcalau12i	$a0, %pc_hi20(_ZNSt17_Function_handlerIFmPdS0_jEZ4mainE5$_180E9_M_invokeERKSt9_Any_dataOS0_S7_Oj)
	addi.d	$a0, $a0, %pc_lo12(_ZNSt17_Function_handlerIFmPdS0_jEZ4mainE5$_180E9_M_invokeERKSt9_Any_dataOS0_S7_Oj)
	lu12i.w	$a1, 1
	ori	$a1, $a1, 2720
	add.d	$a1, $sp, $a1
	st.d	$a0, $a1, 0
	pcalau12i	$a0, %pc_hi20(_ZNSt17_Function_handlerIFmPdS0_jEZ4mainE5$_180E10_M_managerERSt9_Any_dataRKS4_St18_Manager_operation)
	addi.d	$a0, $a0, %pc_lo12(_ZNSt17_Function_handlerIFmPdS0_jEZ4mainE5$_180E10_M_managerERSt9_Any_dataRKS4_St18_Manager_operation)
	lu12i.w	$a1, 1
	ori	$a1, $a1, 2712
	add.d	$a1, $sp, $a1
	st.d	$a0, $a1, 0
	lu12i.w	$a0, 1
	ori	$a0, $a0, 2664
	add.d	$a0, $sp, $a0
	vst	$vr0, $a0, 0
	pcalau12i	$a0, %pc_hi20(_ZNSt17_Function_handlerIFmPdS0_jEZ4mainE5$_181E9_M_invokeERKSt9_Any_dataOS0_S7_Oj)
	addi.d	$a0, $a0, %pc_lo12(_ZNSt17_Function_handlerIFmPdS0_jEZ4mainE5$_181E9_M_invokeERKSt9_Any_dataOS0_S7_Oj)
	lu12i.w	$a1, 1
	ori	$a1, $a1, 2688
	add.d	$a1, $sp, $a1
	st.d	$a0, $a1, 0
	pcalau12i	$a0, %pc_hi20(_ZNSt17_Function_handlerIFmPdS0_jEZ4mainE5$_181E10_M_managerERSt9_Any_dataRKS4_St18_Manager_operation)
	addi.d	$a0, $a0, %pc_lo12(_ZNSt17_Function_handlerIFmPdS0_jEZ4mainE5$_181E10_M_managerERSt9_Any_dataRKS4_St18_Manager_operation)
	lu12i.w	$a1, 1
	ori	$a1, $a1, 2680
	add.d	$a1, $sp, $a1
	st.d	$a0, $a1, 0
.Ltmp1350:                              # EH_LABEL
	pcalau12i	$a0, %pc_hi20(.L.str.90)
	addi.d	$a2, $a0, %pc_lo12(.L.str.90)
	lu12i.w	$a0, 1
	ori	$a0, $a0, 2696
	add.d	$a0, $sp, $a0
	lu12i.w	$a1, 1
	ori	$a1, $a1, 2664
	add.d	$a1, $sp, $a1
	pcaddu18i	$ra, %call36(_ZL19checkVectorFunctionImdEvSt8functionIFT_PT0_S3_jEES5_PKc)
	jirl	$ra, $ra, 0
.Ltmp1351:                              # EH_LABEL
# %bb.453:
	lu12i.w	$a0, 1
	ori	$a0, $a0, 2680
	add.d	$a0, $sp, $a0
	ld.d	$a3, $a0, 0
	beqz	$a3, .LBB0_455
# %bb.454:
.Ltmp1359:                              # EH_LABEL
	lu12i.w	$a0, 1
	ori	$a0, $a0, 2664
	add.d	$a0, $sp, $a0
	lu12i.w	$a1, 1
	ori	$a1, $a1, 2664
	add.d	$a1, $sp, $a1
	ori	$a2, $zero, 3
	jirl	$ra, $a3, 0
.Ltmp1360:                              # EH_LABEL
.LBB0_455:                              # %_ZNSt14_Function_baseD2Ev.exit362
	lu12i.w	$a0, 1
	ori	$a0, $a0, 2712
	add.d	$a0, $sp, $a0
	ld.d	$a3, $a0, 0
	beqz	$a3, .LBB0_457
# %bb.456:
.Ltmp1362:                              # EH_LABEL
	lu12i.w	$a0, 1
	ori	$a0, $a0, 2696
	add.d	$a0, $sp, $a0
	lu12i.w	$a1, 1
	ori	$a1, $a1, 2696
	add.d	$a1, $sp, $a1
	ori	$a2, $zero, 3
	jirl	$ra, $a3, 0
.Ltmp1363:                              # EH_LABEL
.LBB0_457:                              # %_ZNSt14_Function_baseD2Ev.exit364
	vld	$vr0, $sp, 16                   # 16-byte Folded Reload
	lu12i.w	$a0, 1
	ori	$a0, $a0, 2632
	add.d	$a0, $sp, $a0
	vst	$vr0, $a0, 0
	pcalau12i	$a0, %pc_hi20(_ZNSt17_Function_handlerIFmPdS0_jEZ4mainE5$_182E9_M_invokeERKSt9_Any_dataOS0_S7_Oj)
	addi.d	$a0, $a0, %pc_lo12(_ZNSt17_Function_handlerIFmPdS0_jEZ4mainE5$_182E9_M_invokeERKSt9_Any_dataOS0_S7_Oj)
	lu12i.w	$a1, 1
	ori	$a1, $a1, 2656
	add.d	$a1, $sp, $a1
	st.d	$a0, $a1, 0
	pcalau12i	$a0, %pc_hi20(_ZNSt17_Function_handlerIFmPdS0_jEZ4mainE5$_182E10_M_managerERSt9_Any_dataRKS4_St18_Manager_operation)
	addi.d	$a0, $a0, %pc_lo12(_ZNSt17_Function_handlerIFmPdS0_jEZ4mainE5$_182E10_M_managerERSt9_Any_dataRKS4_St18_Manager_operation)
	lu12i.w	$a1, 1
	ori	$a1, $a1, 2648
	add.d	$a1, $sp, $a1
	st.d	$a0, $a1, 0
	lu12i.w	$a0, 1
	ori	$a0, $a0, 2600
	add.d	$a0, $sp, $a0
	vst	$vr0, $a0, 0
	pcalau12i	$a0, %pc_hi20(_ZNSt17_Function_handlerIFmPdS0_jEZ4mainE5$_183E9_M_invokeERKSt9_Any_dataOS0_S7_Oj)
	addi.d	$a0, $a0, %pc_lo12(_ZNSt17_Function_handlerIFmPdS0_jEZ4mainE5$_183E9_M_invokeERKSt9_Any_dataOS0_S7_Oj)
	lu12i.w	$a1, 1
	ori	$a1, $a1, 2624
	add.d	$a1, $sp, $a1
	st.d	$a0, $a1, 0
	pcalau12i	$a0, %pc_hi20(_ZNSt17_Function_handlerIFmPdS0_jEZ4mainE5$_183E10_M_managerERSt9_Any_dataRKS4_St18_Manager_operation)
	addi.d	$a0, $a0, %pc_lo12(_ZNSt17_Function_handlerIFmPdS0_jEZ4mainE5$_183E10_M_managerERSt9_Any_dataRKS4_St18_Manager_operation)
	lu12i.w	$a1, 1
	ori	$a1, $a1, 2616
	add.d	$a1, $sp, $a1
	st.d	$a0, $a1, 0
.Ltmp1365:                              # EH_LABEL
	pcalau12i	$a0, %pc_hi20(.L.str.91)
	addi.d	$a2, $a0, %pc_lo12(.L.str.91)
	lu12i.w	$a0, 1
	ori	$a0, $a0, 2632
	add.d	$a0, $sp, $a0
	lu12i.w	$a1, 1
	ori	$a1, $a1, 2600
	add.d	$a1, $sp, $a1
	pcaddu18i	$ra, %call36(_ZL19checkVectorFunctionImdEvSt8functionIFT_PT0_S3_jEES5_PKc)
	jirl	$ra, $ra, 0
.Ltmp1366:                              # EH_LABEL
# %bb.458:
	lu12i.w	$a0, 1
	ori	$a0, $a0, 2616
	add.d	$a0, $sp, $a0
	ld.d	$a3, $a0, 0
	beqz	$a3, .LBB0_460
# %bb.459:
.Ltmp1374:                              # EH_LABEL
	lu12i.w	$a0, 1
	ori	$a0, $a0, 2600
	add.d	$a0, $sp, $a0
	lu12i.w	$a1, 1
	ori	$a1, $a1, 2600
	add.d	$a1, $sp, $a1
	ori	$a2, $zero, 3
	jirl	$ra, $a3, 0
.Ltmp1375:                              # EH_LABEL
.LBB0_460:                              # %_ZNSt14_Function_baseD2Ev.exit366
	lu12i.w	$a0, 1
	ori	$a0, $a0, 2648
	add.d	$a0, $sp, $a0
	ld.d	$a3, $a0, 0
	beqz	$a3, .LBB0_462
# %bb.461:
.Ltmp1377:                              # EH_LABEL
	lu12i.w	$a0, 1
	ori	$a0, $a0, 2632
	add.d	$a0, $sp, $a0
	lu12i.w	$a1, 1
	ori	$a1, $a1, 2632
	add.d	$a1, $sp, $a1
	ori	$a2, $zero, 3
	jirl	$ra, $a3, 0
.Ltmp1378:                              # EH_LABEL
.LBB0_462:                              # %_ZNSt14_Function_baseD2Ev.exit368
	vld	$vr0, $sp, 16                   # 16-byte Folded Reload
	lu12i.w	$a0, 1
	ori	$a0, $a0, 2568
	add.d	$a0, $sp, $a0
	vst	$vr0, $a0, 0
	pcalau12i	$a0, %pc_hi20(_ZNSt17_Function_handlerIFmPdS0_jEZ4mainE5$_184E9_M_invokeERKSt9_Any_dataOS0_S7_Oj)
	addi.d	$a0, $a0, %pc_lo12(_ZNSt17_Function_handlerIFmPdS0_jEZ4mainE5$_184E9_M_invokeERKSt9_Any_dataOS0_S7_Oj)
	lu12i.w	$a1, 1
	ori	$a1, $a1, 2592
	add.d	$a1, $sp, $a1
	st.d	$a0, $a1, 0
	pcalau12i	$a0, %pc_hi20(_ZNSt17_Function_handlerIFmPdS0_jEZ4mainE5$_184E10_M_managerERSt9_Any_dataRKS4_St18_Manager_operation)
	addi.d	$a0, $a0, %pc_lo12(_ZNSt17_Function_handlerIFmPdS0_jEZ4mainE5$_184E10_M_managerERSt9_Any_dataRKS4_St18_Manager_operation)
	lu12i.w	$a1, 1
	ori	$a1, $a1, 2584
	add.d	$a1, $sp, $a1
	st.d	$a0, $a1, 0
	lu12i.w	$a0, 1
	ori	$a0, $a0, 2536
	add.d	$a0, $sp, $a0
	vst	$vr0, $a0, 0
	pcalau12i	$a0, %pc_hi20(_ZNSt17_Function_handlerIFmPdS0_jEZ4mainE5$_185E9_M_invokeERKSt9_Any_dataOS0_S7_Oj)
	addi.d	$a0, $a0, %pc_lo12(_ZNSt17_Function_handlerIFmPdS0_jEZ4mainE5$_185E9_M_invokeERKSt9_Any_dataOS0_S7_Oj)
	lu12i.w	$a1, 1
	ori	$a1, $a1, 2560
	add.d	$a1, $sp, $a1
	st.d	$a0, $a1, 0
	pcalau12i	$a0, %pc_hi20(_ZNSt17_Function_handlerIFmPdS0_jEZ4mainE5$_185E10_M_managerERSt9_Any_dataRKS4_St18_Manager_operation)
	addi.d	$a0, $a0, %pc_lo12(_ZNSt17_Function_handlerIFmPdS0_jEZ4mainE5$_185E10_M_managerERSt9_Any_dataRKS4_St18_Manager_operation)
	lu12i.w	$a1, 1
	ori	$a1, $a1, 2552
	add.d	$a1, $sp, $a1
	st.d	$a0, $a1, 0
.Ltmp1380:                              # EH_LABEL
	pcalau12i	$a0, %pc_hi20(.L.str.92)
	addi.d	$a2, $a0, %pc_lo12(.L.str.92)
	lu12i.w	$a0, 1
	ori	$a0, $a0, 2568
	add.d	$a0, $sp, $a0
	lu12i.w	$a1, 1
	ori	$a1, $a1, 2536
	add.d	$a1, $sp, $a1
	pcaddu18i	$ra, %call36(_ZL19checkVectorFunctionImdEvSt8functionIFT_PT0_S3_jEES5_PKc)
	jirl	$ra, $ra, 0
.Ltmp1381:                              # EH_LABEL
# %bb.463:
	lu12i.w	$a0, 1
	ori	$a0, $a0, 2552
	add.d	$a0, $sp, $a0
	ld.d	$a3, $a0, 0
	beqz	$a3, .LBB0_465
# %bb.464:
.Ltmp1389:                              # EH_LABEL
	lu12i.w	$a0, 1
	ori	$a0, $a0, 2536
	add.d	$a0, $sp, $a0
	lu12i.w	$a1, 1
	ori	$a1, $a1, 2536
	add.d	$a1, $sp, $a1
	ori	$a2, $zero, 3
	jirl	$ra, $a3, 0
.Ltmp1390:                              # EH_LABEL
.LBB0_465:                              # %_ZNSt14_Function_baseD2Ev.exit370
	lu12i.w	$a0, 1
	ori	$a0, $a0, 2584
	add.d	$a0, $sp, $a0
	ld.d	$a3, $a0, 0
	beqz	$a3, .LBB0_467
# %bb.466:
.Ltmp1392:                              # EH_LABEL
	lu12i.w	$a0, 1
	ori	$a0, $a0, 2568
	add.d	$a0, $sp, $a0
	lu12i.w	$a1, 1
	ori	$a1, $a1, 2568
	add.d	$a1, $sp, $a1
	ori	$a2, $zero, 3
	jirl	$ra, $a3, 0
.Ltmp1393:                              # EH_LABEL
.LBB0_467:                              # %_ZNSt14_Function_baseD2Ev.exit372
	vld	$vr0, $sp, 16                   # 16-byte Folded Reload
	lu12i.w	$a0, 1
	ori	$a0, $a0, 2504
	add.d	$a0, $sp, $a0
	vst	$vr0, $a0, 0
	pcalau12i	$a0, %pc_hi20(_ZNSt17_Function_handlerIFmPdS0_jEZ4mainE5$_186E9_M_invokeERKSt9_Any_dataOS0_S7_Oj)
	addi.d	$a0, $a0, %pc_lo12(_ZNSt17_Function_handlerIFmPdS0_jEZ4mainE5$_186E9_M_invokeERKSt9_Any_dataOS0_S7_Oj)
	lu12i.w	$a1, 1
	ori	$a1, $a1, 2528
	add.d	$a1, $sp, $a1
	st.d	$a0, $a1, 0
	pcalau12i	$a0, %pc_hi20(_ZNSt17_Function_handlerIFmPdS0_jEZ4mainE5$_186E10_M_managerERSt9_Any_dataRKS4_St18_Manager_operation)
	addi.d	$a0, $a0, %pc_lo12(_ZNSt17_Function_handlerIFmPdS0_jEZ4mainE5$_186E10_M_managerERSt9_Any_dataRKS4_St18_Manager_operation)
	lu12i.w	$a1, 1
	ori	$a1, $a1, 2520
	add.d	$a1, $sp, $a1
	st.d	$a0, $a1, 0
	lu12i.w	$a0, 1
	ori	$a0, $a0, 2472
	add.d	$a0, $sp, $a0
	vst	$vr0, $a0, 0
	pcalau12i	$a0, %pc_hi20(_ZNSt17_Function_handlerIFmPdS0_jEZ4mainE5$_187E9_M_invokeERKSt9_Any_dataOS0_S7_Oj)
	addi.d	$a0, $a0, %pc_lo12(_ZNSt17_Function_handlerIFmPdS0_jEZ4mainE5$_187E9_M_invokeERKSt9_Any_dataOS0_S7_Oj)
	lu12i.w	$a1, 1
	ori	$a1, $a1, 2496
	add.d	$a1, $sp, $a1
	st.d	$a0, $a1, 0
	pcalau12i	$a0, %pc_hi20(_ZNSt17_Function_handlerIFmPdS0_jEZ4mainE5$_187E10_M_managerERSt9_Any_dataRKS4_St18_Manager_operation)
	addi.d	$a0, $a0, %pc_lo12(_ZNSt17_Function_handlerIFmPdS0_jEZ4mainE5$_187E10_M_managerERSt9_Any_dataRKS4_St18_Manager_operation)
	lu12i.w	$a1, 1
	ori	$a1, $a1, 2488
	add.d	$a1, $sp, $a1
	st.d	$a0, $a1, 0
.Ltmp1395:                              # EH_LABEL
	pcalau12i	$a0, %pc_hi20(.L.str.93)
	addi.d	$a2, $a0, %pc_lo12(.L.str.93)
	lu12i.w	$a0, 1
	ori	$a0, $a0, 2504
	add.d	$a0, $sp, $a0
	lu12i.w	$a1, 1
	ori	$a1, $a1, 2472
	add.d	$a1, $sp, $a1
	pcaddu18i	$ra, %call36(_ZL19checkVectorFunctionImdEvSt8functionIFT_PT0_S3_jEES5_PKc)
	jirl	$ra, $ra, 0
.Ltmp1396:                              # EH_LABEL
# %bb.468:
	lu12i.w	$a0, 1
	ori	$a0, $a0, 2488
	add.d	$a0, $sp, $a0
	ld.d	$a3, $a0, 0
	beqz	$a3, .LBB0_470
# %bb.469:
.Ltmp1404:                              # EH_LABEL
	lu12i.w	$a0, 1
	ori	$a0, $a0, 2472
	add.d	$a0, $sp, $a0
	lu12i.w	$a1, 1
	ori	$a1, $a1, 2472
	add.d	$a1, $sp, $a1
	ori	$a2, $zero, 3
	jirl	$ra, $a3, 0
.Ltmp1405:                              # EH_LABEL
.LBB0_470:                              # %_ZNSt14_Function_baseD2Ev.exit374
	lu12i.w	$a0, 1
	ori	$a0, $a0, 2520
	add.d	$a0, $sp, $a0
	ld.d	$a3, $a0, 0
	beqz	$a3, .LBB0_472
# %bb.471:
.Ltmp1407:                              # EH_LABEL
	lu12i.w	$a0, 1
	ori	$a0, $a0, 2504
	add.d	$a0, $sp, $a0
	lu12i.w	$a1, 1
	ori	$a1, $a1, 2504
	add.d	$a1, $sp, $a1
	ori	$a2, $zero, 3
	jirl	$ra, $a3, 0
.Ltmp1408:                              # EH_LABEL
.LBB0_472:                              # %_ZNSt14_Function_baseD2Ev.exit376
	vld	$vr0, $sp, 16                   # 16-byte Folded Reload
	lu12i.w	$a0, 1
	ori	$a0, $a0, 2440
	add.d	$a0, $sp, $a0
	vst	$vr0, $a0, 0
	pcalau12i	$a0, %pc_hi20(_ZNSt17_Function_handlerIFmPdS0_jEZ4mainE5$_188E9_M_invokeERKSt9_Any_dataOS0_S7_Oj)
	addi.d	$a0, $a0, %pc_lo12(_ZNSt17_Function_handlerIFmPdS0_jEZ4mainE5$_188E9_M_invokeERKSt9_Any_dataOS0_S7_Oj)
	lu12i.w	$a1, 1
	ori	$a1, $a1, 2464
	add.d	$a1, $sp, $a1
	st.d	$a0, $a1, 0
	pcalau12i	$a0, %pc_hi20(_ZNSt17_Function_handlerIFmPdS0_jEZ4mainE5$_188E10_M_managerERSt9_Any_dataRKS4_St18_Manager_operation)
	addi.d	$a0, $a0, %pc_lo12(_ZNSt17_Function_handlerIFmPdS0_jEZ4mainE5$_188E10_M_managerERSt9_Any_dataRKS4_St18_Manager_operation)
	lu12i.w	$a1, 1
	ori	$a1, $a1, 2456
	add.d	$a1, $sp, $a1
	st.d	$a0, $a1, 0
	lu12i.w	$a0, 1
	ori	$a0, $a0, 2408
	add.d	$a0, $sp, $a0
	vst	$vr0, $a0, 0
	pcalau12i	$a0, %pc_hi20(_ZNSt17_Function_handlerIFmPdS0_jEZ4mainE5$_189E9_M_invokeERKSt9_Any_dataOS0_S7_Oj)
	addi.d	$a0, $a0, %pc_lo12(_ZNSt17_Function_handlerIFmPdS0_jEZ4mainE5$_189E9_M_invokeERKSt9_Any_dataOS0_S7_Oj)
	lu12i.w	$a1, 1
	ori	$a1, $a1, 2432
	add.d	$a1, $sp, $a1
	st.d	$a0, $a1, 0
	pcalau12i	$a0, %pc_hi20(_ZNSt17_Function_handlerIFmPdS0_jEZ4mainE5$_189E10_M_managerERSt9_Any_dataRKS4_St18_Manager_operation)
	addi.d	$a0, $a0, %pc_lo12(_ZNSt17_Function_handlerIFmPdS0_jEZ4mainE5$_189E10_M_managerERSt9_Any_dataRKS4_St18_Manager_operation)
	lu12i.w	$a1, 1
	ori	$a1, $a1, 2424
	add.d	$a1, $sp, $a1
	st.d	$a0, $a1, 0
.Ltmp1410:                              # EH_LABEL
	pcalau12i	$a0, %pc_hi20(.L.str.94)
	addi.d	$a2, $a0, %pc_lo12(.L.str.94)
	lu12i.w	$a0, 1
	ori	$a0, $a0, 2440
	add.d	$a0, $sp, $a0
	lu12i.w	$a1, 1
	ori	$a1, $a1, 2408
	add.d	$a1, $sp, $a1
	pcaddu18i	$ra, %call36(_ZL19checkVectorFunctionImdEvSt8functionIFT_PT0_S3_jEES5_PKc)
	jirl	$ra, $ra, 0
.Ltmp1411:                              # EH_LABEL
# %bb.473:
	lu12i.w	$a0, 1
	ori	$a0, $a0, 2424
	add.d	$a0, $sp, $a0
	ld.d	$a3, $a0, 0
	beqz	$a3, .LBB0_475
# %bb.474:
.Ltmp1419:                              # EH_LABEL
	lu12i.w	$a0, 1
	ori	$a0, $a0, 2408
	add.d	$a0, $sp, $a0
	lu12i.w	$a1, 1
	ori	$a1, $a1, 2408
	add.d	$a1, $sp, $a1
	ori	$a2, $zero, 3
	jirl	$ra, $a3, 0
.Ltmp1420:                              # EH_LABEL
.LBB0_475:                              # %_ZNSt14_Function_baseD2Ev.exit378
	lu12i.w	$a0, 1
	ori	$a0, $a0, 2456
	add.d	$a0, $sp, $a0
	ld.d	$a3, $a0, 0
	beqz	$a3, .LBB0_477
# %bb.476:
.Ltmp1422:                              # EH_LABEL
	lu12i.w	$a0, 1
	ori	$a0, $a0, 2440
	add.d	$a0, $sp, $a0
	lu12i.w	$a1, 1
	ori	$a1, $a1, 2440
	add.d	$a1, $sp, $a1
	ori	$a2, $zero, 3
	jirl	$ra, $a3, 0
.Ltmp1423:                              # EH_LABEL
.LBB0_477:                              # %_ZNSt14_Function_baseD2Ev.exit380
	vld	$vr0, $sp, 16                   # 16-byte Folded Reload
	lu12i.w	$a0, 1
	ori	$a0, $a0, 2376
	add.d	$a0, $sp, $a0
	vst	$vr0, $a0, 0
	pcalau12i	$a0, %pc_hi20(_ZNSt17_Function_handlerIFmPdS0_jEZ4mainE5$_190E9_M_invokeERKSt9_Any_dataOS0_S7_Oj)
	addi.d	$a0, $a0, %pc_lo12(_ZNSt17_Function_handlerIFmPdS0_jEZ4mainE5$_190E9_M_invokeERKSt9_Any_dataOS0_S7_Oj)
	lu12i.w	$a1, 1
	ori	$a1, $a1, 2400
	add.d	$a1, $sp, $a1
	st.d	$a0, $a1, 0
	pcalau12i	$a0, %pc_hi20(_ZNSt17_Function_handlerIFmPdS0_jEZ4mainE5$_190E10_M_managerERSt9_Any_dataRKS4_St18_Manager_operation)
	addi.d	$a0, $a0, %pc_lo12(_ZNSt17_Function_handlerIFmPdS0_jEZ4mainE5$_190E10_M_managerERSt9_Any_dataRKS4_St18_Manager_operation)
	lu12i.w	$a1, 1
	ori	$a1, $a1, 2392
	add.d	$a1, $sp, $a1
	st.d	$a0, $a1, 0
	lu12i.w	$a0, 1
	ori	$a0, $a0, 2344
	add.d	$a0, $sp, $a0
	vst	$vr0, $a0, 0
	pcalau12i	$a0, %pc_hi20(_ZNSt17_Function_handlerIFmPdS0_jEZ4mainE5$_191E9_M_invokeERKSt9_Any_dataOS0_S7_Oj)
	addi.d	$a0, $a0, %pc_lo12(_ZNSt17_Function_handlerIFmPdS0_jEZ4mainE5$_191E9_M_invokeERKSt9_Any_dataOS0_S7_Oj)
	lu12i.w	$a1, 1
	ori	$a1, $a1, 2368
	add.d	$a1, $sp, $a1
	st.d	$a0, $a1, 0
	pcalau12i	$a0, %pc_hi20(_ZNSt17_Function_handlerIFmPdS0_jEZ4mainE5$_191E10_M_managerERSt9_Any_dataRKS4_St18_Manager_operation)
	addi.d	$a0, $a0, %pc_lo12(_ZNSt17_Function_handlerIFmPdS0_jEZ4mainE5$_191E10_M_managerERSt9_Any_dataRKS4_St18_Manager_operation)
	lu12i.w	$a1, 1
	ori	$a1, $a1, 2360
	add.d	$a1, $sp, $a1
	st.d	$a0, $a1, 0
.Ltmp1425:                              # EH_LABEL
	pcalau12i	$a0, %pc_hi20(.L.str.95)
	addi.d	$a2, $a0, %pc_lo12(.L.str.95)
	lu12i.w	$a0, 1
	ori	$a0, $a0, 2376
	add.d	$a0, $sp, $a0
	lu12i.w	$a1, 1
	ori	$a1, $a1, 2344
	add.d	$a1, $sp, $a1
	pcaddu18i	$ra, %call36(_ZL19checkVectorFunctionImdEvSt8functionIFT_PT0_S3_jEES5_PKc)
	jirl	$ra, $ra, 0
.Ltmp1426:                              # EH_LABEL
# %bb.478:
	lu12i.w	$a0, 1
	ori	$a0, $a0, 2360
	add.d	$a0, $sp, $a0
	ld.d	$a3, $a0, 0
	beqz	$a3, .LBB0_480
# %bb.479:
.Ltmp1434:                              # EH_LABEL
	lu12i.w	$a0, 1
	ori	$a0, $a0, 2344
	add.d	$a0, $sp, $a0
	lu12i.w	$a1, 1
	ori	$a1, $a1, 2344
	add.d	$a1, $sp, $a1
	ori	$a2, $zero, 3
	jirl	$ra, $a3, 0
.Ltmp1435:                              # EH_LABEL
.LBB0_480:                              # %_ZNSt14_Function_baseD2Ev.exit382
	lu12i.w	$a0, 1
	ori	$a0, $a0, 2392
	add.d	$a0, $sp, $a0
	ld.d	$a3, $a0, 0
	beqz	$a3, .LBB0_482
# %bb.481:
.Ltmp1437:                              # EH_LABEL
	lu12i.w	$a0, 1
	ori	$a0, $a0, 2376
	add.d	$a0, $sp, $a0
	lu12i.w	$a1, 1
	ori	$a1, $a1, 2376
	add.d	$a1, $sp, $a1
	ori	$a2, $zero, 3
	jirl	$ra, $a3, 0
.Ltmp1438:                              # EH_LABEL
.LBB0_482:                              # %_ZNSt14_Function_baseD2Ev.exit384
	vld	$vr0, $sp, 16                   # 16-byte Folded Reload
	lu12i.w	$a0, 1
	ori	$a0, $a0, 2312
	add.d	$a0, $sp, $a0
	vst	$vr0, $a0, 0
	pcalau12i	$a0, %pc_hi20(_ZNSt17_Function_handlerIFmPdS0_jEZ4mainE5$_192E9_M_invokeERKSt9_Any_dataOS0_S7_Oj)
	addi.d	$a0, $a0, %pc_lo12(_ZNSt17_Function_handlerIFmPdS0_jEZ4mainE5$_192E9_M_invokeERKSt9_Any_dataOS0_S7_Oj)
	lu12i.w	$a1, 1
	ori	$a1, $a1, 2336
	add.d	$a1, $sp, $a1
	st.d	$a0, $a1, 0
	pcalau12i	$a0, %pc_hi20(_ZNSt17_Function_handlerIFmPdS0_jEZ4mainE5$_192E10_M_managerERSt9_Any_dataRKS4_St18_Manager_operation)
	addi.d	$a0, $a0, %pc_lo12(_ZNSt17_Function_handlerIFmPdS0_jEZ4mainE5$_192E10_M_managerERSt9_Any_dataRKS4_St18_Manager_operation)
	lu12i.w	$a1, 1
	ori	$a1, $a1, 2328
	add.d	$a1, $sp, $a1
	st.d	$a0, $a1, 0
	lu12i.w	$a0, 1
	ori	$a0, $a0, 2280
	add.d	$a0, $sp, $a0
	vst	$vr0, $a0, 0
	pcalau12i	$a0, %pc_hi20(_ZNSt17_Function_handlerIFmPdS0_jEZ4mainE5$_193E9_M_invokeERKSt9_Any_dataOS0_S7_Oj)
	addi.d	$a0, $a0, %pc_lo12(_ZNSt17_Function_handlerIFmPdS0_jEZ4mainE5$_193E9_M_invokeERKSt9_Any_dataOS0_S7_Oj)
	lu12i.w	$a1, 1
	ori	$a1, $a1, 2304
	add.d	$a1, $sp, $a1
	st.d	$a0, $a1, 0
	pcalau12i	$a0, %pc_hi20(_ZNSt17_Function_handlerIFmPdS0_jEZ4mainE5$_193E10_M_managerERSt9_Any_dataRKS4_St18_Manager_operation)
	addi.d	$a0, $a0, %pc_lo12(_ZNSt17_Function_handlerIFmPdS0_jEZ4mainE5$_193E10_M_managerERSt9_Any_dataRKS4_St18_Manager_operation)
	lu12i.w	$a1, 1
	ori	$a1, $a1, 2296
	add.d	$a1, $sp, $a1
	st.d	$a0, $a1, 0
.Ltmp1440:                              # EH_LABEL
	pcalau12i	$a0, %pc_hi20(.L.str.96)
	addi.d	$a2, $a0, %pc_lo12(.L.str.96)
	lu12i.w	$a0, 1
	ori	$a0, $a0, 2312
	add.d	$a0, $sp, $a0
	lu12i.w	$a1, 1
	ori	$a1, $a1, 2280
	add.d	$a1, $sp, $a1
	pcaddu18i	$ra, %call36(_ZL19checkVectorFunctionImdEvSt8functionIFT_PT0_S3_jEES5_PKc)
	jirl	$ra, $ra, 0
.Ltmp1441:                              # EH_LABEL
# %bb.483:
	lu12i.w	$a0, 1
	ori	$a0, $a0, 2296
	add.d	$a0, $sp, $a0
	ld.d	$a3, $a0, 0
	beqz	$a3, .LBB0_485
# %bb.484:
.Ltmp1449:                              # EH_LABEL
	lu12i.w	$a0, 1
	ori	$a0, $a0, 2280
	add.d	$a0, $sp, $a0
	lu12i.w	$a1, 1
	ori	$a1, $a1, 2280
	add.d	$a1, $sp, $a1
	ori	$a2, $zero, 3
	jirl	$ra, $a3, 0
.Ltmp1450:                              # EH_LABEL
.LBB0_485:                              # %_ZNSt14_Function_baseD2Ev.exit386
	lu12i.w	$a0, 1
	ori	$a0, $a0, 2328
	add.d	$a0, $sp, $a0
	ld.d	$a3, $a0, 0
	beqz	$a3, .LBB0_487
# %bb.486:
.Ltmp1452:                              # EH_LABEL
	lu12i.w	$a0, 1
	ori	$a0, $a0, 2312
	add.d	$a0, $sp, $a0
	lu12i.w	$a1, 1
	ori	$a1, $a1, 2312
	add.d	$a1, $sp, $a1
	ori	$a2, $zero, 3
	jirl	$ra, $a3, 0
.Ltmp1453:                              # EH_LABEL
.LBB0_487:                              # %_ZNSt14_Function_baseD2Ev.exit388
	vld	$vr0, $sp, 16                   # 16-byte Folded Reload
	lu12i.w	$a0, 1
	ori	$a0, $a0, 2248
	add.d	$a0, $sp, $a0
	vst	$vr0, $a0, 0
	pcalau12i	$a0, %pc_hi20(_ZNSt17_Function_handlerIFmPdS0_jEZ4mainE5$_194E9_M_invokeERKSt9_Any_dataOS0_S7_Oj)
	addi.d	$a0, $a0, %pc_lo12(_ZNSt17_Function_handlerIFmPdS0_jEZ4mainE5$_194E9_M_invokeERKSt9_Any_dataOS0_S7_Oj)
	lu12i.w	$a1, 1
	ori	$a1, $a1, 2272
	add.d	$a1, $sp, $a1
	st.d	$a0, $a1, 0
	pcalau12i	$a0, %pc_hi20(_ZNSt17_Function_handlerIFmPdS0_jEZ4mainE5$_194E10_M_managerERSt9_Any_dataRKS4_St18_Manager_operation)
	addi.d	$a0, $a0, %pc_lo12(_ZNSt17_Function_handlerIFmPdS0_jEZ4mainE5$_194E10_M_managerERSt9_Any_dataRKS4_St18_Manager_operation)
	lu12i.w	$a1, 1
	ori	$a1, $a1, 2264
	add.d	$a1, $sp, $a1
	st.d	$a0, $a1, 0
	lu12i.w	$a0, 1
	ori	$a0, $a0, 2216
	add.d	$a0, $sp, $a0
	vst	$vr0, $a0, 0
	pcalau12i	$a0, %pc_hi20(_ZNSt17_Function_handlerIFmPdS0_jEZ4mainE5$_195E9_M_invokeERKSt9_Any_dataOS0_S7_Oj)
	addi.d	$a0, $a0, %pc_lo12(_ZNSt17_Function_handlerIFmPdS0_jEZ4mainE5$_195E9_M_invokeERKSt9_Any_dataOS0_S7_Oj)
	lu12i.w	$a1, 1
	ori	$a1, $a1, 2240
	add.d	$a1, $sp, $a1
	st.d	$a0, $a1, 0
	pcalau12i	$a0, %pc_hi20(_ZNSt17_Function_handlerIFmPdS0_jEZ4mainE5$_195E10_M_managerERSt9_Any_dataRKS4_St18_Manager_operation)
	addi.d	$a0, $a0, %pc_lo12(_ZNSt17_Function_handlerIFmPdS0_jEZ4mainE5$_195E10_M_managerERSt9_Any_dataRKS4_St18_Manager_operation)
	lu12i.w	$a1, 1
	ori	$a1, $a1, 2232
	add.d	$a1, $sp, $a1
	st.d	$a0, $a1, 0
.Ltmp1455:                              # EH_LABEL
	pcalau12i	$a0, %pc_hi20(.L.str.97)
	addi.d	$a2, $a0, %pc_lo12(.L.str.97)
	lu12i.w	$a0, 1
	ori	$a0, $a0, 2248
	add.d	$a0, $sp, $a0
	lu12i.w	$a1, 1
	ori	$a1, $a1, 2216
	add.d	$a1, $sp, $a1
	pcaddu18i	$ra, %call36(_ZL19checkVectorFunctionImdEvSt8functionIFT_PT0_S3_jEES5_PKc)
	jirl	$ra, $ra, 0
.Ltmp1456:                              # EH_LABEL
# %bb.488:
	lu12i.w	$a0, 1
	ori	$a0, $a0, 2232
	add.d	$a0, $sp, $a0
	ld.d	$a3, $a0, 0
	beqz	$a3, .LBB0_490
# %bb.489:
.Ltmp1464:                              # EH_LABEL
	lu12i.w	$a0, 1
	ori	$a0, $a0, 2216
	add.d	$a0, $sp, $a0
	lu12i.w	$a1, 1
	ori	$a1, $a1, 2216
	add.d	$a1, $sp, $a1
	ori	$a2, $zero, 3
	jirl	$ra, $a3, 0
.Ltmp1465:                              # EH_LABEL
.LBB0_490:                              # %_ZNSt14_Function_baseD2Ev.exit390
	lu12i.w	$a0, 1
	ori	$a0, $a0, 2264
	add.d	$a0, $sp, $a0
	ld.d	$a3, $a0, 0
	beqz	$a3, .LBB0_492
# %bb.491:
.Ltmp1467:                              # EH_LABEL
	lu12i.w	$a0, 1
	ori	$a0, $a0, 2248
	add.d	$a0, $sp, $a0
	lu12i.w	$a1, 1
	ori	$a1, $a1, 2248
	add.d	$a1, $sp, $a1
	ori	$a2, $zero, 3
	jirl	$ra, $a3, 0
.Ltmp1468:                              # EH_LABEL
.LBB0_492:                              # %_ZNSt14_Function_baseD2Ev.exit392
	vld	$vr0, $sp, 16                   # 16-byte Folded Reload
	lu12i.w	$a0, 1
	ori	$a0, $a0, 2184
	add.d	$a0, $sp, $a0
	vst	$vr0, $a0, 0
	pcalau12i	$a0, %pc_hi20(_ZNSt17_Function_handlerIFmPdS0_jEZ4mainE5$_196E9_M_invokeERKSt9_Any_dataOS0_S7_Oj)
	addi.d	$a0, $a0, %pc_lo12(_ZNSt17_Function_handlerIFmPdS0_jEZ4mainE5$_196E9_M_invokeERKSt9_Any_dataOS0_S7_Oj)
	lu12i.w	$a1, 1
	ori	$a1, $a1, 2208
	add.d	$a1, $sp, $a1
	st.d	$a0, $a1, 0
	pcalau12i	$a0, %pc_hi20(_ZNSt17_Function_handlerIFmPdS0_jEZ4mainE5$_196E10_M_managerERSt9_Any_dataRKS4_St18_Manager_operation)
	addi.d	$a0, $a0, %pc_lo12(_ZNSt17_Function_handlerIFmPdS0_jEZ4mainE5$_196E10_M_managerERSt9_Any_dataRKS4_St18_Manager_operation)
	lu12i.w	$a1, 1
	ori	$a1, $a1, 2200
	add.d	$a1, $sp, $a1
	st.d	$a0, $a1, 0
	lu12i.w	$a0, 1
	ori	$a0, $a0, 2152
	add.d	$a0, $sp, $a0
	vst	$vr0, $a0, 0
	pcalau12i	$a0, %pc_hi20(_ZNSt17_Function_handlerIFmPdS0_jEZ4mainE5$_197E9_M_invokeERKSt9_Any_dataOS0_S7_Oj)
	addi.d	$a0, $a0, %pc_lo12(_ZNSt17_Function_handlerIFmPdS0_jEZ4mainE5$_197E9_M_invokeERKSt9_Any_dataOS0_S7_Oj)
	lu12i.w	$a1, 1
	ori	$a1, $a1, 2176
	add.d	$a1, $sp, $a1
	st.d	$a0, $a1, 0
	pcalau12i	$a0, %pc_hi20(_ZNSt17_Function_handlerIFmPdS0_jEZ4mainE5$_197E10_M_managerERSt9_Any_dataRKS4_St18_Manager_operation)
	addi.d	$a0, $a0, %pc_lo12(_ZNSt17_Function_handlerIFmPdS0_jEZ4mainE5$_197E10_M_managerERSt9_Any_dataRKS4_St18_Manager_operation)
	lu12i.w	$a1, 1
	ori	$a1, $a1, 2168
	add.d	$a1, $sp, $a1
	st.d	$a0, $a1, 0
.Ltmp1470:                              # EH_LABEL
	pcalau12i	$a0, %pc_hi20(.L.str.98)
	addi.d	$a2, $a0, %pc_lo12(.L.str.98)
	lu12i.w	$a0, 1
	ori	$a0, $a0, 2184
	add.d	$a0, $sp, $a0
	lu12i.w	$a1, 1
	ori	$a1, $a1, 2152
	add.d	$a1, $sp, $a1
	pcaddu18i	$ra, %call36(_ZL19checkVectorFunctionImdEvSt8functionIFT_PT0_S3_jEES5_PKc)
	jirl	$ra, $ra, 0
.Ltmp1471:                              # EH_LABEL
# %bb.493:
	lu12i.w	$a0, 1
	ori	$a0, $a0, 2168
	add.d	$a0, $sp, $a0
	ld.d	$a3, $a0, 0
	beqz	$a3, .LBB0_495
# %bb.494:
.Ltmp1479:                              # EH_LABEL
	lu12i.w	$a0, 1
	ori	$a0, $a0, 2152
	add.d	$a0, $sp, $a0
	lu12i.w	$a1, 1
	ori	$a1, $a1, 2152
	add.d	$a1, $sp, $a1
	ori	$a2, $zero, 3
	jirl	$ra, $a3, 0
.Ltmp1480:                              # EH_LABEL
.LBB0_495:                              # %_ZNSt14_Function_baseD2Ev.exit394
	lu12i.w	$a0, 1
	ori	$a0, $a0, 2200
	add.d	$a0, $sp, $a0
	ld.d	$a3, $a0, 0
	beqz	$a3, .LBB0_497
# %bb.496:
.Ltmp1482:                              # EH_LABEL
	lu12i.w	$a0, 1
	ori	$a0, $a0, 2184
	add.d	$a0, $sp, $a0
	lu12i.w	$a1, 1
	ori	$a1, $a1, 2184
	add.d	$a1, $sp, $a1
	ori	$a2, $zero, 3
	jirl	$ra, $a3, 0
.Ltmp1483:                              # EH_LABEL
.LBB0_497:                              # %_ZNSt14_Function_baseD2Ev.exit396
	vld	$vr0, $sp, 16                   # 16-byte Folded Reload
	lu12i.w	$a0, 1
	ori	$a0, $a0, 2120
	add.d	$a0, $sp, $a0
	vst	$vr0, $a0, 0
	pcalau12i	$a0, %pc_hi20(_ZNSt17_Function_handlerIFmPdS0_jEZ4mainE5$_198E9_M_invokeERKSt9_Any_dataOS0_S7_Oj)
	addi.d	$a0, $a0, %pc_lo12(_ZNSt17_Function_handlerIFmPdS0_jEZ4mainE5$_198E9_M_invokeERKSt9_Any_dataOS0_S7_Oj)
	lu12i.w	$a1, 1
	ori	$a1, $a1, 2144
	add.d	$a1, $sp, $a1
	st.d	$a0, $a1, 0
	pcalau12i	$a0, %pc_hi20(_ZNSt17_Function_handlerIFmPdS0_jEZ4mainE5$_198E10_M_managerERSt9_Any_dataRKS4_St18_Manager_operation)
	addi.d	$a0, $a0, %pc_lo12(_ZNSt17_Function_handlerIFmPdS0_jEZ4mainE5$_198E10_M_managerERSt9_Any_dataRKS4_St18_Manager_operation)
	lu12i.w	$a1, 1
	ori	$a1, $a1, 2136
	add.d	$a1, $sp, $a1
	st.d	$a0, $a1, 0
	lu12i.w	$a0, 1
	ori	$a0, $a0, 2088
	add.d	$a0, $sp, $a0
	vst	$vr0, $a0, 0
	pcalau12i	$a0, %pc_hi20(_ZNSt17_Function_handlerIFmPdS0_jEZ4mainE5$_199E9_M_invokeERKSt9_Any_dataOS0_S7_Oj)
	addi.d	$a0, $a0, %pc_lo12(_ZNSt17_Function_handlerIFmPdS0_jEZ4mainE5$_199E9_M_invokeERKSt9_Any_dataOS0_S7_Oj)
	lu12i.w	$a1, 1
	ori	$a1, $a1, 2112
	add.d	$a1, $sp, $a1
	st.d	$a0, $a1, 0
	pcalau12i	$a0, %pc_hi20(_ZNSt17_Function_handlerIFmPdS0_jEZ4mainE5$_199E10_M_managerERSt9_Any_dataRKS4_St18_Manager_operation)
	addi.d	$a0, $a0, %pc_lo12(_ZNSt17_Function_handlerIFmPdS0_jEZ4mainE5$_199E10_M_managerERSt9_Any_dataRKS4_St18_Manager_operation)
	lu12i.w	$a1, 1
	ori	$a1, $a1, 2104
	add.d	$a1, $sp, $a1
	st.d	$a0, $a1, 0
.Ltmp1485:                              # EH_LABEL
	pcalau12i	$a0, %pc_hi20(.L.str.99)
	addi.d	$a2, $a0, %pc_lo12(.L.str.99)
	lu12i.w	$a0, 1
	ori	$a0, $a0, 2120
	add.d	$a0, $sp, $a0
	lu12i.w	$a1, 1
	ori	$a1, $a1, 2088
	add.d	$a1, $sp, $a1
	pcaddu18i	$ra, %call36(_ZL19checkVectorFunctionImdEvSt8functionIFT_PT0_S3_jEES5_PKc)
	jirl	$ra, $ra, 0
.Ltmp1486:                              # EH_LABEL
# %bb.498:
	lu12i.w	$a0, 1
	ori	$a0, $a0, 2104
	add.d	$a0, $sp, $a0
	ld.d	$a3, $a0, 0
	beqz	$a3, .LBB0_500
# %bb.499:
.Ltmp1494:                              # EH_LABEL
	lu12i.w	$a0, 1
	ori	$a0, $a0, 2088
	add.d	$a0, $sp, $a0
	lu12i.w	$a1, 1
	ori	$a1, $a1, 2088
	add.d	$a1, $sp, $a1
	ori	$a2, $zero, 3
	jirl	$ra, $a3, 0
.Ltmp1495:                              # EH_LABEL
.LBB0_500:                              # %_ZNSt14_Function_baseD2Ev.exit398
	lu12i.w	$a0, 1
	ori	$a0, $a0, 2136
	add.d	$a0, $sp, $a0
	ld.d	$a3, $a0, 0
	beqz	$a3, .LBB0_502
# %bb.501:
.Ltmp1497:                              # EH_LABEL
	lu12i.w	$a0, 1
	ori	$a0, $a0, 2120
	add.d	$a0, $sp, $a0
	lu12i.w	$a1, 1
	ori	$a1, $a1, 2120
	add.d	$a1, $sp, $a1
	ori	$a2, $zero, 3
	jirl	$ra, $a3, 0
.Ltmp1498:                              # EH_LABEL
.LBB0_502:                              # %_ZNSt14_Function_baseD2Ev.exit400
	vld	$vr0, $sp, 16                   # 16-byte Folded Reload
	lu12i.w	$a0, 1
	ori	$a0, $a0, 2056
	add.d	$a0, $sp, $a0
	vst	$vr0, $a0, 0
	pcalau12i	$a0, %pc_hi20(_ZNSt17_Function_handlerIFlPdS0_jEZ4mainE5$_200E9_M_invokeERKSt9_Any_dataOS0_S7_Oj)
	addi.d	$a0, $a0, %pc_lo12(_ZNSt17_Function_handlerIFlPdS0_jEZ4mainE5$_200E9_M_invokeERKSt9_Any_dataOS0_S7_Oj)
	lu12i.w	$a1, 1
	ori	$a1, $a1, 2080
	add.d	$a1, $sp, $a1
	st.d	$a0, $a1, 0
	pcalau12i	$a0, %pc_hi20(_ZNSt17_Function_handlerIFlPdS0_jEZ4mainE5$_200E10_M_managerERSt9_Any_dataRKS4_St18_Manager_operation)
	addi.d	$a0, $a0, %pc_lo12(_ZNSt17_Function_handlerIFlPdS0_jEZ4mainE5$_200E10_M_managerERSt9_Any_dataRKS4_St18_Manager_operation)
	lu12i.w	$a1, 1
	ori	$a1, $a1, 2072
	add.d	$a1, $sp, $a1
	st.d	$a0, $a1, 0
	lu12i.w	$a0, 1
	ori	$a0, $a0, 2024
	add.d	$a0, $sp, $a0
	vst	$vr0, $a0, 0
	pcalau12i	$a0, %pc_hi20(_ZNSt17_Function_handlerIFlPdS0_jEZ4mainE5$_201E9_M_invokeERKSt9_Any_dataOS0_S7_Oj)
	addi.d	$a0, $a0, %pc_lo12(_ZNSt17_Function_handlerIFlPdS0_jEZ4mainE5$_201E9_M_invokeERKSt9_Any_dataOS0_S7_Oj)
	lu12i.w	$a1, 1
	ori	$a1, $a1, 2048
	add.d	$a1, $sp, $a1
	st.d	$a0, $a1, 0
	pcalau12i	$a0, %pc_hi20(_ZNSt17_Function_handlerIFlPdS0_jEZ4mainE5$_201E10_M_managerERSt9_Any_dataRKS4_St18_Manager_operation)
	addi.d	$a0, $a0, %pc_lo12(_ZNSt17_Function_handlerIFlPdS0_jEZ4mainE5$_201E10_M_managerERSt9_Any_dataRKS4_St18_Manager_operation)
	lu12i.w	$a1, 1
	ori	$a1, $a1, 2040
	add.d	$a1, $sp, $a1
	st.d	$a0, $a1, 0
.Ltmp1500:                              # EH_LABEL
	pcalau12i	$a0, %pc_hi20(.L.str.100)
	addi.d	$a2, $a0, %pc_lo12(.L.str.100)
	lu12i.w	$a0, 1
	ori	$a0, $a0, 2056
	add.d	$a0, $sp, $a0
	lu12i.w	$a1, 1
	ori	$a1, $a1, 2024
	add.d	$a1, $sp, $a1
	pcaddu18i	$ra, %call36(_ZL19checkVectorFunctionIldEvSt8functionIFT_PT0_S3_jEES5_PKc)
	jirl	$ra, $ra, 0
.Ltmp1501:                              # EH_LABEL
# %bb.503:
	lu12i.w	$a0, 1
	ori	$a0, $a0, 2040
	add.d	$a0, $sp, $a0
	ld.d	$a3, $a0, 0
	beqz	$a3, .LBB0_505
# %bb.504:
.Ltmp1509:                              # EH_LABEL
	lu12i.w	$a0, 1
	ori	$a0, $a0, 2024
	add.d	$a0, $sp, $a0
	lu12i.w	$a1, 1
	ori	$a1, $a1, 2024
	add.d	$a1, $sp, $a1
	ori	$a2, $zero, 3
	jirl	$ra, $a3, 0
.Ltmp1510:                              # EH_LABEL
.LBB0_505:                              # %_ZNSt14_Function_baseD2Ev.exit402
	lu12i.w	$a0, 1
	ori	$a0, $a0, 2072
	add.d	$a0, $sp, $a0
	ld.d	$a3, $a0, 0
	beqz	$a3, .LBB0_507
# %bb.506:
.Ltmp1512:                              # EH_LABEL
	lu12i.w	$a0, 1
	ori	$a0, $a0, 2056
	add.d	$a0, $sp, $a0
	lu12i.w	$a1, 1
	ori	$a1, $a1, 2056
	add.d	$a1, $sp, $a1
	ori	$a2, $zero, 3
	jirl	$ra, $a3, 0
.Ltmp1513:                              # EH_LABEL
.LBB0_507:                              # %_ZNSt14_Function_baseD2Ev.exit404
	vld	$vr0, $sp, 16                   # 16-byte Folded Reload
	lu12i.w	$a0, 1
	ori	$a0, $a0, 1992
	add.d	$a0, $sp, $a0
	vst	$vr0, $a0, 0
	pcalau12i	$a0, %pc_hi20(_ZNSt17_Function_handlerIFlPdS0_jEZ4mainE5$_202E9_M_invokeERKSt9_Any_dataOS0_S7_Oj)
	addi.d	$a0, $a0, %pc_lo12(_ZNSt17_Function_handlerIFlPdS0_jEZ4mainE5$_202E9_M_invokeERKSt9_Any_dataOS0_S7_Oj)
	lu12i.w	$a1, 1
	ori	$a1, $a1, 2016
	add.d	$a1, $sp, $a1
	st.d	$a0, $a1, 0
	pcalau12i	$a0, %pc_hi20(_ZNSt17_Function_handlerIFlPdS0_jEZ4mainE5$_202E10_M_managerERSt9_Any_dataRKS4_St18_Manager_operation)
	addi.d	$a0, $a0, %pc_lo12(_ZNSt17_Function_handlerIFlPdS0_jEZ4mainE5$_202E10_M_managerERSt9_Any_dataRKS4_St18_Manager_operation)
	lu12i.w	$a1, 1
	ori	$a1, $a1, 2008
	add.d	$a1, $sp, $a1
	st.d	$a0, $a1, 0
	lu12i.w	$a0, 1
	ori	$a0, $a0, 1960
	add.d	$a0, $sp, $a0
	vst	$vr0, $a0, 0
	pcalau12i	$a0, %pc_hi20(_ZNSt17_Function_handlerIFlPdS0_jEZ4mainE5$_203E9_M_invokeERKSt9_Any_dataOS0_S7_Oj)
	addi.d	$a0, $a0, %pc_lo12(_ZNSt17_Function_handlerIFlPdS0_jEZ4mainE5$_203E9_M_invokeERKSt9_Any_dataOS0_S7_Oj)
	lu12i.w	$a1, 1
	ori	$a1, $a1, 1984
	add.d	$a1, $sp, $a1
	st.d	$a0, $a1, 0
	pcalau12i	$a0, %pc_hi20(_ZNSt17_Function_handlerIFlPdS0_jEZ4mainE5$_203E10_M_managerERSt9_Any_dataRKS4_St18_Manager_operation)
	addi.d	$a0, $a0, %pc_lo12(_ZNSt17_Function_handlerIFlPdS0_jEZ4mainE5$_203E10_M_managerERSt9_Any_dataRKS4_St18_Manager_operation)
	lu12i.w	$a1, 1
	ori	$a1, $a1, 1976
	add.d	$a1, $sp, $a1
	st.d	$a0, $a1, 0
.Ltmp1515:                              # EH_LABEL
	pcalau12i	$a0, %pc_hi20(.L.str.101)
	addi.d	$a2, $a0, %pc_lo12(.L.str.101)
	lu12i.w	$a0, 1
	ori	$a0, $a0, 1992
	add.d	$a0, $sp, $a0
	lu12i.w	$a1, 1
	ori	$a1, $a1, 1960
	add.d	$a1, $sp, $a1
	pcaddu18i	$ra, %call36(_ZL19checkVectorFunctionIldEvSt8functionIFT_PT0_S3_jEES5_PKc)
	jirl	$ra, $ra, 0
.Ltmp1516:                              # EH_LABEL
# %bb.508:
	lu12i.w	$a0, 1
	ori	$a0, $a0, 1976
	add.d	$a0, $sp, $a0
	ld.d	$a3, $a0, 0
	beqz	$a3, .LBB0_510
# %bb.509:
.Ltmp1524:                              # EH_LABEL
	lu12i.w	$a0, 1
	ori	$a0, $a0, 1960
	add.d	$a0, $sp, $a0
	lu12i.w	$a1, 1
	ori	$a1, $a1, 1960
	add.d	$a1, $sp, $a1
	ori	$a2, $zero, 3
	jirl	$ra, $a3, 0
.Ltmp1525:                              # EH_LABEL
.LBB0_510:                              # %_ZNSt14_Function_baseD2Ev.exit406
	lu12i.w	$a0, 1
	ori	$a0, $a0, 2008
	add.d	$a0, $sp, $a0
	ld.d	$a3, $a0, 0
	beqz	$a3, .LBB0_512
# %bb.511:
.Ltmp1527:                              # EH_LABEL
	lu12i.w	$a0, 1
	ori	$a0, $a0, 1992
	add.d	$a0, $sp, $a0
	lu12i.w	$a1, 1
	ori	$a1, $a1, 1992
	add.d	$a1, $sp, $a1
	ori	$a2, $zero, 3
	jirl	$ra, $a3, 0
.Ltmp1528:                              # EH_LABEL
.LBB0_512:                              # %_ZNSt14_Function_baseD2Ev.exit408
	vld	$vr0, $sp, 16                   # 16-byte Folded Reload
	lu12i.w	$a0, 1
	ori	$a0, $a0, 1928
	add.d	$a0, $sp, $a0
	vst	$vr0, $a0, 0
	pcalau12i	$a0, %pc_hi20(_ZNSt17_Function_handlerIFlPdS0_jEZ4mainE5$_204E9_M_invokeERKSt9_Any_dataOS0_S7_Oj)
	addi.d	$a0, $a0, %pc_lo12(_ZNSt17_Function_handlerIFlPdS0_jEZ4mainE5$_204E9_M_invokeERKSt9_Any_dataOS0_S7_Oj)
	lu12i.w	$a1, 1
	ori	$a1, $a1, 1952
	add.d	$a1, $sp, $a1
	st.d	$a0, $a1, 0
	pcalau12i	$a0, %pc_hi20(_ZNSt17_Function_handlerIFlPdS0_jEZ4mainE5$_204E10_M_managerERSt9_Any_dataRKS4_St18_Manager_operation)
	addi.d	$a0, $a0, %pc_lo12(_ZNSt17_Function_handlerIFlPdS0_jEZ4mainE5$_204E10_M_managerERSt9_Any_dataRKS4_St18_Manager_operation)
	lu12i.w	$a1, 1
	ori	$a1, $a1, 1944
	add.d	$a1, $sp, $a1
	st.d	$a0, $a1, 0
	lu12i.w	$a0, 1
	ori	$a0, $a0, 1896
	add.d	$a0, $sp, $a0
	vst	$vr0, $a0, 0
	pcalau12i	$a0, %pc_hi20(_ZNSt17_Function_handlerIFlPdS0_jEZ4mainE5$_205E9_M_invokeERKSt9_Any_dataOS0_S7_Oj)
	addi.d	$a0, $a0, %pc_lo12(_ZNSt17_Function_handlerIFlPdS0_jEZ4mainE5$_205E9_M_invokeERKSt9_Any_dataOS0_S7_Oj)
	lu12i.w	$a1, 1
	ori	$a1, $a1, 1920
	add.d	$a1, $sp, $a1
	st.d	$a0, $a1, 0
	pcalau12i	$a0, %pc_hi20(_ZNSt17_Function_handlerIFlPdS0_jEZ4mainE5$_205E10_M_managerERSt9_Any_dataRKS4_St18_Manager_operation)
	addi.d	$a0, $a0, %pc_lo12(_ZNSt17_Function_handlerIFlPdS0_jEZ4mainE5$_205E10_M_managerERSt9_Any_dataRKS4_St18_Manager_operation)
	lu12i.w	$a1, 1
	ori	$a1, $a1, 1912
	add.d	$a1, $sp, $a1
	st.d	$a0, $a1, 0
.Ltmp1530:                              # EH_LABEL
	pcalau12i	$a0, %pc_hi20(.L.str.102)
	addi.d	$a2, $a0, %pc_lo12(.L.str.102)
	lu12i.w	$a0, 1
	ori	$a0, $a0, 1928
	add.d	$a0, $sp, $a0
	lu12i.w	$a1, 1
	ori	$a1, $a1, 1896
	add.d	$a1, $sp, $a1
	pcaddu18i	$ra, %call36(_ZL19checkVectorFunctionIldEvSt8functionIFT_PT0_S3_jEES5_PKc)
	jirl	$ra, $ra, 0
.Ltmp1531:                              # EH_LABEL
# %bb.513:
	lu12i.w	$a0, 1
	ori	$a0, $a0, 1912
	add.d	$a0, $sp, $a0
	ld.d	$a3, $a0, 0
	beqz	$a3, .LBB0_515
# %bb.514:
.Ltmp1539:                              # EH_LABEL
	lu12i.w	$a0, 1
	ori	$a0, $a0, 1896
	add.d	$a0, $sp, $a0
	lu12i.w	$a1, 1
	ori	$a1, $a1, 1896
	add.d	$a1, $sp, $a1
	ori	$a2, $zero, 3
	jirl	$ra, $a3, 0
.Ltmp1540:                              # EH_LABEL
.LBB0_515:                              # %_ZNSt14_Function_baseD2Ev.exit410
	lu12i.w	$a0, 1
	ori	$a0, $a0, 1944
	add.d	$a0, $sp, $a0
	ld.d	$a3, $a0, 0
	beqz	$a3, .LBB0_517
# %bb.516:
.Ltmp1542:                              # EH_LABEL
	lu12i.w	$a0, 1
	ori	$a0, $a0, 1928
	add.d	$a0, $sp, $a0
	lu12i.w	$a1, 1
	ori	$a1, $a1, 1928
	add.d	$a1, $sp, $a1
	ori	$a2, $zero, 3
	jirl	$ra, $a3, 0
.Ltmp1543:                              # EH_LABEL
.LBB0_517:                              # %_ZNSt14_Function_baseD2Ev.exit412
	vld	$vr0, $sp, 16                   # 16-byte Folded Reload
	lu12i.w	$a0, 1
	ori	$a0, $a0, 1864
	add.d	$a0, $sp, $a0
	vst	$vr0, $a0, 0
	pcalau12i	$a0, %pc_hi20(_ZNSt17_Function_handlerIFlPdS0_jEZ4mainE5$_206E9_M_invokeERKSt9_Any_dataOS0_S7_Oj)
	addi.d	$a0, $a0, %pc_lo12(_ZNSt17_Function_handlerIFlPdS0_jEZ4mainE5$_206E9_M_invokeERKSt9_Any_dataOS0_S7_Oj)
	lu12i.w	$a1, 1
	ori	$a1, $a1, 1888
	add.d	$a1, $sp, $a1
	st.d	$a0, $a1, 0
	pcalau12i	$a0, %pc_hi20(_ZNSt17_Function_handlerIFlPdS0_jEZ4mainE5$_206E10_M_managerERSt9_Any_dataRKS4_St18_Manager_operation)
	addi.d	$a0, $a0, %pc_lo12(_ZNSt17_Function_handlerIFlPdS0_jEZ4mainE5$_206E10_M_managerERSt9_Any_dataRKS4_St18_Manager_operation)
	lu12i.w	$a1, 1
	ori	$a1, $a1, 1880
	add.d	$a1, $sp, $a1
	st.d	$a0, $a1, 0
	lu12i.w	$a0, 1
	ori	$a0, $a0, 1832
	add.d	$a0, $sp, $a0
	vst	$vr0, $a0, 0
	pcalau12i	$a0, %pc_hi20(_ZNSt17_Function_handlerIFlPdS0_jEZ4mainE5$_207E9_M_invokeERKSt9_Any_dataOS0_S7_Oj)
	addi.d	$a0, $a0, %pc_lo12(_ZNSt17_Function_handlerIFlPdS0_jEZ4mainE5$_207E9_M_invokeERKSt9_Any_dataOS0_S7_Oj)
	lu12i.w	$a1, 1
	ori	$a1, $a1, 1856
	add.d	$a1, $sp, $a1
	st.d	$a0, $a1, 0
	pcalau12i	$a0, %pc_hi20(_ZNSt17_Function_handlerIFlPdS0_jEZ4mainE5$_207E10_M_managerERSt9_Any_dataRKS4_St18_Manager_operation)
	addi.d	$a0, $a0, %pc_lo12(_ZNSt17_Function_handlerIFlPdS0_jEZ4mainE5$_207E10_M_managerERSt9_Any_dataRKS4_St18_Manager_operation)
	lu12i.w	$a1, 1
	ori	$a1, $a1, 1848
	add.d	$a1, $sp, $a1
	st.d	$a0, $a1, 0
.Ltmp1545:                              # EH_LABEL
	pcalau12i	$a0, %pc_hi20(.L.str.103)
	addi.d	$a2, $a0, %pc_lo12(.L.str.103)
	lu12i.w	$a0, 1
	ori	$a0, $a0, 1864
	add.d	$a0, $sp, $a0
	lu12i.w	$a1, 1
	ori	$a1, $a1, 1832
	add.d	$a1, $sp, $a1
	pcaddu18i	$ra, %call36(_ZL19checkVectorFunctionIldEvSt8functionIFT_PT0_S3_jEES5_PKc)
	jirl	$ra, $ra, 0
.Ltmp1546:                              # EH_LABEL
# %bb.518:
	lu12i.w	$a0, 1
	ori	$a0, $a0, 1848
	add.d	$a0, $sp, $a0
	ld.d	$a3, $a0, 0
	beqz	$a3, .LBB0_520
# %bb.519:
.Ltmp1554:                              # EH_LABEL
	lu12i.w	$a0, 1
	ori	$a0, $a0, 1832
	add.d	$a0, $sp, $a0
	lu12i.w	$a1, 1
	ori	$a1, $a1, 1832
	add.d	$a1, $sp, $a1
	ori	$a2, $zero, 3
	jirl	$ra, $a3, 0
.Ltmp1555:                              # EH_LABEL
.LBB0_520:                              # %_ZNSt14_Function_baseD2Ev.exit414
	lu12i.w	$a0, 1
	ori	$a0, $a0, 1880
	add.d	$a0, $sp, $a0
	ld.d	$a3, $a0, 0
	beqz	$a3, .LBB0_522
# %bb.521:
.Ltmp1557:                              # EH_LABEL
	lu12i.w	$a0, 1
	ori	$a0, $a0, 1864
	add.d	$a0, $sp, $a0
	lu12i.w	$a1, 1
	ori	$a1, $a1, 1864
	add.d	$a1, $sp, $a1
	ori	$a2, $zero, 3
	jirl	$ra, $a3, 0
.Ltmp1558:                              # EH_LABEL
.LBB0_522:                              # %_ZNSt14_Function_baseD2Ev.exit416
	vld	$vr0, $sp, 16                   # 16-byte Folded Reload
	lu12i.w	$a0, 1
	ori	$a0, $a0, 1800
	add.d	$a0, $sp, $a0
	vst	$vr0, $a0, 0
	pcalau12i	$a0, %pc_hi20(_ZNSt17_Function_handlerIFlPdS0_jEZ4mainE5$_208E9_M_invokeERKSt9_Any_dataOS0_S7_Oj)
	addi.d	$a0, $a0, %pc_lo12(_ZNSt17_Function_handlerIFlPdS0_jEZ4mainE5$_208E9_M_invokeERKSt9_Any_dataOS0_S7_Oj)
	lu12i.w	$a1, 1
	ori	$a1, $a1, 1824
	add.d	$a1, $sp, $a1
	st.d	$a0, $a1, 0
	pcalau12i	$a0, %pc_hi20(_ZNSt17_Function_handlerIFlPdS0_jEZ4mainE5$_208E10_M_managerERSt9_Any_dataRKS4_St18_Manager_operation)
	addi.d	$a0, $a0, %pc_lo12(_ZNSt17_Function_handlerIFlPdS0_jEZ4mainE5$_208E10_M_managerERSt9_Any_dataRKS4_St18_Manager_operation)
	lu12i.w	$a1, 1
	ori	$a1, $a1, 1816
	add.d	$a1, $sp, $a1
	st.d	$a0, $a1, 0
	lu12i.w	$a0, 1
	ori	$a0, $a0, 1768
	add.d	$a0, $sp, $a0
	vst	$vr0, $a0, 0
	pcalau12i	$a0, %pc_hi20(_ZNSt17_Function_handlerIFlPdS0_jEZ4mainE5$_209E9_M_invokeERKSt9_Any_dataOS0_S7_Oj)
	addi.d	$a0, $a0, %pc_lo12(_ZNSt17_Function_handlerIFlPdS0_jEZ4mainE5$_209E9_M_invokeERKSt9_Any_dataOS0_S7_Oj)
	lu12i.w	$a1, 1
	ori	$a1, $a1, 1792
	add.d	$a1, $sp, $a1
	st.d	$a0, $a1, 0
	pcalau12i	$a0, %pc_hi20(_ZNSt17_Function_handlerIFlPdS0_jEZ4mainE5$_209E10_M_managerERSt9_Any_dataRKS4_St18_Manager_operation)
	addi.d	$a0, $a0, %pc_lo12(_ZNSt17_Function_handlerIFlPdS0_jEZ4mainE5$_209E10_M_managerERSt9_Any_dataRKS4_St18_Manager_operation)
	lu12i.w	$a1, 1
	ori	$a1, $a1, 1784
	add.d	$a1, $sp, $a1
	st.d	$a0, $a1, 0
.Ltmp1560:                              # EH_LABEL
	pcalau12i	$a0, %pc_hi20(.L.str.104)
	addi.d	$a2, $a0, %pc_lo12(.L.str.104)
	lu12i.w	$a0, 1
	ori	$a0, $a0, 1800
	add.d	$a0, $sp, $a0
	lu12i.w	$a1, 1
	ori	$a1, $a1, 1768
	add.d	$a1, $sp, $a1
	pcaddu18i	$ra, %call36(_ZL19checkVectorFunctionIldEvSt8functionIFT_PT0_S3_jEES5_PKc)
	jirl	$ra, $ra, 0
.Ltmp1561:                              # EH_LABEL
# %bb.523:
	lu12i.w	$a0, 1
	ori	$a0, $a0, 1784
	add.d	$a0, $sp, $a0
	ld.d	$a3, $a0, 0
	beqz	$a3, .LBB0_525
# %bb.524:
.Ltmp1569:                              # EH_LABEL
	lu12i.w	$a0, 1
	ori	$a0, $a0, 1768
	add.d	$a0, $sp, $a0
	lu12i.w	$a1, 1
	ori	$a1, $a1, 1768
	add.d	$a1, $sp, $a1
	ori	$a2, $zero, 3
	jirl	$ra, $a3, 0
.Ltmp1570:                              # EH_LABEL
.LBB0_525:                              # %_ZNSt14_Function_baseD2Ev.exit418
	lu12i.w	$a0, 1
	ori	$a0, $a0, 1816
	add.d	$a0, $sp, $a0
	ld.d	$a3, $a0, 0
	beqz	$a3, .LBB0_527
# %bb.526:
.Ltmp1572:                              # EH_LABEL
	lu12i.w	$a0, 1
	ori	$a0, $a0, 1800
	add.d	$a0, $sp, $a0
	lu12i.w	$a1, 1
	ori	$a1, $a1, 1800
	add.d	$a1, $sp, $a1
	ori	$a2, $zero, 3
	jirl	$ra, $a3, 0
.Ltmp1573:                              # EH_LABEL
.LBB0_527:                              # %_ZNSt14_Function_baseD2Ev.exit420
	vld	$vr0, $sp, 16                   # 16-byte Folded Reload
	lu12i.w	$a0, 1
	ori	$a0, $a0, 1736
	add.d	$a0, $sp, $a0
	vst	$vr0, $a0, 0
	pcalau12i	$a0, %pc_hi20(_ZNSt17_Function_handlerIFlPdS0_jEZ4mainE5$_210E9_M_invokeERKSt9_Any_dataOS0_S7_Oj)
	addi.d	$a0, $a0, %pc_lo12(_ZNSt17_Function_handlerIFlPdS0_jEZ4mainE5$_210E9_M_invokeERKSt9_Any_dataOS0_S7_Oj)
	lu12i.w	$a1, 1
	ori	$a1, $a1, 1760
	add.d	$a1, $sp, $a1
	st.d	$a0, $a1, 0
	pcalau12i	$a0, %pc_hi20(_ZNSt17_Function_handlerIFlPdS0_jEZ4mainE5$_210E10_M_managerERSt9_Any_dataRKS4_St18_Manager_operation)
	addi.d	$a0, $a0, %pc_lo12(_ZNSt17_Function_handlerIFlPdS0_jEZ4mainE5$_210E10_M_managerERSt9_Any_dataRKS4_St18_Manager_operation)
	lu12i.w	$a1, 1
	ori	$a1, $a1, 1752
	add.d	$a1, $sp, $a1
	st.d	$a0, $a1, 0
	lu12i.w	$a0, 1
	ori	$a0, $a0, 1704
	add.d	$a0, $sp, $a0
	vst	$vr0, $a0, 0
	pcalau12i	$a0, %pc_hi20(_ZNSt17_Function_handlerIFlPdS0_jEZ4mainE5$_211E9_M_invokeERKSt9_Any_dataOS0_S7_Oj)
	addi.d	$a0, $a0, %pc_lo12(_ZNSt17_Function_handlerIFlPdS0_jEZ4mainE5$_211E9_M_invokeERKSt9_Any_dataOS0_S7_Oj)
	lu12i.w	$a1, 1
	ori	$a1, $a1, 1728
	add.d	$a1, $sp, $a1
	st.d	$a0, $a1, 0
	pcalau12i	$a0, %pc_hi20(_ZNSt17_Function_handlerIFlPdS0_jEZ4mainE5$_211E10_M_managerERSt9_Any_dataRKS4_St18_Manager_operation)
	addi.d	$a0, $a0, %pc_lo12(_ZNSt17_Function_handlerIFlPdS0_jEZ4mainE5$_211E10_M_managerERSt9_Any_dataRKS4_St18_Manager_operation)
	lu12i.w	$a1, 1
	ori	$a1, $a1, 1720
	add.d	$a1, $sp, $a1
	st.d	$a0, $a1, 0
.Ltmp1575:                              # EH_LABEL
	pcalau12i	$a0, %pc_hi20(.L.str.105)
	addi.d	$a2, $a0, %pc_lo12(.L.str.105)
	lu12i.w	$a0, 1
	ori	$a0, $a0, 1736
	add.d	$a0, $sp, $a0
	lu12i.w	$a1, 1
	ori	$a1, $a1, 1704
	add.d	$a1, $sp, $a1
	pcaddu18i	$ra, %call36(_ZL19checkVectorFunctionIldEvSt8functionIFT_PT0_S3_jEES5_PKc)
	jirl	$ra, $ra, 0
.Ltmp1576:                              # EH_LABEL
# %bb.528:
	lu12i.w	$a0, 1
	ori	$a0, $a0, 1720
	add.d	$a0, $sp, $a0
	ld.d	$a3, $a0, 0
	beqz	$a3, .LBB0_530
# %bb.529:
.Ltmp1584:                              # EH_LABEL
	lu12i.w	$a0, 1
	ori	$a0, $a0, 1704
	add.d	$a0, $sp, $a0
	lu12i.w	$a1, 1
	ori	$a1, $a1, 1704
	add.d	$a1, $sp, $a1
	ori	$a2, $zero, 3
	jirl	$ra, $a3, 0
.Ltmp1585:                              # EH_LABEL
.LBB0_530:                              # %_ZNSt14_Function_baseD2Ev.exit422
	lu12i.w	$a0, 1
	ori	$a0, $a0, 1752
	add.d	$a0, $sp, $a0
	ld.d	$a3, $a0, 0
	beqz	$a3, .LBB0_532
# %bb.531:
.Ltmp1587:                              # EH_LABEL
	lu12i.w	$a0, 1
	ori	$a0, $a0, 1736
	add.d	$a0, $sp, $a0
	lu12i.w	$a1, 1
	ori	$a1, $a1, 1736
	add.d	$a1, $sp, $a1
	ori	$a2, $zero, 3
	jirl	$ra, $a3, 0
.Ltmp1588:                              # EH_LABEL
.LBB0_532:                              # %_ZNSt14_Function_baseD2Ev.exit424
	vld	$vr0, $sp, 16                   # 16-byte Folded Reload
	lu12i.w	$a0, 1
	ori	$a0, $a0, 1672
	add.d	$a0, $sp, $a0
	vst	$vr0, $a0, 0
	pcalau12i	$a0, %pc_hi20(_ZNSt17_Function_handlerIFlPdS0_jEZ4mainE5$_212E9_M_invokeERKSt9_Any_dataOS0_S7_Oj)
	addi.d	$a0, $a0, %pc_lo12(_ZNSt17_Function_handlerIFlPdS0_jEZ4mainE5$_212E9_M_invokeERKSt9_Any_dataOS0_S7_Oj)
	lu12i.w	$a1, 1
	ori	$a1, $a1, 1696
	add.d	$a1, $sp, $a1
	st.d	$a0, $a1, 0
	pcalau12i	$a0, %pc_hi20(_ZNSt17_Function_handlerIFlPdS0_jEZ4mainE5$_212E10_M_managerERSt9_Any_dataRKS4_St18_Manager_operation)
	addi.d	$a0, $a0, %pc_lo12(_ZNSt17_Function_handlerIFlPdS0_jEZ4mainE5$_212E10_M_managerERSt9_Any_dataRKS4_St18_Manager_operation)
	lu12i.w	$a1, 1
	ori	$a1, $a1, 1688
	add.d	$a1, $sp, $a1
	st.d	$a0, $a1, 0
	lu12i.w	$a0, 1
	ori	$a0, $a0, 1640
	add.d	$a0, $sp, $a0
	vst	$vr0, $a0, 0
	pcalau12i	$a0, %pc_hi20(_ZNSt17_Function_handlerIFlPdS0_jEZ4mainE5$_213E9_M_invokeERKSt9_Any_dataOS0_S7_Oj)
	addi.d	$a0, $a0, %pc_lo12(_ZNSt17_Function_handlerIFlPdS0_jEZ4mainE5$_213E9_M_invokeERKSt9_Any_dataOS0_S7_Oj)
	lu12i.w	$a1, 1
	ori	$a1, $a1, 1664
	add.d	$a1, $sp, $a1
	st.d	$a0, $a1, 0
	pcalau12i	$a0, %pc_hi20(_ZNSt17_Function_handlerIFlPdS0_jEZ4mainE5$_213E10_M_managerERSt9_Any_dataRKS4_St18_Manager_operation)
	addi.d	$a0, $a0, %pc_lo12(_ZNSt17_Function_handlerIFlPdS0_jEZ4mainE5$_213E10_M_managerERSt9_Any_dataRKS4_St18_Manager_operation)
	lu12i.w	$a1, 1
	ori	$a1, $a1, 1656
	add.d	$a1, $sp, $a1
	st.d	$a0, $a1, 0
.Ltmp1590:                              # EH_LABEL
	pcalau12i	$a0, %pc_hi20(.L.str.106)
	addi.d	$a2, $a0, %pc_lo12(.L.str.106)
	lu12i.w	$a0, 1
	ori	$a0, $a0, 1672
	add.d	$a0, $sp, $a0
	lu12i.w	$a1, 1
	ori	$a1, $a1, 1640
	add.d	$a1, $sp, $a1
	pcaddu18i	$ra, %call36(_ZL19checkVectorFunctionIldEvSt8functionIFT_PT0_S3_jEES5_PKc)
	jirl	$ra, $ra, 0
.Ltmp1591:                              # EH_LABEL
# %bb.533:
	lu12i.w	$a0, 1
	ori	$a0, $a0, 1656
	add.d	$a0, $sp, $a0
	ld.d	$a3, $a0, 0
	beqz	$a3, .LBB0_535
# %bb.534:
.Ltmp1599:                              # EH_LABEL
	lu12i.w	$a0, 1
	ori	$a0, $a0, 1640
	add.d	$a0, $sp, $a0
	lu12i.w	$a1, 1
	ori	$a1, $a1, 1640
	add.d	$a1, $sp, $a1
	ori	$a2, $zero, 3
	jirl	$ra, $a3, 0
.Ltmp1600:                              # EH_LABEL
.LBB0_535:                              # %_ZNSt14_Function_baseD2Ev.exit426
	lu12i.w	$a0, 1
	ori	$a0, $a0, 1688
	add.d	$a0, $sp, $a0
	ld.d	$a3, $a0, 0
	beqz	$a3, .LBB0_537
# %bb.536:
.Ltmp1602:                              # EH_LABEL
	lu12i.w	$a0, 1
	ori	$a0, $a0, 1672
	add.d	$a0, $sp, $a0
	lu12i.w	$a1, 1
	ori	$a1, $a1, 1672
	add.d	$a1, $sp, $a1
	ori	$a2, $zero, 3
	jirl	$ra, $a3, 0
.Ltmp1603:                              # EH_LABEL
.LBB0_537:                              # %_ZNSt14_Function_baseD2Ev.exit428
	vld	$vr0, $sp, 16                   # 16-byte Folded Reload
	lu12i.w	$a0, 1
	ori	$a0, $a0, 1608
	add.d	$a0, $sp, $a0
	vst	$vr0, $a0, 0
	pcalau12i	$a0, %pc_hi20(_ZNSt17_Function_handlerIFlPdS0_jEZ4mainE5$_214E9_M_invokeERKSt9_Any_dataOS0_S7_Oj)
	addi.d	$a0, $a0, %pc_lo12(_ZNSt17_Function_handlerIFlPdS0_jEZ4mainE5$_214E9_M_invokeERKSt9_Any_dataOS0_S7_Oj)
	lu12i.w	$a1, 1
	ori	$a1, $a1, 1632
	add.d	$a1, $sp, $a1
	st.d	$a0, $a1, 0
	pcalau12i	$a0, %pc_hi20(_ZNSt17_Function_handlerIFlPdS0_jEZ4mainE5$_214E10_M_managerERSt9_Any_dataRKS4_St18_Manager_operation)
	addi.d	$a0, $a0, %pc_lo12(_ZNSt17_Function_handlerIFlPdS0_jEZ4mainE5$_214E10_M_managerERSt9_Any_dataRKS4_St18_Manager_operation)
	lu12i.w	$a1, 1
	ori	$a1, $a1, 1624
	add.d	$a1, $sp, $a1
	st.d	$a0, $a1, 0
	lu12i.w	$a0, 1
	ori	$a0, $a0, 1576
	add.d	$a0, $sp, $a0
	vst	$vr0, $a0, 0
	pcalau12i	$a0, %pc_hi20(_ZNSt17_Function_handlerIFlPdS0_jEZ4mainE5$_215E9_M_invokeERKSt9_Any_dataOS0_S7_Oj)
	addi.d	$a0, $a0, %pc_lo12(_ZNSt17_Function_handlerIFlPdS0_jEZ4mainE5$_215E9_M_invokeERKSt9_Any_dataOS0_S7_Oj)
	lu12i.w	$a1, 1
	ori	$a1, $a1, 1600
	add.d	$a1, $sp, $a1
	st.d	$a0, $a1, 0
	pcalau12i	$a0, %pc_hi20(_ZNSt17_Function_handlerIFlPdS0_jEZ4mainE5$_215E10_M_managerERSt9_Any_dataRKS4_St18_Manager_operation)
	addi.d	$a0, $a0, %pc_lo12(_ZNSt17_Function_handlerIFlPdS0_jEZ4mainE5$_215E10_M_managerERSt9_Any_dataRKS4_St18_Manager_operation)
	lu12i.w	$a1, 1
	ori	$a1, $a1, 1592
	add.d	$a1, $sp, $a1
	st.d	$a0, $a1, 0
.Ltmp1605:                              # EH_LABEL
	pcalau12i	$a0, %pc_hi20(.L.str.107)
	addi.d	$a2, $a0, %pc_lo12(.L.str.107)
	lu12i.w	$a0, 1
	ori	$a0, $a0, 1608
	add.d	$a0, $sp, $a0
	lu12i.w	$a1, 1
	ori	$a1, $a1, 1576
	add.d	$a1, $sp, $a1
	pcaddu18i	$ra, %call36(_ZL19checkVectorFunctionIldEvSt8functionIFT_PT0_S3_jEES5_PKc)
	jirl	$ra, $ra, 0
.Ltmp1606:                              # EH_LABEL
# %bb.538:
	lu12i.w	$a0, 1
	ori	$a0, $a0, 1592
	add.d	$a0, $sp, $a0
	ld.d	$a3, $a0, 0
	beqz	$a3, .LBB0_540
# %bb.539:
.Ltmp1614:                              # EH_LABEL
	lu12i.w	$a0, 1
	ori	$a0, $a0, 1576
	add.d	$a0, $sp, $a0
	lu12i.w	$a1, 1
	ori	$a1, $a1, 1576
	add.d	$a1, $sp, $a1
	ori	$a2, $zero, 3
	jirl	$ra, $a3, 0
.Ltmp1615:                              # EH_LABEL
.LBB0_540:                              # %_ZNSt14_Function_baseD2Ev.exit430
	lu12i.w	$a0, 1
	ori	$a0, $a0, 1624
	add.d	$a0, $sp, $a0
	ld.d	$a3, $a0, 0
	beqz	$a3, .LBB0_542
# %bb.541:
.Ltmp1617:                              # EH_LABEL
	lu12i.w	$a0, 1
	ori	$a0, $a0, 1608
	add.d	$a0, $sp, $a0
	lu12i.w	$a1, 1
	ori	$a1, $a1, 1608
	add.d	$a1, $sp, $a1
	ori	$a2, $zero, 3
	jirl	$ra, $a3, 0
.Ltmp1618:                              # EH_LABEL
.LBB0_542:                              # %_ZNSt14_Function_baseD2Ev.exit432
	vld	$vr0, $sp, 16                   # 16-byte Folded Reload
	lu12i.w	$a0, 1
	ori	$a0, $a0, 1544
	add.d	$a0, $sp, $a0
	vst	$vr0, $a0, 0
	pcalau12i	$a0, %pc_hi20(_ZNSt17_Function_handlerIFlPdS0_jEZ4mainE5$_216E9_M_invokeERKSt9_Any_dataOS0_S7_Oj)
	addi.d	$a0, $a0, %pc_lo12(_ZNSt17_Function_handlerIFlPdS0_jEZ4mainE5$_216E9_M_invokeERKSt9_Any_dataOS0_S7_Oj)
	lu12i.w	$a1, 1
	ori	$a1, $a1, 1568
	add.d	$a1, $sp, $a1
	st.d	$a0, $a1, 0
	pcalau12i	$a0, %pc_hi20(_ZNSt17_Function_handlerIFlPdS0_jEZ4mainE5$_216E10_M_managerERSt9_Any_dataRKS4_St18_Manager_operation)
	addi.d	$a0, $a0, %pc_lo12(_ZNSt17_Function_handlerIFlPdS0_jEZ4mainE5$_216E10_M_managerERSt9_Any_dataRKS4_St18_Manager_operation)
	lu12i.w	$a1, 1
	ori	$a1, $a1, 1560
	add.d	$a1, $sp, $a1
	st.d	$a0, $a1, 0
	lu12i.w	$a0, 1
	ori	$a0, $a0, 1512
	add.d	$a0, $sp, $a0
	vst	$vr0, $a0, 0
	pcalau12i	$a0, %pc_hi20(_ZNSt17_Function_handlerIFlPdS0_jEZ4mainE5$_217E9_M_invokeERKSt9_Any_dataOS0_S7_Oj)
	addi.d	$a0, $a0, %pc_lo12(_ZNSt17_Function_handlerIFlPdS0_jEZ4mainE5$_217E9_M_invokeERKSt9_Any_dataOS0_S7_Oj)
	lu12i.w	$a1, 1
	ori	$a1, $a1, 1536
	add.d	$a1, $sp, $a1
	st.d	$a0, $a1, 0
	pcalau12i	$a0, %pc_hi20(_ZNSt17_Function_handlerIFlPdS0_jEZ4mainE5$_217E10_M_managerERSt9_Any_dataRKS4_St18_Manager_operation)
	addi.d	$a0, $a0, %pc_lo12(_ZNSt17_Function_handlerIFlPdS0_jEZ4mainE5$_217E10_M_managerERSt9_Any_dataRKS4_St18_Manager_operation)
	lu12i.w	$a1, 1
	ori	$a1, $a1, 1528
	add.d	$a1, $sp, $a1
	st.d	$a0, $a1, 0
.Ltmp1620:                              # EH_LABEL
	pcalau12i	$a0, %pc_hi20(.L.str.108)
	addi.d	$a2, $a0, %pc_lo12(.L.str.108)
	lu12i.w	$a0, 1
	ori	$a0, $a0, 1544
	add.d	$a0, $sp, $a0
	lu12i.w	$a1, 1
	ori	$a1, $a1, 1512
	add.d	$a1, $sp, $a1
	pcaddu18i	$ra, %call36(_ZL19checkVectorFunctionIldEvSt8functionIFT_PT0_S3_jEES5_PKc)
	jirl	$ra, $ra, 0
.Ltmp1621:                              # EH_LABEL
# %bb.543:
	lu12i.w	$a0, 1
	ori	$a0, $a0, 1528
	add.d	$a0, $sp, $a0
	ld.d	$a3, $a0, 0
	beqz	$a3, .LBB0_545
# %bb.544:
.Ltmp1629:                              # EH_LABEL
	lu12i.w	$a0, 1
	ori	$a0, $a0, 1512
	add.d	$a0, $sp, $a0
	lu12i.w	$a1, 1
	ori	$a1, $a1, 1512
	add.d	$a1, $sp, $a1
	ori	$a2, $zero, 3
	jirl	$ra, $a3, 0
.Ltmp1630:                              # EH_LABEL
.LBB0_545:                              # %_ZNSt14_Function_baseD2Ev.exit434
	lu12i.w	$a0, 1
	ori	$a0, $a0, 1560
	add.d	$a0, $sp, $a0
	ld.d	$a3, $a0, 0
	beqz	$a3, .LBB0_547
# %bb.546:
.Ltmp1632:                              # EH_LABEL
	lu12i.w	$a0, 1
	ori	$a0, $a0, 1544
	add.d	$a0, $sp, $a0
	lu12i.w	$a1, 1
	ori	$a1, $a1, 1544
	add.d	$a1, $sp, $a1
	ori	$a2, $zero, 3
	jirl	$ra, $a3, 0
.Ltmp1633:                              # EH_LABEL
.LBB0_547:                              # %_ZNSt14_Function_baseD2Ev.exit436
	vld	$vr0, $sp, 16                   # 16-byte Folded Reload
	lu12i.w	$a0, 1
	ori	$a0, $a0, 1480
	add.d	$a0, $sp, $a0
	vst	$vr0, $a0, 0
	pcalau12i	$a0, %pc_hi20(_ZNSt17_Function_handlerIFlPdS0_jEZ4mainE5$_218E9_M_invokeERKSt9_Any_dataOS0_S7_Oj)
	addi.d	$a0, $a0, %pc_lo12(_ZNSt17_Function_handlerIFlPdS0_jEZ4mainE5$_218E9_M_invokeERKSt9_Any_dataOS0_S7_Oj)
	lu12i.w	$a1, 1
	ori	$a1, $a1, 1504
	add.d	$a1, $sp, $a1
	st.d	$a0, $a1, 0
	pcalau12i	$a0, %pc_hi20(_ZNSt17_Function_handlerIFlPdS0_jEZ4mainE5$_218E10_M_managerERSt9_Any_dataRKS4_St18_Manager_operation)
	addi.d	$a0, $a0, %pc_lo12(_ZNSt17_Function_handlerIFlPdS0_jEZ4mainE5$_218E10_M_managerERSt9_Any_dataRKS4_St18_Manager_operation)
	lu12i.w	$a1, 1
	ori	$a1, $a1, 1496
	add.d	$a1, $sp, $a1
	st.d	$a0, $a1, 0
	lu12i.w	$a0, 1
	ori	$a0, $a0, 1448
	add.d	$a0, $sp, $a0
	vst	$vr0, $a0, 0
	pcalau12i	$a0, %pc_hi20(_ZNSt17_Function_handlerIFlPdS0_jEZ4mainE5$_219E9_M_invokeERKSt9_Any_dataOS0_S7_Oj)
	addi.d	$a0, $a0, %pc_lo12(_ZNSt17_Function_handlerIFlPdS0_jEZ4mainE5$_219E9_M_invokeERKSt9_Any_dataOS0_S7_Oj)
	lu12i.w	$a1, 1
	ori	$a1, $a1, 1472
	add.d	$a1, $sp, $a1
	st.d	$a0, $a1, 0
	pcalau12i	$a0, %pc_hi20(_ZNSt17_Function_handlerIFlPdS0_jEZ4mainE5$_219E10_M_managerERSt9_Any_dataRKS4_St18_Manager_operation)
	addi.d	$a0, $a0, %pc_lo12(_ZNSt17_Function_handlerIFlPdS0_jEZ4mainE5$_219E10_M_managerERSt9_Any_dataRKS4_St18_Manager_operation)
	lu12i.w	$a1, 1
	ori	$a1, $a1, 1464
	add.d	$a1, $sp, $a1
	st.d	$a0, $a1, 0
.Ltmp1635:                              # EH_LABEL
	pcalau12i	$a0, %pc_hi20(.L.str.109)
	addi.d	$a2, $a0, %pc_lo12(.L.str.109)
	lu12i.w	$a0, 1
	ori	$a0, $a0, 1480
	add.d	$a0, $sp, $a0
	lu12i.w	$a1, 1
	ori	$a1, $a1, 1448
	add.d	$a1, $sp, $a1
	pcaddu18i	$ra, %call36(_ZL19checkVectorFunctionIldEvSt8functionIFT_PT0_S3_jEES5_PKc)
	jirl	$ra, $ra, 0
.Ltmp1636:                              # EH_LABEL
# %bb.548:
	lu12i.w	$a0, 1
	ori	$a0, $a0, 1464
	add.d	$a0, $sp, $a0
	ld.d	$a3, $a0, 0
	beqz	$a3, .LBB0_550
# %bb.549:
.Ltmp1644:                              # EH_LABEL
	lu12i.w	$a0, 1
	ori	$a0, $a0, 1448
	add.d	$a0, $sp, $a0
	lu12i.w	$a1, 1
	ori	$a1, $a1, 1448
	add.d	$a1, $sp, $a1
	ori	$a2, $zero, 3
	jirl	$ra, $a3, 0
.Ltmp1645:                              # EH_LABEL
.LBB0_550:                              # %_ZNSt14_Function_baseD2Ev.exit438
	lu12i.w	$a0, 1
	ori	$a0, $a0, 1496
	add.d	$a0, $sp, $a0
	ld.d	$a3, $a0, 0
	beqz	$a3, .LBB0_552
# %bb.551:
.Ltmp1647:                              # EH_LABEL
	lu12i.w	$a0, 1
	ori	$a0, $a0, 1480
	add.d	$a0, $sp, $a0
	lu12i.w	$a1, 1
	ori	$a1, $a1, 1480
	add.d	$a1, $sp, $a1
	ori	$a2, $zero, 3
	jirl	$ra, $a3, 0
.Ltmp1648:                              # EH_LABEL
.LBB0_552:                              # %_ZNSt14_Function_baseD2Ev.exit440
	vld	$vr0, $sp, 16                   # 16-byte Folded Reload
	lu12i.w	$a0, 1
	ori	$a0, $a0, 1416
	add.d	$a0, $sp, $a0
	vst	$vr0, $a0, 0
	pcalau12i	$a0, %pc_hi20(_ZNSt17_Function_handlerIFlPdS0_jEZ4mainE5$_220E9_M_invokeERKSt9_Any_dataOS0_S7_Oj)
	addi.d	$a0, $a0, %pc_lo12(_ZNSt17_Function_handlerIFlPdS0_jEZ4mainE5$_220E9_M_invokeERKSt9_Any_dataOS0_S7_Oj)
	lu12i.w	$a1, 1
	ori	$a1, $a1, 1440
	add.d	$a1, $sp, $a1
	st.d	$a0, $a1, 0
	pcalau12i	$a0, %pc_hi20(_ZNSt17_Function_handlerIFlPdS0_jEZ4mainE5$_220E10_M_managerERSt9_Any_dataRKS4_St18_Manager_operation)
	addi.d	$a0, $a0, %pc_lo12(_ZNSt17_Function_handlerIFlPdS0_jEZ4mainE5$_220E10_M_managerERSt9_Any_dataRKS4_St18_Manager_operation)
	lu12i.w	$a1, 1
	ori	$a1, $a1, 1432
	add.d	$a1, $sp, $a1
	st.d	$a0, $a1, 0
	lu12i.w	$a0, 1
	ori	$a0, $a0, 1384
	add.d	$a0, $sp, $a0
	vst	$vr0, $a0, 0
	pcalau12i	$a0, %pc_hi20(_ZNSt17_Function_handlerIFlPdS0_jEZ4mainE5$_221E9_M_invokeERKSt9_Any_dataOS0_S7_Oj)
	addi.d	$a0, $a0, %pc_lo12(_ZNSt17_Function_handlerIFlPdS0_jEZ4mainE5$_221E9_M_invokeERKSt9_Any_dataOS0_S7_Oj)
	lu12i.w	$a1, 1
	ori	$a1, $a1, 1408
	add.d	$a1, $sp, $a1
	st.d	$a0, $a1, 0
	pcalau12i	$a0, %pc_hi20(_ZNSt17_Function_handlerIFlPdS0_jEZ4mainE5$_221E10_M_managerERSt9_Any_dataRKS4_St18_Manager_operation)
	addi.d	$a0, $a0, %pc_lo12(_ZNSt17_Function_handlerIFlPdS0_jEZ4mainE5$_221E10_M_managerERSt9_Any_dataRKS4_St18_Manager_operation)
	lu12i.w	$a1, 1
	ori	$a1, $a1, 1400
	add.d	$a1, $sp, $a1
	st.d	$a0, $a1, 0
.Ltmp1650:                              # EH_LABEL
	pcalau12i	$a0, %pc_hi20(.L.str.110)
	addi.d	$a2, $a0, %pc_lo12(.L.str.110)
	lu12i.w	$a0, 1
	ori	$a0, $a0, 1416
	add.d	$a0, $sp, $a0
	lu12i.w	$a1, 1
	ori	$a1, $a1, 1384
	add.d	$a1, $sp, $a1
	pcaddu18i	$ra, %call36(_ZL19checkVectorFunctionIldEvSt8functionIFT_PT0_S3_jEES5_PKc)
	jirl	$ra, $ra, 0
.Ltmp1651:                              # EH_LABEL
# %bb.553:
	lu12i.w	$a0, 1
	ori	$a0, $a0, 1400
	add.d	$a0, $sp, $a0
	ld.d	$a3, $a0, 0
	beqz	$a3, .LBB0_555
# %bb.554:
.Ltmp1659:                              # EH_LABEL
	lu12i.w	$a0, 1
	ori	$a0, $a0, 1384
	add.d	$a0, $sp, $a0
	lu12i.w	$a1, 1
	ori	$a1, $a1, 1384
	add.d	$a1, $sp, $a1
	ori	$a2, $zero, 3
	jirl	$ra, $a3, 0
.Ltmp1660:                              # EH_LABEL
.LBB0_555:                              # %_ZNSt14_Function_baseD2Ev.exit442
	lu12i.w	$a0, 1
	ori	$a0, $a0, 1432
	add.d	$a0, $sp, $a0
	ld.d	$a3, $a0, 0
	beqz	$a3, .LBB0_557
# %bb.556:
.Ltmp1662:                              # EH_LABEL
	lu12i.w	$a0, 1
	ori	$a0, $a0, 1416
	add.d	$a0, $sp, $a0
	lu12i.w	$a1, 1
	ori	$a1, $a1, 1416
	add.d	$a1, $sp, $a1
	ori	$a2, $zero, 3
	jirl	$ra, $a3, 0
.Ltmp1663:                              # EH_LABEL
.LBB0_557:                              # %_ZNSt14_Function_baseD2Ev.exit444
	vld	$vr0, $sp, 16                   # 16-byte Folded Reload
	lu12i.w	$a0, 1
	ori	$a0, $a0, 1352
	add.d	$a0, $sp, $a0
	vst	$vr0, $a0, 0
	pcalau12i	$a0, %pc_hi20(_ZNSt17_Function_handlerIFlPdS0_jEZ4mainE5$_222E9_M_invokeERKSt9_Any_dataOS0_S7_Oj)
	addi.d	$a0, $a0, %pc_lo12(_ZNSt17_Function_handlerIFlPdS0_jEZ4mainE5$_222E9_M_invokeERKSt9_Any_dataOS0_S7_Oj)
	lu12i.w	$a1, 1
	ori	$a1, $a1, 1376
	add.d	$a1, $sp, $a1
	st.d	$a0, $a1, 0
	pcalau12i	$a0, %pc_hi20(_ZNSt17_Function_handlerIFlPdS0_jEZ4mainE5$_222E10_M_managerERSt9_Any_dataRKS4_St18_Manager_operation)
	addi.d	$a0, $a0, %pc_lo12(_ZNSt17_Function_handlerIFlPdS0_jEZ4mainE5$_222E10_M_managerERSt9_Any_dataRKS4_St18_Manager_operation)
	lu12i.w	$a1, 1
	ori	$a1, $a1, 1368
	add.d	$a1, $sp, $a1
	st.d	$a0, $a1, 0
	lu12i.w	$a0, 1
	ori	$a0, $a0, 1320
	add.d	$a0, $sp, $a0
	vst	$vr0, $a0, 0
	pcalau12i	$a0, %pc_hi20(_ZNSt17_Function_handlerIFlPdS0_jEZ4mainE5$_223E9_M_invokeERKSt9_Any_dataOS0_S7_Oj)
	addi.d	$a0, $a0, %pc_lo12(_ZNSt17_Function_handlerIFlPdS0_jEZ4mainE5$_223E9_M_invokeERKSt9_Any_dataOS0_S7_Oj)
	lu12i.w	$a1, 1
	ori	$a1, $a1, 1344
	add.d	$a1, $sp, $a1
	st.d	$a0, $a1, 0
	pcalau12i	$a0, %pc_hi20(_ZNSt17_Function_handlerIFlPdS0_jEZ4mainE5$_223E10_M_managerERSt9_Any_dataRKS4_St18_Manager_operation)
	addi.d	$a0, $a0, %pc_lo12(_ZNSt17_Function_handlerIFlPdS0_jEZ4mainE5$_223E10_M_managerERSt9_Any_dataRKS4_St18_Manager_operation)
	lu12i.w	$a1, 1
	ori	$a1, $a1, 1336
	add.d	$a1, $sp, $a1
	st.d	$a0, $a1, 0
.Ltmp1665:                              # EH_LABEL
	pcalau12i	$a0, %pc_hi20(.L.str.111)
	addi.d	$a2, $a0, %pc_lo12(.L.str.111)
	lu12i.w	$a0, 1
	ori	$a0, $a0, 1352
	add.d	$a0, $sp, $a0
	lu12i.w	$a1, 1
	ori	$a1, $a1, 1320
	add.d	$a1, $sp, $a1
	pcaddu18i	$ra, %call36(_ZL19checkVectorFunctionIldEvSt8functionIFT_PT0_S3_jEES5_PKc)
	jirl	$ra, $ra, 0
.Ltmp1666:                              # EH_LABEL
# %bb.558:
	lu12i.w	$a0, 1
	ori	$a0, $a0, 1336
	add.d	$a0, $sp, $a0
	ld.d	$a3, $a0, 0
	beqz	$a3, .LBB0_560
# %bb.559:
.Ltmp1674:                              # EH_LABEL
	lu12i.w	$a0, 1
	ori	$a0, $a0, 1320
	add.d	$a0, $sp, $a0
	lu12i.w	$a1, 1
	ori	$a1, $a1, 1320
	add.d	$a1, $sp, $a1
	ori	$a2, $zero, 3
	jirl	$ra, $a3, 0
.Ltmp1675:                              # EH_LABEL
.LBB0_560:                              # %_ZNSt14_Function_baseD2Ev.exit446
	lu12i.w	$a0, 1
	ori	$a0, $a0, 1368
	add.d	$a0, $sp, $a0
	ld.d	$a3, $a0, 0
	beqz	$a3, .LBB0_562
# %bb.561:
.Ltmp1677:                              # EH_LABEL
	lu12i.w	$a0, 1
	ori	$a0, $a0, 1352
	add.d	$a0, $sp, $a0
	lu12i.w	$a1, 1
	ori	$a1, $a1, 1352
	add.d	$a1, $sp, $a1
	ori	$a2, $zero, 3
	jirl	$ra, $a3, 0
.Ltmp1678:                              # EH_LABEL
.LBB0_562:                              # %_ZNSt14_Function_baseD2Ev.exit448
	vld	$vr0, $sp, 16                   # 16-byte Folded Reload
	lu12i.w	$a0, 1
	ori	$a0, $a0, 1288
	add.d	$a0, $sp, $a0
	vst	$vr0, $a0, 0
	pcalau12i	$a0, %pc_hi20(_ZNSt17_Function_handlerIFlPdS0_jEZ4mainE5$_224E9_M_invokeERKSt9_Any_dataOS0_S7_Oj)
	addi.d	$a0, $a0, %pc_lo12(_ZNSt17_Function_handlerIFlPdS0_jEZ4mainE5$_224E9_M_invokeERKSt9_Any_dataOS0_S7_Oj)
	lu12i.w	$a1, 1
	ori	$a1, $a1, 1312
	add.d	$a1, $sp, $a1
	st.d	$a0, $a1, 0
	pcalau12i	$a0, %pc_hi20(_ZNSt17_Function_handlerIFlPdS0_jEZ4mainE5$_224E10_M_managerERSt9_Any_dataRKS4_St18_Manager_operation)
	addi.d	$a0, $a0, %pc_lo12(_ZNSt17_Function_handlerIFlPdS0_jEZ4mainE5$_224E10_M_managerERSt9_Any_dataRKS4_St18_Manager_operation)
	lu12i.w	$a1, 1
	ori	$a1, $a1, 1304
	add.d	$a1, $sp, $a1
	st.d	$a0, $a1, 0
	lu12i.w	$a0, 1
	ori	$a0, $a0, 1256
	add.d	$a0, $sp, $a0
	vst	$vr0, $a0, 0
	pcalau12i	$a0, %pc_hi20(_ZNSt17_Function_handlerIFlPdS0_jEZ4mainE5$_225E9_M_invokeERKSt9_Any_dataOS0_S7_Oj)
	addi.d	$a0, $a0, %pc_lo12(_ZNSt17_Function_handlerIFlPdS0_jEZ4mainE5$_225E9_M_invokeERKSt9_Any_dataOS0_S7_Oj)
	lu12i.w	$a1, 1
	ori	$a1, $a1, 1280
	add.d	$a1, $sp, $a1
	st.d	$a0, $a1, 0
	pcalau12i	$a0, %pc_hi20(_ZNSt17_Function_handlerIFlPdS0_jEZ4mainE5$_225E10_M_managerERSt9_Any_dataRKS4_St18_Manager_operation)
	addi.d	$a0, $a0, %pc_lo12(_ZNSt17_Function_handlerIFlPdS0_jEZ4mainE5$_225E10_M_managerERSt9_Any_dataRKS4_St18_Manager_operation)
	lu12i.w	$a1, 1
	ori	$a1, $a1, 1272
	add.d	$a1, $sp, $a1
	st.d	$a0, $a1, 0
.Ltmp1680:                              # EH_LABEL
	pcalau12i	$a0, %pc_hi20(.L.str.112)
	addi.d	$a2, $a0, %pc_lo12(.L.str.112)
	lu12i.w	$a0, 1
	ori	$a0, $a0, 1288
	add.d	$a0, $sp, $a0
	lu12i.w	$a1, 1
	ori	$a1, $a1, 1256
	add.d	$a1, $sp, $a1
	pcaddu18i	$ra, %call36(_ZL19checkVectorFunctionIldEvSt8functionIFT_PT0_S3_jEES5_PKc)
	jirl	$ra, $ra, 0
.Ltmp1681:                              # EH_LABEL
# %bb.563:
	lu12i.w	$a0, 1
	ori	$a0, $a0, 1272
	add.d	$a0, $sp, $a0
	ld.d	$a3, $a0, 0
	beqz	$a3, .LBB0_565
# %bb.564:
.Ltmp1689:                              # EH_LABEL
	lu12i.w	$a0, 1
	ori	$a0, $a0, 1256
	add.d	$a0, $sp, $a0
	lu12i.w	$a1, 1
	ori	$a1, $a1, 1256
	add.d	$a1, $sp, $a1
	ori	$a2, $zero, 3
	jirl	$ra, $a3, 0
.Ltmp1690:                              # EH_LABEL
.LBB0_565:                              # %_ZNSt14_Function_baseD2Ev.exit450
	lu12i.w	$a0, 1
	ori	$a0, $a0, 1304
	add.d	$a0, $sp, $a0
	ld.d	$a3, $a0, 0
	beqz	$a3, .LBB0_567
# %bb.566:
.Ltmp1692:                              # EH_LABEL
	lu12i.w	$a0, 1
	ori	$a0, $a0, 1288
	add.d	$a0, $sp, $a0
	lu12i.w	$a1, 1
	ori	$a1, $a1, 1288
	add.d	$a1, $sp, $a1
	ori	$a2, $zero, 3
	jirl	$ra, $a3, 0
.Ltmp1693:                              # EH_LABEL
.LBB0_567:                              # %_ZNSt14_Function_baseD2Ev.exit452
	vld	$vr0, $sp, 16                   # 16-byte Folded Reload
	lu12i.w	$a0, 1
	ori	$a0, $a0, 1224
	add.d	$a0, $sp, $a0
	vst	$vr0, $a0, 0
	pcalau12i	$a0, %pc_hi20(_ZNSt17_Function_handlerIFlPdS0_jEZ4mainE5$_226E9_M_invokeERKSt9_Any_dataOS0_S7_Oj)
	addi.d	$a0, $a0, %pc_lo12(_ZNSt17_Function_handlerIFlPdS0_jEZ4mainE5$_226E9_M_invokeERKSt9_Any_dataOS0_S7_Oj)
	lu12i.w	$a1, 1
	ori	$a1, $a1, 1248
	add.d	$a1, $sp, $a1
	st.d	$a0, $a1, 0
	pcalau12i	$a0, %pc_hi20(_ZNSt17_Function_handlerIFlPdS0_jEZ4mainE5$_226E10_M_managerERSt9_Any_dataRKS4_St18_Manager_operation)
	addi.d	$a0, $a0, %pc_lo12(_ZNSt17_Function_handlerIFlPdS0_jEZ4mainE5$_226E10_M_managerERSt9_Any_dataRKS4_St18_Manager_operation)
	lu12i.w	$a1, 1
	ori	$a1, $a1, 1240
	add.d	$a1, $sp, $a1
	st.d	$a0, $a1, 0
	lu12i.w	$a0, 1
	ori	$a0, $a0, 1192
	add.d	$a0, $sp, $a0
	vst	$vr0, $a0, 0
	pcalau12i	$a0, %pc_hi20(_ZNSt17_Function_handlerIFlPdS0_jEZ4mainE5$_227E9_M_invokeERKSt9_Any_dataOS0_S7_Oj)
	addi.d	$a0, $a0, %pc_lo12(_ZNSt17_Function_handlerIFlPdS0_jEZ4mainE5$_227E9_M_invokeERKSt9_Any_dataOS0_S7_Oj)
	lu12i.w	$a1, 1
	ori	$a1, $a1, 1216
	add.d	$a1, $sp, $a1
	st.d	$a0, $a1, 0
	pcalau12i	$a0, %pc_hi20(_ZNSt17_Function_handlerIFlPdS0_jEZ4mainE5$_227E10_M_managerERSt9_Any_dataRKS4_St18_Manager_operation)
	addi.d	$a0, $a0, %pc_lo12(_ZNSt17_Function_handlerIFlPdS0_jEZ4mainE5$_227E10_M_managerERSt9_Any_dataRKS4_St18_Manager_operation)
	lu12i.w	$a1, 1
	ori	$a1, $a1, 1208
	add.d	$a1, $sp, $a1
	st.d	$a0, $a1, 0
.Ltmp1695:                              # EH_LABEL
	pcalau12i	$a0, %pc_hi20(.L.str.113)
	addi.d	$a2, $a0, %pc_lo12(.L.str.113)
	lu12i.w	$a0, 1
	ori	$a0, $a0, 1224
	add.d	$a0, $sp, $a0
	lu12i.w	$a1, 1
	ori	$a1, $a1, 1192
	add.d	$a1, $sp, $a1
	pcaddu18i	$ra, %call36(_ZL19checkVectorFunctionIldEvSt8functionIFT_PT0_S3_jEES5_PKc)
	jirl	$ra, $ra, 0
.Ltmp1696:                              # EH_LABEL
# %bb.568:
	lu12i.w	$a0, 1
	ori	$a0, $a0, 1208
	add.d	$a0, $sp, $a0
	ld.d	$a3, $a0, 0
	beqz	$a3, .LBB0_570
# %bb.569:
.Ltmp1704:                              # EH_LABEL
	lu12i.w	$a0, 1
	ori	$a0, $a0, 1192
	add.d	$a0, $sp, $a0
	lu12i.w	$a1, 1
	ori	$a1, $a1, 1192
	add.d	$a1, $sp, $a1
	ori	$a2, $zero, 3
	jirl	$ra, $a3, 0
.Ltmp1705:                              # EH_LABEL
.LBB0_570:                              # %_ZNSt14_Function_baseD2Ev.exit454
	lu12i.w	$a0, 1
	ori	$a0, $a0, 1240
	add.d	$a0, $sp, $a0
	ld.d	$a3, $a0, 0
	beqz	$a3, .LBB0_572
# %bb.571:
.Ltmp1707:                              # EH_LABEL
	lu12i.w	$a0, 1
	ori	$a0, $a0, 1224
	add.d	$a0, $sp, $a0
	lu12i.w	$a1, 1
	ori	$a1, $a1, 1224
	add.d	$a1, $sp, $a1
	ori	$a2, $zero, 3
	jirl	$ra, $a3, 0
.Ltmp1708:                              # EH_LABEL
.LBB0_572:                              # %_ZNSt14_Function_baseD2Ev.exit456
	vld	$vr0, $sp, 16                   # 16-byte Folded Reload
	lu12i.w	$a0, 1
	ori	$a0, $a0, 1160
	add.d	$a0, $sp, $a0
	vst	$vr0, $a0, 0
	pcalau12i	$a0, %pc_hi20(_ZNSt17_Function_handlerIFlPdS0_jEZ4mainE5$_228E9_M_invokeERKSt9_Any_dataOS0_S7_Oj)
	addi.d	$a0, $a0, %pc_lo12(_ZNSt17_Function_handlerIFlPdS0_jEZ4mainE5$_228E9_M_invokeERKSt9_Any_dataOS0_S7_Oj)
	lu12i.w	$a1, 1
	ori	$a1, $a1, 1184
	add.d	$a1, $sp, $a1
	st.d	$a0, $a1, 0
	pcalau12i	$a0, %pc_hi20(_ZNSt17_Function_handlerIFlPdS0_jEZ4mainE5$_228E10_M_managerERSt9_Any_dataRKS4_St18_Manager_operation)
	addi.d	$a0, $a0, %pc_lo12(_ZNSt17_Function_handlerIFlPdS0_jEZ4mainE5$_228E10_M_managerERSt9_Any_dataRKS4_St18_Manager_operation)
	lu12i.w	$a1, 1
	ori	$a1, $a1, 1176
	add.d	$a1, $sp, $a1
	st.d	$a0, $a1, 0
	lu12i.w	$a0, 1
	ori	$a0, $a0, 1128
	add.d	$a0, $sp, $a0
	vst	$vr0, $a0, 0
	pcalau12i	$a0, %pc_hi20(_ZNSt17_Function_handlerIFlPdS0_jEZ4mainE5$_229E9_M_invokeERKSt9_Any_dataOS0_S7_Oj)
	addi.d	$a0, $a0, %pc_lo12(_ZNSt17_Function_handlerIFlPdS0_jEZ4mainE5$_229E9_M_invokeERKSt9_Any_dataOS0_S7_Oj)
	lu12i.w	$a1, 1
	ori	$a1, $a1, 1152
	add.d	$a1, $sp, $a1
	st.d	$a0, $a1, 0
	pcalau12i	$a0, %pc_hi20(_ZNSt17_Function_handlerIFlPdS0_jEZ4mainE5$_229E10_M_managerERSt9_Any_dataRKS4_St18_Manager_operation)
	addi.d	$a0, $a0, %pc_lo12(_ZNSt17_Function_handlerIFlPdS0_jEZ4mainE5$_229E10_M_managerERSt9_Any_dataRKS4_St18_Manager_operation)
	lu12i.w	$a1, 1
	ori	$a1, $a1, 1144
	add.d	$a1, $sp, $a1
	st.d	$a0, $a1, 0
.Ltmp1710:                              # EH_LABEL
	pcalau12i	$a0, %pc_hi20(.L.str.114)
	addi.d	$a2, $a0, %pc_lo12(.L.str.114)
	lu12i.w	$a0, 1
	ori	$a0, $a0, 1160
	add.d	$a0, $sp, $a0
	lu12i.w	$a1, 1
	ori	$a1, $a1, 1128
	add.d	$a1, $sp, $a1
	pcaddu18i	$ra, %call36(_ZL19checkVectorFunctionIldEvSt8functionIFT_PT0_S3_jEES5_PKc)
	jirl	$ra, $ra, 0
.Ltmp1711:                              # EH_LABEL
# %bb.573:
	lu12i.w	$a0, 1
	ori	$a0, $a0, 1144
	add.d	$a0, $sp, $a0
	ld.d	$a3, $a0, 0
	beqz	$a3, .LBB0_575
# %bb.574:
.Ltmp1719:                              # EH_LABEL
	lu12i.w	$a0, 1
	ori	$a0, $a0, 1128
	add.d	$a0, $sp, $a0
	lu12i.w	$a1, 1
	ori	$a1, $a1, 1128
	add.d	$a1, $sp, $a1
	ori	$a2, $zero, 3
	jirl	$ra, $a3, 0
.Ltmp1720:                              # EH_LABEL
.LBB0_575:                              # %_ZNSt14_Function_baseD2Ev.exit458
	lu12i.w	$a0, 1
	ori	$a0, $a0, 1176
	add.d	$a0, $sp, $a0
	ld.d	$a3, $a0, 0
	beqz	$a3, .LBB0_577
# %bb.576:
.Ltmp1722:                              # EH_LABEL
	lu12i.w	$a0, 1
	ori	$a0, $a0, 1160
	add.d	$a0, $sp, $a0
	lu12i.w	$a1, 1
	ori	$a1, $a1, 1160
	add.d	$a1, $sp, $a1
	ori	$a2, $zero, 3
	jirl	$ra, $a3, 0
.Ltmp1723:                              # EH_LABEL
.LBB0_577:                              # %_ZNSt14_Function_baseD2Ev.exit460
	vld	$vr0, $sp, 16                   # 16-byte Folded Reload
	lu12i.w	$a0, 1
	ori	$a0, $a0, 1096
	add.d	$a0, $sp, $a0
	vst	$vr0, $a0, 0
	pcalau12i	$a0, %pc_hi20(_ZNSt17_Function_handlerIFlPdS0_jEZ4mainE5$_230E9_M_invokeERKSt9_Any_dataOS0_S7_Oj)
	addi.d	$a0, $a0, %pc_lo12(_ZNSt17_Function_handlerIFlPdS0_jEZ4mainE5$_230E9_M_invokeERKSt9_Any_dataOS0_S7_Oj)
	lu12i.w	$a1, 1
	ori	$a1, $a1, 1120
	add.d	$a1, $sp, $a1
	st.d	$a0, $a1, 0
	pcalau12i	$a0, %pc_hi20(_ZNSt17_Function_handlerIFlPdS0_jEZ4mainE5$_230E10_M_managerERSt9_Any_dataRKS4_St18_Manager_operation)
	addi.d	$a0, $a0, %pc_lo12(_ZNSt17_Function_handlerIFlPdS0_jEZ4mainE5$_230E10_M_managerERSt9_Any_dataRKS4_St18_Manager_operation)
	lu12i.w	$a1, 1
	ori	$a1, $a1, 1112
	add.d	$a1, $sp, $a1
	st.d	$a0, $a1, 0
	lu12i.w	$a0, 1
	ori	$a0, $a0, 1064
	add.d	$a0, $sp, $a0
	vst	$vr0, $a0, 0
	pcalau12i	$a0, %pc_hi20(_ZNSt17_Function_handlerIFlPdS0_jEZ4mainE5$_231E9_M_invokeERKSt9_Any_dataOS0_S7_Oj)
	addi.d	$a0, $a0, %pc_lo12(_ZNSt17_Function_handlerIFlPdS0_jEZ4mainE5$_231E9_M_invokeERKSt9_Any_dataOS0_S7_Oj)
	lu12i.w	$a1, 1
	ori	$a1, $a1, 1088
	add.d	$a1, $sp, $a1
	st.d	$a0, $a1, 0
	pcalau12i	$a0, %pc_hi20(_ZNSt17_Function_handlerIFlPdS0_jEZ4mainE5$_231E10_M_managerERSt9_Any_dataRKS4_St18_Manager_operation)
	addi.d	$a0, $a0, %pc_lo12(_ZNSt17_Function_handlerIFlPdS0_jEZ4mainE5$_231E10_M_managerERSt9_Any_dataRKS4_St18_Manager_operation)
	lu12i.w	$a1, 1
	ori	$a1, $a1, 1080
	add.d	$a1, $sp, $a1
	st.d	$a0, $a1, 0
.Ltmp1725:                              # EH_LABEL
	pcalau12i	$a0, %pc_hi20(.L.str.115)
	addi.d	$a2, $a0, %pc_lo12(.L.str.115)
	lu12i.w	$a0, 1
	ori	$a0, $a0, 1096
	add.d	$a0, $sp, $a0
	lu12i.w	$a1, 1
	ori	$a1, $a1, 1064
	add.d	$a1, $sp, $a1
	pcaddu18i	$ra, %call36(_ZL19checkVectorFunctionIldEvSt8functionIFT_PT0_S3_jEES5_PKc)
	jirl	$ra, $ra, 0
.Ltmp1726:                              # EH_LABEL
# %bb.578:
	lu12i.w	$a0, 1
	ori	$a0, $a0, 1080
	add.d	$a0, $sp, $a0
	ld.d	$a3, $a0, 0
	beqz	$a3, .LBB0_580
# %bb.579:
.Ltmp1734:                              # EH_LABEL
	lu12i.w	$a0, 1
	ori	$a0, $a0, 1064
	add.d	$a0, $sp, $a0
	lu12i.w	$a1, 1
	ori	$a1, $a1, 1064
	add.d	$a1, $sp, $a1
	ori	$a2, $zero, 3
	jirl	$ra, $a3, 0
.Ltmp1735:                              # EH_LABEL
.LBB0_580:                              # %_ZNSt14_Function_baseD2Ev.exit462
	lu12i.w	$a0, 1
	ori	$a0, $a0, 1112
	add.d	$a0, $sp, $a0
	ld.d	$a3, $a0, 0
	beqz	$a3, .LBB0_582
# %bb.581:
.Ltmp1737:                              # EH_LABEL
	lu12i.w	$a0, 1
	ori	$a0, $a0, 1096
	add.d	$a0, $sp, $a0
	lu12i.w	$a1, 1
	ori	$a1, $a1, 1096
	add.d	$a1, $sp, $a1
	ori	$a2, $zero, 3
	jirl	$ra, $a3, 0
.Ltmp1738:                              # EH_LABEL
.LBB0_582:                              # %_ZNSt14_Function_baseD2Ev.exit464
	vld	$vr0, $sp, 16                   # 16-byte Folded Reload
	lu12i.w	$a0, 1
	ori	$a0, $a0, 1032
	add.d	$a0, $sp, $a0
	vst	$vr0, $a0, 0
	pcalau12i	$a0, %pc_hi20(_ZNSt17_Function_handlerIFlPdS0_jEZ4mainE5$_232E9_M_invokeERKSt9_Any_dataOS0_S7_Oj)
	addi.d	$a0, $a0, %pc_lo12(_ZNSt17_Function_handlerIFlPdS0_jEZ4mainE5$_232E9_M_invokeERKSt9_Any_dataOS0_S7_Oj)
	lu12i.w	$a1, 1
	ori	$a1, $a1, 1056
	add.d	$a1, $sp, $a1
	st.d	$a0, $a1, 0
	pcalau12i	$a0, %pc_hi20(_ZNSt17_Function_handlerIFlPdS0_jEZ4mainE5$_232E10_M_managerERSt9_Any_dataRKS4_St18_Manager_operation)
	addi.d	$a0, $a0, %pc_lo12(_ZNSt17_Function_handlerIFlPdS0_jEZ4mainE5$_232E10_M_managerERSt9_Any_dataRKS4_St18_Manager_operation)
	lu12i.w	$a1, 1
	ori	$a1, $a1, 1048
	add.d	$a1, $sp, $a1
	st.d	$a0, $a1, 0
	lu12i.w	$a0, 1
	ori	$a0, $a0, 1000
	add.d	$a0, $sp, $a0
	vst	$vr0, $a0, 0
	pcalau12i	$a0, %pc_hi20(_ZNSt17_Function_handlerIFlPdS0_jEZ4mainE5$_233E9_M_invokeERKSt9_Any_dataOS0_S7_Oj)
	addi.d	$a0, $a0, %pc_lo12(_ZNSt17_Function_handlerIFlPdS0_jEZ4mainE5$_233E9_M_invokeERKSt9_Any_dataOS0_S7_Oj)
	lu12i.w	$a1, 1
	ori	$a1, $a1, 1024
	add.d	$a1, $sp, $a1
	st.d	$a0, $a1, 0
	pcalau12i	$a0, %pc_hi20(_ZNSt17_Function_handlerIFlPdS0_jEZ4mainE5$_233E10_M_managerERSt9_Any_dataRKS4_St18_Manager_operation)
	addi.d	$a0, $a0, %pc_lo12(_ZNSt17_Function_handlerIFlPdS0_jEZ4mainE5$_233E10_M_managerERSt9_Any_dataRKS4_St18_Manager_operation)
	lu12i.w	$a1, 1
	ori	$a1, $a1, 1016
	add.d	$a1, $sp, $a1
	st.d	$a0, $a1, 0
.Ltmp1740:                              # EH_LABEL
	pcalau12i	$a0, %pc_hi20(.L.str.116)
	addi.d	$a2, $a0, %pc_lo12(.L.str.116)
	lu12i.w	$a0, 1
	ori	$a0, $a0, 1032
	add.d	$a0, $sp, $a0
	lu12i.w	$a1, 1
	ori	$a1, $a1, 1000
	add.d	$a1, $sp, $a1
	pcaddu18i	$ra, %call36(_ZL19checkVectorFunctionIldEvSt8functionIFT_PT0_S3_jEES5_PKc)
	jirl	$ra, $ra, 0
.Ltmp1741:                              # EH_LABEL
# %bb.583:
	lu12i.w	$a0, 1
	ori	$a0, $a0, 1016
	add.d	$a0, $sp, $a0
	ld.d	$a3, $a0, 0
	beqz	$a3, .LBB0_585
# %bb.584:
.Ltmp1749:                              # EH_LABEL
	lu12i.w	$a0, 1
	ori	$a0, $a0, 1000
	add.d	$a0, $sp, $a0
	lu12i.w	$a1, 1
	ori	$a1, $a1, 1000
	add.d	$a1, $sp, $a1
	ori	$a2, $zero, 3
	jirl	$ra, $a3, 0
.Ltmp1750:                              # EH_LABEL
.LBB0_585:                              # %_ZNSt14_Function_baseD2Ev.exit466
	lu12i.w	$a0, 1
	ori	$a0, $a0, 1048
	add.d	$a0, $sp, $a0
	ld.d	$a3, $a0, 0
	beqz	$a3, .LBB0_587
# %bb.586:
.Ltmp1752:                              # EH_LABEL
	lu12i.w	$a0, 1
	ori	$a0, $a0, 1032
	add.d	$a0, $sp, $a0
	lu12i.w	$a1, 1
	ori	$a1, $a1, 1032
	add.d	$a1, $sp, $a1
	ori	$a2, $zero, 3
	jirl	$ra, $a3, 0
.Ltmp1753:                              # EH_LABEL
.LBB0_587:                              # %_ZNSt14_Function_baseD2Ev.exit468
	vld	$vr0, $sp, 16                   # 16-byte Folded Reload
	lu12i.w	$a0, 1
	ori	$a0, $a0, 968
	add.d	$a0, $sp, $a0
	vst	$vr0, $a0, 0
	pcalau12i	$a0, %pc_hi20(_ZNSt17_Function_handlerIFlPdS0_jEZ4mainE5$_234E9_M_invokeERKSt9_Any_dataOS0_S7_Oj)
	addi.d	$a0, $a0, %pc_lo12(_ZNSt17_Function_handlerIFlPdS0_jEZ4mainE5$_234E9_M_invokeERKSt9_Any_dataOS0_S7_Oj)
	lu12i.w	$a1, 1
	ori	$a1, $a1, 992
	add.d	$a1, $sp, $a1
	st.d	$a0, $a1, 0
	pcalau12i	$a0, %pc_hi20(_ZNSt17_Function_handlerIFlPdS0_jEZ4mainE5$_234E10_M_managerERSt9_Any_dataRKS4_St18_Manager_operation)
	addi.d	$a0, $a0, %pc_lo12(_ZNSt17_Function_handlerIFlPdS0_jEZ4mainE5$_234E10_M_managerERSt9_Any_dataRKS4_St18_Manager_operation)
	lu12i.w	$a1, 1
	ori	$a1, $a1, 984
	add.d	$a1, $sp, $a1
	st.d	$a0, $a1, 0
	lu12i.w	$a0, 1
	ori	$a0, $a0, 936
	add.d	$a0, $sp, $a0
	vst	$vr0, $a0, 0
	pcalau12i	$a0, %pc_hi20(_ZNSt17_Function_handlerIFlPdS0_jEZ4mainE5$_235E9_M_invokeERKSt9_Any_dataOS0_S7_Oj)
	addi.d	$a0, $a0, %pc_lo12(_ZNSt17_Function_handlerIFlPdS0_jEZ4mainE5$_235E9_M_invokeERKSt9_Any_dataOS0_S7_Oj)
	lu12i.w	$a1, 1
	ori	$a1, $a1, 960
	add.d	$a1, $sp, $a1
	st.d	$a0, $a1, 0
	pcalau12i	$a0, %pc_hi20(_ZNSt17_Function_handlerIFlPdS0_jEZ4mainE5$_235E10_M_managerERSt9_Any_dataRKS4_St18_Manager_operation)
	addi.d	$a0, $a0, %pc_lo12(_ZNSt17_Function_handlerIFlPdS0_jEZ4mainE5$_235E10_M_managerERSt9_Any_dataRKS4_St18_Manager_operation)
	lu12i.w	$a1, 1
	ori	$a1, $a1, 952
	add.d	$a1, $sp, $a1
	st.d	$a0, $a1, 0
.Ltmp1755:                              # EH_LABEL
	pcalau12i	$a0, %pc_hi20(.L.str.117)
	addi.d	$a2, $a0, %pc_lo12(.L.str.117)
	lu12i.w	$a0, 1
	ori	$a0, $a0, 968
	add.d	$a0, $sp, $a0
	lu12i.w	$a1, 1
	ori	$a1, $a1, 936
	add.d	$a1, $sp, $a1
	pcaddu18i	$ra, %call36(_ZL19checkVectorFunctionIldEvSt8functionIFT_PT0_S3_jEES5_PKc)
	jirl	$ra, $ra, 0
.Ltmp1756:                              # EH_LABEL
# %bb.588:
	lu12i.w	$a0, 1
	ori	$a0, $a0, 952
	add.d	$a0, $sp, $a0
	ld.d	$a3, $a0, 0
	beqz	$a3, .LBB0_590
# %bb.589:
.Ltmp1764:                              # EH_LABEL
	lu12i.w	$a0, 1
	ori	$a0, $a0, 936
	add.d	$a0, $sp, $a0
	lu12i.w	$a1, 1
	ori	$a1, $a1, 936
	add.d	$a1, $sp, $a1
	ori	$a2, $zero, 3
	jirl	$ra, $a3, 0
.Ltmp1765:                              # EH_LABEL
.LBB0_590:                              # %_ZNSt14_Function_baseD2Ev.exit470
	lu12i.w	$a0, 1
	ori	$a0, $a0, 984
	add.d	$a0, $sp, $a0
	ld.d	$a3, $a0, 0
	beqz	$a3, .LBB0_592
# %bb.591:
.Ltmp1767:                              # EH_LABEL
	lu12i.w	$a0, 1
	ori	$a0, $a0, 968
	add.d	$a0, $sp, $a0
	lu12i.w	$a1, 1
	ori	$a1, $a1, 968
	add.d	$a1, $sp, $a1
	ori	$a2, $zero, 3
	jirl	$ra, $a3, 0
.Ltmp1768:                              # EH_LABEL
.LBB0_592:                              # %_ZNSt14_Function_baseD2Ev.exit472
	vld	$vr0, $sp, 16                   # 16-byte Folded Reload
	lu12i.w	$a0, 1
	ori	$a0, $a0, 904
	add.d	$a0, $sp, $a0
	vst	$vr0, $a0, 0
	pcalau12i	$a0, %pc_hi20(_ZNSt17_Function_handlerIFlPdS0_jEZ4mainE5$_236E9_M_invokeERKSt9_Any_dataOS0_S7_Oj)
	addi.d	$a0, $a0, %pc_lo12(_ZNSt17_Function_handlerIFlPdS0_jEZ4mainE5$_236E9_M_invokeERKSt9_Any_dataOS0_S7_Oj)
	lu12i.w	$a1, 1
	ori	$a1, $a1, 928
	add.d	$a1, $sp, $a1
	st.d	$a0, $a1, 0
	pcalau12i	$a0, %pc_hi20(_ZNSt17_Function_handlerIFlPdS0_jEZ4mainE5$_236E10_M_managerERSt9_Any_dataRKS4_St18_Manager_operation)
	addi.d	$a0, $a0, %pc_lo12(_ZNSt17_Function_handlerIFlPdS0_jEZ4mainE5$_236E10_M_managerERSt9_Any_dataRKS4_St18_Manager_operation)
	lu12i.w	$a1, 1
	ori	$a1, $a1, 920
	add.d	$a1, $sp, $a1
	st.d	$a0, $a1, 0
	lu12i.w	$a0, 1
	ori	$a0, $a0, 872
	add.d	$a0, $sp, $a0
	vst	$vr0, $a0, 0
	pcalau12i	$a0, %pc_hi20(_ZNSt17_Function_handlerIFlPdS0_jEZ4mainE5$_237E9_M_invokeERKSt9_Any_dataOS0_S7_Oj)
	addi.d	$a0, $a0, %pc_lo12(_ZNSt17_Function_handlerIFlPdS0_jEZ4mainE5$_237E9_M_invokeERKSt9_Any_dataOS0_S7_Oj)
	lu12i.w	$a1, 1
	ori	$a1, $a1, 896
	add.d	$a1, $sp, $a1
	st.d	$a0, $a1, 0
	pcalau12i	$a0, %pc_hi20(_ZNSt17_Function_handlerIFlPdS0_jEZ4mainE5$_237E10_M_managerERSt9_Any_dataRKS4_St18_Manager_operation)
	addi.d	$a0, $a0, %pc_lo12(_ZNSt17_Function_handlerIFlPdS0_jEZ4mainE5$_237E10_M_managerERSt9_Any_dataRKS4_St18_Manager_operation)
	lu12i.w	$a1, 1
	ori	$a1, $a1, 888
	add.d	$a1, $sp, $a1
	st.d	$a0, $a1, 0
.Ltmp1770:                              # EH_LABEL
	pcalau12i	$a0, %pc_hi20(.L.str.118)
	addi.d	$a2, $a0, %pc_lo12(.L.str.118)
	lu12i.w	$a0, 1
	ori	$a0, $a0, 904
	add.d	$a0, $sp, $a0
	lu12i.w	$a1, 1
	ori	$a1, $a1, 872
	add.d	$a1, $sp, $a1
	pcaddu18i	$ra, %call36(_ZL19checkVectorFunctionIldEvSt8functionIFT_PT0_S3_jEES5_PKc)
	jirl	$ra, $ra, 0
.Ltmp1771:                              # EH_LABEL
# %bb.593:
	lu12i.w	$a0, 1
	ori	$a0, $a0, 888
	add.d	$a0, $sp, $a0
	ld.d	$a3, $a0, 0
	beqz	$a3, .LBB0_595
# %bb.594:
.Ltmp1779:                              # EH_LABEL
	lu12i.w	$a0, 1
	ori	$a0, $a0, 872
	add.d	$a0, $sp, $a0
	lu12i.w	$a1, 1
	ori	$a1, $a1, 872
	add.d	$a1, $sp, $a1
	ori	$a2, $zero, 3
	jirl	$ra, $a3, 0
.Ltmp1780:                              # EH_LABEL
.LBB0_595:                              # %_ZNSt14_Function_baseD2Ev.exit474
	lu12i.w	$a0, 1
	ori	$a0, $a0, 920
	add.d	$a0, $sp, $a0
	ld.d	$a3, $a0, 0
	beqz	$a3, .LBB0_597
# %bb.596:
.Ltmp1782:                              # EH_LABEL
	lu12i.w	$a0, 1
	ori	$a0, $a0, 904
	add.d	$a0, $sp, $a0
	lu12i.w	$a1, 1
	ori	$a1, $a1, 904
	add.d	$a1, $sp, $a1
	ori	$a2, $zero, 3
	jirl	$ra, $a3, 0
.Ltmp1783:                              # EH_LABEL
.LBB0_597:                              # %_ZNSt14_Function_baseD2Ev.exit476
	vld	$vr0, $sp, 16                   # 16-byte Folded Reload
	lu12i.w	$a0, 1
	ori	$a0, $a0, 840
	add.d	$a0, $sp, $a0
	vst	$vr0, $a0, 0
	pcalau12i	$a0, %pc_hi20(_ZNSt17_Function_handlerIFlPdS0_jEZ4mainE5$_238E9_M_invokeERKSt9_Any_dataOS0_S7_Oj)
	addi.d	$a0, $a0, %pc_lo12(_ZNSt17_Function_handlerIFlPdS0_jEZ4mainE5$_238E9_M_invokeERKSt9_Any_dataOS0_S7_Oj)
	lu12i.w	$a1, 1
	ori	$a1, $a1, 864
	add.d	$a1, $sp, $a1
	st.d	$a0, $a1, 0
	pcalau12i	$a0, %pc_hi20(_ZNSt17_Function_handlerIFlPdS0_jEZ4mainE5$_238E10_M_managerERSt9_Any_dataRKS4_St18_Manager_operation)
	addi.d	$a0, $a0, %pc_lo12(_ZNSt17_Function_handlerIFlPdS0_jEZ4mainE5$_238E10_M_managerERSt9_Any_dataRKS4_St18_Manager_operation)
	lu12i.w	$a1, 1
	ori	$a1, $a1, 856
	add.d	$a1, $sp, $a1
	st.d	$a0, $a1, 0
	lu12i.w	$a0, 1
	ori	$a0, $a0, 808
	add.d	$a0, $sp, $a0
	vst	$vr0, $a0, 0
	pcalau12i	$a0, %pc_hi20(_ZNSt17_Function_handlerIFlPdS0_jEZ4mainE5$_239E9_M_invokeERKSt9_Any_dataOS0_S7_Oj)
	addi.d	$a0, $a0, %pc_lo12(_ZNSt17_Function_handlerIFlPdS0_jEZ4mainE5$_239E9_M_invokeERKSt9_Any_dataOS0_S7_Oj)
	lu12i.w	$a1, 1
	ori	$a1, $a1, 832
	add.d	$a1, $sp, $a1
	st.d	$a0, $a1, 0
	pcalau12i	$a0, %pc_hi20(_ZNSt17_Function_handlerIFlPdS0_jEZ4mainE5$_239E10_M_managerERSt9_Any_dataRKS4_St18_Manager_operation)
	addi.d	$a0, $a0, %pc_lo12(_ZNSt17_Function_handlerIFlPdS0_jEZ4mainE5$_239E10_M_managerERSt9_Any_dataRKS4_St18_Manager_operation)
	lu12i.w	$a1, 1
	ori	$a1, $a1, 824
	add.d	$a1, $sp, $a1
	st.d	$a0, $a1, 0
.Ltmp1785:                              # EH_LABEL
	pcalau12i	$a0, %pc_hi20(.L.str.119)
	addi.d	$a2, $a0, %pc_lo12(.L.str.119)
	lu12i.w	$a0, 1
	ori	$a0, $a0, 840
	add.d	$a0, $sp, $a0
	lu12i.w	$a1, 1
	ori	$a1, $a1, 808
	add.d	$a1, $sp, $a1
	pcaddu18i	$ra, %call36(_ZL19checkVectorFunctionIldEvSt8functionIFT_PT0_S3_jEES5_PKc)
	jirl	$ra, $ra, 0
.Ltmp1786:                              # EH_LABEL
# %bb.598:
	lu12i.w	$a0, 1
	ori	$a0, $a0, 824
	add.d	$a0, $sp, $a0
	ld.d	$a3, $a0, 0
	beqz	$a3, .LBB0_600
# %bb.599:
.Ltmp1794:                              # EH_LABEL
	lu12i.w	$a0, 1
	ori	$a0, $a0, 808
	add.d	$a0, $sp, $a0
	lu12i.w	$a1, 1
	ori	$a1, $a1, 808
	add.d	$a1, $sp, $a1
	ori	$a2, $zero, 3
	jirl	$ra, $a3, 0
.Ltmp1795:                              # EH_LABEL
.LBB0_600:                              # %_ZNSt14_Function_baseD2Ev.exit478
	lu12i.w	$a0, 1
	ori	$a0, $a0, 856
	add.d	$a0, $sp, $a0
	ld.d	$a3, $a0, 0
	beqz	$a3, .LBB0_602
# %bb.601:
.Ltmp1797:                              # EH_LABEL
	lu12i.w	$a0, 1
	ori	$a0, $a0, 840
	add.d	$a0, $sp, $a0
	lu12i.w	$a1, 1
	ori	$a1, $a1, 840
	add.d	$a1, $sp, $a1
	ori	$a2, $zero, 3
	jirl	$ra, $a3, 0
.Ltmp1798:                              # EH_LABEL
.LBB0_602:                              # %_ZNSt14_Function_baseD2Ev.exit480
	vld	$vr0, $sp, 16                   # 16-byte Folded Reload
	lu12i.w	$a0, 1
	ori	$a0, $a0, 776
	add.d	$a0, $sp, $a0
	vst	$vr0, $a0, 0
	pcalau12i	$a0, %pc_hi20(_ZNSt17_Function_handlerIFlPdS0_jEZ4mainE5$_240E9_M_invokeERKSt9_Any_dataOS0_S7_Oj)
	addi.d	$a0, $a0, %pc_lo12(_ZNSt17_Function_handlerIFlPdS0_jEZ4mainE5$_240E9_M_invokeERKSt9_Any_dataOS0_S7_Oj)
	lu12i.w	$a1, 1
	ori	$a1, $a1, 800
	add.d	$a1, $sp, $a1
	st.d	$a0, $a1, 0
	pcalau12i	$a0, %pc_hi20(_ZNSt17_Function_handlerIFlPdS0_jEZ4mainE5$_240E10_M_managerERSt9_Any_dataRKS4_St18_Manager_operation)
	addi.d	$a0, $a0, %pc_lo12(_ZNSt17_Function_handlerIFlPdS0_jEZ4mainE5$_240E10_M_managerERSt9_Any_dataRKS4_St18_Manager_operation)
	lu12i.w	$a1, 1
	ori	$a1, $a1, 792
	add.d	$a1, $sp, $a1
	st.d	$a0, $a1, 0
	lu12i.w	$a0, 1
	ori	$a0, $a0, 744
	add.d	$a0, $sp, $a0
	vst	$vr0, $a0, 0
	pcalau12i	$a0, %pc_hi20(_ZNSt17_Function_handlerIFlPdS0_jEZ4mainE5$_241E9_M_invokeERKSt9_Any_dataOS0_S7_Oj)
	addi.d	$a0, $a0, %pc_lo12(_ZNSt17_Function_handlerIFlPdS0_jEZ4mainE5$_241E9_M_invokeERKSt9_Any_dataOS0_S7_Oj)
	lu12i.w	$a1, 1
	ori	$a1, $a1, 768
	add.d	$a1, $sp, $a1
	st.d	$a0, $a1, 0
	pcalau12i	$a0, %pc_hi20(_ZNSt17_Function_handlerIFlPdS0_jEZ4mainE5$_241E10_M_managerERSt9_Any_dataRKS4_St18_Manager_operation)
	addi.d	$a0, $a0, %pc_lo12(_ZNSt17_Function_handlerIFlPdS0_jEZ4mainE5$_241E10_M_managerERSt9_Any_dataRKS4_St18_Manager_operation)
	lu12i.w	$a1, 1
	ori	$a1, $a1, 760
	add.d	$a1, $sp, $a1
	st.d	$a0, $a1, 0
.Ltmp1800:                              # EH_LABEL
	pcalau12i	$a0, %pc_hi20(.L.str.120)
	addi.d	$a2, $a0, %pc_lo12(.L.str.120)
	lu12i.w	$a0, 1
	ori	$a0, $a0, 776
	add.d	$a0, $sp, $a0
	lu12i.w	$a1, 1
	ori	$a1, $a1, 744
	add.d	$a1, $sp, $a1
	pcaddu18i	$ra, %call36(_ZL19checkVectorFunctionIldEvSt8functionIFT_PT0_S3_jEES5_PKc)
	jirl	$ra, $ra, 0
.Ltmp1801:                              # EH_LABEL
# %bb.603:
	lu12i.w	$a0, 1
	ori	$a0, $a0, 760
	add.d	$a0, $sp, $a0
	ld.d	$a3, $a0, 0
	beqz	$a3, .LBB0_605
# %bb.604:
.Ltmp1809:                              # EH_LABEL
	lu12i.w	$a0, 1
	ori	$a0, $a0, 744
	add.d	$a0, $sp, $a0
	lu12i.w	$a1, 1
	ori	$a1, $a1, 744
	add.d	$a1, $sp, $a1
	ori	$a2, $zero, 3
	jirl	$ra, $a3, 0
.Ltmp1810:                              # EH_LABEL
.LBB0_605:                              # %_ZNSt14_Function_baseD2Ev.exit482
	lu12i.w	$a0, 1
	ori	$a0, $a0, 792
	add.d	$a0, $sp, $a0
	ld.d	$a3, $a0, 0
	beqz	$a3, .LBB0_607
# %bb.606:
.Ltmp1812:                              # EH_LABEL
	lu12i.w	$a0, 1
	ori	$a0, $a0, 776
	add.d	$a0, $sp, $a0
	lu12i.w	$a1, 1
	ori	$a1, $a1, 776
	add.d	$a1, $sp, $a1
	ori	$a2, $zero, 3
	jirl	$ra, $a3, 0
.Ltmp1813:                              # EH_LABEL
.LBB0_607:                              # %_ZNSt14_Function_baseD2Ev.exit484
	vld	$vr0, $sp, 16                   # 16-byte Folded Reload
	lu12i.w	$a0, 1
	ori	$a0, $a0, 712
	add.d	$a0, $sp, $a0
	vst	$vr0, $a0, 0
	pcalau12i	$a0, %pc_hi20(_ZNSt17_Function_handlerIFlPdS0_jEZ4mainE5$_242E9_M_invokeERKSt9_Any_dataOS0_S7_Oj)
	addi.d	$a0, $a0, %pc_lo12(_ZNSt17_Function_handlerIFlPdS0_jEZ4mainE5$_242E9_M_invokeERKSt9_Any_dataOS0_S7_Oj)
	lu12i.w	$a1, 1
	ori	$a1, $a1, 736
	add.d	$a1, $sp, $a1
	st.d	$a0, $a1, 0
	pcalau12i	$a0, %pc_hi20(_ZNSt17_Function_handlerIFlPdS0_jEZ4mainE5$_242E10_M_managerERSt9_Any_dataRKS4_St18_Manager_operation)
	addi.d	$a0, $a0, %pc_lo12(_ZNSt17_Function_handlerIFlPdS0_jEZ4mainE5$_242E10_M_managerERSt9_Any_dataRKS4_St18_Manager_operation)
	lu12i.w	$a1, 1
	ori	$a1, $a1, 728
	add.d	$a1, $sp, $a1
	st.d	$a0, $a1, 0
	lu12i.w	$a0, 1
	ori	$a0, $a0, 680
	add.d	$a0, $sp, $a0
	vst	$vr0, $a0, 0
	pcalau12i	$a0, %pc_hi20(_ZNSt17_Function_handlerIFlPdS0_jEZ4mainE5$_243E9_M_invokeERKSt9_Any_dataOS0_S7_Oj)
	addi.d	$a0, $a0, %pc_lo12(_ZNSt17_Function_handlerIFlPdS0_jEZ4mainE5$_243E9_M_invokeERKSt9_Any_dataOS0_S7_Oj)
	lu12i.w	$a1, 1
	ori	$a1, $a1, 704
	add.d	$a1, $sp, $a1
	st.d	$a0, $a1, 0
	pcalau12i	$a0, %pc_hi20(_ZNSt17_Function_handlerIFlPdS0_jEZ4mainE5$_243E10_M_managerERSt9_Any_dataRKS4_St18_Manager_operation)
	addi.d	$a0, $a0, %pc_lo12(_ZNSt17_Function_handlerIFlPdS0_jEZ4mainE5$_243E10_M_managerERSt9_Any_dataRKS4_St18_Manager_operation)
	lu12i.w	$a1, 1
	ori	$a1, $a1, 696
	add.d	$a1, $sp, $a1
	st.d	$a0, $a1, 0
.Ltmp1815:                              # EH_LABEL
	pcalau12i	$a0, %pc_hi20(.L.str.121)
	addi.d	$a2, $a0, %pc_lo12(.L.str.121)
	lu12i.w	$a0, 1
	ori	$a0, $a0, 712
	add.d	$a0, $sp, $a0
	lu12i.w	$a1, 1
	ori	$a1, $a1, 680
	add.d	$a1, $sp, $a1
	pcaddu18i	$ra, %call36(_ZL19checkVectorFunctionIldEvSt8functionIFT_PT0_S3_jEES5_PKc)
	jirl	$ra, $ra, 0
.Ltmp1816:                              # EH_LABEL
# %bb.608:
	lu12i.w	$a0, 1
	ori	$a0, $a0, 696
	add.d	$a0, $sp, $a0
	ld.d	$a3, $a0, 0
	beqz	$a3, .LBB0_610
# %bb.609:
.Ltmp1824:                              # EH_LABEL
	lu12i.w	$a0, 1
	ori	$a0, $a0, 680
	add.d	$a0, $sp, $a0
	lu12i.w	$a1, 1
	ori	$a1, $a1, 680
	add.d	$a1, $sp, $a1
	ori	$a2, $zero, 3
	jirl	$ra, $a3, 0
.Ltmp1825:                              # EH_LABEL
.LBB0_610:                              # %_ZNSt14_Function_baseD2Ev.exit486
	lu12i.w	$a0, 1
	ori	$a0, $a0, 728
	add.d	$a0, $sp, $a0
	ld.d	$a3, $a0, 0
	beqz	$a3, .LBB0_612
# %bb.611:
.Ltmp1827:                              # EH_LABEL
	lu12i.w	$a0, 1
	ori	$a0, $a0, 712
	add.d	$a0, $sp, $a0
	lu12i.w	$a1, 1
	ori	$a1, $a1, 712
	add.d	$a1, $sp, $a1
	ori	$a2, $zero, 3
	jirl	$ra, $a3, 0
.Ltmp1828:                              # EH_LABEL
.LBB0_612:                              # %_ZNSt14_Function_baseD2Ev.exit488
	vld	$vr0, $sp, 16                   # 16-byte Folded Reload
	lu12i.w	$a0, 1
	ori	$a0, $a0, 648
	add.d	$a0, $sp, $a0
	vst	$vr0, $a0, 0
	pcalau12i	$a0, %pc_hi20(_ZNSt17_Function_handlerIFlPdS0_jEZ4mainE5$_244E9_M_invokeERKSt9_Any_dataOS0_S7_Oj)
	addi.d	$a0, $a0, %pc_lo12(_ZNSt17_Function_handlerIFlPdS0_jEZ4mainE5$_244E9_M_invokeERKSt9_Any_dataOS0_S7_Oj)
	lu12i.w	$a1, 1
	ori	$a1, $a1, 672
	add.d	$a1, $sp, $a1
	st.d	$a0, $a1, 0
	pcalau12i	$a0, %pc_hi20(_ZNSt17_Function_handlerIFlPdS0_jEZ4mainE5$_244E10_M_managerERSt9_Any_dataRKS4_St18_Manager_operation)
	addi.d	$a0, $a0, %pc_lo12(_ZNSt17_Function_handlerIFlPdS0_jEZ4mainE5$_244E10_M_managerERSt9_Any_dataRKS4_St18_Manager_operation)
	lu12i.w	$a1, 1
	ori	$a1, $a1, 664
	add.d	$a1, $sp, $a1
	st.d	$a0, $a1, 0
	lu12i.w	$a0, 1
	ori	$a0, $a0, 616
	add.d	$a0, $sp, $a0
	vst	$vr0, $a0, 0
	pcalau12i	$a0, %pc_hi20(_ZNSt17_Function_handlerIFlPdS0_jEZ4mainE5$_245E9_M_invokeERKSt9_Any_dataOS0_S7_Oj)
	addi.d	$a0, $a0, %pc_lo12(_ZNSt17_Function_handlerIFlPdS0_jEZ4mainE5$_245E9_M_invokeERKSt9_Any_dataOS0_S7_Oj)
	lu12i.w	$a1, 1
	ori	$a1, $a1, 640
	add.d	$a1, $sp, $a1
	st.d	$a0, $a1, 0
	pcalau12i	$a0, %pc_hi20(_ZNSt17_Function_handlerIFlPdS0_jEZ4mainE5$_245E10_M_managerERSt9_Any_dataRKS4_St18_Manager_operation)
	addi.d	$a0, $a0, %pc_lo12(_ZNSt17_Function_handlerIFlPdS0_jEZ4mainE5$_245E10_M_managerERSt9_Any_dataRKS4_St18_Manager_operation)
	lu12i.w	$a1, 1
	ori	$a1, $a1, 632
	add.d	$a1, $sp, $a1
	st.d	$a0, $a1, 0
.Ltmp1830:                              # EH_LABEL
	pcalau12i	$a0, %pc_hi20(.L.str.122)
	addi.d	$a2, $a0, %pc_lo12(.L.str.122)
	lu12i.w	$a0, 1
	ori	$a0, $a0, 648
	add.d	$a0, $sp, $a0
	lu12i.w	$a1, 1
	ori	$a1, $a1, 616
	add.d	$a1, $sp, $a1
	pcaddu18i	$ra, %call36(_ZL19checkVectorFunctionIldEvSt8functionIFT_PT0_S3_jEES5_PKc)
	jirl	$ra, $ra, 0
.Ltmp1831:                              # EH_LABEL
# %bb.613:
	lu12i.w	$a0, 1
	ori	$a0, $a0, 632
	add.d	$a0, $sp, $a0
	ld.d	$a3, $a0, 0
	beqz	$a3, .LBB0_615
# %bb.614:
.Ltmp1839:                              # EH_LABEL
	lu12i.w	$a0, 1
	ori	$a0, $a0, 616
	add.d	$a0, $sp, $a0
	lu12i.w	$a1, 1
	ori	$a1, $a1, 616
	add.d	$a1, $sp, $a1
	ori	$a2, $zero, 3
	jirl	$ra, $a3, 0
.Ltmp1840:                              # EH_LABEL
.LBB0_615:                              # %_ZNSt14_Function_baseD2Ev.exit490
	lu12i.w	$a0, 1
	ori	$a0, $a0, 664
	add.d	$a0, $sp, $a0
	ld.d	$a3, $a0, 0
	beqz	$a3, .LBB0_617
# %bb.616:
.Ltmp1842:                              # EH_LABEL
	lu12i.w	$a0, 1
	ori	$a0, $a0, 648
	add.d	$a0, $sp, $a0
	lu12i.w	$a1, 1
	ori	$a1, $a1, 648
	add.d	$a1, $sp, $a1
	ori	$a2, $zero, 3
	jirl	$ra, $a3, 0
.Ltmp1843:                              # EH_LABEL
.LBB0_617:                              # %_ZNSt14_Function_baseD2Ev.exit492
	vld	$vr0, $sp, 16                   # 16-byte Folded Reload
	lu12i.w	$a0, 1
	ori	$a0, $a0, 584
	add.d	$a0, $sp, $a0
	vst	$vr0, $a0, 0
	pcalau12i	$a0, %pc_hi20(_ZNSt17_Function_handlerIFlPdS0_jEZ4mainE5$_246E9_M_invokeERKSt9_Any_dataOS0_S7_Oj)
	addi.d	$a0, $a0, %pc_lo12(_ZNSt17_Function_handlerIFlPdS0_jEZ4mainE5$_246E9_M_invokeERKSt9_Any_dataOS0_S7_Oj)
	lu12i.w	$a1, 1
	ori	$a1, $a1, 608
	add.d	$a1, $sp, $a1
	st.d	$a0, $a1, 0
	pcalau12i	$a0, %pc_hi20(_ZNSt17_Function_handlerIFlPdS0_jEZ4mainE5$_246E10_M_managerERSt9_Any_dataRKS4_St18_Manager_operation)
	addi.d	$a0, $a0, %pc_lo12(_ZNSt17_Function_handlerIFlPdS0_jEZ4mainE5$_246E10_M_managerERSt9_Any_dataRKS4_St18_Manager_operation)
	lu12i.w	$a1, 1
	ori	$a1, $a1, 600
	add.d	$a1, $sp, $a1
	st.d	$a0, $a1, 0
	lu12i.w	$a0, 1
	ori	$a0, $a0, 552
	add.d	$a0, $sp, $a0
	vst	$vr0, $a0, 0
	pcalau12i	$a0, %pc_hi20(_ZNSt17_Function_handlerIFlPdS0_jEZ4mainE5$_247E9_M_invokeERKSt9_Any_dataOS0_S7_Oj)
	addi.d	$a0, $a0, %pc_lo12(_ZNSt17_Function_handlerIFlPdS0_jEZ4mainE5$_247E9_M_invokeERKSt9_Any_dataOS0_S7_Oj)
	lu12i.w	$a1, 1
	ori	$a1, $a1, 576
	add.d	$a1, $sp, $a1
	st.d	$a0, $a1, 0
	pcalau12i	$a0, %pc_hi20(_ZNSt17_Function_handlerIFlPdS0_jEZ4mainE5$_247E10_M_managerERSt9_Any_dataRKS4_St18_Manager_operation)
	addi.d	$a0, $a0, %pc_lo12(_ZNSt17_Function_handlerIFlPdS0_jEZ4mainE5$_247E10_M_managerERSt9_Any_dataRKS4_St18_Manager_operation)
	lu12i.w	$a1, 1
	ori	$a1, $a1, 568
	add.d	$a1, $sp, $a1
	st.d	$a0, $a1, 0
.Ltmp1845:                              # EH_LABEL
	pcalau12i	$a0, %pc_hi20(.L.str.123)
	addi.d	$a2, $a0, %pc_lo12(.L.str.123)
	lu12i.w	$a0, 1
	ori	$a0, $a0, 584
	add.d	$a0, $sp, $a0
	lu12i.w	$a1, 1
	ori	$a1, $a1, 552
	add.d	$a1, $sp, $a1
	pcaddu18i	$ra, %call36(_ZL19checkVectorFunctionIldEvSt8functionIFT_PT0_S3_jEES5_PKc)
	jirl	$ra, $ra, 0
.Ltmp1846:                              # EH_LABEL
# %bb.618:
	lu12i.w	$a0, 1
	ori	$a0, $a0, 568
	add.d	$a0, $sp, $a0
	ld.d	$a3, $a0, 0
	beqz	$a3, .LBB0_620
# %bb.619:
.Ltmp1854:                              # EH_LABEL
	lu12i.w	$a0, 1
	ori	$a0, $a0, 552
	add.d	$a0, $sp, $a0
	lu12i.w	$a1, 1
	ori	$a1, $a1, 552
	add.d	$a1, $sp, $a1
	ori	$a2, $zero, 3
	jirl	$ra, $a3, 0
.Ltmp1855:                              # EH_LABEL
.LBB0_620:                              # %_ZNSt14_Function_baseD2Ev.exit494
	lu12i.w	$a0, 1
	ori	$a0, $a0, 600
	add.d	$a0, $sp, $a0
	ld.d	$a3, $a0, 0
	beqz	$a3, .LBB0_622
# %bb.621:
.Ltmp1857:                              # EH_LABEL
	lu12i.w	$a0, 1
	ori	$a0, $a0, 584
	add.d	$a0, $sp, $a0
	lu12i.w	$a1, 1
	ori	$a1, $a1, 584
	add.d	$a1, $sp, $a1
	ori	$a2, $zero, 3
	jirl	$ra, $a3, 0
.Ltmp1858:                              # EH_LABEL
.LBB0_622:                              # %_ZNSt14_Function_baseD2Ev.exit496
	vld	$vr0, $sp, 16                   # 16-byte Folded Reload
	lu12i.w	$a0, 1
	ori	$a0, $a0, 520
	add.d	$a0, $sp, $a0
	vst	$vr0, $a0, 0
	pcalau12i	$a0, %pc_hi20(_ZNSt17_Function_handlerIFlPdS0_jEZ4mainE5$_248E9_M_invokeERKSt9_Any_dataOS0_S7_Oj)
	addi.d	$a0, $a0, %pc_lo12(_ZNSt17_Function_handlerIFlPdS0_jEZ4mainE5$_248E9_M_invokeERKSt9_Any_dataOS0_S7_Oj)
	lu12i.w	$a1, 1
	ori	$a1, $a1, 544
	add.d	$a1, $sp, $a1
	st.d	$a0, $a1, 0
	pcalau12i	$a0, %pc_hi20(_ZNSt17_Function_handlerIFlPdS0_jEZ4mainE5$_248E10_M_managerERSt9_Any_dataRKS4_St18_Manager_operation)
	addi.d	$a0, $a0, %pc_lo12(_ZNSt17_Function_handlerIFlPdS0_jEZ4mainE5$_248E10_M_managerERSt9_Any_dataRKS4_St18_Manager_operation)
	lu12i.w	$a1, 1
	ori	$a1, $a1, 536
	add.d	$a1, $sp, $a1
	st.d	$a0, $a1, 0
	lu12i.w	$a0, 1
	ori	$a0, $a0, 488
	add.d	$a0, $sp, $a0
	vst	$vr0, $a0, 0
	pcalau12i	$a0, %pc_hi20(_ZNSt17_Function_handlerIFlPdS0_jEZ4mainE5$_249E9_M_invokeERKSt9_Any_dataOS0_S7_Oj)
	addi.d	$a0, $a0, %pc_lo12(_ZNSt17_Function_handlerIFlPdS0_jEZ4mainE5$_249E9_M_invokeERKSt9_Any_dataOS0_S7_Oj)
	lu12i.w	$a1, 1
	ori	$a1, $a1, 512
	add.d	$a1, $sp, $a1
	st.d	$a0, $a1, 0
	pcalau12i	$a0, %pc_hi20(_ZNSt17_Function_handlerIFlPdS0_jEZ4mainE5$_249E10_M_managerERSt9_Any_dataRKS4_St18_Manager_operation)
	addi.d	$a0, $a0, %pc_lo12(_ZNSt17_Function_handlerIFlPdS0_jEZ4mainE5$_249E10_M_managerERSt9_Any_dataRKS4_St18_Manager_operation)
	lu12i.w	$a1, 1
	ori	$a1, $a1, 504
	add.d	$a1, $sp, $a1
	st.d	$a0, $a1, 0
.Ltmp1860:                              # EH_LABEL
	pcalau12i	$a0, %pc_hi20(.L.str.124)
	addi.d	$a2, $a0, %pc_lo12(.L.str.124)
	lu12i.w	$a0, 1
	ori	$a0, $a0, 520
	add.d	$a0, $sp, $a0
	lu12i.w	$a1, 1
	ori	$a1, $a1, 488
	add.d	$a1, $sp, $a1
	pcaddu18i	$ra, %call36(_ZL19checkVectorFunctionIldEvSt8functionIFT_PT0_S3_jEES5_PKc)
	jirl	$ra, $ra, 0
.Ltmp1861:                              # EH_LABEL
# %bb.623:
	lu12i.w	$a0, 1
	ori	$a0, $a0, 504
	add.d	$a0, $sp, $a0
	ld.d	$a3, $a0, 0
	beqz	$a3, .LBB0_625
# %bb.624:
.Ltmp1869:                              # EH_LABEL
	lu12i.w	$a0, 1
	ori	$a0, $a0, 488
	add.d	$a0, $sp, $a0
	lu12i.w	$a1, 1
	ori	$a1, $a1, 488
	add.d	$a1, $sp, $a1
	ori	$a2, $zero, 3
	jirl	$ra, $a3, 0
.Ltmp1870:                              # EH_LABEL
.LBB0_625:                              # %_ZNSt14_Function_baseD2Ev.exit498
	lu12i.w	$a0, 1
	ori	$a0, $a0, 536
	add.d	$a0, $sp, $a0
	ld.d	$a3, $a0, 0
	beqz	$a3, .LBB0_627
# %bb.626:
.Ltmp1872:                              # EH_LABEL
	lu12i.w	$a0, 1
	ori	$a0, $a0, 520
	add.d	$a0, $sp, $a0
	lu12i.w	$a1, 1
	ori	$a1, $a1, 520
	add.d	$a1, $sp, $a1
	ori	$a2, $zero, 3
	jirl	$ra, $a3, 0
.Ltmp1873:                              # EH_LABEL
.LBB0_627:                              # %_ZNSt14_Function_baseD2Ev.exit500
	vld	$vr0, $sp, 16                   # 16-byte Folded Reload
	lu12i.w	$a0, 1
	ori	$a0, $a0, 456
	add.d	$a0, $sp, $a0
	vst	$vr0, $a0, 0
	pcalau12i	$a0, %pc_hi20(_ZNSt17_Function_handlerIFlPdS0_jEZ4mainE5$_250E9_M_invokeERKSt9_Any_dataOS0_S7_Oj)
	addi.d	$a0, $a0, %pc_lo12(_ZNSt17_Function_handlerIFlPdS0_jEZ4mainE5$_250E9_M_invokeERKSt9_Any_dataOS0_S7_Oj)
	lu12i.w	$a1, 1
	ori	$a1, $a1, 480
	add.d	$a1, $sp, $a1
	st.d	$a0, $a1, 0
	pcalau12i	$a0, %pc_hi20(_ZNSt17_Function_handlerIFlPdS0_jEZ4mainE5$_250E10_M_managerERSt9_Any_dataRKS4_St18_Manager_operation)
	addi.d	$a0, $a0, %pc_lo12(_ZNSt17_Function_handlerIFlPdS0_jEZ4mainE5$_250E10_M_managerERSt9_Any_dataRKS4_St18_Manager_operation)
	lu12i.w	$a1, 1
	ori	$a1, $a1, 472
	add.d	$a1, $sp, $a1
	st.d	$a0, $a1, 0
	lu12i.w	$a0, 1
	ori	$a0, $a0, 424
	add.d	$a0, $sp, $a0
	vst	$vr0, $a0, 0
	pcalau12i	$a0, %pc_hi20(_ZNSt17_Function_handlerIFlPdS0_jEZ4mainE5$_251E9_M_invokeERKSt9_Any_dataOS0_S7_Oj)
	addi.d	$a0, $a0, %pc_lo12(_ZNSt17_Function_handlerIFlPdS0_jEZ4mainE5$_251E9_M_invokeERKSt9_Any_dataOS0_S7_Oj)
	lu12i.w	$a1, 1
	ori	$a1, $a1, 448
	add.d	$a1, $sp, $a1
	st.d	$a0, $a1, 0
	pcalau12i	$a0, %pc_hi20(_ZNSt17_Function_handlerIFlPdS0_jEZ4mainE5$_251E10_M_managerERSt9_Any_dataRKS4_St18_Manager_operation)
	addi.d	$a0, $a0, %pc_lo12(_ZNSt17_Function_handlerIFlPdS0_jEZ4mainE5$_251E10_M_managerERSt9_Any_dataRKS4_St18_Manager_operation)
	lu12i.w	$a1, 1
	ori	$a1, $a1, 440
	add.d	$a1, $sp, $a1
	st.d	$a0, $a1, 0
.Ltmp1875:                              # EH_LABEL
	pcalau12i	$a0, %pc_hi20(.L.str.125)
	addi.d	$a2, $a0, %pc_lo12(.L.str.125)
	lu12i.w	$a0, 1
	ori	$a0, $a0, 456
	add.d	$a0, $sp, $a0
	lu12i.w	$a1, 1
	ori	$a1, $a1, 424
	add.d	$a1, $sp, $a1
	pcaddu18i	$ra, %call36(_ZL19checkVectorFunctionIldEvSt8functionIFT_PT0_S3_jEES5_PKc)
	jirl	$ra, $ra, 0
.Ltmp1876:                              # EH_LABEL
# %bb.628:
	lu12i.w	$a0, 1
	ori	$a0, $a0, 440
	add.d	$a0, $sp, $a0
	ld.d	$a3, $a0, 0
	beqz	$a3, .LBB0_630
# %bb.629:
.Ltmp1884:                              # EH_LABEL
	lu12i.w	$a0, 1
	ori	$a0, $a0, 424
	add.d	$a0, $sp, $a0
	lu12i.w	$a1, 1
	ori	$a1, $a1, 424
	add.d	$a1, $sp, $a1
	ori	$a2, $zero, 3
	jirl	$ra, $a3, 0
.Ltmp1885:                              # EH_LABEL
.LBB0_630:                              # %_ZNSt14_Function_baseD2Ev.exit502
	lu12i.w	$a0, 1
	ori	$a0, $a0, 472
	add.d	$a0, $sp, $a0
	ld.d	$a3, $a0, 0
	beqz	$a3, .LBB0_632
# %bb.631:
.Ltmp1887:                              # EH_LABEL
	lu12i.w	$a0, 1
	ori	$a0, $a0, 456
	add.d	$a0, $sp, $a0
	lu12i.w	$a1, 1
	ori	$a1, $a1, 456
	add.d	$a1, $sp, $a1
	ori	$a2, $zero, 3
	jirl	$ra, $a3, 0
.Ltmp1888:                              # EH_LABEL
.LBB0_632:                              # %_ZNSt14_Function_baseD2Ev.exit504
	vld	$vr0, $sp, 16                   # 16-byte Folded Reload
	lu12i.w	$a0, 1
	ori	$a0, $a0, 392
	add.d	$a0, $sp, $a0
	vst	$vr0, $a0, 0
	pcalau12i	$a0, %pc_hi20(_ZNSt17_Function_handlerIFlPdS0_jEZ4mainE5$_252E9_M_invokeERKSt9_Any_dataOS0_S7_Oj)
	addi.d	$a0, $a0, %pc_lo12(_ZNSt17_Function_handlerIFlPdS0_jEZ4mainE5$_252E9_M_invokeERKSt9_Any_dataOS0_S7_Oj)
	lu12i.w	$a1, 1
	ori	$a1, $a1, 416
	add.d	$a1, $sp, $a1
	st.d	$a0, $a1, 0
	pcalau12i	$a0, %pc_hi20(_ZNSt17_Function_handlerIFlPdS0_jEZ4mainE5$_252E10_M_managerERSt9_Any_dataRKS4_St18_Manager_operation)
	addi.d	$a0, $a0, %pc_lo12(_ZNSt17_Function_handlerIFlPdS0_jEZ4mainE5$_252E10_M_managerERSt9_Any_dataRKS4_St18_Manager_operation)
	lu12i.w	$a1, 1
	ori	$a1, $a1, 408
	add.d	$a1, $sp, $a1
	st.d	$a0, $a1, 0
	lu12i.w	$a0, 1
	ori	$a0, $a0, 360
	add.d	$a0, $sp, $a0
	vst	$vr0, $a0, 0
	pcalau12i	$a0, %pc_hi20(_ZNSt17_Function_handlerIFlPdS0_jEZ4mainE5$_253E9_M_invokeERKSt9_Any_dataOS0_S7_Oj)
	addi.d	$a0, $a0, %pc_lo12(_ZNSt17_Function_handlerIFlPdS0_jEZ4mainE5$_253E9_M_invokeERKSt9_Any_dataOS0_S7_Oj)
	lu12i.w	$a1, 1
	ori	$a1, $a1, 384
	add.d	$a1, $sp, $a1
	st.d	$a0, $a1, 0
	pcalau12i	$a0, %pc_hi20(_ZNSt17_Function_handlerIFlPdS0_jEZ4mainE5$_253E10_M_managerERSt9_Any_dataRKS4_St18_Manager_operation)
	addi.d	$a0, $a0, %pc_lo12(_ZNSt17_Function_handlerIFlPdS0_jEZ4mainE5$_253E10_M_managerERSt9_Any_dataRKS4_St18_Manager_operation)
	lu12i.w	$a1, 1
	ori	$a1, $a1, 376
	add.d	$a1, $sp, $a1
	st.d	$a0, $a1, 0
.Ltmp1890:                              # EH_LABEL
	pcalau12i	$a0, %pc_hi20(.L.str.126)
	addi.d	$a2, $a0, %pc_lo12(.L.str.126)
	lu12i.w	$a0, 1
	ori	$a0, $a0, 392
	add.d	$a0, $sp, $a0
	lu12i.w	$a1, 1
	ori	$a1, $a1, 360
	add.d	$a1, $sp, $a1
	pcaddu18i	$ra, %call36(_ZL19checkVectorFunctionIldEvSt8functionIFT_PT0_S3_jEES5_PKc)
	jirl	$ra, $ra, 0
.Ltmp1891:                              # EH_LABEL
# %bb.633:
	lu12i.w	$a0, 1
	ori	$a0, $a0, 376
	add.d	$a0, $sp, $a0
	ld.d	$a3, $a0, 0
	beqz	$a3, .LBB0_635
# %bb.634:
.Ltmp1899:                              # EH_LABEL
	lu12i.w	$a0, 1
	ori	$a0, $a0, 360
	add.d	$a0, $sp, $a0
	lu12i.w	$a1, 1
	ori	$a1, $a1, 360
	add.d	$a1, $sp, $a1
	ori	$a2, $zero, 3
	jirl	$ra, $a3, 0
.Ltmp1900:                              # EH_LABEL
.LBB0_635:                              # %_ZNSt14_Function_baseD2Ev.exit506
	lu12i.w	$a0, 1
	ori	$a0, $a0, 408
	add.d	$a0, $sp, $a0
	ld.d	$a3, $a0, 0
	beqz	$a3, .LBB0_637
# %bb.636:
.Ltmp1902:                              # EH_LABEL
	lu12i.w	$a0, 1
	ori	$a0, $a0, 392
	add.d	$a0, $sp, $a0
	lu12i.w	$a1, 1
	ori	$a1, $a1, 392
	add.d	$a1, $sp, $a1
	ori	$a2, $zero, 3
	jirl	$ra, $a3, 0
.Ltmp1903:                              # EH_LABEL
.LBB0_637:                              # %_ZNSt14_Function_baseD2Ev.exit508
	vld	$vr0, $sp, 16                   # 16-byte Folded Reload
	lu12i.w	$a0, 1
	ori	$a0, $a0, 328
	add.d	$a0, $sp, $a0
	vst	$vr0, $a0, 0
	pcalau12i	$a0, %pc_hi20(_ZNSt17_Function_handlerIFlPdS0_jEZ4mainE5$_254E9_M_invokeERKSt9_Any_dataOS0_S7_Oj)
	addi.d	$a0, $a0, %pc_lo12(_ZNSt17_Function_handlerIFlPdS0_jEZ4mainE5$_254E9_M_invokeERKSt9_Any_dataOS0_S7_Oj)
	lu12i.w	$a1, 1
	ori	$a1, $a1, 352
	add.d	$a1, $sp, $a1
	st.d	$a0, $a1, 0
	pcalau12i	$a0, %pc_hi20(_ZNSt17_Function_handlerIFlPdS0_jEZ4mainE5$_254E10_M_managerERSt9_Any_dataRKS4_St18_Manager_operation)
	addi.d	$a0, $a0, %pc_lo12(_ZNSt17_Function_handlerIFlPdS0_jEZ4mainE5$_254E10_M_managerERSt9_Any_dataRKS4_St18_Manager_operation)
	lu12i.w	$a1, 1
	ori	$a1, $a1, 344
	add.d	$a1, $sp, $a1
	st.d	$a0, $a1, 0
	lu12i.w	$a0, 1
	ori	$a0, $a0, 296
	add.d	$a0, $sp, $a0
	vst	$vr0, $a0, 0
	pcalau12i	$a0, %pc_hi20(_ZNSt17_Function_handlerIFlPdS0_jEZ4mainE5$_255E9_M_invokeERKSt9_Any_dataOS0_S7_Oj)
	addi.d	$a0, $a0, %pc_lo12(_ZNSt17_Function_handlerIFlPdS0_jEZ4mainE5$_255E9_M_invokeERKSt9_Any_dataOS0_S7_Oj)
	lu12i.w	$a1, 1
	ori	$a1, $a1, 320
	add.d	$a1, $sp, $a1
	st.d	$a0, $a1, 0
	pcalau12i	$a0, %pc_hi20(_ZNSt17_Function_handlerIFlPdS0_jEZ4mainE5$_255E10_M_managerERSt9_Any_dataRKS4_St18_Manager_operation)
	addi.d	$a0, $a0, %pc_lo12(_ZNSt17_Function_handlerIFlPdS0_jEZ4mainE5$_255E10_M_managerERSt9_Any_dataRKS4_St18_Manager_operation)
	lu12i.w	$a1, 1
	ori	$a1, $a1, 312
	add.d	$a1, $sp, $a1
	st.d	$a0, $a1, 0
.Ltmp1905:                              # EH_LABEL
	pcalau12i	$a0, %pc_hi20(.L.str.127)
	addi.d	$a2, $a0, %pc_lo12(.L.str.127)
	lu12i.w	$a0, 1
	ori	$a0, $a0, 328
	add.d	$a0, $sp, $a0
	lu12i.w	$a1, 1
	ori	$a1, $a1, 296
	add.d	$a1, $sp, $a1
	pcaddu18i	$ra, %call36(_ZL19checkVectorFunctionIldEvSt8functionIFT_PT0_S3_jEES5_PKc)
	jirl	$ra, $ra, 0
.Ltmp1906:                              # EH_LABEL
# %bb.638:
	lu12i.w	$a0, 1
	ori	$a0, $a0, 312
	add.d	$a0, $sp, $a0
	ld.d	$a3, $a0, 0
	beqz	$a3, .LBB0_640
# %bb.639:
.Ltmp1914:                              # EH_LABEL
	lu12i.w	$a0, 1
	ori	$a0, $a0, 296
	add.d	$a0, $sp, $a0
	lu12i.w	$a1, 1
	ori	$a1, $a1, 296
	add.d	$a1, $sp, $a1
	ori	$a2, $zero, 3
	jirl	$ra, $a3, 0
.Ltmp1915:                              # EH_LABEL
.LBB0_640:                              # %_ZNSt14_Function_baseD2Ev.exit510
	lu12i.w	$a0, 1
	ori	$a0, $a0, 344
	add.d	$a0, $sp, $a0
	ld.d	$a3, $a0, 0
	beqz	$a3, .LBB0_642
# %bb.641:
.Ltmp1917:                              # EH_LABEL
	lu12i.w	$a0, 1
	ori	$a0, $a0, 328
	add.d	$a0, $sp, $a0
	lu12i.w	$a1, 1
	ori	$a1, $a1, 328
	add.d	$a1, $sp, $a1
	ori	$a2, $zero, 3
	jirl	$ra, $a3, 0
.Ltmp1918:                              # EH_LABEL
.LBB0_642:                              # %_ZNSt14_Function_baseD2Ev.exit512
	vld	$vr0, $sp, 16                   # 16-byte Folded Reload
	lu12i.w	$a0, 1
	ori	$a0, $a0, 264
	add.d	$a0, $sp, $a0
	vst	$vr0, $a0, 0
	pcalau12i	$a0, %pc_hi20(_ZNSt17_Function_handlerIFlPdS0_jEZ4mainE5$_256E9_M_invokeERKSt9_Any_dataOS0_S7_Oj)
	addi.d	$a0, $a0, %pc_lo12(_ZNSt17_Function_handlerIFlPdS0_jEZ4mainE5$_256E9_M_invokeERKSt9_Any_dataOS0_S7_Oj)
	lu12i.w	$a1, 1
	ori	$a1, $a1, 288
	add.d	$a1, $sp, $a1
	st.d	$a0, $a1, 0
	pcalau12i	$a0, %pc_hi20(_ZNSt17_Function_handlerIFlPdS0_jEZ4mainE5$_256E10_M_managerERSt9_Any_dataRKS4_St18_Manager_operation)
	addi.d	$a0, $a0, %pc_lo12(_ZNSt17_Function_handlerIFlPdS0_jEZ4mainE5$_256E10_M_managerERSt9_Any_dataRKS4_St18_Manager_operation)
	lu12i.w	$a1, 1
	ori	$a1, $a1, 280
	add.d	$a1, $sp, $a1
	st.d	$a0, $a1, 0
	lu12i.w	$a0, 1
	ori	$a0, $a0, 232
	add.d	$a0, $sp, $a0
	vst	$vr0, $a0, 0
	pcalau12i	$a0, %pc_hi20(_ZNSt17_Function_handlerIFlPdS0_jEZ4mainE5$_257E9_M_invokeERKSt9_Any_dataOS0_S7_Oj)
	addi.d	$a0, $a0, %pc_lo12(_ZNSt17_Function_handlerIFlPdS0_jEZ4mainE5$_257E9_M_invokeERKSt9_Any_dataOS0_S7_Oj)
	lu12i.w	$a1, 1
	ori	$a1, $a1, 256
	add.d	$a1, $sp, $a1
	st.d	$a0, $a1, 0
	pcalau12i	$a0, %pc_hi20(_ZNSt17_Function_handlerIFlPdS0_jEZ4mainE5$_257E10_M_managerERSt9_Any_dataRKS4_St18_Manager_operation)
	addi.d	$a0, $a0, %pc_lo12(_ZNSt17_Function_handlerIFlPdS0_jEZ4mainE5$_257E10_M_managerERSt9_Any_dataRKS4_St18_Manager_operation)
	lu12i.w	$a1, 1
	ori	$a1, $a1, 248
	add.d	$a1, $sp, $a1
	st.d	$a0, $a1, 0
.Ltmp1920:                              # EH_LABEL
	pcalau12i	$a0, %pc_hi20(.L.str.128)
	addi.d	$a2, $a0, %pc_lo12(.L.str.128)
	lu12i.w	$a0, 1
	ori	$a0, $a0, 264
	add.d	$a0, $sp, $a0
	lu12i.w	$a1, 1
	ori	$a1, $a1, 232
	add.d	$a1, $sp, $a1
	pcaddu18i	$ra, %call36(_ZL19checkVectorFunctionIldEvSt8functionIFT_PT0_S3_jEES5_PKc)
	jirl	$ra, $ra, 0
.Ltmp1921:                              # EH_LABEL
# %bb.643:
	lu12i.w	$a0, 1
	ori	$a0, $a0, 248
	add.d	$a0, $sp, $a0
	ld.d	$a3, $a0, 0
	beqz	$a3, .LBB0_645
# %bb.644:
.Ltmp1929:                              # EH_LABEL
	lu12i.w	$a0, 1
	ori	$a0, $a0, 232
	add.d	$a0, $sp, $a0
	lu12i.w	$a1, 1
	ori	$a1, $a1, 232
	add.d	$a1, $sp, $a1
	ori	$a2, $zero, 3
	jirl	$ra, $a3, 0
.Ltmp1930:                              # EH_LABEL
.LBB0_645:                              # %_ZNSt14_Function_baseD2Ev.exit514
	lu12i.w	$a0, 1
	ori	$a0, $a0, 280
	add.d	$a0, $sp, $a0
	ld.d	$a3, $a0, 0
	beqz	$a3, .LBB0_647
# %bb.646:
.Ltmp1932:                              # EH_LABEL
	lu12i.w	$a0, 1
	ori	$a0, $a0, 264
	add.d	$a0, $sp, $a0
	lu12i.w	$a1, 1
	ori	$a1, $a1, 264
	add.d	$a1, $sp, $a1
	ori	$a2, $zero, 3
	jirl	$ra, $a3, 0
.Ltmp1933:                              # EH_LABEL
.LBB0_647:                              # %_ZNSt14_Function_baseD2Ev.exit516
	vld	$vr0, $sp, 16                   # 16-byte Folded Reload
	lu12i.w	$a0, 1
	ori	$a0, $a0, 200
	add.d	$a0, $sp, $a0
	vst	$vr0, $a0, 0
	pcalau12i	$a0, %pc_hi20(_ZNSt17_Function_handlerIFlPdS0_jEZ4mainE5$_258E9_M_invokeERKSt9_Any_dataOS0_S7_Oj)
	addi.d	$a0, $a0, %pc_lo12(_ZNSt17_Function_handlerIFlPdS0_jEZ4mainE5$_258E9_M_invokeERKSt9_Any_dataOS0_S7_Oj)
	lu12i.w	$a1, 1
	ori	$a1, $a1, 224
	add.d	$a1, $sp, $a1
	st.d	$a0, $a1, 0
	pcalau12i	$a0, %pc_hi20(_ZNSt17_Function_handlerIFlPdS0_jEZ4mainE5$_258E10_M_managerERSt9_Any_dataRKS4_St18_Manager_operation)
	addi.d	$a0, $a0, %pc_lo12(_ZNSt17_Function_handlerIFlPdS0_jEZ4mainE5$_258E10_M_managerERSt9_Any_dataRKS4_St18_Manager_operation)
	lu12i.w	$a1, 1
	ori	$a1, $a1, 216
	add.d	$a1, $sp, $a1
	st.d	$a0, $a1, 0
	lu12i.w	$a0, 1
	ori	$a0, $a0, 168
	add.d	$a0, $sp, $a0
	vst	$vr0, $a0, 0
	pcalau12i	$a0, %pc_hi20(_ZNSt17_Function_handlerIFlPdS0_jEZ4mainE5$_259E9_M_invokeERKSt9_Any_dataOS0_S7_Oj)
	addi.d	$a0, $a0, %pc_lo12(_ZNSt17_Function_handlerIFlPdS0_jEZ4mainE5$_259E9_M_invokeERKSt9_Any_dataOS0_S7_Oj)
	lu12i.w	$a1, 1
	ori	$a1, $a1, 192
	add.d	$a1, $sp, $a1
	st.d	$a0, $a1, 0
	pcalau12i	$a0, %pc_hi20(_ZNSt17_Function_handlerIFlPdS0_jEZ4mainE5$_259E10_M_managerERSt9_Any_dataRKS4_St18_Manager_operation)
	addi.d	$a0, $a0, %pc_lo12(_ZNSt17_Function_handlerIFlPdS0_jEZ4mainE5$_259E10_M_managerERSt9_Any_dataRKS4_St18_Manager_operation)
	lu12i.w	$a1, 1
	ori	$a1, $a1, 184
	add.d	$a1, $sp, $a1
	st.d	$a0, $a1, 0
.Ltmp1935:                              # EH_LABEL
	pcalau12i	$a0, %pc_hi20(.L.str.129)
	addi.d	$a2, $a0, %pc_lo12(.L.str.129)
	lu12i.w	$a0, 1
	ori	$a0, $a0, 200
	add.d	$a0, $sp, $a0
	lu12i.w	$a1, 1
	ori	$a1, $a1, 168
	add.d	$a1, $sp, $a1
	pcaddu18i	$ra, %call36(_ZL19checkVectorFunctionIldEvSt8functionIFT_PT0_S3_jEES5_PKc)
	jirl	$ra, $ra, 0
.Ltmp1936:                              # EH_LABEL
# %bb.648:
	lu12i.w	$a0, 1
	ori	$a0, $a0, 184
	add.d	$a0, $sp, $a0
	ld.d	$a3, $a0, 0
	beqz	$a3, .LBB0_650
# %bb.649:
.Ltmp1944:                              # EH_LABEL
	lu12i.w	$a0, 1
	ori	$a0, $a0, 168
	add.d	$a0, $sp, $a0
	lu12i.w	$a1, 1
	ori	$a1, $a1, 168
	add.d	$a1, $sp, $a1
	ori	$a2, $zero, 3
	jirl	$ra, $a3, 0
.Ltmp1945:                              # EH_LABEL
.LBB0_650:                              # %_ZNSt14_Function_baseD2Ev.exit518
	lu12i.w	$a0, 1
	ori	$a0, $a0, 216
	add.d	$a0, $sp, $a0
	ld.d	$a3, $a0, 0
	beqz	$a3, .LBB0_652
# %bb.651:
.Ltmp1947:                              # EH_LABEL
	lu12i.w	$a0, 1
	ori	$a0, $a0, 200
	add.d	$a0, $sp, $a0
	lu12i.w	$a1, 1
	ori	$a1, $a1, 200
	add.d	$a1, $sp, $a1
	ori	$a2, $zero, 3
	jirl	$ra, $a3, 0
.Ltmp1948:                              # EH_LABEL
.LBB0_652:                              # %_ZNSt14_Function_baseD2Ev.exit520
	vld	$vr0, $sp, 16                   # 16-byte Folded Reload
	lu12i.w	$a0, 1
	ori	$a0, $a0, 136
	add.d	$a0, $sp, $a0
	vst	$vr0, $a0, 0
	pcalau12i	$a0, %pc_hi20(_ZNSt17_Function_handlerIFlPdS0_jEZ4mainE5$_260E9_M_invokeERKSt9_Any_dataOS0_S7_Oj)
	addi.d	$a0, $a0, %pc_lo12(_ZNSt17_Function_handlerIFlPdS0_jEZ4mainE5$_260E9_M_invokeERKSt9_Any_dataOS0_S7_Oj)
	lu12i.w	$a1, 1
	ori	$a1, $a1, 160
	add.d	$a1, $sp, $a1
	st.d	$a0, $a1, 0
	pcalau12i	$a0, %pc_hi20(_ZNSt17_Function_handlerIFlPdS0_jEZ4mainE5$_260E10_M_managerERSt9_Any_dataRKS4_St18_Manager_operation)
	addi.d	$a0, $a0, %pc_lo12(_ZNSt17_Function_handlerIFlPdS0_jEZ4mainE5$_260E10_M_managerERSt9_Any_dataRKS4_St18_Manager_operation)
	lu12i.w	$a1, 1
	ori	$a1, $a1, 152
	add.d	$a1, $sp, $a1
	st.d	$a0, $a1, 0
	lu12i.w	$a0, 1
	ori	$a0, $a0, 104
	add.d	$a0, $sp, $a0
	vst	$vr0, $a0, 0
	pcalau12i	$a0, %pc_hi20(_ZNSt17_Function_handlerIFlPdS0_jEZ4mainE5$_261E9_M_invokeERKSt9_Any_dataOS0_S7_Oj)
	addi.d	$a0, $a0, %pc_lo12(_ZNSt17_Function_handlerIFlPdS0_jEZ4mainE5$_261E9_M_invokeERKSt9_Any_dataOS0_S7_Oj)
	lu12i.w	$a1, 1
	ori	$a1, $a1, 128
	add.d	$a1, $sp, $a1
	st.d	$a0, $a1, 0
	pcalau12i	$a0, %pc_hi20(_ZNSt17_Function_handlerIFlPdS0_jEZ4mainE5$_261E10_M_managerERSt9_Any_dataRKS4_St18_Manager_operation)
	addi.d	$a0, $a0, %pc_lo12(_ZNSt17_Function_handlerIFlPdS0_jEZ4mainE5$_261E10_M_managerERSt9_Any_dataRKS4_St18_Manager_operation)
	lu12i.w	$a1, 1
	ori	$a1, $a1, 120
	add.d	$a1, $sp, $a1
	st.d	$a0, $a1, 0
.Ltmp1950:                              # EH_LABEL
	pcalau12i	$a0, %pc_hi20(.L.str.130)
	addi.d	$a2, $a0, %pc_lo12(.L.str.130)
	lu12i.w	$a0, 1
	ori	$a0, $a0, 136
	add.d	$a0, $sp, $a0
	lu12i.w	$a1, 1
	ori	$a1, $a1, 104
	add.d	$a1, $sp, $a1
	pcaddu18i	$ra, %call36(_ZL19checkVectorFunctionIldEvSt8functionIFT_PT0_S3_jEES5_PKc)
	jirl	$ra, $ra, 0
.Ltmp1951:                              # EH_LABEL
# %bb.653:
	lu12i.w	$a0, 1
	ori	$a0, $a0, 120
	add.d	$a0, $sp, $a0
	ld.d	$a3, $a0, 0
	beqz	$a3, .LBB0_655
# %bb.654:
.Ltmp1959:                              # EH_LABEL
	lu12i.w	$a0, 1
	ori	$a0, $a0, 104
	add.d	$a0, $sp, $a0
	lu12i.w	$a1, 1
	ori	$a1, $a1, 104
	add.d	$a1, $sp, $a1
	ori	$a2, $zero, 3
	jirl	$ra, $a3, 0
.Ltmp1960:                              # EH_LABEL
.LBB0_655:                              # %_ZNSt14_Function_baseD2Ev.exit522
	lu12i.w	$a0, 1
	ori	$a0, $a0, 152
	add.d	$a0, $sp, $a0
	ld.d	$a3, $a0, 0
	beqz	$a3, .LBB0_657
# %bb.656:
.Ltmp1962:                              # EH_LABEL
	lu12i.w	$a0, 1
	ori	$a0, $a0, 136
	add.d	$a0, $sp, $a0
	lu12i.w	$a1, 1
	ori	$a1, $a1, 136
	add.d	$a1, $sp, $a1
	ori	$a2, $zero, 3
	jirl	$ra, $a3, 0
.Ltmp1963:                              # EH_LABEL
.LBB0_657:                              # %_ZNSt14_Function_baseD2Ev.exit524
	vld	$vr0, $sp, 16                   # 16-byte Folded Reload
	lu12i.w	$a0, 1
	ori	$a0, $a0, 72
	add.d	$a0, $sp, $a0
	vst	$vr0, $a0, 0
	pcalau12i	$a0, %pc_hi20(_ZNSt17_Function_handlerIFlPdS0_jEZ4mainE5$_262E9_M_invokeERKSt9_Any_dataOS0_S7_Oj)
	addi.d	$a0, $a0, %pc_lo12(_ZNSt17_Function_handlerIFlPdS0_jEZ4mainE5$_262E9_M_invokeERKSt9_Any_dataOS0_S7_Oj)
	lu12i.w	$a1, 1
	ori	$a1, $a1, 96
	add.d	$a1, $sp, $a1
	st.d	$a0, $a1, 0
	pcalau12i	$a0, %pc_hi20(_ZNSt17_Function_handlerIFlPdS0_jEZ4mainE5$_262E10_M_managerERSt9_Any_dataRKS4_St18_Manager_operation)
	addi.d	$a0, $a0, %pc_lo12(_ZNSt17_Function_handlerIFlPdS0_jEZ4mainE5$_262E10_M_managerERSt9_Any_dataRKS4_St18_Manager_operation)
	lu12i.w	$a1, 1
	ori	$a1, $a1, 88
	add.d	$a1, $sp, $a1
	st.d	$a0, $a1, 0
	lu12i.w	$a0, 1
	ori	$a0, $a0, 40
	add.d	$a0, $sp, $a0
	vst	$vr0, $a0, 0
	pcalau12i	$a0, %pc_hi20(_ZNSt17_Function_handlerIFlPdS0_jEZ4mainE5$_263E9_M_invokeERKSt9_Any_dataOS0_S7_Oj)
	addi.d	$a0, $a0, %pc_lo12(_ZNSt17_Function_handlerIFlPdS0_jEZ4mainE5$_263E9_M_invokeERKSt9_Any_dataOS0_S7_Oj)
	lu12i.w	$a1, 1
	ori	$a1, $a1, 64
	add.d	$a1, $sp, $a1
	st.d	$a0, $a1, 0
	pcalau12i	$a0, %pc_hi20(_ZNSt17_Function_handlerIFlPdS0_jEZ4mainE5$_263E10_M_managerERSt9_Any_dataRKS4_St18_Manager_operation)
	addi.d	$a0, $a0, %pc_lo12(_ZNSt17_Function_handlerIFlPdS0_jEZ4mainE5$_263E10_M_managerERSt9_Any_dataRKS4_St18_Manager_operation)
	lu12i.w	$a1, 1
	ori	$a1, $a1, 56
	add.d	$a1, $sp, $a1
	st.d	$a0, $a1, 0
.Ltmp1965:                              # EH_LABEL
	pcalau12i	$a0, %pc_hi20(.L.str.131)
	addi.d	$a2, $a0, %pc_lo12(.L.str.131)
	lu12i.w	$a0, 1
	ori	$a0, $a0, 72
	add.d	$a0, $sp, $a0
	lu12i.w	$a1, 1
	ori	$a1, $a1, 40
	add.d	$a1, $sp, $a1
	pcaddu18i	$ra, %call36(_ZL19checkVectorFunctionIldEvSt8functionIFT_PT0_S3_jEES5_PKc)
	jirl	$ra, $ra, 0
.Ltmp1966:                              # EH_LABEL
# %bb.658:
	lu12i.w	$a0, 1
	ori	$a0, $a0, 56
	add.d	$a0, $sp, $a0
	ld.d	$a3, $a0, 0
	beqz	$a3, .LBB0_660
# %bb.659:
.Ltmp1974:                              # EH_LABEL
	lu12i.w	$a0, 1
	ori	$a0, $a0, 40
	add.d	$a0, $sp, $a0
	lu12i.w	$a1, 1
	ori	$a1, $a1, 40
	add.d	$a1, $sp, $a1
	ori	$a2, $zero, 3
	jirl	$ra, $a3, 0
.Ltmp1975:                              # EH_LABEL
.LBB0_660:                              # %_ZNSt14_Function_baseD2Ev.exit526
	lu12i.w	$a0, 1
	ori	$a0, $a0, 88
	add.d	$a0, $sp, $a0
	ld.d	$a3, $a0, 0
	beqz	$a3, .LBB0_662
# %bb.661:
.Ltmp1977:                              # EH_LABEL
	lu12i.w	$a0, 1
	ori	$a0, $a0, 72
	add.d	$a0, $sp, $a0
	lu12i.w	$a1, 1
	ori	$a1, $a1, 72
	add.d	$a1, $sp, $a1
	ori	$a2, $zero, 3
	jirl	$ra, $a3, 0
.Ltmp1978:                              # EH_LABEL
.LBB0_662:                              # %_ZNSt14_Function_baseD2Ev.exit528
	vld	$vr0, $sp, 16                   # 16-byte Folded Reload
	lu12i.w	$a0, 1
	ori	$a0, $a0, 8
	add.d	$a0, $sp, $a0
	vst	$vr0, $a0, 0
	pcalau12i	$a0, %pc_hi20(_ZNSt17_Function_handlerIFjPdS0_jEZ4mainE5$_264E9_M_invokeERKSt9_Any_dataOS0_S7_Oj)
	addi.d	$a0, $a0, %pc_lo12(_ZNSt17_Function_handlerIFjPdS0_jEZ4mainE5$_264E9_M_invokeERKSt9_Any_dataOS0_S7_Oj)
	lu12i.w	$a1, 1
	ori	$a1, $a1, 32
	add.d	$a1, $sp, $a1
	st.d	$a0, $a1, 0
	pcalau12i	$a0, %pc_hi20(_ZNSt17_Function_handlerIFjPdS0_jEZ4mainE5$_264E10_M_managerERSt9_Any_dataRKS4_St18_Manager_operation)
	addi.d	$a0, $a0, %pc_lo12(_ZNSt17_Function_handlerIFjPdS0_jEZ4mainE5$_264E10_M_managerERSt9_Any_dataRKS4_St18_Manager_operation)
	lu12i.w	$a1, 1
	ori	$a1, $a1, 24
	add.d	$a1, $sp, $a1
	st.d	$a0, $a1, 0
	ori	$a0, $zero, 4072
	add.d	$a0, $sp, $a0
	vst	$vr0, $a0, 0
	pcalau12i	$a0, %pc_hi20(_ZNSt17_Function_handlerIFjPdS0_jEZ4mainE5$_265E9_M_invokeERKSt9_Any_dataOS0_S7_Oj)
	addi.d	$a0, $a0, %pc_lo12(_ZNSt17_Function_handlerIFjPdS0_jEZ4mainE5$_265E9_M_invokeERKSt9_Any_dataOS0_S7_Oj)
	lu12i.w	$a1, 1
	add.d	$a1, $sp, $a1
	st.d	$a0, $a1, 0
	pcalau12i	$a0, %pc_hi20(_ZNSt17_Function_handlerIFjPdS0_jEZ4mainE5$_265E10_M_managerERSt9_Any_dataRKS4_St18_Manager_operation)
	addi.d	$a0, $a0, %pc_lo12(_ZNSt17_Function_handlerIFjPdS0_jEZ4mainE5$_265E10_M_managerERSt9_Any_dataRKS4_St18_Manager_operation)
	ori	$a1, $zero, 4088
	add.d	$a1, $sp, $a1
	st.d	$a0, $a1, 0
.Ltmp1980:                              # EH_LABEL
	pcalau12i	$a0, %pc_hi20(.L.str.132)
	addi.d	$a2, $a0, %pc_lo12(.L.str.132)
	lu12i.w	$a0, 1
	ori	$a0, $a0, 8
	add.d	$a0, $sp, $a0
	ori	$a1, $zero, 4072
	add.d	$a1, $sp, $a1
	pcaddu18i	$ra, %call36(_ZL19checkVectorFunctionIjdEvSt8functionIFT_PT0_S3_jEES5_PKc)
	jirl	$ra, $ra, 0
.Ltmp1981:                              # EH_LABEL
# %bb.663:
	ori	$a0, $zero, 4088
	add.d	$a0, $sp, $a0
	ld.d	$a3, $a0, 0
	beqz	$a3, .LBB0_665
# %bb.664:
.Ltmp1989:                              # EH_LABEL
	ori	$a0, $zero, 4072
	add.d	$a0, $sp, $a0
	ori	$a1, $zero, 4072
	add.d	$a1, $sp, $a1
	ori	$a2, $zero, 3
	jirl	$ra, $a3, 0
.Ltmp1990:                              # EH_LABEL
.LBB0_665:                              # %_ZNSt14_Function_baseD2Ev.exit530
	lu12i.w	$a0, 1
	ori	$a0, $a0, 24
	add.d	$a0, $sp, $a0
	ld.d	$a3, $a0, 0
	beqz	$a3, .LBB0_667
# %bb.666:
.Ltmp1992:                              # EH_LABEL
	lu12i.w	$a0, 1
	ori	$a0, $a0, 8
	add.d	$a0, $sp, $a0
	lu12i.w	$a1, 1
	ori	$a1, $a1, 8
	add.d	$a1, $sp, $a1
	ori	$a2, $zero, 3
	jirl	$ra, $a3, 0
.Ltmp1993:                              # EH_LABEL
.LBB0_667:                              # %_ZNSt14_Function_baseD2Ev.exit532
	vld	$vr0, $sp, 16                   # 16-byte Folded Reload
	ori	$a0, $zero, 4040
	add.d	$a0, $sp, $a0
	vst	$vr0, $a0, 0
	pcalau12i	$a0, %pc_hi20(_ZNSt17_Function_handlerIFjPdS0_jEZ4mainE5$_266E9_M_invokeERKSt9_Any_dataOS0_S7_Oj)
	addi.d	$a0, $a0, %pc_lo12(_ZNSt17_Function_handlerIFjPdS0_jEZ4mainE5$_266E9_M_invokeERKSt9_Any_dataOS0_S7_Oj)
	ori	$a1, $zero, 4064
	add.d	$a1, $sp, $a1
	st.d	$a0, $a1, 0
	pcalau12i	$a0, %pc_hi20(_ZNSt17_Function_handlerIFjPdS0_jEZ4mainE5$_266E10_M_managerERSt9_Any_dataRKS4_St18_Manager_operation)
	addi.d	$a0, $a0, %pc_lo12(_ZNSt17_Function_handlerIFjPdS0_jEZ4mainE5$_266E10_M_managerERSt9_Any_dataRKS4_St18_Manager_operation)
	ori	$a1, $zero, 4056
	add.d	$a1, $sp, $a1
	st.d	$a0, $a1, 0
	ori	$a0, $zero, 4008
	add.d	$a0, $sp, $a0
	vst	$vr0, $a0, 0
	pcalau12i	$a0, %pc_hi20(_ZNSt17_Function_handlerIFjPdS0_jEZ4mainE5$_267E9_M_invokeERKSt9_Any_dataOS0_S7_Oj)
	addi.d	$a0, $a0, %pc_lo12(_ZNSt17_Function_handlerIFjPdS0_jEZ4mainE5$_267E9_M_invokeERKSt9_Any_dataOS0_S7_Oj)
	ori	$a1, $zero, 4032
	add.d	$a1, $sp, $a1
	st.d	$a0, $a1, 0
	pcalau12i	$a0, %pc_hi20(_ZNSt17_Function_handlerIFjPdS0_jEZ4mainE5$_267E10_M_managerERSt9_Any_dataRKS4_St18_Manager_operation)
	addi.d	$a0, $a0, %pc_lo12(_ZNSt17_Function_handlerIFjPdS0_jEZ4mainE5$_267E10_M_managerERSt9_Any_dataRKS4_St18_Manager_operation)
	ori	$a1, $zero, 4024
	add.d	$a1, $sp, $a1
	st.d	$a0, $a1, 0
.Ltmp1995:                              # EH_LABEL
	pcalau12i	$a0, %pc_hi20(.L.str.133)
	addi.d	$a2, $a0, %pc_lo12(.L.str.133)
	ori	$a0, $zero, 4040
	add.d	$a0, $sp, $a0
	ori	$a1, $zero, 4008
	add.d	$a1, $sp, $a1
	pcaddu18i	$ra, %call36(_ZL19checkVectorFunctionIjdEvSt8functionIFT_PT0_S3_jEES5_PKc)
	jirl	$ra, $ra, 0
.Ltmp1996:                              # EH_LABEL
# %bb.668:
	ori	$a0, $zero, 4024
	add.d	$a0, $sp, $a0
	ld.d	$a3, $a0, 0
	beqz	$a3, .LBB0_670
# %bb.669:
.Ltmp2004:                              # EH_LABEL
	ori	$a0, $zero, 4008
	add.d	$a0, $sp, $a0
	ori	$a1, $zero, 4008
	add.d	$a1, $sp, $a1
	ori	$a2, $zero, 3
	jirl	$ra, $a3, 0
.Ltmp2005:                              # EH_LABEL
.LBB0_670:                              # %_ZNSt14_Function_baseD2Ev.exit534
	ori	$a0, $zero, 4056
	add.d	$a0, $sp, $a0
	ld.d	$a3, $a0, 0
	beqz	$a3, .LBB0_672
# %bb.671:
.Ltmp2007:                              # EH_LABEL
	ori	$a0, $zero, 4040
	add.d	$a0, $sp, $a0
	ori	$a1, $zero, 4040
	add.d	$a1, $sp, $a1
	ori	$a2, $zero, 3
	jirl	$ra, $a3, 0
.Ltmp2008:                              # EH_LABEL
.LBB0_672:                              # %_ZNSt14_Function_baseD2Ev.exit536
	vld	$vr0, $sp, 16                   # 16-byte Folded Reload
	ori	$a0, $zero, 3976
	add.d	$a0, $sp, $a0
	vst	$vr0, $a0, 0
	pcalau12i	$a0, %pc_hi20(_ZNSt17_Function_handlerIFjPdS0_jEZ4mainE5$_268E9_M_invokeERKSt9_Any_dataOS0_S7_Oj)
	addi.d	$a0, $a0, %pc_lo12(_ZNSt17_Function_handlerIFjPdS0_jEZ4mainE5$_268E9_M_invokeERKSt9_Any_dataOS0_S7_Oj)
	ori	$a1, $zero, 4000
	add.d	$a1, $sp, $a1
	st.d	$a0, $a1, 0
	pcalau12i	$a0, %pc_hi20(_ZNSt17_Function_handlerIFjPdS0_jEZ4mainE5$_268E10_M_managerERSt9_Any_dataRKS4_St18_Manager_operation)
	addi.d	$a0, $a0, %pc_lo12(_ZNSt17_Function_handlerIFjPdS0_jEZ4mainE5$_268E10_M_managerERSt9_Any_dataRKS4_St18_Manager_operation)
	ori	$a1, $zero, 3992
	add.d	$a1, $sp, $a1
	st.d	$a0, $a1, 0
	ori	$a0, $zero, 3944
	add.d	$a0, $sp, $a0
	vst	$vr0, $a0, 0
	pcalau12i	$a0, %pc_hi20(_ZNSt17_Function_handlerIFjPdS0_jEZ4mainE5$_269E9_M_invokeERKSt9_Any_dataOS0_S7_Oj)
	addi.d	$a0, $a0, %pc_lo12(_ZNSt17_Function_handlerIFjPdS0_jEZ4mainE5$_269E9_M_invokeERKSt9_Any_dataOS0_S7_Oj)
	ori	$a1, $zero, 3968
	add.d	$a1, $sp, $a1
	st.d	$a0, $a1, 0
	pcalau12i	$a0, %pc_hi20(_ZNSt17_Function_handlerIFjPdS0_jEZ4mainE5$_269E10_M_managerERSt9_Any_dataRKS4_St18_Manager_operation)
	addi.d	$a0, $a0, %pc_lo12(_ZNSt17_Function_handlerIFjPdS0_jEZ4mainE5$_269E10_M_managerERSt9_Any_dataRKS4_St18_Manager_operation)
	ori	$a1, $zero, 3960
	add.d	$a1, $sp, $a1
	st.d	$a0, $a1, 0
.Ltmp2010:                              # EH_LABEL
	pcalau12i	$a0, %pc_hi20(.L.str.134)
	addi.d	$a2, $a0, %pc_lo12(.L.str.134)
	ori	$a0, $zero, 3976
	add.d	$a0, $sp, $a0
	ori	$a1, $zero, 3944
	add.d	$a1, $sp, $a1
	pcaddu18i	$ra, %call36(_ZL19checkVectorFunctionIjdEvSt8functionIFT_PT0_S3_jEES5_PKc)
	jirl	$ra, $ra, 0
.Ltmp2011:                              # EH_LABEL
# %bb.673:
	ori	$a0, $zero, 3960
	add.d	$a0, $sp, $a0
	ld.d	$a3, $a0, 0
	beqz	$a3, .LBB0_675
# %bb.674:
.Ltmp2019:                              # EH_LABEL
	ori	$a0, $zero, 3944
	add.d	$a0, $sp, $a0
	ori	$a1, $zero, 3944
	add.d	$a1, $sp, $a1
	ori	$a2, $zero, 3
	jirl	$ra, $a3, 0
.Ltmp2020:                              # EH_LABEL
.LBB0_675:                              # %_ZNSt14_Function_baseD2Ev.exit538
	ori	$a0, $zero, 3992
	add.d	$a0, $sp, $a0
	ld.d	$a3, $a0, 0
	beqz	$a3, .LBB0_677
# %bb.676:
.Ltmp2022:                              # EH_LABEL
	ori	$a0, $zero, 3976
	add.d	$a0, $sp, $a0
	ori	$a1, $zero, 3976
	add.d	$a1, $sp, $a1
	ori	$a2, $zero, 3
	jirl	$ra, $a3, 0
.Ltmp2023:                              # EH_LABEL
.LBB0_677:                              # %_ZNSt14_Function_baseD2Ev.exit540
	vld	$vr0, $sp, 16                   # 16-byte Folded Reload
	ori	$a0, $zero, 3912
	add.d	$a0, $sp, $a0
	vst	$vr0, $a0, 0
	pcalau12i	$a0, %pc_hi20(_ZNSt17_Function_handlerIFjPdS0_jEZ4mainE5$_270E9_M_invokeERKSt9_Any_dataOS0_S7_Oj)
	addi.d	$a0, $a0, %pc_lo12(_ZNSt17_Function_handlerIFjPdS0_jEZ4mainE5$_270E9_M_invokeERKSt9_Any_dataOS0_S7_Oj)
	ori	$a1, $zero, 3936
	add.d	$a1, $sp, $a1
	st.d	$a0, $a1, 0
	pcalau12i	$a0, %pc_hi20(_ZNSt17_Function_handlerIFjPdS0_jEZ4mainE5$_270E10_M_managerERSt9_Any_dataRKS4_St18_Manager_operation)
	addi.d	$a0, $a0, %pc_lo12(_ZNSt17_Function_handlerIFjPdS0_jEZ4mainE5$_270E10_M_managerERSt9_Any_dataRKS4_St18_Manager_operation)
	ori	$a1, $zero, 3928
	add.d	$a1, $sp, $a1
	st.d	$a0, $a1, 0
	ori	$a0, $zero, 3880
	add.d	$a0, $sp, $a0
	vst	$vr0, $a0, 0
	pcalau12i	$a0, %pc_hi20(_ZNSt17_Function_handlerIFjPdS0_jEZ4mainE5$_271E9_M_invokeERKSt9_Any_dataOS0_S7_Oj)
	addi.d	$a0, $a0, %pc_lo12(_ZNSt17_Function_handlerIFjPdS0_jEZ4mainE5$_271E9_M_invokeERKSt9_Any_dataOS0_S7_Oj)
	ori	$a1, $zero, 3904
	add.d	$a1, $sp, $a1
	st.d	$a0, $a1, 0
	pcalau12i	$a0, %pc_hi20(_ZNSt17_Function_handlerIFjPdS0_jEZ4mainE5$_271E10_M_managerERSt9_Any_dataRKS4_St18_Manager_operation)
	addi.d	$a0, $a0, %pc_lo12(_ZNSt17_Function_handlerIFjPdS0_jEZ4mainE5$_271E10_M_managerERSt9_Any_dataRKS4_St18_Manager_operation)
	ori	$a1, $zero, 3896
	add.d	$a1, $sp, $a1
	st.d	$a0, $a1, 0
.Ltmp2025:                              # EH_LABEL
	pcalau12i	$a0, %pc_hi20(.L.str.135)
	addi.d	$a2, $a0, %pc_lo12(.L.str.135)
	ori	$a0, $zero, 3912
	add.d	$a0, $sp, $a0
	ori	$a1, $zero, 3880
	add.d	$a1, $sp, $a1
	pcaddu18i	$ra, %call36(_ZL19checkVectorFunctionIjdEvSt8functionIFT_PT0_S3_jEES5_PKc)
	jirl	$ra, $ra, 0
.Ltmp2026:                              # EH_LABEL
# %bb.678:
	ori	$a0, $zero, 3896
	add.d	$a0, $sp, $a0
	ld.d	$a3, $a0, 0
	beqz	$a3, .LBB0_680
# %bb.679:
.Ltmp2034:                              # EH_LABEL
	ori	$a0, $zero, 3880
	add.d	$a0, $sp, $a0
	ori	$a1, $zero, 3880
	add.d	$a1, $sp, $a1
	ori	$a2, $zero, 3
	jirl	$ra, $a3, 0
.Ltmp2035:                              # EH_LABEL
.LBB0_680:                              # %_ZNSt14_Function_baseD2Ev.exit542
	ori	$a0, $zero, 3928
	add.d	$a0, $sp, $a0
	ld.d	$a3, $a0, 0
	beqz	$a3, .LBB0_682
# %bb.681:
.Ltmp2037:                              # EH_LABEL
	ori	$a0, $zero, 3912
	add.d	$a0, $sp, $a0
	ori	$a1, $zero, 3912
	add.d	$a1, $sp, $a1
	ori	$a2, $zero, 3
	jirl	$ra, $a3, 0
.Ltmp2038:                              # EH_LABEL
.LBB0_682:                              # %_ZNSt14_Function_baseD2Ev.exit544
	vld	$vr0, $sp, 16                   # 16-byte Folded Reload
	ori	$a0, $zero, 3848
	add.d	$a0, $sp, $a0
	vst	$vr0, $a0, 0
	pcalau12i	$a0, %pc_hi20(_ZNSt17_Function_handlerIFjPdS0_jEZ4mainE5$_272E9_M_invokeERKSt9_Any_dataOS0_S7_Oj)
	addi.d	$a0, $a0, %pc_lo12(_ZNSt17_Function_handlerIFjPdS0_jEZ4mainE5$_272E9_M_invokeERKSt9_Any_dataOS0_S7_Oj)
	ori	$a1, $zero, 3872
	add.d	$a1, $sp, $a1
	st.d	$a0, $a1, 0
	pcalau12i	$a0, %pc_hi20(_ZNSt17_Function_handlerIFjPdS0_jEZ4mainE5$_272E10_M_managerERSt9_Any_dataRKS4_St18_Manager_operation)
	addi.d	$a0, $a0, %pc_lo12(_ZNSt17_Function_handlerIFjPdS0_jEZ4mainE5$_272E10_M_managerERSt9_Any_dataRKS4_St18_Manager_operation)
	ori	$a1, $zero, 3864
	add.d	$a1, $sp, $a1
	st.d	$a0, $a1, 0
	ori	$a0, $zero, 3816
	add.d	$a0, $sp, $a0
	vst	$vr0, $a0, 0
	pcalau12i	$a0, %pc_hi20(_ZNSt17_Function_handlerIFjPdS0_jEZ4mainE5$_273E9_M_invokeERKSt9_Any_dataOS0_S7_Oj)
	addi.d	$a0, $a0, %pc_lo12(_ZNSt17_Function_handlerIFjPdS0_jEZ4mainE5$_273E9_M_invokeERKSt9_Any_dataOS0_S7_Oj)
	ori	$a1, $zero, 3840
	add.d	$a1, $sp, $a1
	st.d	$a0, $a1, 0
	pcalau12i	$a0, %pc_hi20(_ZNSt17_Function_handlerIFjPdS0_jEZ4mainE5$_273E10_M_managerERSt9_Any_dataRKS4_St18_Manager_operation)
	addi.d	$a0, $a0, %pc_lo12(_ZNSt17_Function_handlerIFjPdS0_jEZ4mainE5$_273E10_M_managerERSt9_Any_dataRKS4_St18_Manager_operation)
	ori	$a1, $zero, 3832
	add.d	$a1, $sp, $a1
	st.d	$a0, $a1, 0
.Ltmp2040:                              # EH_LABEL
	pcalau12i	$a0, %pc_hi20(.L.str.136)
	addi.d	$a2, $a0, %pc_lo12(.L.str.136)
	ori	$a0, $zero, 3848
	add.d	$a0, $sp, $a0
	ori	$a1, $zero, 3816
	add.d	$a1, $sp, $a1
	pcaddu18i	$ra, %call36(_ZL19checkVectorFunctionIjdEvSt8functionIFT_PT0_S3_jEES5_PKc)
	jirl	$ra, $ra, 0
.Ltmp2041:                              # EH_LABEL
# %bb.683:
	ori	$a0, $zero, 3832
	add.d	$a0, $sp, $a0
	ld.d	$a3, $a0, 0
	beqz	$a3, .LBB0_685
# %bb.684:
.Ltmp2049:                              # EH_LABEL
	ori	$a0, $zero, 3816
	add.d	$a0, $sp, $a0
	ori	$a1, $zero, 3816
	add.d	$a1, $sp, $a1
	ori	$a2, $zero, 3
	jirl	$ra, $a3, 0
.Ltmp2050:                              # EH_LABEL
.LBB0_685:                              # %_ZNSt14_Function_baseD2Ev.exit546
	ori	$a0, $zero, 3864
	add.d	$a0, $sp, $a0
	ld.d	$a3, $a0, 0
	beqz	$a3, .LBB0_687
# %bb.686:
.Ltmp2052:                              # EH_LABEL
	ori	$a0, $zero, 3848
	add.d	$a0, $sp, $a0
	ori	$a1, $zero, 3848
	add.d	$a1, $sp, $a1
	ori	$a2, $zero, 3
	jirl	$ra, $a3, 0
.Ltmp2053:                              # EH_LABEL
.LBB0_687:                              # %_ZNSt14_Function_baseD2Ev.exit548
	vld	$vr0, $sp, 16                   # 16-byte Folded Reload
	ori	$a0, $zero, 3784
	add.d	$a0, $sp, $a0
	vst	$vr0, $a0, 0
	pcalau12i	$a0, %pc_hi20(_ZNSt17_Function_handlerIFjPdS0_jEZ4mainE5$_274E9_M_invokeERKSt9_Any_dataOS0_S7_Oj)
	addi.d	$a0, $a0, %pc_lo12(_ZNSt17_Function_handlerIFjPdS0_jEZ4mainE5$_274E9_M_invokeERKSt9_Any_dataOS0_S7_Oj)
	ori	$a1, $zero, 3808
	add.d	$a1, $sp, $a1
	st.d	$a0, $a1, 0
	pcalau12i	$a0, %pc_hi20(_ZNSt17_Function_handlerIFjPdS0_jEZ4mainE5$_274E10_M_managerERSt9_Any_dataRKS4_St18_Manager_operation)
	addi.d	$a0, $a0, %pc_lo12(_ZNSt17_Function_handlerIFjPdS0_jEZ4mainE5$_274E10_M_managerERSt9_Any_dataRKS4_St18_Manager_operation)
	ori	$a1, $zero, 3800
	add.d	$a1, $sp, $a1
	st.d	$a0, $a1, 0
	ori	$a0, $zero, 3752
	add.d	$a0, $sp, $a0
	vst	$vr0, $a0, 0
	pcalau12i	$a0, %pc_hi20(_ZNSt17_Function_handlerIFjPdS0_jEZ4mainE5$_275E9_M_invokeERKSt9_Any_dataOS0_S7_Oj)
	addi.d	$a0, $a0, %pc_lo12(_ZNSt17_Function_handlerIFjPdS0_jEZ4mainE5$_275E9_M_invokeERKSt9_Any_dataOS0_S7_Oj)
	ori	$a1, $zero, 3776
	add.d	$a1, $sp, $a1
	st.d	$a0, $a1, 0
	pcalau12i	$a0, %pc_hi20(_ZNSt17_Function_handlerIFjPdS0_jEZ4mainE5$_275E10_M_managerERSt9_Any_dataRKS4_St18_Manager_operation)
	addi.d	$a0, $a0, %pc_lo12(_ZNSt17_Function_handlerIFjPdS0_jEZ4mainE5$_275E10_M_managerERSt9_Any_dataRKS4_St18_Manager_operation)
	ori	$a1, $zero, 3768
	add.d	$a1, $sp, $a1
	st.d	$a0, $a1, 0
.Ltmp2055:                              # EH_LABEL
	pcalau12i	$a0, %pc_hi20(.L.str.137)
	addi.d	$a2, $a0, %pc_lo12(.L.str.137)
	ori	$a0, $zero, 3784
	add.d	$a0, $sp, $a0
	ori	$a1, $zero, 3752
	add.d	$a1, $sp, $a1
	pcaddu18i	$ra, %call36(_ZL19checkVectorFunctionIjdEvSt8functionIFT_PT0_S3_jEES5_PKc)
	jirl	$ra, $ra, 0
.Ltmp2056:                              # EH_LABEL
# %bb.688:
	ori	$a0, $zero, 3768
	add.d	$a0, $sp, $a0
	ld.d	$a3, $a0, 0
	beqz	$a3, .LBB0_690
# %bb.689:
.Ltmp2064:                              # EH_LABEL
	ori	$a0, $zero, 3752
	add.d	$a0, $sp, $a0
	ori	$a1, $zero, 3752
	add.d	$a1, $sp, $a1
	ori	$a2, $zero, 3
	jirl	$ra, $a3, 0
.Ltmp2065:                              # EH_LABEL
.LBB0_690:                              # %_ZNSt14_Function_baseD2Ev.exit550
	ori	$a0, $zero, 3800
	add.d	$a0, $sp, $a0
	ld.d	$a3, $a0, 0
	beqz	$a3, .LBB0_692
# %bb.691:
.Ltmp2067:                              # EH_LABEL
	ori	$a0, $zero, 3784
	add.d	$a0, $sp, $a0
	ori	$a1, $zero, 3784
	add.d	$a1, $sp, $a1
	ori	$a2, $zero, 3
	jirl	$ra, $a3, 0
.Ltmp2068:                              # EH_LABEL
.LBB0_692:                              # %_ZNSt14_Function_baseD2Ev.exit552
	vld	$vr0, $sp, 16                   # 16-byte Folded Reload
	ori	$a0, $zero, 3720
	add.d	$a0, $sp, $a0
	vst	$vr0, $a0, 0
	pcalau12i	$a0, %pc_hi20(_ZNSt17_Function_handlerIFjPdS0_jEZ4mainE5$_276E9_M_invokeERKSt9_Any_dataOS0_S7_Oj)
	addi.d	$a0, $a0, %pc_lo12(_ZNSt17_Function_handlerIFjPdS0_jEZ4mainE5$_276E9_M_invokeERKSt9_Any_dataOS0_S7_Oj)
	ori	$a1, $zero, 3744
	add.d	$a1, $sp, $a1
	st.d	$a0, $a1, 0
	pcalau12i	$a0, %pc_hi20(_ZNSt17_Function_handlerIFjPdS0_jEZ4mainE5$_276E10_M_managerERSt9_Any_dataRKS4_St18_Manager_operation)
	addi.d	$a0, $a0, %pc_lo12(_ZNSt17_Function_handlerIFjPdS0_jEZ4mainE5$_276E10_M_managerERSt9_Any_dataRKS4_St18_Manager_operation)
	ori	$a1, $zero, 3736
	add.d	$a1, $sp, $a1
	st.d	$a0, $a1, 0
	ori	$a0, $zero, 3688
	add.d	$a0, $sp, $a0
	vst	$vr0, $a0, 0
	pcalau12i	$a0, %pc_hi20(_ZNSt17_Function_handlerIFjPdS0_jEZ4mainE5$_277E9_M_invokeERKSt9_Any_dataOS0_S7_Oj)
	addi.d	$a0, $a0, %pc_lo12(_ZNSt17_Function_handlerIFjPdS0_jEZ4mainE5$_277E9_M_invokeERKSt9_Any_dataOS0_S7_Oj)
	ori	$a1, $zero, 3712
	add.d	$a1, $sp, $a1
	st.d	$a0, $a1, 0
	pcalau12i	$a0, %pc_hi20(_ZNSt17_Function_handlerIFjPdS0_jEZ4mainE5$_277E10_M_managerERSt9_Any_dataRKS4_St18_Manager_operation)
	addi.d	$a0, $a0, %pc_lo12(_ZNSt17_Function_handlerIFjPdS0_jEZ4mainE5$_277E10_M_managerERSt9_Any_dataRKS4_St18_Manager_operation)
	ori	$a1, $zero, 3704
	add.d	$a1, $sp, $a1
	st.d	$a0, $a1, 0
.Ltmp2070:                              # EH_LABEL
	pcalau12i	$a0, %pc_hi20(.L.str.138)
	addi.d	$a2, $a0, %pc_lo12(.L.str.138)
	ori	$a0, $zero, 3720
	add.d	$a0, $sp, $a0
	ori	$a1, $zero, 3688
	add.d	$a1, $sp, $a1
	pcaddu18i	$ra, %call36(_ZL19checkVectorFunctionIjdEvSt8functionIFT_PT0_S3_jEES5_PKc)
	jirl	$ra, $ra, 0
.Ltmp2071:                              # EH_LABEL
# %bb.693:
	ori	$a0, $zero, 3704
	add.d	$a0, $sp, $a0
	ld.d	$a3, $a0, 0
	beqz	$a3, .LBB0_695
# %bb.694:
.Ltmp2079:                              # EH_LABEL
	ori	$a0, $zero, 3688
	add.d	$a0, $sp, $a0
	ori	$a1, $zero, 3688
	add.d	$a1, $sp, $a1
	ori	$a2, $zero, 3
	jirl	$ra, $a3, 0
.Ltmp2080:                              # EH_LABEL
.LBB0_695:                              # %_ZNSt14_Function_baseD2Ev.exit554
	ori	$a0, $zero, 3736
	add.d	$a0, $sp, $a0
	ld.d	$a3, $a0, 0
	beqz	$a3, .LBB0_697
# %bb.696:
.Ltmp2082:                              # EH_LABEL
	ori	$a0, $zero, 3720
	add.d	$a0, $sp, $a0
	ori	$a1, $zero, 3720
	add.d	$a1, $sp, $a1
	ori	$a2, $zero, 3
	jirl	$ra, $a3, 0
.Ltmp2083:                              # EH_LABEL
.LBB0_697:                              # %_ZNSt14_Function_baseD2Ev.exit556
	vld	$vr0, $sp, 16                   # 16-byte Folded Reload
	ori	$a0, $zero, 3656
	add.d	$a0, $sp, $a0
	vst	$vr0, $a0, 0
	pcalau12i	$a0, %pc_hi20(_ZNSt17_Function_handlerIFjPdS0_jEZ4mainE5$_278E9_M_invokeERKSt9_Any_dataOS0_S7_Oj)
	addi.d	$a0, $a0, %pc_lo12(_ZNSt17_Function_handlerIFjPdS0_jEZ4mainE5$_278E9_M_invokeERKSt9_Any_dataOS0_S7_Oj)
	ori	$a1, $zero, 3680
	add.d	$a1, $sp, $a1
	st.d	$a0, $a1, 0
	pcalau12i	$a0, %pc_hi20(_ZNSt17_Function_handlerIFjPdS0_jEZ4mainE5$_278E10_M_managerERSt9_Any_dataRKS4_St18_Manager_operation)
	addi.d	$a0, $a0, %pc_lo12(_ZNSt17_Function_handlerIFjPdS0_jEZ4mainE5$_278E10_M_managerERSt9_Any_dataRKS4_St18_Manager_operation)
	ori	$a1, $zero, 3672
	add.d	$a1, $sp, $a1
	st.d	$a0, $a1, 0
	ori	$a0, $zero, 3624
	add.d	$a0, $sp, $a0
	vst	$vr0, $a0, 0
	pcalau12i	$a0, %pc_hi20(_ZNSt17_Function_handlerIFjPdS0_jEZ4mainE5$_279E9_M_invokeERKSt9_Any_dataOS0_S7_Oj)
	addi.d	$a0, $a0, %pc_lo12(_ZNSt17_Function_handlerIFjPdS0_jEZ4mainE5$_279E9_M_invokeERKSt9_Any_dataOS0_S7_Oj)
	ori	$a1, $zero, 3648
	add.d	$a1, $sp, $a1
	st.d	$a0, $a1, 0
	pcalau12i	$a0, %pc_hi20(_ZNSt17_Function_handlerIFjPdS0_jEZ4mainE5$_279E10_M_managerERSt9_Any_dataRKS4_St18_Manager_operation)
	addi.d	$a0, $a0, %pc_lo12(_ZNSt17_Function_handlerIFjPdS0_jEZ4mainE5$_279E10_M_managerERSt9_Any_dataRKS4_St18_Manager_operation)
	ori	$a1, $zero, 3640
	add.d	$a1, $sp, $a1
	st.d	$a0, $a1, 0
.Ltmp2085:                              # EH_LABEL
	pcalau12i	$a0, %pc_hi20(.L.str.139)
	addi.d	$a2, $a0, %pc_lo12(.L.str.139)
	ori	$a0, $zero, 3656
	add.d	$a0, $sp, $a0
	ori	$a1, $zero, 3624
	add.d	$a1, $sp, $a1
	pcaddu18i	$ra, %call36(_ZL19checkVectorFunctionIjdEvSt8functionIFT_PT0_S3_jEES5_PKc)
	jirl	$ra, $ra, 0
.Ltmp2086:                              # EH_LABEL
# %bb.698:
	ori	$a0, $zero, 3640
	add.d	$a0, $sp, $a0
	ld.d	$a3, $a0, 0
	beqz	$a3, .LBB0_700
# %bb.699:
.Ltmp2094:                              # EH_LABEL
	ori	$a0, $zero, 3624
	add.d	$a0, $sp, $a0
	ori	$a1, $zero, 3624
	add.d	$a1, $sp, $a1
	ori	$a2, $zero, 3
	jirl	$ra, $a3, 0
.Ltmp2095:                              # EH_LABEL
.LBB0_700:                              # %_ZNSt14_Function_baseD2Ev.exit558
	ori	$a0, $zero, 3672
	add.d	$a0, $sp, $a0
	ld.d	$a3, $a0, 0
	beqz	$a3, .LBB0_702
# %bb.701:
.Ltmp2097:                              # EH_LABEL
	ori	$a0, $zero, 3656
	add.d	$a0, $sp, $a0
	ori	$a1, $zero, 3656
	add.d	$a1, $sp, $a1
	ori	$a2, $zero, 3
	jirl	$ra, $a3, 0
.Ltmp2098:                              # EH_LABEL
.LBB0_702:                              # %_ZNSt14_Function_baseD2Ev.exit560
	vld	$vr0, $sp, 16                   # 16-byte Folded Reload
	ori	$a0, $zero, 3592
	add.d	$a0, $sp, $a0
	vst	$vr0, $a0, 0
	pcalau12i	$a0, %pc_hi20(_ZNSt17_Function_handlerIFjPdS0_jEZ4mainE5$_280E9_M_invokeERKSt9_Any_dataOS0_S7_Oj)
	addi.d	$a0, $a0, %pc_lo12(_ZNSt17_Function_handlerIFjPdS0_jEZ4mainE5$_280E9_M_invokeERKSt9_Any_dataOS0_S7_Oj)
	ori	$a1, $zero, 3616
	add.d	$a1, $sp, $a1
	st.d	$a0, $a1, 0
	pcalau12i	$a0, %pc_hi20(_ZNSt17_Function_handlerIFjPdS0_jEZ4mainE5$_280E10_M_managerERSt9_Any_dataRKS4_St18_Manager_operation)
	addi.d	$a0, $a0, %pc_lo12(_ZNSt17_Function_handlerIFjPdS0_jEZ4mainE5$_280E10_M_managerERSt9_Any_dataRKS4_St18_Manager_operation)
	ori	$a1, $zero, 3608
	add.d	$a1, $sp, $a1
	st.d	$a0, $a1, 0
	ori	$a0, $zero, 3560
	add.d	$a0, $sp, $a0
	vst	$vr0, $a0, 0
	pcalau12i	$a0, %pc_hi20(_ZNSt17_Function_handlerIFjPdS0_jEZ4mainE5$_281E9_M_invokeERKSt9_Any_dataOS0_S7_Oj)
	addi.d	$a0, $a0, %pc_lo12(_ZNSt17_Function_handlerIFjPdS0_jEZ4mainE5$_281E9_M_invokeERKSt9_Any_dataOS0_S7_Oj)
	ori	$a1, $zero, 3584
	add.d	$a1, $sp, $a1
	st.d	$a0, $a1, 0
	pcalau12i	$a0, %pc_hi20(_ZNSt17_Function_handlerIFjPdS0_jEZ4mainE5$_281E10_M_managerERSt9_Any_dataRKS4_St18_Manager_operation)
	addi.d	$a0, $a0, %pc_lo12(_ZNSt17_Function_handlerIFjPdS0_jEZ4mainE5$_281E10_M_managerERSt9_Any_dataRKS4_St18_Manager_operation)
	ori	$a1, $zero, 3576
	add.d	$a1, $sp, $a1
	st.d	$a0, $a1, 0
.Ltmp2100:                              # EH_LABEL
	pcalau12i	$a0, %pc_hi20(.L.str.140)
	addi.d	$a2, $a0, %pc_lo12(.L.str.140)
	ori	$a0, $zero, 3592
	add.d	$a0, $sp, $a0
	ori	$a1, $zero, 3560
	add.d	$a1, $sp, $a1
	pcaddu18i	$ra, %call36(_ZL19checkVectorFunctionIjdEvSt8functionIFT_PT0_S3_jEES5_PKc)
	jirl	$ra, $ra, 0
.Ltmp2101:                              # EH_LABEL
# %bb.703:
	ori	$a0, $zero, 3576
	add.d	$a0, $sp, $a0
	ld.d	$a3, $a0, 0
	beqz	$a3, .LBB0_705
# %bb.704:
.Ltmp2109:                              # EH_LABEL
	ori	$a0, $zero, 3560
	add.d	$a0, $sp, $a0
	ori	$a1, $zero, 3560
	add.d	$a1, $sp, $a1
	ori	$a2, $zero, 3
	jirl	$ra, $a3, 0
.Ltmp2110:                              # EH_LABEL
.LBB0_705:                              # %_ZNSt14_Function_baseD2Ev.exit562
	ori	$a0, $zero, 3608
	add.d	$a0, $sp, $a0
	ld.d	$a3, $a0, 0
	beqz	$a3, .LBB0_707
# %bb.706:
.Ltmp2112:                              # EH_LABEL
	ori	$a0, $zero, 3592
	add.d	$a0, $sp, $a0
	ori	$a1, $zero, 3592
	add.d	$a1, $sp, $a1
	ori	$a2, $zero, 3
	jirl	$ra, $a3, 0
.Ltmp2113:                              # EH_LABEL
.LBB0_707:                              # %_ZNSt14_Function_baseD2Ev.exit564
	vld	$vr0, $sp, 16                   # 16-byte Folded Reload
	ori	$a0, $zero, 3528
	add.d	$a0, $sp, $a0
	vst	$vr0, $a0, 0
	pcalau12i	$a0, %pc_hi20(_ZNSt17_Function_handlerIFjPdS0_jEZ4mainE5$_282E9_M_invokeERKSt9_Any_dataOS0_S7_Oj)
	addi.d	$a0, $a0, %pc_lo12(_ZNSt17_Function_handlerIFjPdS0_jEZ4mainE5$_282E9_M_invokeERKSt9_Any_dataOS0_S7_Oj)
	ori	$a1, $zero, 3552
	add.d	$a1, $sp, $a1
	st.d	$a0, $a1, 0
	pcalau12i	$a0, %pc_hi20(_ZNSt17_Function_handlerIFjPdS0_jEZ4mainE5$_282E10_M_managerERSt9_Any_dataRKS4_St18_Manager_operation)
	addi.d	$a0, $a0, %pc_lo12(_ZNSt17_Function_handlerIFjPdS0_jEZ4mainE5$_282E10_M_managerERSt9_Any_dataRKS4_St18_Manager_operation)
	ori	$a1, $zero, 3544
	add.d	$a1, $sp, $a1
	st.d	$a0, $a1, 0
	ori	$a0, $zero, 3496
	add.d	$a0, $sp, $a0
	vst	$vr0, $a0, 0
	pcalau12i	$a0, %pc_hi20(_ZNSt17_Function_handlerIFjPdS0_jEZ4mainE5$_283E9_M_invokeERKSt9_Any_dataOS0_S7_Oj)
	addi.d	$a0, $a0, %pc_lo12(_ZNSt17_Function_handlerIFjPdS0_jEZ4mainE5$_283E9_M_invokeERKSt9_Any_dataOS0_S7_Oj)
	ori	$a1, $zero, 3520
	add.d	$a1, $sp, $a1
	st.d	$a0, $a1, 0
	pcalau12i	$a0, %pc_hi20(_ZNSt17_Function_handlerIFjPdS0_jEZ4mainE5$_283E10_M_managerERSt9_Any_dataRKS4_St18_Manager_operation)
	addi.d	$a0, $a0, %pc_lo12(_ZNSt17_Function_handlerIFjPdS0_jEZ4mainE5$_283E10_M_managerERSt9_Any_dataRKS4_St18_Manager_operation)
	ori	$a1, $zero, 3512
	add.d	$a1, $sp, $a1
	st.d	$a0, $a1, 0
.Ltmp2115:                              # EH_LABEL
	pcalau12i	$a0, %pc_hi20(.L.str.141)
	addi.d	$a2, $a0, %pc_lo12(.L.str.141)
	ori	$a0, $zero, 3528
	add.d	$a0, $sp, $a0
	ori	$a1, $zero, 3496
	add.d	$a1, $sp, $a1
	pcaddu18i	$ra, %call36(_ZL19checkVectorFunctionIjdEvSt8functionIFT_PT0_S3_jEES5_PKc)
	jirl	$ra, $ra, 0
.Ltmp2116:                              # EH_LABEL
# %bb.708:
	ori	$a0, $zero, 3512
	add.d	$a0, $sp, $a0
	ld.d	$a3, $a0, 0
	beqz	$a3, .LBB0_710
# %bb.709:
.Ltmp2124:                              # EH_LABEL
	ori	$a0, $zero, 3496
	add.d	$a0, $sp, $a0
	ori	$a1, $zero, 3496
	add.d	$a1, $sp, $a1
	ori	$a2, $zero, 3
	jirl	$ra, $a3, 0
.Ltmp2125:                              # EH_LABEL
.LBB0_710:                              # %_ZNSt14_Function_baseD2Ev.exit566
	ori	$a0, $zero, 3544
	add.d	$a0, $sp, $a0
	ld.d	$a3, $a0, 0
	beqz	$a3, .LBB0_712
# %bb.711:
.Ltmp2127:                              # EH_LABEL
	ori	$a0, $zero, 3528
	add.d	$a0, $sp, $a0
	ori	$a1, $zero, 3528
	add.d	$a1, $sp, $a1
	ori	$a2, $zero, 3
	jirl	$ra, $a3, 0
.Ltmp2128:                              # EH_LABEL
.LBB0_712:                              # %_ZNSt14_Function_baseD2Ev.exit568
	vld	$vr0, $sp, 16                   # 16-byte Folded Reload
	ori	$a0, $zero, 3464
	add.d	$a0, $sp, $a0
	vst	$vr0, $a0, 0
	pcalau12i	$a0, %pc_hi20(_ZNSt17_Function_handlerIFjPdS0_jEZ4mainE5$_284E9_M_invokeERKSt9_Any_dataOS0_S7_Oj)
	addi.d	$a0, $a0, %pc_lo12(_ZNSt17_Function_handlerIFjPdS0_jEZ4mainE5$_284E9_M_invokeERKSt9_Any_dataOS0_S7_Oj)
	ori	$a1, $zero, 3488
	add.d	$a1, $sp, $a1
	st.d	$a0, $a1, 0
	pcalau12i	$a0, %pc_hi20(_ZNSt17_Function_handlerIFjPdS0_jEZ4mainE5$_284E10_M_managerERSt9_Any_dataRKS4_St18_Manager_operation)
	addi.d	$a0, $a0, %pc_lo12(_ZNSt17_Function_handlerIFjPdS0_jEZ4mainE5$_284E10_M_managerERSt9_Any_dataRKS4_St18_Manager_operation)
	ori	$a1, $zero, 3480
	add.d	$a1, $sp, $a1
	st.d	$a0, $a1, 0
	ori	$a0, $zero, 3432
	add.d	$a0, $sp, $a0
	vst	$vr0, $a0, 0
	pcalau12i	$a0, %pc_hi20(_ZNSt17_Function_handlerIFjPdS0_jEZ4mainE5$_285E9_M_invokeERKSt9_Any_dataOS0_S7_Oj)
	addi.d	$a0, $a0, %pc_lo12(_ZNSt17_Function_handlerIFjPdS0_jEZ4mainE5$_285E9_M_invokeERKSt9_Any_dataOS0_S7_Oj)
	ori	$a1, $zero, 3456
	add.d	$a1, $sp, $a1
	st.d	$a0, $a1, 0
	pcalau12i	$a0, %pc_hi20(_ZNSt17_Function_handlerIFjPdS0_jEZ4mainE5$_285E10_M_managerERSt9_Any_dataRKS4_St18_Manager_operation)
	addi.d	$a0, $a0, %pc_lo12(_ZNSt17_Function_handlerIFjPdS0_jEZ4mainE5$_285E10_M_managerERSt9_Any_dataRKS4_St18_Manager_operation)
	ori	$a1, $zero, 3448
	add.d	$a1, $sp, $a1
	st.d	$a0, $a1, 0
.Ltmp2130:                              # EH_LABEL
	pcalau12i	$a0, %pc_hi20(.L.str.142)
	addi.d	$a2, $a0, %pc_lo12(.L.str.142)
	ori	$a0, $zero, 3464
	add.d	$a0, $sp, $a0
	ori	$a1, $zero, 3432
	add.d	$a1, $sp, $a1
	pcaddu18i	$ra, %call36(_ZL19checkVectorFunctionIjdEvSt8functionIFT_PT0_S3_jEES5_PKc)
	jirl	$ra, $ra, 0
.Ltmp2131:                              # EH_LABEL
# %bb.713:
	ori	$a0, $zero, 3448
	add.d	$a0, $sp, $a0
	ld.d	$a3, $a0, 0
	beqz	$a3, .LBB0_715
# %bb.714:
.Ltmp2139:                              # EH_LABEL
	ori	$a0, $zero, 3432
	add.d	$a0, $sp, $a0
	ori	$a1, $zero, 3432
	add.d	$a1, $sp, $a1
	ori	$a2, $zero, 3
	jirl	$ra, $a3, 0
.Ltmp2140:                              # EH_LABEL
.LBB0_715:                              # %_ZNSt14_Function_baseD2Ev.exit570
	ori	$a0, $zero, 3480
	add.d	$a0, $sp, $a0
	ld.d	$a3, $a0, 0
	beqz	$a3, .LBB0_717
# %bb.716:
.Ltmp2142:                              # EH_LABEL
	ori	$a0, $zero, 3464
	add.d	$a0, $sp, $a0
	ori	$a1, $zero, 3464
	add.d	$a1, $sp, $a1
	ori	$a2, $zero, 3
	jirl	$ra, $a3, 0
.Ltmp2143:                              # EH_LABEL
.LBB0_717:                              # %_ZNSt14_Function_baseD2Ev.exit572
	vld	$vr0, $sp, 16                   # 16-byte Folded Reload
	ori	$a0, $zero, 3400
	add.d	$a0, $sp, $a0
	vst	$vr0, $a0, 0
	pcalau12i	$a0, %pc_hi20(_ZNSt17_Function_handlerIFjPdS0_jEZ4mainE5$_286E9_M_invokeERKSt9_Any_dataOS0_S7_Oj)
	addi.d	$a0, $a0, %pc_lo12(_ZNSt17_Function_handlerIFjPdS0_jEZ4mainE5$_286E9_M_invokeERKSt9_Any_dataOS0_S7_Oj)
	ori	$a1, $zero, 3424
	add.d	$a1, $sp, $a1
	st.d	$a0, $a1, 0
	pcalau12i	$a0, %pc_hi20(_ZNSt17_Function_handlerIFjPdS0_jEZ4mainE5$_286E10_M_managerERSt9_Any_dataRKS4_St18_Manager_operation)
	addi.d	$a0, $a0, %pc_lo12(_ZNSt17_Function_handlerIFjPdS0_jEZ4mainE5$_286E10_M_managerERSt9_Any_dataRKS4_St18_Manager_operation)
	ori	$a1, $zero, 3416
	add.d	$a1, $sp, $a1
	st.d	$a0, $a1, 0
	ori	$a0, $zero, 3368
	add.d	$a0, $sp, $a0
	vst	$vr0, $a0, 0
	pcalau12i	$a0, %pc_hi20(_ZNSt17_Function_handlerIFjPdS0_jEZ4mainE5$_287E9_M_invokeERKSt9_Any_dataOS0_S7_Oj)
	addi.d	$a0, $a0, %pc_lo12(_ZNSt17_Function_handlerIFjPdS0_jEZ4mainE5$_287E9_M_invokeERKSt9_Any_dataOS0_S7_Oj)
	ori	$a1, $zero, 3392
	add.d	$a1, $sp, $a1
	st.d	$a0, $a1, 0
	pcalau12i	$a0, %pc_hi20(_ZNSt17_Function_handlerIFjPdS0_jEZ4mainE5$_287E10_M_managerERSt9_Any_dataRKS4_St18_Manager_operation)
	addi.d	$a0, $a0, %pc_lo12(_ZNSt17_Function_handlerIFjPdS0_jEZ4mainE5$_287E10_M_managerERSt9_Any_dataRKS4_St18_Manager_operation)
	ori	$a1, $zero, 3384
	add.d	$a1, $sp, $a1
	st.d	$a0, $a1, 0
.Ltmp2145:                              # EH_LABEL
	pcalau12i	$a0, %pc_hi20(.L.str.143)
	addi.d	$a2, $a0, %pc_lo12(.L.str.143)
	ori	$a0, $zero, 3400
	add.d	$a0, $sp, $a0
	ori	$a1, $zero, 3368
	add.d	$a1, $sp, $a1
	pcaddu18i	$ra, %call36(_ZL19checkVectorFunctionIjdEvSt8functionIFT_PT0_S3_jEES5_PKc)
	jirl	$ra, $ra, 0
.Ltmp2146:                              # EH_LABEL
# %bb.718:
	ori	$a0, $zero, 3384
	add.d	$a0, $sp, $a0
	ld.d	$a3, $a0, 0
	beqz	$a3, .LBB0_720
# %bb.719:
.Ltmp2154:                              # EH_LABEL
	ori	$a0, $zero, 3368
	add.d	$a0, $sp, $a0
	ori	$a1, $zero, 3368
	add.d	$a1, $sp, $a1
	ori	$a2, $zero, 3
	jirl	$ra, $a3, 0
.Ltmp2155:                              # EH_LABEL
.LBB0_720:                              # %_ZNSt14_Function_baseD2Ev.exit574
	ori	$a0, $zero, 3416
	add.d	$a0, $sp, $a0
	ld.d	$a3, $a0, 0
	beqz	$a3, .LBB0_722
# %bb.721:
.Ltmp2157:                              # EH_LABEL
	ori	$a0, $zero, 3400
	add.d	$a0, $sp, $a0
	ori	$a1, $zero, 3400
	add.d	$a1, $sp, $a1
	ori	$a2, $zero, 3
	jirl	$ra, $a3, 0
.Ltmp2158:                              # EH_LABEL
.LBB0_722:                              # %_ZNSt14_Function_baseD2Ev.exit576
	vld	$vr0, $sp, 16                   # 16-byte Folded Reload
	ori	$a0, $zero, 3336
	add.d	$a0, $sp, $a0
	vst	$vr0, $a0, 0
	pcalau12i	$a0, %pc_hi20(_ZNSt17_Function_handlerIFjPdS0_jEZ4mainE5$_288E9_M_invokeERKSt9_Any_dataOS0_S7_Oj)
	addi.d	$a0, $a0, %pc_lo12(_ZNSt17_Function_handlerIFjPdS0_jEZ4mainE5$_288E9_M_invokeERKSt9_Any_dataOS0_S7_Oj)
	ori	$a1, $zero, 3360
	add.d	$a1, $sp, $a1
	st.d	$a0, $a1, 0
	pcalau12i	$a0, %pc_hi20(_ZNSt17_Function_handlerIFjPdS0_jEZ4mainE5$_288E10_M_managerERSt9_Any_dataRKS4_St18_Manager_operation)
	addi.d	$a0, $a0, %pc_lo12(_ZNSt17_Function_handlerIFjPdS0_jEZ4mainE5$_288E10_M_managerERSt9_Any_dataRKS4_St18_Manager_operation)
	ori	$a1, $zero, 3352
	add.d	$a1, $sp, $a1
	st.d	$a0, $a1, 0
	ori	$a0, $zero, 3304
	add.d	$a0, $sp, $a0
	vst	$vr0, $a0, 0
	pcalau12i	$a0, %pc_hi20(_ZNSt17_Function_handlerIFjPdS0_jEZ4mainE5$_289E9_M_invokeERKSt9_Any_dataOS0_S7_Oj)
	addi.d	$a0, $a0, %pc_lo12(_ZNSt17_Function_handlerIFjPdS0_jEZ4mainE5$_289E9_M_invokeERKSt9_Any_dataOS0_S7_Oj)
	ori	$a1, $zero, 3328
	add.d	$a1, $sp, $a1
	st.d	$a0, $a1, 0
	pcalau12i	$a0, %pc_hi20(_ZNSt17_Function_handlerIFjPdS0_jEZ4mainE5$_289E10_M_managerERSt9_Any_dataRKS4_St18_Manager_operation)
	addi.d	$a0, $a0, %pc_lo12(_ZNSt17_Function_handlerIFjPdS0_jEZ4mainE5$_289E10_M_managerERSt9_Any_dataRKS4_St18_Manager_operation)
	ori	$a1, $zero, 3320
	add.d	$a1, $sp, $a1
	st.d	$a0, $a1, 0
.Ltmp2160:                              # EH_LABEL
	pcalau12i	$a0, %pc_hi20(.L.str.144)
	addi.d	$a2, $a0, %pc_lo12(.L.str.144)
	ori	$a0, $zero, 3336
	add.d	$a0, $sp, $a0
	ori	$a1, $zero, 3304
	add.d	$a1, $sp, $a1
	pcaddu18i	$ra, %call36(_ZL19checkVectorFunctionIjdEvSt8functionIFT_PT0_S3_jEES5_PKc)
	jirl	$ra, $ra, 0
.Ltmp2161:                              # EH_LABEL
# %bb.723:
	ori	$a0, $zero, 3320
	add.d	$a0, $sp, $a0
	ld.d	$a3, $a0, 0
	beqz	$a3, .LBB0_725
# %bb.724:
.Ltmp2169:                              # EH_LABEL
	ori	$a0, $zero, 3304
	add.d	$a0, $sp, $a0
	ori	$a1, $zero, 3304
	add.d	$a1, $sp, $a1
	ori	$a2, $zero, 3
	jirl	$ra, $a3, 0
.Ltmp2170:                              # EH_LABEL
.LBB0_725:                              # %_ZNSt14_Function_baseD2Ev.exit578
	ori	$a0, $zero, 3352
	add.d	$a0, $sp, $a0
	ld.d	$a3, $a0, 0
	beqz	$a3, .LBB0_727
# %bb.726:
.Ltmp2172:                              # EH_LABEL
	ori	$a0, $zero, 3336
	add.d	$a0, $sp, $a0
	ori	$a1, $zero, 3336
	add.d	$a1, $sp, $a1
	ori	$a2, $zero, 3
	jirl	$ra, $a3, 0
.Ltmp2173:                              # EH_LABEL
.LBB0_727:                              # %_ZNSt14_Function_baseD2Ev.exit580
	vld	$vr0, $sp, 16                   # 16-byte Folded Reload
	ori	$a0, $zero, 3272
	add.d	$a0, $sp, $a0
	vst	$vr0, $a0, 0
	pcalau12i	$a0, %pc_hi20(_ZNSt17_Function_handlerIFjPdS0_jEZ4mainE5$_290E9_M_invokeERKSt9_Any_dataOS0_S7_Oj)
	addi.d	$a0, $a0, %pc_lo12(_ZNSt17_Function_handlerIFjPdS0_jEZ4mainE5$_290E9_M_invokeERKSt9_Any_dataOS0_S7_Oj)
	ori	$a1, $zero, 3296
	add.d	$a1, $sp, $a1
	st.d	$a0, $a1, 0
	pcalau12i	$a0, %pc_hi20(_ZNSt17_Function_handlerIFjPdS0_jEZ4mainE5$_290E10_M_managerERSt9_Any_dataRKS4_St18_Manager_operation)
	addi.d	$a0, $a0, %pc_lo12(_ZNSt17_Function_handlerIFjPdS0_jEZ4mainE5$_290E10_M_managerERSt9_Any_dataRKS4_St18_Manager_operation)
	ori	$a1, $zero, 3288
	add.d	$a1, $sp, $a1
	st.d	$a0, $a1, 0
	ori	$a0, $zero, 3240
	add.d	$a0, $sp, $a0
	vst	$vr0, $a0, 0
	pcalau12i	$a0, %pc_hi20(_ZNSt17_Function_handlerIFjPdS0_jEZ4mainE5$_291E9_M_invokeERKSt9_Any_dataOS0_S7_Oj)
	addi.d	$a0, $a0, %pc_lo12(_ZNSt17_Function_handlerIFjPdS0_jEZ4mainE5$_291E9_M_invokeERKSt9_Any_dataOS0_S7_Oj)
	ori	$a1, $zero, 3264
	add.d	$a1, $sp, $a1
	st.d	$a0, $a1, 0
	pcalau12i	$a0, %pc_hi20(_ZNSt17_Function_handlerIFjPdS0_jEZ4mainE5$_291E10_M_managerERSt9_Any_dataRKS4_St18_Manager_operation)
	addi.d	$a0, $a0, %pc_lo12(_ZNSt17_Function_handlerIFjPdS0_jEZ4mainE5$_291E10_M_managerERSt9_Any_dataRKS4_St18_Manager_operation)
	ori	$a1, $zero, 3256
	add.d	$a1, $sp, $a1
	st.d	$a0, $a1, 0
.Ltmp2175:                              # EH_LABEL
	pcalau12i	$a0, %pc_hi20(.L.str.145)
	addi.d	$a2, $a0, %pc_lo12(.L.str.145)
	ori	$a0, $zero, 3272
	add.d	$a0, $sp, $a0
	ori	$a1, $zero, 3240
	add.d	$a1, $sp, $a1
	pcaddu18i	$ra, %call36(_ZL19checkVectorFunctionIjdEvSt8functionIFT_PT0_S3_jEES5_PKc)
	jirl	$ra, $ra, 0
.Ltmp2176:                              # EH_LABEL
# %bb.728:
	ori	$a0, $zero, 3256
	add.d	$a0, $sp, $a0
	ld.d	$a3, $a0, 0
	beqz	$a3, .LBB0_730
# %bb.729:
.Ltmp2184:                              # EH_LABEL
	ori	$a0, $zero, 3240
	add.d	$a0, $sp, $a0
	ori	$a1, $zero, 3240
	add.d	$a1, $sp, $a1
	ori	$a2, $zero, 3
	jirl	$ra, $a3, 0
.Ltmp2185:                              # EH_LABEL
.LBB0_730:                              # %_ZNSt14_Function_baseD2Ev.exit582
	ori	$a0, $zero, 3288
	add.d	$a0, $sp, $a0
	ld.d	$a3, $a0, 0
	beqz	$a3, .LBB0_732
# %bb.731:
.Ltmp2187:                              # EH_LABEL
	ori	$a0, $zero, 3272
	add.d	$a0, $sp, $a0
	ori	$a1, $zero, 3272
	add.d	$a1, $sp, $a1
	ori	$a2, $zero, 3
	jirl	$ra, $a3, 0
.Ltmp2188:                              # EH_LABEL
.LBB0_732:                              # %_ZNSt14_Function_baseD2Ev.exit584
	vld	$vr0, $sp, 16                   # 16-byte Folded Reload
	ori	$a0, $zero, 3208
	add.d	$a0, $sp, $a0
	vst	$vr0, $a0, 0
	pcalau12i	$a0, %pc_hi20(_ZNSt17_Function_handlerIFjPdS0_jEZ4mainE5$_292E9_M_invokeERKSt9_Any_dataOS0_S7_Oj)
	addi.d	$a0, $a0, %pc_lo12(_ZNSt17_Function_handlerIFjPdS0_jEZ4mainE5$_292E9_M_invokeERKSt9_Any_dataOS0_S7_Oj)
	ori	$a1, $zero, 3232
	add.d	$a1, $sp, $a1
	st.d	$a0, $a1, 0
	pcalau12i	$a0, %pc_hi20(_ZNSt17_Function_handlerIFjPdS0_jEZ4mainE5$_292E10_M_managerERSt9_Any_dataRKS4_St18_Manager_operation)
	addi.d	$a0, $a0, %pc_lo12(_ZNSt17_Function_handlerIFjPdS0_jEZ4mainE5$_292E10_M_managerERSt9_Any_dataRKS4_St18_Manager_operation)
	ori	$a1, $zero, 3224
	add.d	$a1, $sp, $a1
	st.d	$a0, $a1, 0
	ori	$a0, $zero, 3176
	add.d	$a0, $sp, $a0
	vst	$vr0, $a0, 0
	pcalau12i	$a0, %pc_hi20(_ZNSt17_Function_handlerIFjPdS0_jEZ4mainE5$_293E9_M_invokeERKSt9_Any_dataOS0_S7_Oj)
	addi.d	$a0, $a0, %pc_lo12(_ZNSt17_Function_handlerIFjPdS0_jEZ4mainE5$_293E9_M_invokeERKSt9_Any_dataOS0_S7_Oj)
	ori	$a1, $zero, 3200
	add.d	$a1, $sp, $a1
	st.d	$a0, $a1, 0
	pcalau12i	$a0, %pc_hi20(_ZNSt17_Function_handlerIFjPdS0_jEZ4mainE5$_293E10_M_managerERSt9_Any_dataRKS4_St18_Manager_operation)
	addi.d	$a0, $a0, %pc_lo12(_ZNSt17_Function_handlerIFjPdS0_jEZ4mainE5$_293E10_M_managerERSt9_Any_dataRKS4_St18_Manager_operation)
	ori	$a1, $zero, 3192
	add.d	$a1, $sp, $a1
	st.d	$a0, $a1, 0
.Ltmp2190:                              # EH_LABEL
	pcalau12i	$a0, %pc_hi20(.L.str.146)
	addi.d	$a2, $a0, %pc_lo12(.L.str.146)
	ori	$a0, $zero, 3208
	add.d	$a0, $sp, $a0
	ori	$a1, $zero, 3176
	add.d	$a1, $sp, $a1
	pcaddu18i	$ra, %call36(_ZL19checkVectorFunctionIjdEvSt8functionIFT_PT0_S3_jEES5_PKc)
	jirl	$ra, $ra, 0
.Ltmp2191:                              # EH_LABEL
# %bb.733:
	ori	$a0, $zero, 3192
	add.d	$a0, $sp, $a0
	ld.d	$a3, $a0, 0
	beqz	$a3, .LBB0_735
# %bb.734:
.Ltmp2199:                              # EH_LABEL
	ori	$a0, $zero, 3176
	add.d	$a0, $sp, $a0
	ori	$a1, $zero, 3176
	add.d	$a1, $sp, $a1
	ori	$a2, $zero, 3
	jirl	$ra, $a3, 0
.Ltmp2200:                              # EH_LABEL
.LBB0_735:                              # %_ZNSt14_Function_baseD2Ev.exit586
	ori	$a0, $zero, 3224
	add.d	$a0, $sp, $a0
	ld.d	$a3, $a0, 0
	beqz	$a3, .LBB0_737
# %bb.736:
.Ltmp2202:                              # EH_LABEL
	ori	$a0, $zero, 3208
	add.d	$a0, $sp, $a0
	ori	$a1, $zero, 3208
	add.d	$a1, $sp, $a1
	ori	$a2, $zero, 3
	jirl	$ra, $a3, 0
.Ltmp2203:                              # EH_LABEL
.LBB0_737:                              # %_ZNSt14_Function_baseD2Ev.exit588
	vld	$vr0, $sp, 16                   # 16-byte Folded Reload
	ori	$a0, $zero, 3144
	add.d	$a0, $sp, $a0
	vst	$vr0, $a0, 0
	pcalau12i	$a0, %pc_hi20(_ZNSt17_Function_handlerIFjPdS0_jEZ4mainE5$_294E9_M_invokeERKSt9_Any_dataOS0_S7_Oj)
	addi.d	$a0, $a0, %pc_lo12(_ZNSt17_Function_handlerIFjPdS0_jEZ4mainE5$_294E9_M_invokeERKSt9_Any_dataOS0_S7_Oj)
	ori	$a1, $zero, 3168
	add.d	$a1, $sp, $a1
	st.d	$a0, $a1, 0
	pcalau12i	$a0, %pc_hi20(_ZNSt17_Function_handlerIFjPdS0_jEZ4mainE5$_294E10_M_managerERSt9_Any_dataRKS4_St18_Manager_operation)
	addi.d	$a0, $a0, %pc_lo12(_ZNSt17_Function_handlerIFjPdS0_jEZ4mainE5$_294E10_M_managerERSt9_Any_dataRKS4_St18_Manager_operation)
	ori	$a1, $zero, 3160
	add.d	$a1, $sp, $a1
	st.d	$a0, $a1, 0
	ori	$a0, $zero, 3112
	add.d	$a0, $sp, $a0
	vst	$vr0, $a0, 0
	pcalau12i	$a0, %pc_hi20(_ZNSt17_Function_handlerIFjPdS0_jEZ4mainE5$_295E9_M_invokeERKSt9_Any_dataOS0_S7_Oj)
	addi.d	$a0, $a0, %pc_lo12(_ZNSt17_Function_handlerIFjPdS0_jEZ4mainE5$_295E9_M_invokeERKSt9_Any_dataOS0_S7_Oj)
	ori	$a1, $zero, 3136
	add.d	$a1, $sp, $a1
	st.d	$a0, $a1, 0
	pcalau12i	$a0, %pc_hi20(_ZNSt17_Function_handlerIFjPdS0_jEZ4mainE5$_295E10_M_managerERSt9_Any_dataRKS4_St18_Manager_operation)
	addi.d	$a0, $a0, %pc_lo12(_ZNSt17_Function_handlerIFjPdS0_jEZ4mainE5$_295E10_M_managerERSt9_Any_dataRKS4_St18_Manager_operation)
	ori	$a1, $zero, 3128
	add.d	$a1, $sp, $a1
	st.d	$a0, $a1, 0
.Ltmp2205:                              # EH_LABEL
	pcalau12i	$a0, %pc_hi20(.L.str.147)
	addi.d	$a2, $a0, %pc_lo12(.L.str.147)
	ori	$a0, $zero, 3144
	add.d	$a0, $sp, $a0
	ori	$a1, $zero, 3112
	add.d	$a1, $sp, $a1
	pcaddu18i	$ra, %call36(_ZL19checkVectorFunctionIjdEvSt8functionIFT_PT0_S3_jEES5_PKc)
	jirl	$ra, $ra, 0
.Ltmp2206:                              # EH_LABEL
# %bb.738:
	ori	$a0, $zero, 3128
	add.d	$a0, $sp, $a0
	ld.d	$a3, $a0, 0
	beqz	$a3, .LBB0_740
# %bb.739:
.Ltmp2214:                              # EH_LABEL
	ori	$a0, $zero, 3112
	add.d	$a0, $sp, $a0
	ori	$a1, $zero, 3112
	add.d	$a1, $sp, $a1
	ori	$a2, $zero, 3
	jirl	$ra, $a3, 0
.Ltmp2215:                              # EH_LABEL
.LBB0_740:                              # %_ZNSt14_Function_baseD2Ev.exit590
	ori	$a0, $zero, 3160
	add.d	$a0, $sp, $a0
	ld.d	$a3, $a0, 0
	beqz	$a3, .LBB0_742
# %bb.741:
.Ltmp2217:                              # EH_LABEL
	ori	$a0, $zero, 3144
	add.d	$a0, $sp, $a0
	ori	$a1, $zero, 3144
	add.d	$a1, $sp, $a1
	ori	$a2, $zero, 3
	jirl	$ra, $a3, 0
.Ltmp2218:                              # EH_LABEL
.LBB0_742:                              # %_ZNSt14_Function_baseD2Ev.exit592
	vld	$vr0, $sp, 16                   # 16-byte Folded Reload
	ori	$a0, $zero, 3080
	add.d	$a0, $sp, $a0
	vst	$vr0, $a0, 0
	pcalau12i	$a0, %pc_hi20(_ZNSt17_Function_handlerIFjPdS0_jEZ4mainE5$_296E9_M_invokeERKSt9_Any_dataOS0_S7_Oj)
	addi.d	$a0, $a0, %pc_lo12(_ZNSt17_Function_handlerIFjPdS0_jEZ4mainE5$_296E9_M_invokeERKSt9_Any_dataOS0_S7_Oj)
	ori	$a1, $zero, 3104
	add.d	$a1, $sp, $a1
	st.d	$a0, $a1, 0
	pcalau12i	$a0, %pc_hi20(_ZNSt17_Function_handlerIFjPdS0_jEZ4mainE5$_296E10_M_managerERSt9_Any_dataRKS4_St18_Manager_operation)
	addi.d	$a0, $a0, %pc_lo12(_ZNSt17_Function_handlerIFjPdS0_jEZ4mainE5$_296E10_M_managerERSt9_Any_dataRKS4_St18_Manager_operation)
	ori	$a1, $zero, 3096
	add.d	$a1, $sp, $a1
	st.d	$a0, $a1, 0
	ori	$a0, $zero, 3048
	add.d	$a0, $sp, $a0
	vst	$vr0, $a0, 0
	pcalau12i	$a0, %pc_hi20(_ZNSt17_Function_handlerIFjPdS0_jEZ4mainE5$_297E9_M_invokeERKSt9_Any_dataOS0_S7_Oj)
	addi.d	$a0, $a0, %pc_lo12(_ZNSt17_Function_handlerIFjPdS0_jEZ4mainE5$_297E9_M_invokeERKSt9_Any_dataOS0_S7_Oj)
	ori	$a1, $zero, 3072
	add.d	$a1, $sp, $a1
	st.d	$a0, $a1, 0
	pcalau12i	$a0, %pc_hi20(_ZNSt17_Function_handlerIFjPdS0_jEZ4mainE5$_297E10_M_managerERSt9_Any_dataRKS4_St18_Manager_operation)
	addi.d	$a0, $a0, %pc_lo12(_ZNSt17_Function_handlerIFjPdS0_jEZ4mainE5$_297E10_M_managerERSt9_Any_dataRKS4_St18_Manager_operation)
	ori	$a1, $zero, 3064
	add.d	$a1, $sp, $a1
	st.d	$a0, $a1, 0
.Ltmp2220:                              # EH_LABEL
	pcalau12i	$a0, %pc_hi20(.L.str.148)
	addi.d	$a2, $a0, %pc_lo12(.L.str.148)
	ori	$a0, $zero, 3080
	add.d	$a0, $sp, $a0
	ori	$a1, $zero, 3048
	add.d	$a1, $sp, $a1
	pcaddu18i	$ra, %call36(_ZL19checkVectorFunctionIjdEvSt8functionIFT_PT0_S3_jEES5_PKc)
	jirl	$ra, $ra, 0
.Ltmp2221:                              # EH_LABEL
# %bb.743:
	ori	$a0, $zero, 3064
	add.d	$a0, $sp, $a0
	ld.d	$a3, $a0, 0
	beqz	$a3, .LBB0_745
# %bb.744:
.Ltmp2229:                              # EH_LABEL
	ori	$a0, $zero, 3048
	add.d	$a0, $sp, $a0
	ori	$a1, $zero, 3048
	add.d	$a1, $sp, $a1
	ori	$a2, $zero, 3
	jirl	$ra, $a3, 0
.Ltmp2230:                              # EH_LABEL
.LBB0_745:                              # %_ZNSt14_Function_baseD2Ev.exit594
	ori	$a0, $zero, 3096
	add.d	$a0, $sp, $a0
	ld.d	$a3, $a0, 0
	beqz	$a3, .LBB0_747
# %bb.746:
.Ltmp2232:                              # EH_LABEL
	ori	$a0, $zero, 3080
	add.d	$a0, $sp, $a0
	ori	$a1, $zero, 3080
	add.d	$a1, $sp, $a1
	ori	$a2, $zero, 3
	jirl	$ra, $a3, 0
.Ltmp2233:                              # EH_LABEL
.LBB0_747:                              # %_ZNSt14_Function_baseD2Ev.exit596
	vld	$vr0, $sp, 16                   # 16-byte Folded Reload
	ori	$a0, $zero, 3016
	add.d	$a0, $sp, $a0
	vst	$vr0, $a0, 0
	pcalau12i	$a0, %pc_hi20(_ZNSt17_Function_handlerIFjPdS0_jEZ4mainE5$_298E9_M_invokeERKSt9_Any_dataOS0_S7_Oj)
	addi.d	$a0, $a0, %pc_lo12(_ZNSt17_Function_handlerIFjPdS0_jEZ4mainE5$_298E9_M_invokeERKSt9_Any_dataOS0_S7_Oj)
	ori	$a1, $zero, 3040
	add.d	$a1, $sp, $a1
	st.d	$a0, $a1, 0
	pcalau12i	$a0, %pc_hi20(_ZNSt17_Function_handlerIFjPdS0_jEZ4mainE5$_298E10_M_managerERSt9_Any_dataRKS4_St18_Manager_operation)
	addi.d	$a0, $a0, %pc_lo12(_ZNSt17_Function_handlerIFjPdS0_jEZ4mainE5$_298E10_M_managerERSt9_Any_dataRKS4_St18_Manager_operation)
	ori	$a1, $zero, 3032
	add.d	$a1, $sp, $a1
	st.d	$a0, $a1, 0
	ori	$a0, $zero, 2984
	add.d	$a0, $sp, $a0
	vst	$vr0, $a0, 0
	pcalau12i	$a0, %pc_hi20(_ZNSt17_Function_handlerIFjPdS0_jEZ4mainE5$_299E9_M_invokeERKSt9_Any_dataOS0_S7_Oj)
	addi.d	$a0, $a0, %pc_lo12(_ZNSt17_Function_handlerIFjPdS0_jEZ4mainE5$_299E9_M_invokeERKSt9_Any_dataOS0_S7_Oj)
	ori	$a1, $zero, 3008
	add.d	$a1, $sp, $a1
	st.d	$a0, $a1, 0
	pcalau12i	$a0, %pc_hi20(_ZNSt17_Function_handlerIFjPdS0_jEZ4mainE5$_299E10_M_managerERSt9_Any_dataRKS4_St18_Manager_operation)
	addi.d	$a0, $a0, %pc_lo12(_ZNSt17_Function_handlerIFjPdS0_jEZ4mainE5$_299E10_M_managerERSt9_Any_dataRKS4_St18_Manager_operation)
	ori	$a1, $zero, 3000
	add.d	$a1, $sp, $a1
	st.d	$a0, $a1, 0
.Ltmp2235:                              # EH_LABEL
	pcalau12i	$a0, %pc_hi20(.L.str.149)
	addi.d	$a2, $a0, %pc_lo12(.L.str.149)
	ori	$a0, $zero, 3016
	add.d	$a0, $sp, $a0
	ori	$a1, $zero, 2984
	add.d	$a1, $sp, $a1
	pcaddu18i	$ra, %call36(_ZL19checkVectorFunctionIjdEvSt8functionIFT_PT0_S3_jEES5_PKc)
	jirl	$ra, $ra, 0
.Ltmp2236:                              # EH_LABEL
# %bb.748:
	ori	$a0, $zero, 3000
	add.d	$a0, $sp, $a0
	ld.d	$a3, $a0, 0
	beqz	$a3, .LBB0_750
# %bb.749:
.Ltmp2244:                              # EH_LABEL
	ori	$a0, $zero, 2984
	add.d	$a0, $sp, $a0
	ori	$a1, $zero, 2984
	add.d	$a1, $sp, $a1
	ori	$a2, $zero, 3
	jirl	$ra, $a3, 0
.Ltmp2245:                              # EH_LABEL
.LBB0_750:                              # %_ZNSt14_Function_baseD2Ev.exit598
	ori	$a0, $zero, 3032
	add.d	$a0, $sp, $a0
	ld.d	$a3, $a0, 0
	beqz	$a3, .LBB0_752
# %bb.751:
.Ltmp2247:                              # EH_LABEL
	ori	$a0, $zero, 3016
	add.d	$a0, $sp, $a0
	ori	$a1, $zero, 3016
	add.d	$a1, $sp, $a1
	ori	$a2, $zero, 3
	jirl	$ra, $a3, 0
.Ltmp2248:                              # EH_LABEL
.LBB0_752:                              # %_ZNSt14_Function_baseD2Ev.exit600
	vld	$vr0, $sp, 16                   # 16-byte Folded Reload
	ori	$a0, $zero, 2952
	add.d	$a0, $sp, $a0
	vst	$vr0, $a0, 0
	pcalau12i	$a0, %pc_hi20(_ZNSt17_Function_handlerIFjPdS0_jEZ4mainE5$_300E9_M_invokeERKSt9_Any_dataOS0_S7_Oj)
	addi.d	$a0, $a0, %pc_lo12(_ZNSt17_Function_handlerIFjPdS0_jEZ4mainE5$_300E9_M_invokeERKSt9_Any_dataOS0_S7_Oj)
	ori	$a1, $zero, 2976
	add.d	$a1, $sp, $a1
	st.d	$a0, $a1, 0
	pcalau12i	$a0, %pc_hi20(_ZNSt17_Function_handlerIFjPdS0_jEZ4mainE5$_300E10_M_managerERSt9_Any_dataRKS4_St18_Manager_operation)
	addi.d	$a0, $a0, %pc_lo12(_ZNSt17_Function_handlerIFjPdS0_jEZ4mainE5$_300E10_M_managerERSt9_Any_dataRKS4_St18_Manager_operation)
	ori	$a1, $zero, 2968
	add.d	$a1, $sp, $a1
	st.d	$a0, $a1, 0
	ori	$a0, $zero, 2920
	add.d	$a0, $sp, $a0
	vst	$vr0, $a0, 0
	pcalau12i	$a0, %pc_hi20(_ZNSt17_Function_handlerIFjPdS0_jEZ4mainE5$_301E9_M_invokeERKSt9_Any_dataOS0_S7_Oj)
	addi.d	$a0, $a0, %pc_lo12(_ZNSt17_Function_handlerIFjPdS0_jEZ4mainE5$_301E9_M_invokeERKSt9_Any_dataOS0_S7_Oj)
	ori	$a1, $zero, 2944
	add.d	$a1, $sp, $a1
	st.d	$a0, $a1, 0
	pcalau12i	$a0, %pc_hi20(_ZNSt17_Function_handlerIFjPdS0_jEZ4mainE5$_301E10_M_managerERSt9_Any_dataRKS4_St18_Manager_operation)
	addi.d	$a0, $a0, %pc_lo12(_ZNSt17_Function_handlerIFjPdS0_jEZ4mainE5$_301E10_M_managerERSt9_Any_dataRKS4_St18_Manager_operation)
	ori	$a1, $zero, 2936
	add.d	$a1, $sp, $a1
	st.d	$a0, $a1, 0
.Ltmp2250:                              # EH_LABEL
	pcalau12i	$a0, %pc_hi20(.L.str.150)
	addi.d	$a2, $a0, %pc_lo12(.L.str.150)
	ori	$a0, $zero, 2952
	add.d	$a0, $sp, $a0
	ori	$a1, $zero, 2920
	add.d	$a1, $sp, $a1
	pcaddu18i	$ra, %call36(_ZL19checkVectorFunctionIjdEvSt8functionIFT_PT0_S3_jEES5_PKc)
	jirl	$ra, $ra, 0
.Ltmp2251:                              # EH_LABEL
# %bb.753:
	ori	$a0, $zero, 2936
	add.d	$a0, $sp, $a0
	ld.d	$a3, $a0, 0
	beqz	$a3, .LBB0_755
# %bb.754:
.Ltmp2259:                              # EH_LABEL
	ori	$a0, $zero, 2920
	add.d	$a0, $sp, $a0
	ori	$a1, $zero, 2920
	add.d	$a1, $sp, $a1
	ori	$a2, $zero, 3
	jirl	$ra, $a3, 0
.Ltmp2260:                              # EH_LABEL
.LBB0_755:                              # %_ZNSt14_Function_baseD2Ev.exit602
	ori	$a0, $zero, 2968
	add.d	$a0, $sp, $a0
	ld.d	$a3, $a0, 0
	beqz	$a3, .LBB0_757
# %bb.756:
.Ltmp2262:                              # EH_LABEL
	ori	$a0, $zero, 2952
	add.d	$a0, $sp, $a0
	ori	$a1, $zero, 2952
	add.d	$a1, $sp, $a1
	ori	$a2, $zero, 3
	jirl	$ra, $a3, 0
.Ltmp2263:                              # EH_LABEL
.LBB0_757:                              # %_ZNSt14_Function_baseD2Ev.exit604
	vld	$vr0, $sp, 16                   # 16-byte Folded Reload
	ori	$a0, $zero, 2888
	add.d	$a0, $sp, $a0
	vst	$vr0, $a0, 0
	pcalau12i	$a0, %pc_hi20(_ZNSt17_Function_handlerIFjPdS0_jEZ4mainE5$_302E9_M_invokeERKSt9_Any_dataOS0_S7_Oj)
	addi.d	$a0, $a0, %pc_lo12(_ZNSt17_Function_handlerIFjPdS0_jEZ4mainE5$_302E9_M_invokeERKSt9_Any_dataOS0_S7_Oj)
	ori	$a1, $zero, 2912
	add.d	$a1, $sp, $a1
	st.d	$a0, $a1, 0
	pcalau12i	$a0, %pc_hi20(_ZNSt17_Function_handlerIFjPdS0_jEZ4mainE5$_302E10_M_managerERSt9_Any_dataRKS4_St18_Manager_operation)
	addi.d	$a0, $a0, %pc_lo12(_ZNSt17_Function_handlerIFjPdS0_jEZ4mainE5$_302E10_M_managerERSt9_Any_dataRKS4_St18_Manager_operation)
	ori	$a1, $zero, 2904
	add.d	$a1, $sp, $a1
	st.d	$a0, $a1, 0
	ori	$a0, $zero, 2856
	add.d	$a0, $sp, $a0
	vst	$vr0, $a0, 0
	pcalau12i	$a0, %pc_hi20(_ZNSt17_Function_handlerIFjPdS0_jEZ4mainE5$_303E9_M_invokeERKSt9_Any_dataOS0_S7_Oj)
	addi.d	$a0, $a0, %pc_lo12(_ZNSt17_Function_handlerIFjPdS0_jEZ4mainE5$_303E9_M_invokeERKSt9_Any_dataOS0_S7_Oj)
	ori	$a1, $zero, 2880
	add.d	$a1, $sp, $a1
	st.d	$a0, $a1, 0
	pcalau12i	$a0, %pc_hi20(_ZNSt17_Function_handlerIFjPdS0_jEZ4mainE5$_303E10_M_managerERSt9_Any_dataRKS4_St18_Manager_operation)
	addi.d	$a0, $a0, %pc_lo12(_ZNSt17_Function_handlerIFjPdS0_jEZ4mainE5$_303E10_M_managerERSt9_Any_dataRKS4_St18_Manager_operation)
	ori	$a1, $zero, 2872
	add.d	$a1, $sp, $a1
	st.d	$a0, $a1, 0
.Ltmp2265:                              # EH_LABEL
	pcalau12i	$a0, %pc_hi20(.L.str.151)
	addi.d	$a2, $a0, %pc_lo12(.L.str.151)
	ori	$a0, $zero, 2888
	add.d	$a0, $sp, $a0
	ori	$a1, $zero, 2856
	add.d	$a1, $sp, $a1
	pcaddu18i	$ra, %call36(_ZL19checkVectorFunctionIjdEvSt8functionIFT_PT0_S3_jEES5_PKc)
	jirl	$ra, $ra, 0
.Ltmp2266:                              # EH_LABEL
# %bb.758:
	ori	$a0, $zero, 2872
	add.d	$a0, $sp, $a0
	ld.d	$a3, $a0, 0
	beqz	$a3, .LBB0_760
# %bb.759:
.Ltmp2274:                              # EH_LABEL
	ori	$a0, $zero, 2856
	add.d	$a0, $sp, $a0
	ori	$a1, $zero, 2856
	add.d	$a1, $sp, $a1
	ori	$a2, $zero, 3
	jirl	$ra, $a3, 0
.Ltmp2275:                              # EH_LABEL
.LBB0_760:                              # %_ZNSt14_Function_baseD2Ev.exit606
	ori	$a0, $zero, 2904
	add.d	$a0, $sp, $a0
	ld.d	$a3, $a0, 0
	beqz	$a3, .LBB0_762
# %bb.761:
.Ltmp2277:                              # EH_LABEL
	ori	$a0, $zero, 2888
	add.d	$a0, $sp, $a0
	ori	$a1, $zero, 2888
	add.d	$a1, $sp, $a1
	ori	$a2, $zero, 3
	jirl	$ra, $a3, 0
.Ltmp2278:                              # EH_LABEL
.LBB0_762:                              # %_ZNSt14_Function_baseD2Ev.exit608
	vld	$vr0, $sp, 16                   # 16-byte Folded Reload
	ori	$a0, $zero, 2824
	add.d	$a0, $sp, $a0
	vst	$vr0, $a0, 0
	pcalau12i	$a0, %pc_hi20(_ZNSt17_Function_handlerIFjPdS0_jEZ4mainE5$_304E9_M_invokeERKSt9_Any_dataOS0_S7_Oj)
	addi.d	$a0, $a0, %pc_lo12(_ZNSt17_Function_handlerIFjPdS0_jEZ4mainE5$_304E9_M_invokeERKSt9_Any_dataOS0_S7_Oj)
	ori	$a1, $zero, 2848
	add.d	$a1, $sp, $a1
	st.d	$a0, $a1, 0
	pcalau12i	$a0, %pc_hi20(_ZNSt17_Function_handlerIFjPdS0_jEZ4mainE5$_304E10_M_managerERSt9_Any_dataRKS4_St18_Manager_operation)
	addi.d	$a0, $a0, %pc_lo12(_ZNSt17_Function_handlerIFjPdS0_jEZ4mainE5$_304E10_M_managerERSt9_Any_dataRKS4_St18_Manager_operation)
	ori	$a1, $zero, 2840
	add.d	$a1, $sp, $a1
	st.d	$a0, $a1, 0
	ori	$a0, $zero, 2792
	add.d	$a0, $sp, $a0
	vst	$vr0, $a0, 0
	pcalau12i	$a0, %pc_hi20(_ZNSt17_Function_handlerIFjPdS0_jEZ4mainE5$_305E9_M_invokeERKSt9_Any_dataOS0_S7_Oj)
	addi.d	$a0, $a0, %pc_lo12(_ZNSt17_Function_handlerIFjPdS0_jEZ4mainE5$_305E9_M_invokeERKSt9_Any_dataOS0_S7_Oj)
	ori	$a1, $zero, 2816
	add.d	$a1, $sp, $a1
	st.d	$a0, $a1, 0
	pcalau12i	$a0, %pc_hi20(_ZNSt17_Function_handlerIFjPdS0_jEZ4mainE5$_305E10_M_managerERSt9_Any_dataRKS4_St18_Manager_operation)
	addi.d	$a0, $a0, %pc_lo12(_ZNSt17_Function_handlerIFjPdS0_jEZ4mainE5$_305E10_M_managerERSt9_Any_dataRKS4_St18_Manager_operation)
	ori	$a1, $zero, 2808
	add.d	$a1, $sp, $a1
	st.d	$a0, $a1, 0
.Ltmp2280:                              # EH_LABEL
	pcalau12i	$a0, %pc_hi20(.L.str.152)
	addi.d	$a2, $a0, %pc_lo12(.L.str.152)
	ori	$a0, $zero, 2824
	add.d	$a0, $sp, $a0
	ori	$a1, $zero, 2792
	add.d	$a1, $sp, $a1
	pcaddu18i	$ra, %call36(_ZL19checkVectorFunctionIjdEvSt8functionIFT_PT0_S3_jEES5_PKc)
	jirl	$ra, $ra, 0
.Ltmp2281:                              # EH_LABEL
# %bb.763:
	ori	$a0, $zero, 2808
	add.d	$a0, $sp, $a0
	ld.d	$a3, $a0, 0
	beqz	$a3, .LBB0_765
# %bb.764:
.Ltmp2289:                              # EH_LABEL
	ori	$a0, $zero, 2792
	add.d	$a0, $sp, $a0
	ori	$a1, $zero, 2792
	add.d	$a1, $sp, $a1
	ori	$a2, $zero, 3
	jirl	$ra, $a3, 0
.Ltmp2290:                              # EH_LABEL
.LBB0_765:                              # %_ZNSt14_Function_baseD2Ev.exit610
	ori	$a0, $zero, 2840
	add.d	$a0, $sp, $a0
	ld.d	$a3, $a0, 0
	beqz	$a3, .LBB0_767
# %bb.766:
.Ltmp2292:                              # EH_LABEL
	ori	$a0, $zero, 2824
	add.d	$a0, $sp, $a0
	ori	$a1, $zero, 2824
	add.d	$a1, $sp, $a1
	ori	$a2, $zero, 3
	jirl	$ra, $a3, 0
.Ltmp2293:                              # EH_LABEL
.LBB0_767:                              # %_ZNSt14_Function_baseD2Ev.exit612
	vld	$vr0, $sp, 16                   # 16-byte Folded Reload
	ori	$a0, $zero, 2760
	add.d	$a0, $sp, $a0
	vst	$vr0, $a0, 0
	pcalau12i	$a0, %pc_hi20(_ZNSt17_Function_handlerIFjPdS0_jEZ4mainE5$_306E9_M_invokeERKSt9_Any_dataOS0_S7_Oj)
	addi.d	$a0, $a0, %pc_lo12(_ZNSt17_Function_handlerIFjPdS0_jEZ4mainE5$_306E9_M_invokeERKSt9_Any_dataOS0_S7_Oj)
	ori	$a1, $zero, 2784
	add.d	$a1, $sp, $a1
	st.d	$a0, $a1, 0
	pcalau12i	$a0, %pc_hi20(_ZNSt17_Function_handlerIFjPdS0_jEZ4mainE5$_306E10_M_managerERSt9_Any_dataRKS4_St18_Manager_operation)
	addi.d	$a0, $a0, %pc_lo12(_ZNSt17_Function_handlerIFjPdS0_jEZ4mainE5$_306E10_M_managerERSt9_Any_dataRKS4_St18_Manager_operation)
	ori	$a1, $zero, 2776
	add.d	$a1, $sp, $a1
	st.d	$a0, $a1, 0
	ori	$a0, $zero, 2728
	add.d	$a0, $sp, $a0
	vst	$vr0, $a0, 0
	pcalau12i	$a0, %pc_hi20(_ZNSt17_Function_handlerIFjPdS0_jEZ4mainE5$_307E9_M_invokeERKSt9_Any_dataOS0_S7_Oj)
	addi.d	$a0, $a0, %pc_lo12(_ZNSt17_Function_handlerIFjPdS0_jEZ4mainE5$_307E9_M_invokeERKSt9_Any_dataOS0_S7_Oj)
	ori	$a1, $zero, 2752
	add.d	$a1, $sp, $a1
	st.d	$a0, $a1, 0
	pcalau12i	$a0, %pc_hi20(_ZNSt17_Function_handlerIFjPdS0_jEZ4mainE5$_307E10_M_managerERSt9_Any_dataRKS4_St18_Manager_operation)
	addi.d	$a0, $a0, %pc_lo12(_ZNSt17_Function_handlerIFjPdS0_jEZ4mainE5$_307E10_M_managerERSt9_Any_dataRKS4_St18_Manager_operation)
	ori	$a1, $zero, 2744
	add.d	$a1, $sp, $a1
	st.d	$a0, $a1, 0
.Ltmp2295:                              # EH_LABEL
	pcalau12i	$a0, %pc_hi20(.L.str.153)
	addi.d	$a2, $a0, %pc_lo12(.L.str.153)
	ori	$a0, $zero, 2760
	add.d	$a0, $sp, $a0
	ori	$a1, $zero, 2728
	add.d	$a1, $sp, $a1
	pcaddu18i	$ra, %call36(_ZL19checkVectorFunctionIjdEvSt8functionIFT_PT0_S3_jEES5_PKc)
	jirl	$ra, $ra, 0
.Ltmp2296:                              # EH_LABEL
# %bb.768:
	ori	$a0, $zero, 2744
	add.d	$a0, $sp, $a0
	ld.d	$a3, $a0, 0
	beqz	$a3, .LBB0_770
# %bb.769:
.Ltmp2304:                              # EH_LABEL
	ori	$a0, $zero, 2728
	add.d	$a0, $sp, $a0
	ori	$a1, $zero, 2728
	add.d	$a1, $sp, $a1
	ori	$a2, $zero, 3
	jirl	$ra, $a3, 0
.Ltmp2305:                              # EH_LABEL
.LBB0_770:                              # %_ZNSt14_Function_baseD2Ev.exit614
	ori	$a0, $zero, 2776
	add.d	$a0, $sp, $a0
	ld.d	$a3, $a0, 0
	beqz	$a3, .LBB0_772
# %bb.771:
.Ltmp2307:                              # EH_LABEL
	ori	$a0, $zero, 2760
	add.d	$a0, $sp, $a0
	ori	$a1, $zero, 2760
	add.d	$a1, $sp, $a1
	ori	$a2, $zero, 3
	jirl	$ra, $a3, 0
.Ltmp2308:                              # EH_LABEL
.LBB0_772:                              # %_ZNSt14_Function_baseD2Ev.exit616
	vld	$vr0, $sp, 16                   # 16-byte Folded Reload
	ori	$a0, $zero, 2696
	add.d	$a0, $sp, $a0
	vst	$vr0, $a0, 0
	pcalau12i	$a0, %pc_hi20(_ZNSt17_Function_handlerIFjPdS0_jEZ4mainE5$_308E9_M_invokeERKSt9_Any_dataOS0_S7_Oj)
	addi.d	$a0, $a0, %pc_lo12(_ZNSt17_Function_handlerIFjPdS0_jEZ4mainE5$_308E9_M_invokeERKSt9_Any_dataOS0_S7_Oj)
	ori	$a1, $zero, 2720
	add.d	$a1, $sp, $a1
	st.d	$a0, $a1, 0
	pcalau12i	$a0, %pc_hi20(_ZNSt17_Function_handlerIFjPdS0_jEZ4mainE5$_308E10_M_managerERSt9_Any_dataRKS4_St18_Manager_operation)
	addi.d	$a0, $a0, %pc_lo12(_ZNSt17_Function_handlerIFjPdS0_jEZ4mainE5$_308E10_M_managerERSt9_Any_dataRKS4_St18_Manager_operation)
	ori	$a1, $zero, 2712
	add.d	$a1, $sp, $a1
	st.d	$a0, $a1, 0
	ori	$a0, $zero, 2664
	add.d	$a0, $sp, $a0
	vst	$vr0, $a0, 0
	pcalau12i	$a0, %pc_hi20(_ZNSt17_Function_handlerIFjPdS0_jEZ4mainE5$_309E9_M_invokeERKSt9_Any_dataOS0_S7_Oj)
	addi.d	$a0, $a0, %pc_lo12(_ZNSt17_Function_handlerIFjPdS0_jEZ4mainE5$_309E9_M_invokeERKSt9_Any_dataOS0_S7_Oj)
	ori	$a1, $zero, 2688
	add.d	$a1, $sp, $a1
	st.d	$a0, $a1, 0
	pcalau12i	$a0, %pc_hi20(_ZNSt17_Function_handlerIFjPdS0_jEZ4mainE5$_309E10_M_managerERSt9_Any_dataRKS4_St18_Manager_operation)
	addi.d	$a0, $a0, %pc_lo12(_ZNSt17_Function_handlerIFjPdS0_jEZ4mainE5$_309E10_M_managerERSt9_Any_dataRKS4_St18_Manager_operation)
	ori	$a1, $zero, 2680
	add.d	$a1, $sp, $a1
	st.d	$a0, $a1, 0
.Ltmp2310:                              # EH_LABEL
	pcalau12i	$a0, %pc_hi20(.L.str.154)
	addi.d	$a2, $a0, %pc_lo12(.L.str.154)
	ori	$a0, $zero, 2696
	add.d	$a0, $sp, $a0
	ori	$a1, $zero, 2664
	add.d	$a1, $sp, $a1
	pcaddu18i	$ra, %call36(_ZL19checkVectorFunctionIjdEvSt8functionIFT_PT0_S3_jEES5_PKc)
	jirl	$ra, $ra, 0
.Ltmp2311:                              # EH_LABEL
# %bb.773:
	ori	$a0, $zero, 2680
	add.d	$a0, $sp, $a0
	ld.d	$a3, $a0, 0
	beqz	$a3, .LBB0_775
# %bb.774:
.Ltmp2319:                              # EH_LABEL
	ori	$a0, $zero, 2664
	add.d	$a0, $sp, $a0
	ori	$a1, $zero, 2664
	add.d	$a1, $sp, $a1
	ori	$a2, $zero, 3
	jirl	$ra, $a3, 0
.Ltmp2320:                              # EH_LABEL
.LBB0_775:                              # %_ZNSt14_Function_baseD2Ev.exit618
	ori	$a0, $zero, 2712
	add.d	$a0, $sp, $a0
	ld.d	$a3, $a0, 0
	beqz	$a3, .LBB0_777
# %bb.776:
.Ltmp2322:                              # EH_LABEL
	ori	$a0, $zero, 2696
	add.d	$a0, $sp, $a0
	ori	$a1, $zero, 2696
	add.d	$a1, $sp, $a1
	ori	$a2, $zero, 3
	jirl	$ra, $a3, 0
.Ltmp2323:                              # EH_LABEL
.LBB0_777:                              # %_ZNSt14_Function_baseD2Ev.exit620
	vld	$vr0, $sp, 16                   # 16-byte Folded Reload
	ori	$a0, $zero, 2632
	add.d	$a0, $sp, $a0
	vst	$vr0, $a0, 0
	pcalau12i	$a0, %pc_hi20(_ZNSt17_Function_handlerIFjPdS0_jEZ4mainE5$_310E9_M_invokeERKSt9_Any_dataOS0_S7_Oj)
	addi.d	$a0, $a0, %pc_lo12(_ZNSt17_Function_handlerIFjPdS0_jEZ4mainE5$_310E9_M_invokeERKSt9_Any_dataOS0_S7_Oj)
	ori	$a1, $zero, 2656
	add.d	$a1, $sp, $a1
	st.d	$a0, $a1, 0
	pcalau12i	$a0, %pc_hi20(_ZNSt17_Function_handlerIFjPdS0_jEZ4mainE5$_310E10_M_managerERSt9_Any_dataRKS4_St18_Manager_operation)
	addi.d	$a0, $a0, %pc_lo12(_ZNSt17_Function_handlerIFjPdS0_jEZ4mainE5$_310E10_M_managerERSt9_Any_dataRKS4_St18_Manager_operation)
	ori	$a1, $zero, 2648
	add.d	$a1, $sp, $a1
	st.d	$a0, $a1, 0
	ori	$a0, $zero, 2600
	add.d	$a0, $sp, $a0
	vst	$vr0, $a0, 0
	pcalau12i	$a0, %pc_hi20(_ZNSt17_Function_handlerIFjPdS0_jEZ4mainE5$_311E9_M_invokeERKSt9_Any_dataOS0_S7_Oj)
	addi.d	$a0, $a0, %pc_lo12(_ZNSt17_Function_handlerIFjPdS0_jEZ4mainE5$_311E9_M_invokeERKSt9_Any_dataOS0_S7_Oj)
	ori	$a1, $zero, 2624
	add.d	$a1, $sp, $a1
	st.d	$a0, $a1, 0
	pcalau12i	$a0, %pc_hi20(_ZNSt17_Function_handlerIFjPdS0_jEZ4mainE5$_311E10_M_managerERSt9_Any_dataRKS4_St18_Manager_operation)
	addi.d	$a0, $a0, %pc_lo12(_ZNSt17_Function_handlerIFjPdS0_jEZ4mainE5$_311E10_M_managerERSt9_Any_dataRKS4_St18_Manager_operation)
	ori	$a1, $zero, 2616
	add.d	$a1, $sp, $a1
	st.d	$a0, $a1, 0
.Ltmp2325:                              # EH_LABEL
	pcalau12i	$a0, %pc_hi20(.L.str.155)
	addi.d	$a2, $a0, %pc_lo12(.L.str.155)
	ori	$a0, $zero, 2632
	add.d	$a0, $sp, $a0
	ori	$a1, $zero, 2600
	add.d	$a1, $sp, $a1
	pcaddu18i	$ra, %call36(_ZL19checkVectorFunctionIjdEvSt8functionIFT_PT0_S3_jEES5_PKc)
	jirl	$ra, $ra, 0
.Ltmp2326:                              # EH_LABEL
# %bb.778:
	ori	$a0, $zero, 2616
	add.d	$a0, $sp, $a0
	ld.d	$a3, $a0, 0
	beqz	$a3, .LBB0_780
# %bb.779:
.Ltmp2334:                              # EH_LABEL
	ori	$a0, $zero, 2600
	add.d	$a0, $sp, $a0
	ori	$a1, $zero, 2600
	add.d	$a1, $sp, $a1
	ori	$a2, $zero, 3
	jirl	$ra, $a3, 0
.Ltmp2335:                              # EH_LABEL
.LBB0_780:                              # %_ZNSt14_Function_baseD2Ev.exit622
	ori	$a0, $zero, 2648
	add.d	$a0, $sp, $a0
	ld.d	$a3, $a0, 0
	beqz	$a3, .LBB0_782
# %bb.781:
.Ltmp2337:                              # EH_LABEL
	ori	$a0, $zero, 2632
	add.d	$a0, $sp, $a0
	ori	$a1, $zero, 2632
	add.d	$a1, $sp, $a1
	ori	$a2, $zero, 3
	jirl	$ra, $a3, 0
.Ltmp2338:                              # EH_LABEL
.LBB0_782:                              # %_ZNSt14_Function_baseD2Ev.exit624
	vld	$vr0, $sp, 16                   # 16-byte Folded Reload
	ori	$a0, $zero, 2568
	add.d	$a0, $sp, $a0
	vst	$vr0, $a0, 0
	pcalau12i	$a0, %pc_hi20(_ZNSt17_Function_handlerIFjPdS0_jEZ4mainE5$_312E9_M_invokeERKSt9_Any_dataOS0_S7_Oj)
	addi.d	$a0, $a0, %pc_lo12(_ZNSt17_Function_handlerIFjPdS0_jEZ4mainE5$_312E9_M_invokeERKSt9_Any_dataOS0_S7_Oj)
	ori	$a1, $zero, 2592
	add.d	$a1, $sp, $a1
	st.d	$a0, $a1, 0
	pcalau12i	$a0, %pc_hi20(_ZNSt17_Function_handlerIFjPdS0_jEZ4mainE5$_312E10_M_managerERSt9_Any_dataRKS4_St18_Manager_operation)
	addi.d	$a0, $a0, %pc_lo12(_ZNSt17_Function_handlerIFjPdS0_jEZ4mainE5$_312E10_M_managerERSt9_Any_dataRKS4_St18_Manager_operation)
	ori	$a1, $zero, 2584
	add.d	$a1, $sp, $a1
	st.d	$a0, $a1, 0
	ori	$a0, $zero, 2536
	add.d	$a0, $sp, $a0
	vst	$vr0, $a0, 0
	pcalau12i	$a0, %pc_hi20(_ZNSt17_Function_handlerIFjPdS0_jEZ4mainE5$_313E9_M_invokeERKSt9_Any_dataOS0_S7_Oj)
	addi.d	$a0, $a0, %pc_lo12(_ZNSt17_Function_handlerIFjPdS0_jEZ4mainE5$_313E9_M_invokeERKSt9_Any_dataOS0_S7_Oj)
	ori	$a1, $zero, 2560
	add.d	$a1, $sp, $a1
	st.d	$a0, $a1, 0
	pcalau12i	$a0, %pc_hi20(_ZNSt17_Function_handlerIFjPdS0_jEZ4mainE5$_313E10_M_managerERSt9_Any_dataRKS4_St18_Manager_operation)
	addi.d	$a0, $a0, %pc_lo12(_ZNSt17_Function_handlerIFjPdS0_jEZ4mainE5$_313E10_M_managerERSt9_Any_dataRKS4_St18_Manager_operation)
	ori	$a1, $zero, 2552
	add.d	$a1, $sp, $a1
	st.d	$a0, $a1, 0
.Ltmp2340:                              # EH_LABEL
	pcalau12i	$a0, %pc_hi20(.L.str.156)
	addi.d	$a2, $a0, %pc_lo12(.L.str.156)
	ori	$a0, $zero, 2568
	add.d	$a0, $sp, $a0
	ori	$a1, $zero, 2536
	add.d	$a1, $sp, $a1
	pcaddu18i	$ra, %call36(_ZL19checkVectorFunctionIjdEvSt8functionIFT_PT0_S3_jEES5_PKc)
	jirl	$ra, $ra, 0
.Ltmp2341:                              # EH_LABEL
# %bb.783:
	ori	$a0, $zero, 2552
	add.d	$a0, $sp, $a0
	ld.d	$a3, $a0, 0
	beqz	$a3, .LBB0_785
# %bb.784:
.Ltmp2349:                              # EH_LABEL
	ori	$a0, $zero, 2536
	add.d	$a0, $sp, $a0
	ori	$a1, $zero, 2536
	add.d	$a1, $sp, $a1
	ori	$a2, $zero, 3
	jirl	$ra, $a3, 0
.Ltmp2350:                              # EH_LABEL
.LBB0_785:                              # %_ZNSt14_Function_baseD2Ev.exit626
	ori	$a0, $zero, 2584
	add.d	$a0, $sp, $a0
	ld.d	$a3, $a0, 0
	beqz	$a3, .LBB0_787
# %bb.786:
.Ltmp2352:                              # EH_LABEL
	ori	$a0, $zero, 2568
	add.d	$a0, $sp, $a0
	ori	$a1, $zero, 2568
	add.d	$a1, $sp, $a1
	ori	$a2, $zero, 3
	jirl	$ra, $a3, 0
.Ltmp2353:                              # EH_LABEL
.LBB0_787:                              # %_ZNSt14_Function_baseD2Ev.exit628
	vld	$vr0, $sp, 16                   # 16-byte Folded Reload
	ori	$a0, $zero, 2504
	add.d	$a0, $sp, $a0
	vst	$vr0, $a0, 0
	pcalau12i	$a0, %pc_hi20(_ZNSt17_Function_handlerIFjPdS0_jEZ4mainE5$_314E9_M_invokeERKSt9_Any_dataOS0_S7_Oj)
	addi.d	$a0, $a0, %pc_lo12(_ZNSt17_Function_handlerIFjPdS0_jEZ4mainE5$_314E9_M_invokeERKSt9_Any_dataOS0_S7_Oj)
	ori	$a1, $zero, 2528
	add.d	$a1, $sp, $a1
	st.d	$a0, $a1, 0
	pcalau12i	$a0, %pc_hi20(_ZNSt17_Function_handlerIFjPdS0_jEZ4mainE5$_314E10_M_managerERSt9_Any_dataRKS4_St18_Manager_operation)
	addi.d	$a0, $a0, %pc_lo12(_ZNSt17_Function_handlerIFjPdS0_jEZ4mainE5$_314E10_M_managerERSt9_Any_dataRKS4_St18_Manager_operation)
	ori	$a1, $zero, 2520
	add.d	$a1, $sp, $a1
	st.d	$a0, $a1, 0
	ori	$a0, $zero, 2472
	add.d	$a0, $sp, $a0
	vst	$vr0, $a0, 0
	pcalau12i	$a0, %pc_hi20(_ZNSt17_Function_handlerIFjPdS0_jEZ4mainE5$_315E9_M_invokeERKSt9_Any_dataOS0_S7_Oj)
	addi.d	$a0, $a0, %pc_lo12(_ZNSt17_Function_handlerIFjPdS0_jEZ4mainE5$_315E9_M_invokeERKSt9_Any_dataOS0_S7_Oj)
	ori	$a1, $zero, 2496
	add.d	$a1, $sp, $a1
	st.d	$a0, $a1, 0
	pcalau12i	$a0, %pc_hi20(_ZNSt17_Function_handlerIFjPdS0_jEZ4mainE5$_315E10_M_managerERSt9_Any_dataRKS4_St18_Manager_operation)
	addi.d	$a0, $a0, %pc_lo12(_ZNSt17_Function_handlerIFjPdS0_jEZ4mainE5$_315E10_M_managerERSt9_Any_dataRKS4_St18_Manager_operation)
	ori	$a1, $zero, 2488
	add.d	$a1, $sp, $a1
	st.d	$a0, $a1, 0
.Ltmp2355:                              # EH_LABEL
	pcalau12i	$a0, %pc_hi20(.L.str.157)
	addi.d	$a2, $a0, %pc_lo12(.L.str.157)
	ori	$a0, $zero, 2504
	add.d	$a0, $sp, $a0
	ori	$a1, $zero, 2472
	add.d	$a1, $sp, $a1
	pcaddu18i	$ra, %call36(_ZL19checkVectorFunctionIjdEvSt8functionIFT_PT0_S3_jEES5_PKc)
	jirl	$ra, $ra, 0
.Ltmp2356:                              # EH_LABEL
# %bb.788:
	ori	$a0, $zero, 2488
	add.d	$a0, $sp, $a0
	ld.d	$a3, $a0, 0
	beqz	$a3, .LBB0_790
# %bb.789:
.Ltmp2364:                              # EH_LABEL
	ori	$a0, $zero, 2472
	add.d	$a0, $sp, $a0
	ori	$a1, $zero, 2472
	add.d	$a1, $sp, $a1
	ori	$a2, $zero, 3
	jirl	$ra, $a3, 0
.Ltmp2365:                              # EH_LABEL
.LBB0_790:                              # %_ZNSt14_Function_baseD2Ev.exit630
	ori	$a0, $zero, 2520
	add.d	$a0, $sp, $a0
	ld.d	$a3, $a0, 0
	beqz	$a3, .LBB0_792
# %bb.791:
.Ltmp2367:                              # EH_LABEL
	ori	$a0, $zero, 2504
	add.d	$a0, $sp, $a0
	ori	$a1, $zero, 2504
	add.d	$a1, $sp, $a1
	ori	$a2, $zero, 3
	jirl	$ra, $a3, 0
.Ltmp2368:                              # EH_LABEL
.LBB0_792:                              # %_ZNSt14_Function_baseD2Ev.exit632
	vld	$vr0, $sp, 16                   # 16-byte Folded Reload
	ori	$a0, $zero, 2440
	add.d	$a0, $sp, $a0
	vst	$vr0, $a0, 0
	pcalau12i	$a0, %pc_hi20(_ZNSt17_Function_handlerIFjPdS0_jEZ4mainE5$_316E9_M_invokeERKSt9_Any_dataOS0_S7_Oj)
	addi.d	$a0, $a0, %pc_lo12(_ZNSt17_Function_handlerIFjPdS0_jEZ4mainE5$_316E9_M_invokeERKSt9_Any_dataOS0_S7_Oj)
	ori	$a1, $zero, 2464
	add.d	$a1, $sp, $a1
	st.d	$a0, $a1, 0
	pcalau12i	$a0, %pc_hi20(_ZNSt17_Function_handlerIFjPdS0_jEZ4mainE5$_316E10_M_managerERSt9_Any_dataRKS4_St18_Manager_operation)
	addi.d	$a0, $a0, %pc_lo12(_ZNSt17_Function_handlerIFjPdS0_jEZ4mainE5$_316E10_M_managerERSt9_Any_dataRKS4_St18_Manager_operation)
	ori	$a1, $zero, 2456
	add.d	$a1, $sp, $a1
	st.d	$a0, $a1, 0
	ori	$a0, $zero, 2408
	add.d	$a0, $sp, $a0
	vst	$vr0, $a0, 0
	pcalau12i	$a0, %pc_hi20(_ZNSt17_Function_handlerIFjPdS0_jEZ4mainE5$_317E9_M_invokeERKSt9_Any_dataOS0_S7_Oj)
	addi.d	$a0, $a0, %pc_lo12(_ZNSt17_Function_handlerIFjPdS0_jEZ4mainE5$_317E9_M_invokeERKSt9_Any_dataOS0_S7_Oj)
	ori	$a1, $zero, 2432
	add.d	$a1, $sp, $a1
	st.d	$a0, $a1, 0
	pcalau12i	$a0, %pc_hi20(_ZNSt17_Function_handlerIFjPdS0_jEZ4mainE5$_317E10_M_managerERSt9_Any_dataRKS4_St18_Manager_operation)
	addi.d	$a0, $a0, %pc_lo12(_ZNSt17_Function_handlerIFjPdS0_jEZ4mainE5$_317E10_M_managerERSt9_Any_dataRKS4_St18_Manager_operation)
	ori	$a1, $zero, 2424
	add.d	$a1, $sp, $a1
	st.d	$a0, $a1, 0
.Ltmp2370:                              # EH_LABEL
	pcalau12i	$a0, %pc_hi20(.L.str.158)
	addi.d	$a2, $a0, %pc_lo12(.L.str.158)
	ori	$a0, $zero, 2440
	add.d	$a0, $sp, $a0
	ori	$a1, $zero, 2408
	add.d	$a1, $sp, $a1
	pcaddu18i	$ra, %call36(_ZL19checkVectorFunctionIjdEvSt8functionIFT_PT0_S3_jEES5_PKc)
	jirl	$ra, $ra, 0
.Ltmp2371:                              # EH_LABEL
# %bb.793:
	ori	$a0, $zero, 2424
	add.d	$a0, $sp, $a0
	ld.d	$a3, $a0, 0
	beqz	$a3, .LBB0_795
# %bb.794:
.Ltmp2379:                              # EH_LABEL
	ori	$a0, $zero, 2408
	add.d	$a0, $sp, $a0
	ori	$a1, $zero, 2408
	add.d	$a1, $sp, $a1
	ori	$a2, $zero, 3
	jirl	$ra, $a3, 0
.Ltmp2380:                              # EH_LABEL
.LBB0_795:                              # %_ZNSt14_Function_baseD2Ev.exit634
	ori	$a0, $zero, 2456
	add.d	$a0, $sp, $a0
	ld.d	$a3, $a0, 0
	beqz	$a3, .LBB0_797
# %bb.796:
.Ltmp2382:                              # EH_LABEL
	ori	$a0, $zero, 2440
	add.d	$a0, $sp, $a0
	ori	$a1, $zero, 2440
	add.d	$a1, $sp, $a1
	ori	$a2, $zero, 3
	jirl	$ra, $a3, 0
.Ltmp2383:                              # EH_LABEL
.LBB0_797:                              # %_ZNSt14_Function_baseD2Ev.exit636
	vld	$vr0, $sp, 16                   # 16-byte Folded Reload
	ori	$a0, $zero, 2376
	add.d	$a0, $sp, $a0
	vst	$vr0, $a0, 0
	pcalau12i	$a0, %pc_hi20(_ZNSt17_Function_handlerIFjPdS0_jEZ4mainE5$_318E9_M_invokeERKSt9_Any_dataOS0_S7_Oj)
	addi.d	$a0, $a0, %pc_lo12(_ZNSt17_Function_handlerIFjPdS0_jEZ4mainE5$_318E9_M_invokeERKSt9_Any_dataOS0_S7_Oj)
	ori	$a1, $zero, 2400
	add.d	$a1, $sp, $a1
	st.d	$a0, $a1, 0
	pcalau12i	$a0, %pc_hi20(_ZNSt17_Function_handlerIFjPdS0_jEZ4mainE5$_318E10_M_managerERSt9_Any_dataRKS4_St18_Manager_operation)
	addi.d	$a0, $a0, %pc_lo12(_ZNSt17_Function_handlerIFjPdS0_jEZ4mainE5$_318E10_M_managerERSt9_Any_dataRKS4_St18_Manager_operation)
	ori	$a1, $zero, 2392
	add.d	$a1, $sp, $a1
	st.d	$a0, $a1, 0
	ori	$a0, $zero, 2344
	add.d	$a0, $sp, $a0
	vst	$vr0, $a0, 0
	pcalau12i	$a0, %pc_hi20(_ZNSt17_Function_handlerIFjPdS0_jEZ4mainE5$_319E9_M_invokeERKSt9_Any_dataOS0_S7_Oj)
	addi.d	$a0, $a0, %pc_lo12(_ZNSt17_Function_handlerIFjPdS0_jEZ4mainE5$_319E9_M_invokeERKSt9_Any_dataOS0_S7_Oj)
	ori	$a1, $zero, 2368
	add.d	$a1, $sp, $a1
	st.d	$a0, $a1, 0
	pcalau12i	$a0, %pc_hi20(_ZNSt17_Function_handlerIFjPdS0_jEZ4mainE5$_319E10_M_managerERSt9_Any_dataRKS4_St18_Manager_operation)
	addi.d	$a0, $a0, %pc_lo12(_ZNSt17_Function_handlerIFjPdS0_jEZ4mainE5$_319E10_M_managerERSt9_Any_dataRKS4_St18_Manager_operation)
	ori	$a1, $zero, 2360
	add.d	$a1, $sp, $a1
	st.d	$a0, $a1, 0
.Ltmp2385:                              # EH_LABEL
	pcalau12i	$a0, %pc_hi20(.L.str.159)
	addi.d	$a2, $a0, %pc_lo12(.L.str.159)
	ori	$a0, $zero, 2376
	add.d	$a0, $sp, $a0
	ori	$a1, $zero, 2344
	add.d	$a1, $sp, $a1
	pcaddu18i	$ra, %call36(_ZL19checkVectorFunctionIjdEvSt8functionIFT_PT0_S3_jEES5_PKc)
	jirl	$ra, $ra, 0
.Ltmp2386:                              # EH_LABEL
# %bb.798:
	ori	$a0, $zero, 2360
	add.d	$a0, $sp, $a0
	ld.d	$a3, $a0, 0
	beqz	$a3, .LBB0_800
# %bb.799:
.Ltmp2394:                              # EH_LABEL
	ori	$a0, $zero, 2344
	add.d	$a0, $sp, $a0
	ori	$a1, $zero, 2344
	add.d	$a1, $sp, $a1
	ori	$a2, $zero, 3
	jirl	$ra, $a3, 0
.Ltmp2395:                              # EH_LABEL
.LBB0_800:                              # %_ZNSt14_Function_baseD2Ev.exit638
	ori	$a0, $zero, 2392
	add.d	$a0, $sp, $a0
	ld.d	$a3, $a0, 0
	beqz	$a3, .LBB0_802
# %bb.801:
.Ltmp2397:                              # EH_LABEL
	ori	$a0, $zero, 2376
	add.d	$a0, $sp, $a0
	ori	$a1, $zero, 2376
	add.d	$a1, $sp, $a1
	ori	$a2, $zero, 3
	jirl	$ra, $a3, 0
.Ltmp2398:                              # EH_LABEL
.LBB0_802:                              # %_ZNSt14_Function_baseD2Ev.exit640
	vld	$vr0, $sp, 16                   # 16-byte Folded Reload
	ori	$a0, $zero, 2312
	add.d	$a0, $sp, $a0
	vst	$vr0, $a0, 0
	pcalau12i	$a0, %pc_hi20(_ZNSt17_Function_handlerIFjPdS0_jEZ4mainE5$_320E9_M_invokeERKSt9_Any_dataOS0_S7_Oj)
	addi.d	$a0, $a0, %pc_lo12(_ZNSt17_Function_handlerIFjPdS0_jEZ4mainE5$_320E9_M_invokeERKSt9_Any_dataOS0_S7_Oj)
	ori	$a1, $zero, 2336
	add.d	$a1, $sp, $a1
	st.d	$a0, $a1, 0
	pcalau12i	$a0, %pc_hi20(_ZNSt17_Function_handlerIFjPdS0_jEZ4mainE5$_320E10_M_managerERSt9_Any_dataRKS4_St18_Manager_operation)
	addi.d	$a0, $a0, %pc_lo12(_ZNSt17_Function_handlerIFjPdS0_jEZ4mainE5$_320E10_M_managerERSt9_Any_dataRKS4_St18_Manager_operation)
	ori	$a1, $zero, 2328
	add.d	$a1, $sp, $a1
	st.d	$a0, $a1, 0
	ori	$a0, $zero, 2280
	add.d	$a0, $sp, $a0
	vst	$vr0, $a0, 0
	pcalau12i	$a0, %pc_hi20(_ZNSt17_Function_handlerIFjPdS0_jEZ4mainE5$_321E9_M_invokeERKSt9_Any_dataOS0_S7_Oj)
	addi.d	$a0, $a0, %pc_lo12(_ZNSt17_Function_handlerIFjPdS0_jEZ4mainE5$_321E9_M_invokeERKSt9_Any_dataOS0_S7_Oj)
	ori	$a1, $zero, 2304
	add.d	$a1, $sp, $a1
	st.d	$a0, $a1, 0
	pcalau12i	$a0, %pc_hi20(_ZNSt17_Function_handlerIFjPdS0_jEZ4mainE5$_321E10_M_managerERSt9_Any_dataRKS4_St18_Manager_operation)
	addi.d	$a0, $a0, %pc_lo12(_ZNSt17_Function_handlerIFjPdS0_jEZ4mainE5$_321E10_M_managerERSt9_Any_dataRKS4_St18_Manager_operation)
	ori	$a1, $zero, 2296
	add.d	$a1, $sp, $a1
	st.d	$a0, $a1, 0
.Ltmp2400:                              # EH_LABEL
	pcalau12i	$a0, %pc_hi20(.L.str.160)
	addi.d	$a2, $a0, %pc_lo12(.L.str.160)
	ori	$a0, $zero, 2312
	add.d	$a0, $sp, $a0
	ori	$a1, $zero, 2280
	add.d	$a1, $sp, $a1
	pcaddu18i	$ra, %call36(_ZL19checkVectorFunctionIjdEvSt8functionIFT_PT0_S3_jEES5_PKc)
	jirl	$ra, $ra, 0
.Ltmp2401:                              # EH_LABEL
# %bb.803:
	ori	$a0, $zero, 2296
	add.d	$a0, $sp, $a0
	ld.d	$a3, $a0, 0
	beqz	$a3, .LBB0_805
# %bb.804:
.Ltmp2409:                              # EH_LABEL
	ori	$a0, $zero, 2280
	add.d	$a0, $sp, $a0
	ori	$a1, $zero, 2280
	add.d	$a1, $sp, $a1
	ori	$a2, $zero, 3
	jirl	$ra, $a3, 0
.Ltmp2410:                              # EH_LABEL
.LBB0_805:                              # %_ZNSt14_Function_baseD2Ev.exit642
	ori	$a0, $zero, 2328
	add.d	$a0, $sp, $a0
	ld.d	$a3, $a0, 0
	beqz	$a3, .LBB0_807
# %bb.806:
.Ltmp2412:                              # EH_LABEL
	ori	$a0, $zero, 2312
	add.d	$a0, $sp, $a0
	ori	$a1, $zero, 2312
	add.d	$a1, $sp, $a1
	ori	$a2, $zero, 3
	jirl	$ra, $a3, 0
.Ltmp2413:                              # EH_LABEL
.LBB0_807:                              # %_ZNSt14_Function_baseD2Ev.exit644
	vld	$vr0, $sp, 16                   # 16-byte Folded Reload
	ori	$a0, $zero, 2248
	add.d	$a0, $sp, $a0
	vst	$vr0, $a0, 0
	pcalau12i	$a0, %pc_hi20(_ZNSt17_Function_handlerIFjPdS0_jEZ4mainE5$_322E9_M_invokeERKSt9_Any_dataOS0_S7_Oj)
	addi.d	$a0, $a0, %pc_lo12(_ZNSt17_Function_handlerIFjPdS0_jEZ4mainE5$_322E9_M_invokeERKSt9_Any_dataOS0_S7_Oj)
	ori	$a1, $zero, 2272
	add.d	$a1, $sp, $a1
	st.d	$a0, $a1, 0
	pcalau12i	$a0, %pc_hi20(_ZNSt17_Function_handlerIFjPdS0_jEZ4mainE5$_322E10_M_managerERSt9_Any_dataRKS4_St18_Manager_operation)
	addi.d	$a0, $a0, %pc_lo12(_ZNSt17_Function_handlerIFjPdS0_jEZ4mainE5$_322E10_M_managerERSt9_Any_dataRKS4_St18_Manager_operation)
	ori	$a1, $zero, 2264
	add.d	$a1, $sp, $a1
	st.d	$a0, $a1, 0
	ori	$a0, $zero, 2216
	add.d	$a0, $sp, $a0
	vst	$vr0, $a0, 0
	pcalau12i	$a0, %pc_hi20(_ZNSt17_Function_handlerIFjPdS0_jEZ4mainE5$_323E9_M_invokeERKSt9_Any_dataOS0_S7_Oj)
	addi.d	$a0, $a0, %pc_lo12(_ZNSt17_Function_handlerIFjPdS0_jEZ4mainE5$_323E9_M_invokeERKSt9_Any_dataOS0_S7_Oj)
	ori	$a1, $zero, 2240
	add.d	$a1, $sp, $a1
	st.d	$a0, $a1, 0
	pcalau12i	$a0, %pc_hi20(_ZNSt17_Function_handlerIFjPdS0_jEZ4mainE5$_323E10_M_managerERSt9_Any_dataRKS4_St18_Manager_operation)
	addi.d	$a0, $a0, %pc_lo12(_ZNSt17_Function_handlerIFjPdS0_jEZ4mainE5$_323E10_M_managerERSt9_Any_dataRKS4_St18_Manager_operation)
	ori	$a1, $zero, 2232
	add.d	$a1, $sp, $a1
	st.d	$a0, $a1, 0
.Ltmp2415:                              # EH_LABEL
	pcalau12i	$a0, %pc_hi20(.L.str.161)
	addi.d	$a2, $a0, %pc_lo12(.L.str.161)
	ori	$a0, $zero, 2248
	add.d	$a0, $sp, $a0
	ori	$a1, $zero, 2216
	add.d	$a1, $sp, $a1
	pcaddu18i	$ra, %call36(_ZL19checkVectorFunctionIjdEvSt8functionIFT_PT0_S3_jEES5_PKc)
	jirl	$ra, $ra, 0
.Ltmp2416:                              # EH_LABEL
# %bb.808:
	ori	$a0, $zero, 2232
	add.d	$a0, $sp, $a0
	ld.d	$a3, $a0, 0
	beqz	$a3, .LBB0_810
# %bb.809:
.Ltmp2424:                              # EH_LABEL
	ori	$a0, $zero, 2216
	add.d	$a0, $sp, $a0
	ori	$a1, $zero, 2216
	add.d	$a1, $sp, $a1
	ori	$a2, $zero, 3
	jirl	$ra, $a3, 0
.Ltmp2425:                              # EH_LABEL
.LBB0_810:                              # %_ZNSt14_Function_baseD2Ev.exit646
	ori	$a0, $zero, 2264
	add.d	$a0, $sp, $a0
	ld.d	$a3, $a0, 0
	beqz	$a3, .LBB0_812
# %bb.811:
.Ltmp2427:                              # EH_LABEL
	ori	$a0, $zero, 2248
	add.d	$a0, $sp, $a0
	ori	$a1, $zero, 2248
	add.d	$a1, $sp, $a1
	ori	$a2, $zero, 3
	jirl	$ra, $a3, 0
.Ltmp2428:                              # EH_LABEL
.LBB0_812:                              # %_ZNSt14_Function_baseD2Ev.exit648
	vld	$vr0, $sp, 16                   # 16-byte Folded Reload
	ori	$a0, $zero, 2184
	add.d	$a0, $sp, $a0
	vst	$vr0, $a0, 0
	pcalau12i	$a0, %pc_hi20(_ZNSt17_Function_handlerIFjPdS0_jEZ4mainE5$_324E9_M_invokeERKSt9_Any_dataOS0_S7_Oj)
	addi.d	$a0, $a0, %pc_lo12(_ZNSt17_Function_handlerIFjPdS0_jEZ4mainE5$_324E9_M_invokeERKSt9_Any_dataOS0_S7_Oj)
	ori	$a1, $zero, 2208
	add.d	$a1, $sp, $a1
	st.d	$a0, $a1, 0
	pcalau12i	$a0, %pc_hi20(_ZNSt17_Function_handlerIFjPdS0_jEZ4mainE5$_324E10_M_managerERSt9_Any_dataRKS4_St18_Manager_operation)
	addi.d	$a0, $a0, %pc_lo12(_ZNSt17_Function_handlerIFjPdS0_jEZ4mainE5$_324E10_M_managerERSt9_Any_dataRKS4_St18_Manager_operation)
	ori	$a1, $zero, 2200
	add.d	$a1, $sp, $a1
	st.d	$a0, $a1, 0
	ori	$a0, $zero, 2152
	add.d	$a0, $sp, $a0
	vst	$vr0, $a0, 0
	pcalau12i	$a0, %pc_hi20(_ZNSt17_Function_handlerIFjPdS0_jEZ4mainE5$_325E9_M_invokeERKSt9_Any_dataOS0_S7_Oj)
	addi.d	$a0, $a0, %pc_lo12(_ZNSt17_Function_handlerIFjPdS0_jEZ4mainE5$_325E9_M_invokeERKSt9_Any_dataOS0_S7_Oj)
	ori	$a1, $zero, 2176
	add.d	$a1, $sp, $a1
	st.d	$a0, $a1, 0
	pcalau12i	$a0, %pc_hi20(_ZNSt17_Function_handlerIFjPdS0_jEZ4mainE5$_325E10_M_managerERSt9_Any_dataRKS4_St18_Manager_operation)
	addi.d	$a0, $a0, %pc_lo12(_ZNSt17_Function_handlerIFjPdS0_jEZ4mainE5$_325E10_M_managerERSt9_Any_dataRKS4_St18_Manager_operation)
	ori	$a1, $zero, 2168
	add.d	$a1, $sp, $a1
	st.d	$a0, $a1, 0
.Ltmp2430:                              # EH_LABEL
	pcalau12i	$a0, %pc_hi20(.L.str.162)
	addi.d	$a2, $a0, %pc_lo12(.L.str.162)
	ori	$a0, $zero, 2184
	add.d	$a0, $sp, $a0
	ori	$a1, $zero, 2152
	add.d	$a1, $sp, $a1
	pcaddu18i	$ra, %call36(_ZL19checkVectorFunctionIjdEvSt8functionIFT_PT0_S3_jEES5_PKc)
	jirl	$ra, $ra, 0
.Ltmp2431:                              # EH_LABEL
# %bb.813:
	ori	$a0, $zero, 2168
	add.d	$a0, $sp, $a0
	ld.d	$a3, $a0, 0
	beqz	$a3, .LBB0_815
# %bb.814:
.Ltmp2439:                              # EH_LABEL
	ori	$a0, $zero, 2152
	add.d	$a0, $sp, $a0
	ori	$a1, $zero, 2152
	add.d	$a1, $sp, $a1
	ori	$a2, $zero, 3
	jirl	$ra, $a3, 0
.Ltmp2440:                              # EH_LABEL
.LBB0_815:                              # %_ZNSt14_Function_baseD2Ev.exit650
	ori	$a0, $zero, 2200
	add.d	$a0, $sp, $a0
	ld.d	$a3, $a0, 0
	beqz	$a3, .LBB0_817
# %bb.816:
.Ltmp2442:                              # EH_LABEL
	ori	$a0, $zero, 2184
	add.d	$a0, $sp, $a0
	ori	$a1, $zero, 2184
	add.d	$a1, $sp, $a1
	ori	$a2, $zero, 3
	jirl	$ra, $a3, 0
.Ltmp2443:                              # EH_LABEL
.LBB0_817:                              # %_ZNSt14_Function_baseD2Ev.exit652
	vld	$vr0, $sp, 16                   # 16-byte Folded Reload
	ori	$a0, $zero, 2120
	add.d	$a0, $sp, $a0
	vst	$vr0, $a0, 0
	pcalau12i	$a0, %pc_hi20(_ZNSt17_Function_handlerIFjPdS0_jEZ4mainE5$_326E9_M_invokeERKSt9_Any_dataOS0_S7_Oj)
	addi.d	$a0, $a0, %pc_lo12(_ZNSt17_Function_handlerIFjPdS0_jEZ4mainE5$_326E9_M_invokeERKSt9_Any_dataOS0_S7_Oj)
	ori	$a1, $zero, 2144
	add.d	$a1, $sp, $a1
	st.d	$a0, $a1, 0
	pcalau12i	$a0, %pc_hi20(_ZNSt17_Function_handlerIFjPdS0_jEZ4mainE5$_326E10_M_managerERSt9_Any_dataRKS4_St18_Manager_operation)
	addi.d	$a0, $a0, %pc_lo12(_ZNSt17_Function_handlerIFjPdS0_jEZ4mainE5$_326E10_M_managerERSt9_Any_dataRKS4_St18_Manager_operation)
	ori	$a1, $zero, 2136
	add.d	$a1, $sp, $a1
	st.d	$a0, $a1, 0
	ori	$a0, $zero, 2088
	add.d	$a0, $sp, $a0
	vst	$vr0, $a0, 0
	pcalau12i	$a0, %pc_hi20(_ZNSt17_Function_handlerIFjPdS0_jEZ4mainE5$_327E9_M_invokeERKSt9_Any_dataOS0_S7_Oj)
	addi.d	$a0, $a0, %pc_lo12(_ZNSt17_Function_handlerIFjPdS0_jEZ4mainE5$_327E9_M_invokeERKSt9_Any_dataOS0_S7_Oj)
	ori	$a1, $zero, 2112
	add.d	$a1, $sp, $a1
	st.d	$a0, $a1, 0
	pcalau12i	$a0, %pc_hi20(_ZNSt17_Function_handlerIFjPdS0_jEZ4mainE5$_327E10_M_managerERSt9_Any_dataRKS4_St18_Manager_operation)
	addi.d	$a0, $a0, %pc_lo12(_ZNSt17_Function_handlerIFjPdS0_jEZ4mainE5$_327E10_M_managerERSt9_Any_dataRKS4_St18_Manager_operation)
	ori	$a1, $zero, 2104
	add.d	$a1, $sp, $a1
	st.d	$a0, $a1, 0
.Ltmp2445:                              # EH_LABEL
	pcalau12i	$a0, %pc_hi20(.L.str.163)
	addi.d	$a2, $a0, %pc_lo12(.L.str.163)
	ori	$a0, $zero, 2120
	add.d	$a0, $sp, $a0
	ori	$a1, $zero, 2088
	add.d	$a1, $sp, $a1
	pcaddu18i	$ra, %call36(_ZL19checkVectorFunctionIjdEvSt8functionIFT_PT0_S3_jEES5_PKc)
	jirl	$ra, $ra, 0
.Ltmp2446:                              # EH_LABEL
# %bb.818:
	ori	$a0, $zero, 2104
	add.d	$a0, $sp, $a0
	ld.d	$a3, $a0, 0
	beqz	$a3, .LBB0_820
# %bb.819:
.Ltmp2454:                              # EH_LABEL
	ori	$a0, $zero, 2088
	add.d	$a0, $sp, $a0
	ori	$a1, $zero, 2088
	add.d	$a1, $sp, $a1
	ori	$a2, $zero, 3
	jirl	$ra, $a3, 0
.Ltmp2455:                              # EH_LABEL
.LBB0_820:                              # %_ZNSt14_Function_baseD2Ev.exit654
	ori	$a0, $zero, 2136
	add.d	$a0, $sp, $a0
	ld.d	$a3, $a0, 0
	beqz	$a3, .LBB0_822
# %bb.821:
.Ltmp2457:                              # EH_LABEL
	ori	$a0, $zero, 2120
	add.d	$a0, $sp, $a0
	ori	$a1, $zero, 2120
	add.d	$a1, $sp, $a1
	ori	$a2, $zero, 3
	jirl	$ra, $a3, 0
.Ltmp2458:                              # EH_LABEL
.LBB0_822:                              # %_ZNSt14_Function_baseD2Ev.exit656
	vld	$vr0, $sp, 16                   # 16-byte Folded Reload
	ori	$a0, $zero, 2056
	add.d	$a0, $sp, $a0
	vst	$vr0, $a0, 0
	pcalau12i	$a0, %pc_hi20(_ZNSt17_Function_handlerIFiPdS0_jEZ4mainE5$_328E9_M_invokeERKSt9_Any_dataOS0_S7_Oj)
	addi.d	$a0, $a0, %pc_lo12(_ZNSt17_Function_handlerIFiPdS0_jEZ4mainE5$_328E9_M_invokeERKSt9_Any_dataOS0_S7_Oj)
	ori	$a1, $zero, 2080
	add.d	$a1, $sp, $a1
	st.d	$a0, $a1, 0
	pcalau12i	$a0, %pc_hi20(_ZNSt17_Function_handlerIFiPdS0_jEZ4mainE5$_328E10_M_managerERSt9_Any_dataRKS4_St18_Manager_operation)
	addi.d	$a0, $a0, %pc_lo12(_ZNSt17_Function_handlerIFiPdS0_jEZ4mainE5$_328E10_M_managerERSt9_Any_dataRKS4_St18_Manager_operation)
	ori	$a1, $zero, 2072
	add.d	$a1, $sp, $a1
	st.d	$a0, $a1, 0
	vst	$vr0, $sp, 2024
	pcalau12i	$a0, %pc_hi20(_ZNSt17_Function_handlerIFiPdS0_jEZ4mainE5$_329E9_M_invokeERKSt9_Any_dataOS0_S7_Oj)
	addi.d	$a0, $a0, %pc_lo12(_ZNSt17_Function_handlerIFiPdS0_jEZ4mainE5$_329E9_M_invokeERKSt9_Any_dataOS0_S7_Oj)
	ori	$a1, $zero, 2048
	add.d	$a1, $sp, $a1
	st.d	$a0, $a1, 0
	pcalau12i	$a0, %pc_hi20(_ZNSt17_Function_handlerIFiPdS0_jEZ4mainE5$_329E10_M_managerERSt9_Any_dataRKS4_St18_Manager_operation)
	addi.d	$a0, $a0, %pc_lo12(_ZNSt17_Function_handlerIFiPdS0_jEZ4mainE5$_329E10_M_managerERSt9_Any_dataRKS4_St18_Manager_operation)
	st.d	$a0, $sp, 2040
.Ltmp2460:                              # EH_LABEL
	pcalau12i	$a0, %pc_hi20(.L.str.164)
	addi.d	$a2, $a0, %pc_lo12(.L.str.164)
	ori	$a0, $zero, 2056
	add.d	$a0, $sp, $a0
	addi.d	$a1, $sp, 2024
	pcaddu18i	$ra, %call36(_ZL19checkVectorFunctionIidEvSt8functionIFT_PT0_S3_jEES5_PKc)
	jirl	$ra, $ra, 0
.Ltmp2461:                              # EH_LABEL
# %bb.823:
	ld.d	$a3, $sp, 2040
	beqz	$a3, .LBB0_825
# %bb.824:
.Ltmp2469:                              # EH_LABEL
	addi.d	$a0, $sp, 2024
	addi.d	$a1, $sp, 2024
	ori	$a2, $zero, 3
	jirl	$ra, $a3, 0
.Ltmp2470:                              # EH_LABEL
.LBB0_825:                              # %_ZNSt14_Function_baseD2Ev.exit658
	ori	$a0, $zero, 2072
	add.d	$a0, $sp, $a0
	ld.d	$a3, $a0, 0
	beqz	$a3, .LBB0_827
# %bb.826:
.Ltmp2472:                              # EH_LABEL
	ori	$a0, $zero, 2056
	add.d	$a0, $sp, $a0
	ori	$a1, $zero, 2056
	add.d	$a1, $sp, $a1
	ori	$a2, $zero, 3
	jirl	$ra, $a3, 0
.Ltmp2473:                              # EH_LABEL
.LBB0_827:                              # %_ZNSt14_Function_baseD2Ev.exit660
	vld	$vr0, $sp, 16                   # 16-byte Folded Reload
	vst	$vr0, $sp, 1992
	pcalau12i	$a0, %pc_hi20(_ZNSt17_Function_handlerIFiPdS0_jEZ4mainE5$_330E9_M_invokeERKSt9_Any_dataOS0_S7_Oj)
	addi.d	$a0, $a0, %pc_lo12(_ZNSt17_Function_handlerIFiPdS0_jEZ4mainE5$_330E9_M_invokeERKSt9_Any_dataOS0_S7_Oj)
	st.d	$a0, $sp, 2016
	pcalau12i	$a0, %pc_hi20(_ZNSt17_Function_handlerIFiPdS0_jEZ4mainE5$_330E10_M_managerERSt9_Any_dataRKS4_St18_Manager_operation)
	addi.d	$a0, $a0, %pc_lo12(_ZNSt17_Function_handlerIFiPdS0_jEZ4mainE5$_330E10_M_managerERSt9_Any_dataRKS4_St18_Manager_operation)
	st.d	$a0, $sp, 2008
	vst	$vr0, $sp, 1960
	pcalau12i	$a0, %pc_hi20(_ZNSt17_Function_handlerIFiPdS0_jEZ4mainE5$_331E9_M_invokeERKSt9_Any_dataOS0_S7_Oj)
	addi.d	$a0, $a0, %pc_lo12(_ZNSt17_Function_handlerIFiPdS0_jEZ4mainE5$_331E9_M_invokeERKSt9_Any_dataOS0_S7_Oj)
	st.d	$a0, $sp, 1984
	pcalau12i	$a0, %pc_hi20(_ZNSt17_Function_handlerIFiPdS0_jEZ4mainE5$_331E10_M_managerERSt9_Any_dataRKS4_St18_Manager_operation)
	addi.d	$a0, $a0, %pc_lo12(_ZNSt17_Function_handlerIFiPdS0_jEZ4mainE5$_331E10_M_managerERSt9_Any_dataRKS4_St18_Manager_operation)
	st.d	$a0, $sp, 1976
.Ltmp2475:                              # EH_LABEL
	pcalau12i	$a0, %pc_hi20(.L.str.165)
	addi.d	$a2, $a0, %pc_lo12(.L.str.165)
	addi.d	$a0, $sp, 1992
	addi.d	$a1, $sp, 1960
	pcaddu18i	$ra, %call36(_ZL19checkVectorFunctionIidEvSt8functionIFT_PT0_S3_jEES5_PKc)
	jirl	$ra, $ra, 0
.Ltmp2476:                              # EH_LABEL
# %bb.828:
	ld.d	$a3, $sp, 1976
	beqz	$a3, .LBB0_830
# %bb.829:
.Ltmp2484:                              # EH_LABEL
	addi.d	$a0, $sp, 1960
	addi.d	$a1, $sp, 1960
	ori	$a2, $zero, 3
	jirl	$ra, $a3, 0
.Ltmp2485:                              # EH_LABEL
.LBB0_830:                              # %_ZNSt14_Function_baseD2Ev.exit662
	ld.d	$a3, $sp, 2008
	beqz	$a3, .LBB0_832
# %bb.831:
.Ltmp2487:                              # EH_LABEL
	addi.d	$a0, $sp, 1992
	addi.d	$a1, $sp, 1992
	ori	$a2, $zero, 3
	jirl	$ra, $a3, 0
.Ltmp2488:                              # EH_LABEL
.LBB0_832:                              # %_ZNSt14_Function_baseD2Ev.exit664
	vld	$vr0, $sp, 16                   # 16-byte Folded Reload
	vst	$vr0, $sp, 1928
	pcalau12i	$a0, %pc_hi20(_ZNSt17_Function_handlerIFiPdS0_jEZ4mainE5$_332E9_M_invokeERKSt9_Any_dataOS0_S7_Oj)
	addi.d	$a0, $a0, %pc_lo12(_ZNSt17_Function_handlerIFiPdS0_jEZ4mainE5$_332E9_M_invokeERKSt9_Any_dataOS0_S7_Oj)
	st.d	$a0, $sp, 1952
	pcalau12i	$a0, %pc_hi20(_ZNSt17_Function_handlerIFiPdS0_jEZ4mainE5$_332E10_M_managerERSt9_Any_dataRKS4_St18_Manager_operation)
	addi.d	$a0, $a0, %pc_lo12(_ZNSt17_Function_handlerIFiPdS0_jEZ4mainE5$_332E10_M_managerERSt9_Any_dataRKS4_St18_Manager_operation)
	st.d	$a0, $sp, 1944
	vst	$vr0, $sp, 1896
	pcalau12i	$a0, %pc_hi20(_ZNSt17_Function_handlerIFiPdS0_jEZ4mainE5$_333E9_M_invokeERKSt9_Any_dataOS0_S7_Oj)
	addi.d	$a0, $a0, %pc_lo12(_ZNSt17_Function_handlerIFiPdS0_jEZ4mainE5$_333E9_M_invokeERKSt9_Any_dataOS0_S7_Oj)
	st.d	$a0, $sp, 1920
	pcalau12i	$a0, %pc_hi20(_ZNSt17_Function_handlerIFiPdS0_jEZ4mainE5$_333E10_M_managerERSt9_Any_dataRKS4_St18_Manager_operation)
	addi.d	$a0, $a0, %pc_lo12(_ZNSt17_Function_handlerIFiPdS0_jEZ4mainE5$_333E10_M_managerERSt9_Any_dataRKS4_St18_Manager_operation)
	st.d	$a0, $sp, 1912
.Ltmp2490:                              # EH_LABEL
	pcalau12i	$a0, %pc_hi20(.L.str.166)
	addi.d	$a2, $a0, %pc_lo12(.L.str.166)
	addi.d	$a0, $sp, 1928
	addi.d	$a1, $sp, 1896
	pcaddu18i	$ra, %call36(_ZL19checkVectorFunctionIidEvSt8functionIFT_PT0_S3_jEES5_PKc)
	jirl	$ra, $ra, 0
.Ltmp2491:                              # EH_LABEL
# %bb.833:
	ld.d	$a3, $sp, 1912
	beqz	$a3, .LBB0_835
# %bb.834:
.Ltmp2499:                              # EH_LABEL
	addi.d	$a0, $sp, 1896
	addi.d	$a1, $sp, 1896
	ori	$a2, $zero, 3
	jirl	$ra, $a3, 0
.Ltmp2500:                              # EH_LABEL
.LBB0_835:                              # %_ZNSt14_Function_baseD2Ev.exit666
	ld.d	$a3, $sp, 1944
	beqz	$a3, .LBB0_837
# %bb.836:
.Ltmp2502:                              # EH_LABEL
	addi.d	$a0, $sp, 1928
	addi.d	$a1, $sp, 1928
	ori	$a2, $zero, 3
	jirl	$ra, $a3, 0
.Ltmp2503:                              # EH_LABEL
.LBB0_837:                              # %_ZNSt14_Function_baseD2Ev.exit668
	vld	$vr0, $sp, 16                   # 16-byte Folded Reload
	vst	$vr0, $sp, 1864
	pcalau12i	$a0, %pc_hi20(_ZNSt17_Function_handlerIFiPdS0_jEZ4mainE5$_334E9_M_invokeERKSt9_Any_dataOS0_S7_Oj)
	addi.d	$a0, $a0, %pc_lo12(_ZNSt17_Function_handlerIFiPdS0_jEZ4mainE5$_334E9_M_invokeERKSt9_Any_dataOS0_S7_Oj)
	st.d	$a0, $sp, 1888
	pcalau12i	$a0, %pc_hi20(_ZNSt17_Function_handlerIFiPdS0_jEZ4mainE5$_334E10_M_managerERSt9_Any_dataRKS4_St18_Manager_operation)
	addi.d	$a0, $a0, %pc_lo12(_ZNSt17_Function_handlerIFiPdS0_jEZ4mainE5$_334E10_M_managerERSt9_Any_dataRKS4_St18_Manager_operation)
	st.d	$a0, $sp, 1880
	vst	$vr0, $sp, 1832
	pcalau12i	$a0, %pc_hi20(_ZNSt17_Function_handlerIFiPdS0_jEZ4mainE5$_335E9_M_invokeERKSt9_Any_dataOS0_S7_Oj)
	addi.d	$a0, $a0, %pc_lo12(_ZNSt17_Function_handlerIFiPdS0_jEZ4mainE5$_335E9_M_invokeERKSt9_Any_dataOS0_S7_Oj)
	st.d	$a0, $sp, 1856
	pcalau12i	$a0, %pc_hi20(_ZNSt17_Function_handlerIFiPdS0_jEZ4mainE5$_335E10_M_managerERSt9_Any_dataRKS4_St18_Manager_operation)
	addi.d	$a0, $a0, %pc_lo12(_ZNSt17_Function_handlerIFiPdS0_jEZ4mainE5$_335E10_M_managerERSt9_Any_dataRKS4_St18_Manager_operation)
	st.d	$a0, $sp, 1848
.Ltmp2505:                              # EH_LABEL
	pcalau12i	$a0, %pc_hi20(.L.str.167)
	addi.d	$a2, $a0, %pc_lo12(.L.str.167)
	addi.d	$a0, $sp, 1864
	addi.d	$a1, $sp, 1832
	pcaddu18i	$ra, %call36(_ZL19checkVectorFunctionIidEvSt8functionIFT_PT0_S3_jEES5_PKc)
	jirl	$ra, $ra, 0
.Ltmp2506:                              # EH_LABEL
# %bb.838:
	ld.d	$a3, $sp, 1848
	beqz	$a3, .LBB0_840
# %bb.839:
.Ltmp2514:                              # EH_LABEL
	addi.d	$a0, $sp, 1832
	addi.d	$a1, $sp, 1832
	ori	$a2, $zero, 3
	jirl	$ra, $a3, 0
.Ltmp2515:                              # EH_LABEL
.LBB0_840:                              # %_ZNSt14_Function_baseD2Ev.exit670
	ld.d	$a3, $sp, 1880
	beqz	$a3, .LBB0_842
# %bb.841:
.Ltmp2517:                              # EH_LABEL
	addi.d	$a0, $sp, 1864
	addi.d	$a1, $sp, 1864
	ori	$a2, $zero, 3
	jirl	$ra, $a3, 0
.Ltmp2518:                              # EH_LABEL
.LBB0_842:                              # %_ZNSt14_Function_baseD2Ev.exit672
	vld	$vr0, $sp, 16                   # 16-byte Folded Reload
	vst	$vr0, $sp, 1800
	pcalau12i	$a0, %pc_hi20(_ZNSt17_Function_handlerIFiPdS0_jEZ4mainE5$_336E9_M_invokeERKSt9_Any_dataOS0_S7_Oj)
	addi.d	$a0, $a0, %pc_lo12(_ZNSt17_Function_handlerIFiPdS0_jEZ4mainE5$_336E9_M_invokeERKSt9_Any_dataOS0_S7_Oj)
	st.d	$a0, $sp, 1824
	pcalau12i	$a0, %pc_hi20(_ZNSt17_Function_handlerIFiPdS0_jEZ4mainE5$_336E10_M_managerERSt9_Any_dataRKS4_St18_Manager_operation)
	addi.d	$a0, $a0, %pc_lo12(_ZNSt17_Function_handlerIFiPdS0_jEZ4mainE5$_336E10_M_managerERSt9_Any_dataRKS4_St18_Manager_operation)
	st.d	$a0, $sp, 1816
	vst	$vr0, $sp, 1768
	pcalau12i	$a0, %pc_hi20(_ZNSt17_Function_handlerIFiPdS0_jEZ4mainE5$_337E9_M_invokeERKSt9_Any_dataOS0_S7_Oj)
	addi.d	$a0, $a0, %pc_lo12(_ZNSt17_Function_handlerIFiPdS0_jEZ4mainE5$_337E9_M_invokeERKSt9_Any_dataOS0_S7_Oj)
	st.d	$a0, $sp, 1792
	pcalau12i	$a0, %pc_hi20(_ZNSt17_Function_handlerIFiPdS0_jEZ4mainE5$_337E10_M_managerERSt9_Any_dataRKS4_St18_Manager_operation)
	addi.d	$a0, $a0, %pc_lo12(_ZNSt17_Function_handlerIFiPdS0_jEZ4mainE5$_337E10_M_managerERSt9_Any_dataRKS4_St18_Manager_operation)
	st.d	$a0, $sp, 1784
.Ltmp2520:                              # EH_LABEL
	pcalau12i	$a0, %pc_hi20(.L.str.168)
	addi.d	$a2, $a0, %pc_lo12(.L.str.168)
	addi.d	$a0, $sp, 1800
	addi.d	$a1, $sp, 1768
	pcaddu18i	$ra, %call36(_ZL19checkVectorFunctionIidEvSt8functionIFT_PT0_S3_jEES5_PKc)
	jirl	$ra, $ra, 0
.Ltmp2521:                              # EH_LABEL
# %bb.843:
	ld.d	$a3, $sp, 1784
	beqz	$a3, .LBB0_845
# %bb.844:
.Ltmp2529:                              # EH_LABEL
	addi.d	$a0, $sp, 1768
	addi.d	$a1, $sp, 1768
	ori	$a2, $zero, 3
	jirl	$ra, $a3, 0
.Ltmp2530:                              # EH_LABEL
.LBB0_845:                              # %_ZNSt14_Function_baseD2Ev.exit674
	ld.d	$a3, $sp, 1816
	beqz	$a3, .LBB0_847
# %bb.846:
.Ltmp2532:                              # EH_LABEL
	addi.d	$a0, $sp, 1800
	addi.d	$a1, $sp, 1800
	ori	$a2, $zero, 3
	jirl	$ra, $a3, 0
.Ltmp2533:                              # EH_LABEL
.LBB0_847:                              # %_ZNSt14_Function_baseD2Ev.exit676
	vld	$vr0, $sp, 16                   # 16-byte Folded Reload
	vst	$vr0, $sp, 1736
	pcalau12i	$a0, %pc_hi20(_ZNSt17_Function_handlerIFiPdS0_jEZ4mainE5$_338E9_M_invokeERKSt9_Any_dataOS0_S7_Oj)
	addi.d	$a0, $a0, %pc_lo12(_ZNSt17_Function_handlerIFiPdS0_jEZ4mainE5$_338E9_M_invokeERKSt9_Any_dataOS0_S7_Oj)
	st.d	$a0, $sp, 1760
	pcalau12i	$a0, %pc_hi20(_ZNSt17_Function_handlerIFiPdS0_jEZ4mainE5$_338E10_M_managerERSt9_Any_dataRKS4_St18_Manager_operation)
	addi.d	$a0, $a0, %pc_lo12(_ZNSt17_Function_handlerIFiPdS0_jEZ4mainE5$_338E10_M_managerERSt9_Any_dataRKS4_St18_Manager_operation)
	st.d	$a0, $sp, 1752
	vst	$vr0, $sp, 1704
	pcalau12i	$a0, %pc_hi20(_ZNSt17_Function_handlerIFiPdS0_jEZ4mainE5$_339E9_M_invokeERKSt9_Any_dataOS0_S7_Oj)
	addi.d	$a0, $a0, %pc_lo12(_ZNSt17_Function_handlerIFiPdS0_jEZ4mainE5$_339E9_M_invokeERKSt9_Any_dataOS0_S7_Oj)
	st.d	$a0, $sp, 1728
	pcalau12i	$a0, %pc_hi20(_ZNSt17_Function_handlerIFiPdS0_jEZ4mainE5$_339E10_M_managerERSt9_Any_dataRKS4_St18_Manager_operation)
	addi.d	$a0, $a0, %pc_lo12(_ZNSt17_Function_handlerIFiPdS0_jEZ4mainE5$_339E10_M_managerERSt9_Any_dataRKS4_St18_Manager_operation)
	st.d	$a0, $sp, 1720
.Ltmp2535:                              # EH_LABEL
	pcalau12i	$a0, %pc_hi20(.L.str.169)
	addi.d	$a2, $a0, %pc_lo12(.L.str.169)
	addi.d	$a0, $sp, 1736
	addi.d	$a1, $sp, 1704
	pcaddu18i	$ra, %call36(_ZL19checkVectorFunctionIidEvSt8functionIFT_PT0_S3_jEES5_PKc)
	jirl	$ra, $ra, 0
.Ltmp2536:                              # EH_LABEL
# %bb.848:
	ld.d	$a3, $sp, 1720
	beqz	$a3, .LBB0_850
# %bb.849:
.Ltmp2544:                              # EH_LABEL
	addi.d	$a0, $sp, 1704
	addi.d	$a1, $sp, 1704
	ori	$a2, $zero, 3
	jirl	$ra, $a3, 0
.Ltmp2545:                              # EH_LABEL
.LBB0_850:                              # %_ZNSt14_Function_baseD2Ev.exit678
	ld.d	$a3, $sp, 1752
	beqz	$a3, .LBB0_852
# %bb.851:
.Ltmp2547:                              # EH_LABEL
	addi.d	$a0, $sp, 1736
	addi.d	$a1, $sp, 1736
	ori	$a2, $zero, 3
	jirl	$ra, $a3, 0
.Ltmp2548:                              # EH_LABEL
.LBB0_852:                              # %_ZNSt14_Function_baseD2Ev.exit680
	vld	$vr0, $sp, 16                   # 16-byte Folded Reload
	vst	$vr0, $sp, 1672
	pcalau12i	$a0, %pc_hi20(_ZNSt17_Function_handlerIFiPdS0_jEZ4mainE5$_340E9_M_invokeERKSt9_Any_dataOS0_S7_Oj)
	addi.d	$a0, $a0, %pc_lo12(_ZNSt17_Function_handlerIFiPdS0_jEZ4mainE5$_340E9_M_invokeERKSt9_Any_dataOS0_S7_Oj)
	st.d	$a0, $sp, 1696
	pcalau12i	$a0, %pc_hi20(_ZNSt17_Function_handlerIFiPdS0_jEZ4mainE5$_340E10_M_managerERSt9_Any_dataRKS4_St18_Manager_operation)
	addi.d	$a0, $a0, %pc_lo12(_ZNSt17_Function_handlerIFiPdS0_jEZ4mainE5$_340E10_M_managerERSt9_Any_dataRKS4_St18_Manager_operation)
	st.d	$a0, $sp, 1688
	vst	$vr0, $sp, 1640
	pcalau12i	$a0, %pc_hi20(_ZNSt17_Function_handlerIFiPdS0_jEZ4mainE5$_341E9_M_invokeERKSt9_Any_dataOS0_S7_Oj)
	addi.d	$a0, $a0, %pc_lo12(_ZNSt17_Function_handlerIFiPdS0_jEZ4mainE5$_341E9_M_invokeERKSt9_Any_dataOS0_S7_Oj)
	st.d	$a0, $sp, 1664
	pcalau12i	$a0, %pc_hi20(_ZNSt17_Function_handlerIFiPdS0_jEZ4mainE5$_341E10_M_managerERSt9_Any_dataRKS4_St18_Manager_operation)
	addi.d	$a0, $a0, %pc_lo12(_ZNSt17_Function_handlerIFiPdS0_jEZ4mainE5$_341E10_M_managerERSt9_Any_dataRKS4_St18_Manager_operation)
	st.d	$a0, $sp, 1656
.Ltmp2550:                              # EH_LABEL
	pcalau12i	$a0, %pc_hi20(.L.str.170)
	addi.d	$a2, $a0, %pc_lo12(.L.str.170)
	addi.d	$a0, $sp, 1672
	addi.d	$a1, $sp, 1640
	pcaddu18i	$ra, %call36(_ZL19checkVectorFunctionIidEvSt8functionIFT_PT0_S3_jEES5_PKc)
	jirl	$ra, $ra, 0
.Ltmp2551:                              # EH_LABEL
# %bb.853:
	ld.d	$a3, $sp, 1656
	beqz	$a3, .LBB0_855
# %bb.854:
.Ltmp2559:                              # EH_LABEL
	addi.d	$a0, $sp, 1640
	addi.d	$a1, $sp, 1640
	ori	$a2, $zero, 3
	jirl	$ra, $a3, 0
.Ltmp2560:                              # EH_LABEL
.LBB0_855:                              # %_ZNSt14_Function_baseD2Ev.exit682
	ld.d	$a3, $sp, 1688
	beqz	$a3, .LBB0_857
# %bb.856:
.Ltmp2562:                              # EH_LABEL
	addi.d	$a0, $sp, 1672
	addi.d	$a1, $sp, 1672
	ori	$a2, $zero, 3
	jirl	$ra, $a3, 0
.Ltmp2563:                              # EH_LABEL
.LBB0_857:                              # %_ZNSt14_Function_baseD2Ev.exit684
	vld	$vr0, $sp, 16                   # 16-byte Folded Reload
	vst	$vr0, $sp, 1608
	pcalau12i	$a0, %pc_hi20(_ZNSt17_Function_handlerIFiPdS0_jEZ4mainE5$_342E9_M_invokeERKSt9_Any_dataOS0_S7_Oj)
	addi.d	$a0, $a0, %pc_lo12(_ZNSt17_Function_handlerIFiPdS0_jEZ4mainE5$_342E9_M_invokeERKSt9_Any_dataOS0_S7_Oj)
	st.d	$a0, $sp, 1632
	pcalau12i	$a0, %pc_hi20(_ZNSt17_Function_handlerIFiPdS0_jEZ4mainE5$_342E10_M_managerERSt9_Any_dataRKS4_St18_Manager_operation)
	addi.d	$a0, $a0, %pc_lo12(_ZNSt17_Function_handlerIFiPdS0_jEZ4mainE5$_342E10_M_managerERSt9_Any_dataRKS4_St18_Manager_operation)
	st.d	$a0, $sp, 1624
	vst	$vr0, $sp, 1576
	pcalau12i	$a0, %pc_hi20(_ZNSt17_Function_handlerIFiPdS0_jEZ4mainE5$_343E9_M_invokeERKSt9_Any_dataOS0_S7_Oj)
	addi.d	$a0, $a0, %pc_lo12(_ZNSt17_Function_handlerIFiPdS0_jEZ4mainE5$_343E9_M_invokeERKSt9_Any_dataOS0_S7_Oj)
	st.d	$a0, $sp, 1600
	pcalau12i	$a0, %pc_hi20(_ZNSt17_Function_handlerIFiPdS0_jEZ4mainE5$_343E10_M_managerERSt9_Any_dataRKS4_St18_Manager_operation)
	addi.d	$a0, $a0, %pc_lo12(_ZNSt17_Function_handlerIFiPdS0_jEZ4mainE5$_343E10_M_managerERSt9_Any_dataRKS4_St18_Manager_operation)
	st.d	$a0, $sp, 1592
.Ltmp2565:                              # EH_LABEL
	pcalau12i	$a0, %pc_hi20(.L.str.171)
	addi.d	$a2, $a0, %pc_lo12(.L.str.171)
	addi.d	$a0, $sp, 1608
	addi.d	$a1, $sp, 1576
	pcaddu18i	$ra, %call36(_ZL19checkVectorFunctionIidEvSt8functionIFT_PT0_S3_jEES5_PKc)
	jirl	$ra, $ra, 0
.Ltmp2566:                              # EH_LABEL
# %bb.858:
	ld.d	$a3, $sp, 1592
	beqz	$a3, .LBB0_860
# %bb.859:
.Ltmp2574:                              # EH_LABEL
	addi.d	$a0, $sp, 1576
	addi.d	$a1, $sp, 1576
	ori	$a2, $zero, 3
	jirl	$ra, $a3, 0
.Ltmp2575:                              # EH_LABEL
.LBB0_860:                              # %_ZNSt14_Function_baseD2Ev.exit686
	ld.d	$a3, $sp, 1624
	beqz	$a3, .LBB0_862
# %bb.861:
.Ltmp2577:                              # EH_LABEL
	addi.d	$a0, $sp, 1608
	addi.d	$a1, $sp, 1608
	ori	$a2, $zero, 3
	jirl	$ra, $a3, 0
.Ltmp2578:                              # EH_LABEL
.LBB0_862:                              # %_ZNSt14_Function_baseD2Ev.exit688
	vld	$vr0, $sp, 16                   # 16-byte Folded Reload
	vst	$vr0, $sp, 1544
	pcalau12i	$a0, %pc_hi20(_ZNSt17_Function_handlerIFiPdS0_jEZ4mainE5$_344E9_M_invokeERKSt9_Any_dataOS0_S7_Oj)
	addi.d	$a0, $a0, %pc_lo12(_ZNSt17_Function_handlerIFiPdS0_jEZ4mainE5$_344E9_M_invokeERKSt9_Any_dataOS0_S7_Oj)
	st.d	$a0, $sp, 1568
	pcalau12i	$a0, %pc_hi20(_ZNSt17_Function_handlerIFiPdS0_jEZ4mainE5$_344E10_M_managerERSt9_Any_dataRKS4_St18_Manager_operation)
	addi.d	$a0, $a0, %pc_lo12(_ZNSt17_Function_handlerIFiPdS0_jEZ4mainE5$_344E10_M_managerERSt9_Any_dataRKS4_St18_Manager_operation)
	st.d	$a0, $sp, 1560
	vst	$vr0, $sp, 1512
	pcalau12i	$a0, %pc_hi20(_ZNSt17_Function_handlerIFiPdS0_jEZ4mainE5$_345E9_M_invokeERKSt9_Any_dataOS0_S7_Oj)
	addi.d	$a0, $a0, %pc_lo12(_ZNSt17_Function_handlerIFiPdS0_jEZ4mainE5$_345E9_M_invokeERKSt9_Any_dataOS0_S7_Oj)
	st.d	$a0, $sp, 1536
	pcalau12i	$a0, %pc_hi20(_ZNSt17_Function_handlerIFiPdS0_jEZ4mainE5$_345E10_M_managerERSt9_Any_dataRKS4_St18_Manager_operation)
	addi.d	$a0, $a0, %pc_lo12(_ZNSt17_Function_handlerIFiPdS0_jEZ4mainE5$_345E10_M_managerERSt9_Any_dataRKS4_St18_Manager_operation)
	st.d	$a0, $sp, 1528
.Ltmp2580:                              # EH_LABEL
	pcalau12i	$a0, %pc_hi20(.L.str.172)
	addi.d	$a2, $a0, %pc_lo12(.L.str.172)
	addi.d	$a0, $sp, 1544
	addi.d	$a1, $sp, 1512
	pcaddu18i	$ra, %call36(_ZL19checkVectorFunctionIidEvSt8functionIFT_PT0_S3_jEES5_PKc)
	jirl	$ra, $ra, 0
.Ltmp2581:                              # EH_LABEL
# %bb.863:
	ld.d	$a3, $sp, 1528
	beqz	$a3, .LBB0_865
# %bb.864:
.Ltmp2589:                              # EH_LABEL
	addi.d	$a0, $sp, 1512
	addi.d	$a1, $sp, 1512
	ori	$a2, $zero, 3
	jirl	$ra, $a3, 0
.Ltmp2590:                              # EH_LABEL
.LBB0_865:                              # %_ZNSt14_Function_baseD2Ev.exit690
	ld.d	$a3, $sp, 1560
	beqz	$a3, .LBB0_867
# %bb.866:
.Ltmp2592:                              # EH_LABEL
	addi.d	$a0, $sp, 1544
	addi.d	$a1, $sp, 1544
	ori	$a2, $zero, 3
	jirl	$ra, $a3, 0
.Ltmp2593:                              # EH_LABEL
.LBB0_867:                              # %_ZNSt14_Function_baseD2Ev.exit692
	vld	$vr0, $sp, 16                   # 16-byte Folded Reload
	vst	$vr0, $sp, 1480
	pcalau12i	$a0, %pc_hi20(_ZNSt17_Function_handlerIFiPdS0_jEZ4mainE5$_346E9_M_invokeERKSt9_Any_dataOS0_S7_Oj)
	addi.d	$a0, $a0, %pc_lo12(_ZNSt17_Function_handlerIFiPdS0_jEZ4mainE5$_346E9_M_invokeERKSt9_Any_dataOS0_S7_Oj)
	st.d	$a0, $sp, 1504
	pcalau12i	$a0, %pc_hi20(_ZNSt17_Function_handlerIFiPdS0_jEZ4mainE5$_346E10_M_managerERSt9_Any_dataRKS4_St18_Manager_operation)
	addi.d	$a0, $a0, %pc_lo12(_ZNSt17_Function_handlerIFiPdS0_jEZ4mainE5$_346E10_M_managerERSt9_Any_dataRKS4_St18_Manager_operation)
	st.d	$a0, $sp, 1496
	vst	$vr0, $sp, 1448
	pcalau12i	$a0, %pc_hi20(_ZNSt17_Function_handlerIFiPdS0_jEZ4mainE5$_347E9_M_invokeERKSt9_Any_dataOS0_S7_Oj)
	addi.d	$a0, $a0, %pc_lo12(_ZNSt17_Function_handlerIFiPdS0_jEZ4mainE5$_347E9_M_invokeERKSt9_Any_dataOS0_S7_Oj)
	st.d	$a0, $sp, 1472
	pcalau12i	$a0, %pc_hi20(_ZNSt17_Function_handlerIFiPdS0_jEZ4mainE5$_347E10_M_managerERSt9_Any_dataRKS4_St18_Manager_operation)
	addi.d	$a0, $a0, %pc_lo12(_ZNSt17_Function_handlerIFiPdS0_jEZ4mainE5$_347E10_M_managerERSt9_Any_dataRKS4_St18_Manager_operation)
	st.d	$a0, $sp, 1464
.Ltmp2595:                              # EH_LABEL
	pcalau12i	$a0, %pc_hi20(.L.str.173)
	addi.d	$a2, $a0, %pc_lo12(.L.str.173)
	addi.d	$a0, $sp, 1480
	addi.d	$a1, $sp, 1448
	pcaddu18i	$ra, %call36(_ZL19checkVectorFunctionIidEvSt8functionIFT_PT0_S3_jEES5_PKc)
	jirl	$ra, $ra, 0
.Ltmp2596:                              # EH_LABEL
# %bb.868:
	ld.d	$a3, $sp, 1464
	beqz	$a3, .LBB0_870
# %bb.869:
.Ltmp2604:                              # EH_LABEL
	addi.d	$a0, $sp, 1448
	addi.d	$a1, $sp, 1448
	ori	$a2, $zero, 3
	jirl	$ra, $a3, 0
.Ltmp2605:                              # EH_LABEL
.LBB0_870:                              # %_ZNSt14_Function_baseD2Ev.exit694
	ld.d	$a3, $sp, 1496
	beqz	$a3, .LBB0_872
# %bb.871:
.Ltmp2607:                              # EH_LABEL
	addi.d	$a0, $sp, 1480
	addi.d	$a1, $sp, 1480
	ori	$a2, $zero, 3
	jirl	$ra, $a3, 0
.Ltmp2608:                              # EH_LABEL
.LBB0_872:                              # %_ZNSt14_Function_baseD2Ev.exit696
	vld	$vr0, $sp, 16                   # 16-byte Folded Reload
	vst	$vr0, $sp, 1416
	pcalau12i	$a0, %pc_hi20(_ZNSt17_Function_handlerIFiPdS0_jEZ4mainE5$_348E9_M_invokeERKSt9_Any_dataOS0_S7_Oj)
	addi.d	$a0, $a0, %pc_lo12(_ZNSt17_Function_handlerIFiPdS0_jEZ4mainE5$_348E9_M_invokeERKSt9_Any_dataOS0_S7_Oj)
	st.d	$a0, $sp, 1440
	pcalau12i	$a0, %pc_hi20(_ZNSt17_Function_handlerIFiPdS0_jEZ4mainE5$_348E10_M_managerERSt9_Any_dataRKS4_St18_Manager_operation)
	addi.d	$a0, $a0, %pc_lo12(_ZNSt17_Function_handlerIFiPdS0_jEZ4mainE5$_348E10_M_managerERSt9_Any_dataRKS4_St18_Manager_operation)
	st.d	$a0, $sp, 1432
	vst	$vr0, $sp, 1384
	pcalau12i	$a0, %pc_hi20(_ZNSt17_Function_handlerIFiPdS0_jEZ4mainE5$_349E9_M_invokeERKSt9_Any_dataOS0_S7_Oj)
	addi.d	$a0, $a0, %pc_lo12(_ZNSt17_Function_handlerIFiPdS0_jEZ4mainE5$_349E9_M_invokeERKSt9_Any_dataOS0_S7_Oj)
	st.d	$a0, $sp, 1408
	pcalau12i	$a0, %pc_hi20(_ZNSt17_Function_handlerIFiPdS0_jEZ4mainE5$_349E10_M_managerERSt9_Any_dataRKS4_St18_Manager_operation)
	addi.d	$a0, $a0, %pc_lo12(_ZNSt17_Function_handlerIFiPdS0_jEZ4mainE5$_349E10_M_managerERSt9_Any_dataRKS4_St18_Manager_operation)
	st.d	$a0, $sp, 1400
.Ltmp2610:                              # EH_LABEL
	pcalau12i	$a0, %pc_hi20(.L.str.174)
	addi.d	$a2, $a0, %pc_lo12(.L.str.174)
	addi.d	$a0, $sp, 1416
	addi.d	$a1, $sp, 1384
	pcaddu18i	$ra, %call36(_ZL19checkVectorFunctionIidEvSt8functionIFT_PT0_S3_jEES5_PKc)
	jirl	$ra, $ra, 0
.Ltmp2611:                              # EH_LABEL
# %bb.873:
	ld.d	$a3, $sp, 1400
	beqz	$a3, .LBB0_875
# %bb.874:
.Ltmp2619:                              # EH_LABEL
	addi.d	$a0, $sp, 1384
	addi.d	$a1, $sp, 1384
	ori	$a2, $zero, 3
	jirl	$ra, $a3, 0
.Ltmp2620:                              # EH_LABEL
.LBB0_875:                              # %_ZNSt14_Function_baseD2Ev.exit698
	ld.d	$a3, $sp, 1432
	beqz	$a3, .LBB0_877
# %bb.876:
.Ltmp2622:                              # EH_LABEL
	addi.d	$a0, $sp, 1416
	addi.d	$a1, $sp, 1416
	ori	$a2, $zero, 3
	jirl	$ra, $a3, 0
.Ltmp2623:                              # EH_LABEL
.LBB0_877:                              # %_ZNSt14_Function_baseD2Ev.exit700
	vld	$vr0, $sp, 16                   # 16-byte Folded Reload
	vst	$vr0, $sp, 1352
	pcalau12i	$a0, %pc_hi20(_ZNSt17_Function_handlerIFiPdS0_jEZ4mainE5$_350E9_M_invokeERKSt9_Any_dataOS0_S7_Oj)
	addi.d	$a0, $a0, %pc_lo12(_ZNSt17_Function_handlerIFiPdS0_jEZ4mainE5$_350E9_M_invokeERKSt9_Any_dataOS0_S7_Oj)
	st.d	$a0, $sp, 1376
	pcalau12i	$a0, %pc_hi20(_ZNSt17_Function_handlerIFiPdS0_jEZ4mainE5$_350E10_M_managerERSt9_Any_dataRKS4_St18_Manager_operation)
	addi.d	$a0, $a0, %pc_lo12(_ZNSt17_Function_handlerIFiPdS0_jEZ4mainE5$_350E10_M_managerERSt9_Any_dataRKS4_St18_Manager_operation)
	st.d	$a0, $sp, 1368
	vst	$vr0, $sp, 1320
	pcalau12i	$a0, %pc_hi20(_ZNSt17_Function_handlerIFiPdS0_jEZ4mainE5$_351E9_M_invokeERKSt9_Any_dataOS0_S7_Oj)
	addi.d	$a0, $a0, %pc_lo12(_ZNSt17_Function_handlerIFiPdS0_jEZ4mainE5$_351E9_M_invokeERKSt9_Any_dataOS0_S7_Oj)
	st.d	$a0, $sp, 1344
	pcalau12i	$a0, %pc_hi20(_ZNSt17_Function_handlerIFiPdS0_jEZ4mainE5$_351E10_M_managerERSt9_Any_dataRKS4_St18_Manager_operation)
	addi.d	$a0, $a0, %pc_lo12(_ZNSt17_Function_handlerIFiPdS0_jEZ4mainE5$_351E10_M_managerERSt9_Any_dataRKS4_St18_Manager_operation)
	st.d	$a0, $sp, 1336
.Ltmp2625:                              # EH_LABEL
	pcalau12i	$a0, %pc_hi20(.L.str.175)
	addi.d	$a2, $a0, %pc_lo12(.L.str.175)
	addi.d	$a0, $sp, 1352
	addi.d	$a1, $sp, 1320
	pcaddu18i	$ra, %call36(_ZL19checkVectorFunctionIidEvSt8functionIFT_PT0_S3_jEES5_PKc)
	jirl	$ra, $ra, 0
.Ltmp2626:                              # EH_LABEL
# %bb.878:
	ld.d	$a3, $sp, 1336
	beqz	$a3, .LBB0_880
# %bb.879:
.Ltmp2634:                              # EH_LABEL
	addi.d	$a0, $sp, 1320
	addi.d	$a1, $sp, 1320
	ori	$a2, $zero, 3
	jirl	$ra, $a3, 0
.Ltmp2635:                              # EH_LABEL
.LBB0_880:                              # %_ZNSt14_Function_baseD2Ev.exit702
	ld.d	$a3, $sp, 1368
	beqz	$a3, .LBB0_882
# %bb.881:
.Ltmp2637:                              # EH_LABEL
	addi.d	$a0, $sp, 1352
	addi.d	$a1, $sp, 1352
	ori	$a2, $zero, 3
	jirl	$ra, $a3, 0
.Ltmp2638:                              # EH_LABEL
.LBB0_882:                              # %_ZNSt14_Function_baseD2Ev.exit704
	vld	$vr0, $sp, 16                   # 16-byte Folded Reload
	vst	$vr0, $sp, 1288
	pcalau12i	$a0, %pc_hi20(_ZNSt17_Function_handlerIFiPdS0_jEZ4mainE5$_352E9_M_invokeERKSt9_Any_dataOS0_S7_Oj)
	addi.d	$a0, $a0, %pc_lo12(_ZNSt17_Function_handlerIFiPdS0_jEZ4mainE5$_352E9_M_invokeERKSt9_Any_dataOS0_S7_Oj)
	st.d	$a0, $sp, 1312
	pcalau12i	$a0, %pc_hi20(_ZNSt17_Function_handlerIFiPdS0_jEZ4mainE5$_352E10_M_managerERSt9_Any_dataRKS4_St18_Manager_operation)
	addi.d	$a0, $a0, %pc_lo12(_ZNSt17_Function_handlerIFiPdS0_jEZ4mainE5$_352E10_M_managerERSt9_Any_dataRKS4_St18_Manager_operation)
	st.d	$a0, $sp, 1304
	vst	$vr0, $sp, 1256
	pcalau12i	$a0, %pc_hi20(_ZNSt17_Function_handlerIFiPdS0_jEZ4mainE5$_353E9_M_invokeERKSt9_Any_dataOS0_S7_Oj)
	addi.d	$a0, $a0, %pc_lo12(_ZNSt17_Function_handlerIFiPdS0_jEZ4mainE5$_353E9_M_invokeERKSt9_Any_dataOS0_S7_Oj)
	st.d	$a0, $sp, 1280
	pcalau12i	$a0, %pc_hi20(_ZNSt17_Function_handlerIFiPdS0_jEZ4mainE5$_353E10_M_managerERSt9_Any_dataRKS4_St18_Manager_operation)
	addi.d	$a0, $a0, %pc_lo12(_ZNSt17_Function_handlerIFiPdS0_jEZ4mainE5$_353E10_M_managerERSt9_Any_dataRKS4_St18_Manager_operation)
	st.d	$a0, $sp, 1272
.Ltmp2640:                              # EH_LABEL
	pcalau12i	$a0, %pc_hi20(.L.str.176)
	addi.d	$a2, $a0, %pc_lo12(.L.str.176)
	addi.d	$a0, $sp, 1288
	addi.d	$a1, $sp, 1256
	pcaddu18i	$ra, %call36(_ZL19checkVectorFunctionIidEvSt8functionIFT_PT0_S3_jEES5_PKc)
	jirl	$ra, $ra, 0
.Ltmp2641:                              # EH_LABEL
# %bb.883:
	ld.d	$a3, $sp, 1272
	beqz	$a3, .LBB0_885
# %bb.884:
.Ltmp2649:                              # EH_LABEL
	addi.d	$a0, $sp, 1256
	addi.d	$a1, $sp, 1256
	ori	$a2, $zero, 3
	jirl	$ra, $a3, 0
.Ltmp2650:                              # EH_LABEL
.LBB0_885:                              # %_ZNSt14_Function_baseD2Ev.exit706
	ld.d	$a3, $sp, 1304
	beqz	$a3, .LBB0_887
# %bb.886:
.Ltmp2652:                              # EH_LABEL
	addi.d	$a0, $sp, 1288
	addi.d	$a1, $sp, 1288
	ori	$a2, $zero, 3
	jirl	$ra, $a3, 0
.Ltmp2653:                              # EH_LABEL
.LBB0_887:                              # %_ZNSt14_Function_baseD2Ev.exit708
	vld	$vr0, $sp, 16                   # 16-byte Folded Reload
	vst	$vr0, $sp, 1224
	pcalau12i	$a0, %pc_hi20(_ZNSt17_Function_handlerIFiPdS0_jEZ4mainE5$_354E9_M_invokeERKSt9_Any_dataOS0_S7_Oj)
	addi.d	$a0, $a0, %pc_lo12(_ZNSt17_Function_handlerIFiPdS0_jEZ4mainE5$_354E9_M_invokeERKSt9_Any_dataOS0_S7_Oj)
	st.d	$a0, $sp, 1248
	pcalau12i	$a0, %pc_hi20(_ZNSt17_Function_handlerIFiPdS0_jEZ4mainE5$_354E10_M_managerERSt9_Any_dataRKS4_St18_Manager_operation)
	addi.d	$a0, $a0, %pc_lo12(_ZNSt17_Function_handlerIFiPdS0_jEZ4mainE5$_354E10_M_managerERSt9_Any_dataRKS4_St18_Manager_operation)
	st.d	$a0, $sp, 1240
	vst	$vr0, $sp, 1192
	pcalau12i	$a0, %pc_hi20(_ZNSt17_Function_handlerIFiPdS0_jEZ4mainE5$_355E9_M_invokeERKSt9_Any_dataOS0_S7_Oj)
	addi.d	$a0, $a0, %pc_lo12(_ZNSt17_Function_handlerIFiPdS0_jEZ4mainE5$_355E9_M_invokeERKSt9_Any_dataOS0_S7_Oj)
	st.d	$a0, $sp, 1216
	pcalau12i	$a0, %pc_hi20(_ZNSt17_Function_handlerIFiPdS0_jEZ4mainE5$_355E10_M_managerERSt9_Any_dataRKS4_St18_Manager_operation)
	addi.d	$a0, $a0, %pc_lo12(_ZNSt17_Function_handlerIFiPdS0_jEZ4mainE5$_355E10_M_managerERSt9_Any_dataRKS4_St18_Manager_operation)
	st.d	$a0, $sp, 1208
.Ltmp2655:                              # EH_LABEL
	pcalau12i	$a0, %pc_hi20(.L.str.177)
	addi.d	$a2, $a0, %pc_lo12(.L.str.177)
	addi.d	$a0, $sp, 1224
	addi.d	$a1, $sp, 1192
	pcaddu18i	$ra, %call36(_ZL19checkVectorFunctionIidEvSt8functionIFT_PT0_S3_jEES5_PKc)
	jirl	$ra, $ra, 0
.Ltmp2656:                              # EH_LABEL
# %bb.888:
	ld.d	$a3, $sp, 1208
	beqz	$a3, .LBB0_890
# %bb.889:
.Ltmp2664:                              # EH_LABEL
	addi.d	$a0, $sp, 1192
	addi.d	$a1, $sp, 1192
	ori	$a2, $zero, 3
	jirl	$ra, $a3, 0
.Ltmp2665:                              # EH_LABEL
.LBB0_890:                              # %_ZNSt14_Function_baseD2Ev.exit710
	ld.d	$a3, $sp, 1240
	beqz	$a3, .LBB0_892
# %bb.891:
.Ltmp2667:                              # EH_LABEL
	addi.d	$a0, $sp, 1224
	addi.d	$a1, $sp, 1224
	ori	$a2, $zero, 3
	jirl	$ra, $a3, 0
.Ltmp2668:                              # EH_LABEL
.LBB0_892:                              # %_ZNSt14_Function_baseD2Ev.exit712
	vld	$vr0, $sp, 16                   # 16-byte Folded Reload
	vst	$vr0, $sp, 1160
	pcalau12i	$a0, %pc_hi20(_ZNSt17_Function_handlerIFiPdS0_jEZ4mainE5$_356E9_M_invokeERKSt9_Any_dataOS0_S7_Oj)
	addi.d	$a0, $a0, %pc_lo12(_ZNSt17_Function_handlerIFiPdS0_jEZ4mainE5$_356E9_M_invokeERKSt9_Any_dataOS0_S7_Oj)
	st.d	$a0, $sp, 1184
	pcalau12i	$a0, %pc_hi20(_ZNSt17_Function_handlerIFiPdS0_jEZ4mainE5$_356E10_M_managerERSt9_Any_dataRKS4_St18_Manager_operation)
	addi.d	$a0, $a0, %pc_lo12(_ZNSt17_Function_handlerIFiPdS0_jEZ4mainE5$_356E10_M_managerERSt9_Any_dataRKS4_St18_Manager_operation)
	st.d	$a0, $sp, 1176
	vst	$vr0, $sp, 1128
	pcalau12i	$a0, %pc_hi20(_ZNSt17_Function_handlerIFiPdS0_jEZ4mainE5$_357E9_M_invokeERKSt9_Any_dataOS0_S7_Oj)
	addi.d	$a0, $a0, %pc_lo12(_ZNSt17_Function_handlerIFiPdS0_jEZ4mainE5$_357E9_M_invokeERKSt9_Any_dataOS0_S7_Oj)
	st.d	$a0, $sp, 1152
	pcalau12i	$a0, %pc_hi20(_ZNSt17_Function_handlerIFiPdS0_jEZ4mainE5$_357E10_M_managerERSt9_Any_dataRKS4_St18_Manager_operation)
	addi.d	$a0, $a0, %pc_lo12(_ZNSt17_Function_handlerIFiPdS0_jEZ4mainE5$_357E10_M_managerERSt9_Any_dataRKS4_St18_Manager_operation)
	st.d	$a0, $sp, 1144
.Ltmp2670:                              # EH_LABEL
	pcalau12i	$a0, %pc_hi20(.L.str.178)
	addi.d	$a2, $a0, %pc_lo12(.L.str.178)
	addi.d	$a0, $sp, 1160
	addi.d	$a1, $sp, 1128
	pcaddu18i	$ra, %call36(_ZL19checkVectorFunctionIidEvSt8functionIFT_PT0_S3_jEES5_PKc)
	jirl	$ra, $ra, 0
.Ltmp2671:                              # EH_LABEL
# %bb.893:
	ld.d	$a3, $sp, 1144
	beqz	$a3, .LBB0_895
# %bb.894:
.Ltmp2679:                              # EH_LABEL
	addi.d	$a0, $sp, 1128
	addi.d	$a1, $sp, 1128
	ori	$a2, $zero, 3
	jirl	$ra, $a3, 0
.Ltmp2680:                              # EH_LABEL
.LBB0_895:                              # %_ZNSt14_Function_baseD2Ev.exit714
	ld.d	$a3, $sp, 1176
	beqz	$a3, .LBB0_897
# %bb.896:
.Ltmp2682:                              # EH_LABEL
	addi.d	$a0, $sp, 1160
	addi.d	$a1, $sp, 1160
	ori	$a2, $zero, 3
	jirl	$ra, $a3, 0
.Ltmp2683:                              # EH_LABEL
.LBB0_897:                              # %_ZNSt14_Function_baseD2Ev.exit716
	vld	$vr0, $sp, 16                   # 16-byte Folded Reload
	vst	$vr0, $sp, 1096
	pcalau12i	$a0, %pc_hi20(_ZNSt17_Function_handlerIFiPdS0_jEZ4mainE5$_358E9_M_invokeERKSt9_Any_dataOS0_S7_Oj)
	addi.d	$a0, $a0, %pc_lo12(_ZNSt17_Function_handlerIFiPdS0_jEZ4mainE5$_358E9_M_invokeERKSt9_Any_dataOS0_S7_Oj)
	st.d	$a0, $sp, 1120
	pcalau12i	$a0, %pc_hi20(_ZNSt17_Function_handlerIFiPdS0_jEZ4mainE5$_358E10_M_managerERSt9_Any_dataRKS4_St18_Manager_operation)
	addi.d	$a0, $a0, %pc_lo12(_ZNSt17_Function_handlerIFiPdS0_jEZ4mainE5$_358E10_M_managerERSt9_Any_dataRKS4_St18_Manager_operation)
	st.d	$a0, $sp, 1112
	vst	$vr0, $sp, 1064
	pcalau12i	$a0, %pc_hi20(_ZNSt17_Function_handlerIFiPdS0_jEZ4mainE5$_359E9_M_invokeERKSt9_Any_dataOS0_S7_Oj)
	addi.d	$a0, $a0, %pc_lo12(_ZNSt17_Function_handlerIFiPdS0_jEZ4mainE5$_359E9_M_invokeERKSt9_Any_dataOS0_S7_Oj)
	st.d	$a0, $sp, 1088
	pcalau12i	$a0, %pc_hi20(_ZNSt17_Function_handlerIFiPdS0_jEZ4mainE5$_359E10_M_managerERSt9_Any_dataRKS4_St18_Manager_operation)
	addi.d	$a0, $a0, %pc_lo12(_ZNSt17_Function_handlerIFiPdS0_jEZ4mainE5$_359E10_M_managerERSt9_Any_dataRKS4_St18_Manager_operation)
	st.d	$a0, $sp, 1080
.Ltmp2685:                              # EH_LABEL
	pcalau12i	$a0, %pc_hi20(.L.str.179)
	addi.d	$a2, $a0, %pc_lo12(.L.str.179)
	addi.d	$a0, $sp, 1096
	addi.d	$a1, $sp, 1064
	pcaddu18i	$ra, %call36(_ZL19checkVectorFunctionIidEvSt8functionIFT_PT0_S3_jEES5_PKc)
	jirl	$ra, $ra, 0
.Ltmp2686:                              # EH_LABEL
# %bb.898:
	ld.d	$a3, $sp, 1080
	beqz	$a3, .LBB0_900
# %bb.899:
.Ltmp2694:                              # EH_LABEL
	addi.d	$a0, $sp, 1064
	addi.d	$a1, $sp, 1064
	ori	$a2, $zero, 3
	jirl	$ra, $a3, 0
.Ltmp2695:                              # EH_LABEL
.LBB0_900:                              # %_ZNSt14_Function_baseD2Ev.exit718
	ld.d	$a3, $sp, 1112
	beqz	$a3, .LBB0_902
# %bb.901:
.Ltmp2697:                              # EH_LABEL
	addi.d	$a0, $sp, 1096
	addi.d	$a1, $sp, 1096
	ori	$a2, $zero, 3
	jirl	$ra, $a3, 0
.Ltmp2698:                              # EH_LABEL
.LBB0_902:                              # %_ZNSt14_Function_baseD2Ev.exit720
	vld	$vr0, $sp, 16                   # 16-byte Folded Reload
	vst	$vr0, $sp, 1032
	pcalau12i	$a0, %pc_hi20(_ZNSt17_Function_handlerIFiPdS0_jEZ4mainE5$_360E9_M_invokeERKSt9_Any_dataOS0_S7_Oj)
	addi.d	$a0, $a0, %pc_lo12(_ZNSt17_Function_handlerIFiPdS0_jEZ4mainE5$_360E9_M_invokeERKSt9_Any_dataOS0_S7_Oj)
	st.d	$a0, $sp, 1056
	pcalau12i	$a0, %pc_hi20(_ZNSt17_Function_handlerIFiPdS0_jEZ4mainE5$_360E10_M_managerERSt9_Any_dataRKS4_St18_Manager_operation)
	addi.d	$a0, $a0, %pc_lo12(_ZNSt17_Function_handlerIFiPdS0_jEZ4mainE5$_360E10_M_managerERSt9_Any_dataRKS4_St18_Manager_operation)
	st.d	$a0, $sp, 1048
	vst	$vr0, $sp, 1000
	pcalau12i	$a0, %pc_hi20(_ZNSt17_Function_handlerIFiPdS0_jEZ4mainE5$_361E9_M_invokeERKSt9_Any_dataOS0_S7_Oj)
	addi.d	$a0, $a0, %pc_lo12(_ZNSt17_Function_handlerIFiPdS0_jEZ4mainE5$_361E9_M_invokeERKSt9_Any_dataOS0_S7_Oj)
	st.d	$a0, $sp, 1024
	pcalau12i	$a0, %pc_hi20(_ZNSt17_Function_handlerIFiPdS0_jEZ4mainE5$_361E10_M_managerERSt9_Any_dataRKS4_St18_Manager_operation)
	addi.d	$a0, $a0, %pc_lo12(_ZNSt17_Function_handlerIFiPdS0_jEZ4mainE5$_361E10_M_managerERSt9_Any_dataRKS4_St18_Manager_operation)
	st.d	$a0, $sp, 1016
.Ltmp2700:                              # EH_LABEL
	pcalau12i	$a0, %pc_hi20(.L.str.180)
	addi.d	$a2, $a0, %pc_lo12(.L.str.180)
	addi.d	$a0, $sp, 1032
	addi.d	$a1, $sp, 1000
	pcaddu18i	$ra, %call36(_ZL19checkVectorFunctionIidEvSt8functionIFT_PT0_S3_jEES5_PKc)
	jirl	$ra, $ra, 0
.Ltmp2701:                              # EH_LABEL
# %bb.903:
	ld.d	$a3, $sp, 1016
	beqz	$a3, .LBB0_905
# %bb.904:
.Ltmp2709:                              # EH_LABEL
	addi.d	$a0, $sp, 1000
	addi.d	$a1, $sp, 1000
	ori	$a2, $zero, 3
	jirl	$ra, $a3, 0
.Ltmp2710:                              # EH_LABEL
.LBB0_905:                              # %_ZNSt14_Function_baseD2Ev.exit722
	ld.d	$a3, $sp, 1048
	beqz	$a3, .LBB0_907
# %bb.906:
.Ltmp2712:                              # EH_LABEL
	addi.d	$a0, $sp, 1032
	addi.d	$a1, $sp, 1032
	ori	$a2, $zero, 3
	jirl	$ra, $a3, 0
.Ltmp2713:                              # EH_LABEL
.LBB0_907:                              # %_ZNSt14_Function_baseD2Ev.exit724
	vld	$vr0, $sp, 16                   # 16-byte Folded Reload
	vst	$vr0, $sp, 968
	pcalau12i	$a0, %pc_hi20(_ZNSt17_Function_handlerIFiPdS0_jEZ4mainE5$_362E9_M_invokeERKSt9_Any_dataOS0_S7_Oj)
	addi.d	$a0, $a0, %pc_lo12(_ZNSt17_Function_handlerIFiPdS0_jEZ4mainE5$_362E9_M_invokeERKSt9_Any_dataOS0_S7_Oj)
	st.d	$a0, $sp, 992
	pcalau12i	$a0, %pc_hi20(_ZNSt17_Function_handlerIFiPdS0_jEZ4mainE5$_362E10_M_managerERSt9_Any_dataRKS4_St18_Manager_operation)
	addi.d	$a0, $a0, %pc_lo12(_ZNSt17_Function_handlerIFiPdS0_jEZ4mainE5$_362E10_M_managerERSt9_Any_dataRKS4_St18_Manager_operation)
	st.d	$a0, $sp, 984
	vst	$vr0, $sp, 936
	pcalau12i	$a0, %pc_hi20(_ZNSt17_Function_handlerIFiPdS0_jEZ4mainE5$_363E9_M_invokeERKSt9_Any_dataOS0_S7_Oj)
	addi.d	$a0, $a0, %pc_lo12(_ZNSt17_Function_handlerIFiPdS0_jEZ4mainE5$_363E9_M_invokeERKSt9_Any_dataOS0_S7_Oj)
	st.d	$a0, $sp, 960
	pcalau12i	$a0, %pc_hi20(_ZNSt17_Function_handlerIFiPdS0_jEZ4mainE5$_363E10_M_managerERSt9_Any_dataRKS4_St18_Manager_operation)
	addi.d	$a0, $a0, %pc_lo12(_ZNSt17_Function_handlerIFiPdS0_jEZ4mainE5$_363E10_M_managerERSt9_Any_dataRKS4_St18_Manager_operation)
	st.d	$a0, $sp, 952
.Ltmp2715:                              # EH_LABEL
	pcalau12i	$a0, %pc_hi20(.L.str.181)
	addi.d	$a2, $a0, %pc_lo12(.L.str.181)
	addi.d	$a0, $sp, 968
	addi.d	$a1, $sp, 936
	pcaddu18i	$ra, %call36(_ZL19checkVectorFunctionIidEvSt8functionIFT_PT0_S3_jEES5_PKc)
	jirl	$ra, $ra, 0
.Ltmp2716:                              # EH_LABEL
# %bb.908:
	ld.d	$a3, $sp, 952
	beqz	$a3, .LBB0_910
# %bb.909:
.Ltmp2724:                              # EH_LABEL
	addi.d	$a0, $sp, 936
	addi.d	$a1, $sp, 936
	ori	$a2, $zero, 3
	jirl	$ra, $a3, 0
.Ltmp2725:                              # EH_LABEL
.LBB0_910:                              # %_ZNSt14_Function_baseD2Ev.exit726
	ld.d	$a3, $sp, 984
	beqz	$a3, .LBB0_912
# %bb.911:
.Ltmp2727:                              # EH_LABEL
	addi.d	$a0, $sp, 968
	addi.d	$a1, $sp, 968
	ori	$a2, $zero, 3
	jirl	$ra, $a3, 0
.Ltmp2728:                              # EH_LABEL
.LBB0_912:                              # %_ZNSt14_Function_baseD2Ev.exit728
	vld	$vr0, $sp, 16                   # 16-byte Folded Reload
	vst	$vr0, $sp, 904
	pcalau12i	$a0, %pc_hi20(_ZNSt17_Function_handlerIFiPdS0_jEZ4mainE5$_364E9_M_invokeERKSt9_Any_dataOS0_S7_Oj)
	addi.d	$a0, $a0, %pc_lo12(_ZNSt17_Function_handlerIFiPdS0_jEZ4mainE5$_364E9_M_invokeERKSt9_Any_dataOS0_S7_Oj)
	st.d	$a0, $sp, 928
	pcalau12i	$a0, %pc_hi20(_ZNSt17_Function_handlerIFiPdS0_jEZ4mainE5$_364E10_M_managerERSt9_Any_dataRKS4_St18_Manager_operation)
	addi.d	$a0, $a0, %pc_lo12(_ZNSt17_Function_handlerIFiPdS0_jEZ4mainE5$_364E10_M_managerERSt9_Any_dataRKS4_St18_Manager_operation)
	st.d	$a0, $sp, 920
	vst	$vr0, $sp, 872
	pcalau12i	$a0, %pc_hi20(_ZNSt17_Function_handlerIFiPdS0_jEZ4mainE5$_365E9_M_invokeERKSt9_Any_dataOS0_S7_Oj)
	addi.d	$a0, $a0, %pc_lo12(_ZNSt17_Function_handlerIFiPdS0_jEZ4mainE5$_365E9_M_invokeERKSt9_Any_dataOS0_S7_Oj)
	st.d	$a0, $sp, 896
	pcalau12i	$a0, %pc_hi20(_ZNSt17_Function_handlerIFiPdS0_jEZ4mainE5$_365E10_M_managerERSt9_Any_dataRKS4_St18_Manager_operation)
	addi.d	$a0, $a0, %pc_lo12(_ZNSt17_Function_handlerIFiPdS0_jEZ4mainE5$_365E10_M_managerERSt9_Any_dataRKS4_St18_Manager_operation)
	st.d	$a0, $sp, 888
.Ltmp2730:                              # EH_LABEL
	pcalau12i	$a0, %pc_hi20(.L.str.182)
	addi.d	$a2, $a0, %pc_lo12(.L.str.182)
	addi.d	$a0, $sp, 904
	addi.d	$a1, $sp, 872
	pcaddu18i	$ra, %call36(_ZL19checkVectorFunctionIidEvSt8functionIFT_PT0_S3_jEES5_PKc)
	jirl	$ra, $ra, 0
.Ltmp2731:                              # EH_LABEL
# %bb.913:
	ld.d	$a3, $sp, 888
	beqz	$a3, .LBB0_915
# %bb.914:
.Ltmp2739:                              # EH_LABEL
	addi.d	$a0, $sp, 872
	addi.d	$a1, $sp, 872
	ori	$a2, $zero, 3
	jirl	$ra, $a3, 0
.Ltmp2740:                              # EH_LABEL
.LBB0_915:                              # %_ZNSt14_Function_baseD2Ev.exit730
	ld.d	$a3, $sp, 920
	beqz	$a3, .LBB0_917
# %bb.916:
.Ltmp2742:                              # EH_LABEL
	addi.d	$a0, $sp, 904
	addi.d	$a1, $sp, 904
	ori	$a2, $zero, 3
	jirl	$ra, $a3, 0
.Ltmp2743:                              # EH_LABEL
.LBB0_917:                              # %_ZNSt14_Function_baseD2Ev.exit732
	vld	$vr0, $sp, 16                   # 16-byte Folded Reload
	vst	$vr0, $sp, 840
	pcalau12i	$a0, %pc_hi20(_ZNSt17_Function_handlerIFiPdS0_jEZ4mainE5$_366E9_M_invokeERKSt9_Any_dataOS0_S7_Oj)
	addi.d	$a0, $a0, %pc_lo12(_ZNSt17_Function_handlerIFiPdS0_jEZ4mainE5$_366E9_M_invokeERKSt9_Any_dataOS0_S7_Oj)
	st.d	$a0, $sp, 864
	pcalau12i	$a0, %pc_hi20(_ZNSt17_Function_handlerIFiPdS0_jEZ4mainE5$_366E10_M_managerERSt9_Any_dataRKS4_St18_Manager_operation)
	addi.d	$a0, $a0, %pc_lo12(_ZNSt17_Function_handlerIFiPdS0_jEZ4mainE5$_366E10_M_managerERSt9_Any_dataRKS4_St18_Manager_operation)
	st.d	$a0, $sp, 856
	vst	$vr0, $sp, 808
	pcalau12i	$a0, %pc_hi20(_ZNSt17_Function_handlerIFiPdS0_jEZ4mainE5$_367E9_M_invokeERKSt9_Any_dataOS0_S7_Oj)
	addi.d	$a0, $a0, %pc_lo12(_ZNSt17_Function_handlerIFiPdS0_jEZ4mainE5$_367E9_M_invokeERKSt9_Any_dataOS0_S7_Oj)
	st.d	$a0, $sp, 832
	pcalau12i	$a0, %pc_hi20(_ZNSt17_Function_handlerIFiPdS0_jEZ4mainE5$_367E10_M_managerERSt9_Any_dataRKS4_St18_Manager_operation)
	addi.d	$a0, $a0, %pc_lo12(_ZNSt17_Function_handlerIFiPdS0_jEZ4mainE5$_367E10_M_managerERSt9_Any_dataRKS4_St18_Manager_operation)
	st.d	$a0, $sp, 824
.Ltmp2745:                              # EH_LABEL
	pcalau12i	$a0, %pc_hi20(.L.str.183)
	addi.d	$a2, $a0, %pc_lo12(.L.str.183)
	addi.d	$a0, $sp, 840
	addi.d	$a1, $sp, 808
	pcaddu18i	$ra, %call36(_ZL19checkVectorFunctionIidEvSt8functionIFT_PT0_S3_jEES5_PKc)
	jirl	$ra, $ra, 0
.Ltmp2746:                              # EH_LABEL
# %bb.918:
	ld.d	$a3, $sp, 824
	beqz	$a3, .LBB0_920
# %bb.919:
.Ltmp2754:                              # EH_LABEL
	addi.d	$a0, $sp, 808
	addi.d	$a1, $sp, 808
	ori	$a2, $zero, 3
	jirl	$ra, $a3, 0
.Ltmp2755:                              # EH_LABEL
.LBB0_920:                              # %_ZNSt14_Function_baseD2Ev.exit734
	ld.d	$a3, $sp, 856
	beqz	$a3, .LBB0_922
# %bb.921:
.Ltmp2757:                              # EH_LABEL
	addi.d	$a0, $sp, 840
	addi.d	$a1, $sp, 840
	ori	$a2, $zero, 3
	jirl	$ra, $a3, 0
.Ltmp2758:                              # EH_LABEL
.LBB0_922:                              # %_ZNSt14_Function_baseD2Ev.exit736
	vld	$vr0, $sp, 16                   # 16-byte Folded Reload
	vst	$vr0, $sp, 776
	pcalau12i	$a0, %pc_hi20(_ZNSt17_Function_handlerIFiPdS0_jEZ4mainE5$_368E9_M_invokeERKSt9_Any_dataOS0_S7_Oj)
	addi.d	$a0, $a0, %pc_lo12(_ZNSt17_Function_handlerIFiPdS0_jEZ4mainE5$_368E9_M_invokeERKSt9_Any_dataOS0_S7_Oj)
	st.d	$a0, $sp, 800
	pcalau12i	$a0, %pc_hi20(_ZNSt17_Function_handlerIFiPdS0_jEZ4mainE5$_368E10_M_managerERSt9_Any_dataRKS4_St18_Manager_operation)
	addi.d	$a0, $a0, %pc_lo12(_ZNSt17_Function_handlerIFiPdS0_jEZ4mainE5$_368E10_M_managerERSt9_Any_dataRKS4_St18_Manager_operation)
	st.d	$a0, $sp, 792
	vst	$vr0, $sp, 744
	pcalau12i	$a0, %pc_hi20(_ZNSt17_Function_handlerIFiPdS0_jEZ4mainE5$_369E9_M_invokeERKSt9_Any_dataOS0_S7_Oj)
	addi.d	$a0, $a0, %pc_lo12(_ZNSt17_Function_handlerIFiPdS0_jEZ4mainE5$_369E9_M_invokeERKSt9_Any_dataOS0_S7_Oj)
	st.d	$a0, $sp, 768
	pcalau12i	$a0, %pc_hi20(_ZNSt17_Function_handlerIFiPdS0_jEZ4mainE5$_369E10_M_managerERSt9_Any_dataRKS4_St18_Manager_operation)
	addi.d	$a0, $a0, %pc_lo12(_ZNSt17_Function_handlerIFiPdS0_jEZ4mainE5$_369E10_M_managerERSt9_Any_dataRKS4_St18_Manager_operation)
	st.d	$a0, $sp, 760
.Ltmp2760:                              # EH_LABEL
	pcalau12i	$a0, %pc_hi20(.L.str.184)
	addi.d	$a2, $a0, %pc_lo12(.L.str.184)
	addi.d	$a0, $sp, 776
	addi.d	$a1, $sp, 744
	pcaddu18i	$ra, %call36(_ZL19checkVectorFunctionIidEvSt8functionIFT_PT0_S3_jEES5_PKc)
	jirl	$ra, $ra, 0
.Ltmp2761:                              # EH_LABEL
# %bb.923:
	ld.d	$a3, $sp, 760
	beqz	$a3, .LBB0_925
# %bb.924:
.Ltmp2769:                              # EH_LABEL
	addi.d	$a0, $sp, 744
	addi.d	$a1, $sp, 744
	ori	$a2, $zero, 3
	jirl	$ra, $a3, 0
.Ltmp2770:                              # EH_LABEL
.LBB0_925:                              # %_ZNSt14_Function_baseD2Ev.exit738
	ld.d	$a3, $sp, 792
	beqz	$a3, .LBB0_927
# %bb.926:
.Ltmp2772:                              # EH_LABEL
	addi.d	$a0, $sp, 776
	addi.d	$a1, $sp, 776
	ori	$a2, $zero, 3
	jirl	$ra, $a3, 0
.Ltmp2773:                              # EH_LABEL
.LBB0_927:                              # %_ZNSt14_Function_baseD2Ev.exit740
	vld	$vr0, $sp, 16                   # 16-byte Folded Reload
	vst	$vr0, $sp, 712
	pcalau12i	$a0, %pc_hi20(_ZNSt17_Function_handlerIFiPdS0_jEZ4mainE5$_370E9_M_invokeERKSt9_Any_dataOS0_S7_Oj)
	addi.d	$a0, $a0, %pc_lo12(_ZNSt17_Function_handlerIFiPdS0_jEZ4mainE5$_370E9_M_invokeERKSt9_Any_dataOS0_S7_Oj)
	st.d	$a0, $sp, 736
	pcalau12i	$a0, %pc_hi20(_ZNSt17_Function_handlerIFiPdS0_jEZ4mainE5$_370E10_M_managerERSt9_Any_dataRKS4_St18_Manager_operation)
	addi.d	$a0, $a0, %pc_lo12(_ZNSt17_Function_handlerIFiPdS0_jEZ4mainE5$_370E10_M_managerERSt9_Any_dataRKS4_St18_Manager_operation)
	st.d	$a0, $sp, 728
	vst	$vr0, $sp, 680
	pcalau12i	$a0, %pc_hi20(_ZNSt17_Function_handlerIFiPdS0_jEZ4mainE5$_371E9_M_invokeERKSt9_Any_dataOS0_S7_Oj)
	addi.d	$a0, $a0, %pc_lo12(_ZNSt17_Function_handlerIFiPdS0_jEZ4mainE5$_371E9_M_invokeERKSt9_Any_dataOS0_S7_Oj)
	st.d	$a0, $sp, 704
	pcalau12i	$a0, %pc_hi20(_ZNSt17_Function_handlerIFiPdS0_jEZ4mainE5$_371E10_M_managerERSt9_Any_dataRKS4_St18_Manager_operation)
	addi.d	$a0, $a0, %pc_lo12(_ZNSt17_Function_handlerIFiPdS0_jEZ4mainE5$_371E10_M_managerERSt9_Any_dataRKS4_St18_Manager_operation)
	st.d	$a0, $sp, 696
.Ltmp2775:                              # EH_LABEL
	pcalau12i	$a0, %pc_hi20(.L.str.185)
	addi.d	$a2, $a0, %pc_lo12(.L.str.185)
	addi.d	$a0, $sp, 712
	addi.d	$a1, $sp, 680
	pcaddu18i	$ra, %call36(_ZL19checkVectorFunctionIidEvSt8functionIFT_PT0_S3_jEES5_PKc)
	jirl	$ra, $ra, 0
.Ltmp2776:                              # EH_LABEL
# %bb.928:
	ld.d	$a3, $sp, 696
	beqz	$a3, .LBB0_930
# %bb.929:
.Ltmp2784:                              # EH_LABEL
	addi.d	$a0, $sp, 680
	addi.d	$a1, $sp, 680
	ori	$a2, $zero, 3
	jirl	$ra, $a3, 0
.Ltmp2785:                              # EH_LABEL
.LBB0_930:                              # %_ZNSt14_Function_baseD2Ev.exit742
	ld.d	$a3, $sp, 728
	beqz	$a3, .LBB0_932
# %bb.931:
.Ltmp2787:                              # EH_LABEL
	addi.d	$a0, $sp, 712
	addi.d	$a1, $sp, 712
	ori	$a2, $zero, 3
	jirl	$ra, $a3, 0
.Ltmp2788:                              # EH_LABEL
.LBB0_932:                              # %_ZNSt14_Function_baseD2Ev.exit744
	vld	$vr0, $sp, 16                   # 16-byte Folded Reload
	vst	$vr0, $sp, 648
	pcalau12i	$a0, %pc_hi20(_ZNSt17_Function_handlerIFiPdS0_jEZ4mainE5$_372E9_M_invokeERKSt9_Any_dataOS0_S7_Oj)
	addi.d	$a0, $a0, %pc_lo12(_ZNSt17_Function_handlerIFiPdS0_jEZ4mainE5$_372E9_M_invokeERKSt9_Any_dataOS0_S7_Oj)
	st.d	$a0, $sp, 672
	pcalau12i	$a0, %pc_hi20(_ZNSt17_Function_handlerIFiPdS0_jEZ4mainE5$_372E10_M_managerERSt9_Any_dataRKS4_St18_Manager_operation)
	addi.d	$a0, $a0, %pc_lo12(_ZNSt17_Function_handlerIFiPdS0_jEZ4mainE5$_372E10_M_managerERSt9_Any_dataRKS4_St18_Manager_operation)
	st.d	$a0, $sp, 664
	vst	$vr0, $sp, 616
	pcalau12i	$a0, %pc_hi20(_ZNSt17_Function_handlerIFiPdS0_jEZ4mainE5$_373E9_M_invokeERKSt9_Any_dataOS0_S7_Oj)
	addi.d	$a0, $a0, %pc_lo12(_ZNSt17_Function_handlerIFiPdS0_jEZ4mainE5$_373E9_M_invokeERKSt9_Any_dataOS0_S7_Oj)
	st.d	$a0, $sp, 640
	pcalau12i	$a0, %pc_hi20(_ZNSt17_Function_handlerIFiPdS0_jEZ4mainE5$_373E10_M_managerERSt9_Any_dataRKS4_St18_Manager_operation)
	addi.d	$a0, $a0, %pc_lo12(_ZNSt17_Function_handlerIFiPdS0_jEZ4mainE5$_373E10_M_managerERSt9_Any_dataRKS4_St18_Manager_operation)
	st.d	$a0, $sp, 632
.Ltmp2790:                              # EH_LABEL
	pcalau12i	$a0, %pc_hi20(.L.str.186)
	addi.d	$a2, $a0, %pc_lo12(.L.str.186)
	addi.d	$a0, $sp, 648
	addi.d	$a1, $sp, 616
	pcaddu18i	$ra, %call36(_ZL19checkVectorFunctionIidEvSt8functionIFT_PT0_S3_jEES5_PKc)
	jirl	$ra, $ra, 0
.Ltmp2791:                              # EH_LABEL
# %bb.933:
	ld.d	$a3, $sp, 632
	beqz	$a3, .LBB0_935
# %bb.934:
.Ltmp2799:                              # EH_LABEL
	addi.d	$a0, $sp, 616
	addi.d	$a1, $sp, 616
	ori	$a2, $zero, 3
	jirl	$ra, $a3, 0
.Ltmp2800:                              # EH_LABEL
.LBB0_935:                              # %_ZNSt14_Function_baseD2Ev.exit746
	ld.d	$a3, $sp, 664
	beqz	$a3, .LBB0_937
# %bb.936:
.Ltmp2802:                              # EH_LABEL
	addi.d	$a0, $sp, 648
	addi.d	$a1, $sp, 648
	ori	$a2, $zero, 3
	jirl	$ra, $a3, 0
.Ltmp2803:                              # EH_LABEL
.LBB0_937:                              # %_ZNSt14_Function_baseD2Ev.exit748
	vld	$vr0, $sp, 16                   # 16-byte Folded Reload
	vst	$vr0, $sp, 584
	pcalau12i	$a0, %pc_hi20(_ZNSt17_Function_handlerIFiPdS0_jEZ4mainE5$_374E9_M_invokeERKSt9_Any_dataOS0_S7_Oj)
	addi.d	$a0, $a0, %pc_lo12(_ZNSt17_Function_handlerIFiPdS0_jEZ4mainE5$_374E9_M_invokeERKSt9_Any_dataOS0_S7_Oj)
	st.d	$a0, $sp, 608
	pcalau12i	$a0, %pc_hi20(_ZNSt17_Function_handlerIFiPdS0_jEZ4mainE5$_374E10_M_managerERSt9_Any_dataRKS4_St18_Manager_operation)
	addi.d	$a0, $a0, %pc_lo12(_ZNSt17_Function_handlerIFiPdS0_jEZ4mainE5$_374E10_M_managerERSt9_Any_dataRKS4_St18_Manager_operation)
	st.d	$a0, $sp, 600
	vst	$vr0, $sp, 552
	pcalau12i	$a0, %pc_hi20(_ZNSt17_Function_handlerIFiPdS0_jEZ4mainE5$_375E9_M_invokeERKSt9_Any_dataOS0_S7_Oj)
	addi.d	$a0, $a0, %pc_lo12(_ZNSt17_Function_handlerIFiPdS0_jEZ4mainE5$_375E9_M_invokeERKSt9_Any_dataOS0_S7_Oj)
	st.d	$a0, $sp, 576
	pcalau12i	$a0, %pc_hi20(_ZNSt17_Function_handlerIFiPdS0_jEZ4mainE5$_375E10_M_managerERSt9_Any_dataRKS4_St18_Manager_operation)
	addi.d	$a0, $a0, %pc_lo12(_ZNSt17_Function_handlerIFiPdS0_jEZ4mainE5$_375E10_M_managerERSt9_Any_dataRKS4_St18_Manager_operation)
	st.d	$a0, $sp, 568
.Ltmp2805:                              # EH_LABEL
	pcalau12i	$a0, %pc_hi20(.L.str.187)
	addi.d	$a2, $a0, %pc_lo12(.L.str.187)
	addi.d	$a0, $sp, 584
	addi.d	$a1, $sp, 552
	pcaddu18i	$ra, %call36(_ZL19checkVectorFunctionIidEvSt8functionIFT_PT0_S3_jEES5_PKc)
	jirl	$ra, $ra, 0
.Ltmp2806:                              # EH_LABEL
# %bb.938:
	ld.d	$a3, $sp, 568
	beqz	$a3, .LBB0_940
# %bb.939:
.Ltmp2814:                              # EH_LABEL
	addi.d	$a0, $sp, 552
	addi.d	$a1, $sp, 552
	ori	$a2, $zero, 3
	jirl	$ra, $a3, 0
.Ltmp2815:                              # EH_LABEL
.LBB0_940:                              # %_ZNSt14_Function_baseD2Ev.exit750
	ld.d	$a3, $sp, 600
	beqz	$a3, .LBB0_942
# %bb.941:
.Ltmp2817:                              # EH_LABEL
	addi.d	$a0, $sp, 584
	addi.d	$a1, $sp, 584
	ori	$a2, $zero, 3
	jirl	$ra, $a3, 0
.Ltmp2818:                              # EH_LABEL
.LBB0_942:                              # %_ZNSt14_Function_baseD2Ev.exit752
	vld	$vr0, $sp, 16                   # 16-byte Folded Reload
	vst	$vr0, $sp, 520
	pcalau12i	$a0, %pc_hi20(_ZNSt17_Function_handlerIFiPdS0_jEZ4mainE5$_376E9_M_invokeERKSt9_Any_dataOS0_S7_Oj)
	addi.d	$a0, $a0, %pc_lo12(_ZNSt17_Function_handlerIFiPdS0_jEZ4mainE5$_376E9_M_invokeERKSt9_Any_dataOS0_S7_Oj)
	st.d	$a0, $sp, 544
	pcalau12i	$a0, %pc_hi20(_ZNSt17_Function_handlerIFiPdS0_jEZ4mainE5$_376E10_M_managerERSt9_Any_dataRKS4_St18_Manager_operation)
	addi.d	$a0, $a0, %pc_lo12(_ZNSt17_Function_handlerIFiPdS0_jEZ4mainE5$_376E10_M_managerERSt9_Any_dataRKS4_St18_Manager_operation)
	st.d	$a0, $sp, 536
	vst	$vr0, $sp, 488
	pcalau12i	$a0, %pc_hi20(_ZNSt17_Function_handlerIFiPdS0_jEZ4mainE5$_377E9_M_invokeERKSt9_Any_dataOS0_S7_Oj)
	addi.d	$a0, $a0, %pc_lo12(_ZNSt17_Function_handlerIFiPdS0_jEZ4mainE5$_377E9_M_invokeERKSt9_Any_dataOS0_S7_Oj)
	st.d	$a0, $sp, 512
	pcalau12i	$a0, %pc_hi20(_ZNSt17_Function_handlerIFiPdS0_jEZ4mainE5$_377E10_M_managerERSt9_Any_dataRKS4_St18_Manager_operation)
	addi.d	$a0, $a0, %pc_lo12(_ZNSt17_Function_handlerIFiPdS0_jEZ4mainE5$_377E10_M_managerERSt9_Any_dataRKS4_St18_Manager_operation)
	st.d	$a0, $sp, 504
.Ltmp2820:                              # EH_LABEL
	pcalau12i	$a0, %pc_hi20(.L.str.188)
	addi.d	$a2, $a0, %pc_lo12(.L.str.188)
	addi.d	$a0, $sp, 520
	addi.d	$a1, $sp, 488
	pcaddu18i	$ra, %call36(_ZL19checkVectorFunctionIidEvSt8functionIFT_PT0_S3_jEES5_PKc)
	jirl	$ra, $ra, 0
.Ltmp2821:                              # EH_LABEL
# %bb.943:
	ld.d	$a3, $sp, 504
	beqz	$a3, .LBB0_945
# %bb.944:
.Ltmp2829:                              # EH_LABEL
	addi.d	$a0, $sp, 488
	addi.d	$a1, $sp, 488
	ori	$a2, $zero, 3
	jirl	$ra, $a3, 0
.Ltmp2830:                              # EH_LABEL
.LBB0_945:                              # %_ZNSt14_Function_baseD2Ev.exit754
	ld.d	$a3, $sp, 536
	beqz	$a3, .LBB0_947
# %bb.946:
.Ltmp2832:                              # EH_LABEL
	addi.d	$a0, $sp, 520
	addi.d	$a1, $sp, 520
	ori	$a2, $zero, 3
	jirl	$ra, $a3, 0
.Ltmp2833:                              # EH_LABEL
.LBB0_947:                              # %_ZNSt14_Function_baseD2Ev.exit756
	vld	$vr0, $sp, 16                   # 16-byte Folded Reload
	vst	$vr0, $sp, 456
	pcalau12i	$a0, %pc_hi20(_ZNSt17_Function_handlerIFiPdS0_jEZ4mainE5$_378E9_M_invokeERKSt9_Any_dataOS0_S7_Oj)
	addi.d	$a0, $a0, %pc_lo12(_ZNSt17_Function_handlerIFiPdS0_jEZ4mainE5$_378E9_M_invokeERKSt9_Any_dataOS0_S7_Oj)
	st.d	$a0, $sp, 480
	pcalau12i	$a0, %pc_hi20(_ZNSt17_Function_handlerIFiPdS0_jEZ4mainE5$_378E10_M_managerERSt9_Any_dataRKS4_St18_Manager_operation)
	addi.d	$a0, $a0, %pc_lo12(_ZNSt17_Function_handlerIFiPdS0_jEZ4mainE5$_378E10_M_managerERSt9_Any_dataRKS4_St18_Manager_operation)
	st.d	$a0, $sp, 472
	vst	$vr0, $sp, 424
	pcalau12i	$a0, %pc_hi20(_ZNSt17_Function_handlerIFiPdS0_jEZ4mainE5$_379E9_M_invokeERKSt9_Any_dataOS0_S7_Oj)
	addi.d	$a0, $a0, %pc_lo12(_ZNSt17_Function_handlerIFiPdS0_jEZ4mainE5$_379E9_M_invokeERKSt9_Any_dataOS0_S7_Oj)
	st.d	$a0, $sp, 448
	pcalau12i	$a0, %pc_hi20(_ZNSt17_Function_handlerIFiPdS0_jEZ4mainE5$_379E10_M_managerERSt9_Any_dataRKS4_St18_Manager_operation)
	addi.d	$a0, $a0, %pc_lo12(_ZNSt17_Function_handlerIFiPdS0_jEZ4mainE5$_379E10_M_managerERSt9_Any_dataRKS4_St18_Manager_operation)
	st.d	$a0, $sp, 440
.Ltmp2835:                              # EH_LABEL
	pcalau12i	$a0, %pc_hi20(.L.str.189)
	addi.d	$a2, $a0, %pc_lo12(.L.str.189)
	addi.d	$a0, $sp, 456
	addi.d	$a1, $sp, 424
	pcaddu18i	$ra, %call36(_ZL19checkVectorFunctionIidEvSt8functionIFT_PT0_S3_jEES5_PKc)
	jirl	$ra, $ra, 0
.Ltmp2836:                              # EH_LABEL
# %bb.948:
	ld.d	$a3, $sp, 440
	beqz	$a3, .LBB0_950
# %bb.949:
.Ltmp2844:                              # EH_LABEL
	addi.d	$a0, $sp, 424
	addi.d	$a1, $sp, 424
	ori	$a2, $zero, 3
	jirl	$ra, $a3, 0
.Ltmp2845:                              # EH_LABEL
.LBB0_950:                              # %_ZNSt14_Function_baseD2Ev.exit758
	ld.d	$a3, $sp, 472
	beqz	$a3, .LBB0_952
# %bb.951:
.Ltmp2847:                              # EH_LABEL
	addi.d	$a0, $sp, 456
	addi.d	$a1, $sp, 456
	ori	$a2, $zero, 3
	jirl	$ra, $a3, 0
.Ltmp2848:                              # EH_LABEL
.LBB0_952:                              # %_ZNSt14_Function_baseD2Ev.exit760
