	.file	"GenMesh.cc"
                                        # Start of file scope inline assembly
	.globl	_ZSt21ios_base_library_initv

                                        # End of file scope inline assembly
	.section	.rodata.cst16,"aM",@progbits,16
	.p2align	4, 0x0                          # -- Begin function _ZN7GenMeshC2EPK9InputFile
.LCPI0_0:
	.dword	8                               # 0x8
	.dword	7309475736097875309             # 0x657079746873656d
	.section	.rodata.cst8,"aM",@progbits,8
	.p2align	3, 0x0
.LCPI0_1:
	.dword	0x4071abe4b73fefb5              # double 282.74333882308139
.LCPI0_2:
	.dword	0x400921fb54442d18              # double 3.1415926535897931
.LCPI0_3:
	.dword	0x4066800000000000              # double 180
.LCPI0_4:
	.dword	0x401921fb54442d18              # double 6.2831853071795862
	.text
	.globl	_ZN7GenMeshC2EPK9InputFile
	.p2align	5
	.type	_ZN7GenMeshC2EPK9InputFile,@function
_ZN7GenMeshC2EPK9InputFile:             # @_ZN7GenMeshC2EPK9InputFile
.Lfunc_begin0:
	.cfi_startproc
	.cfi_personality 155, DW.ref.__gxx_personality_v0
	.cfi_lsda 27, .Lexception0
# %bb.0:                                # %._crit_edge.i.i
	addi.d	$sp, $sp, -160
	.cfi_def_cfa_offset 160
	st.d	$ra, $sp, 152                   # 8-byte Folded Spill
	st.d	$fp, $sp, 144                   # 8-byte Folded Spill
	st.d	$s0, $sp, 136                   # 8-byte Folded Spill
	st.d	$s1, $sp, 128                   # 8-byte Folded Spill
	st.d	$s2, $sp, 120                   # 8-byte Folded Spill
	st.d	$s3, $sp, 112                   # 8-byte Folded Spill
	st.d	$s4, $sp, 104                   # 8-byte Folded Spill
	.cfi_offset 1, -8
	.cfi_offset 22, -16
	.cfi_offset 23, -24
	.cfi_offset 24, -32
	.cfi_offset 25, -40
	.cfi_offset 26, -48
	.cfi_offset 27, -56
	move	$s0, $a1
	move	$fp, $a0
	addi.d	$s1, $a0, 16
	st.d	$s1, $a0, 0
	st.d	$zero, $a0, 8
	pcalau12i	$a0, %pc_hi20(.LCPI0_0)
	vld	$vr0, $a0, %pc_lo12(.LCPI0_0)
	st.b	$zero, $fp, 16
	addi.d	$s2, $sp, 56
	st.d	$s2, $sp, 40
	vst	$vr0, $sp, 48
	st.b	$zero, $sp, 64
	addi.d	$s3, $sp, 24
	st.d	$s3, $sp, 8
	st.d	$zero, $sp, 16
	st.b	$zero, $sp, 24
.Ltmp0:                                 # EH_LABEL
	addi.d	$a0, $sp, 72
	addi.d	$a2, $sp, 40
	addi.d	$a3, $sp, 8
	pcaddu18i	$ra, %call36(_ZNK9InputFile9getStringERKNSt7__cxx1112basic_stringIcSt11char_traitsIcESaIcEEES7_)
	jirl	$ra, $ra, 0
.Ltmp1:                                 # EH_LABEL
# %bb.1:
	ld.d	$a0, $fp, 0
	ld.d	$a1, $sp, 72
	addi.d	$s4, $sp, 88
	beq	$a0, $s1, .LBB0_5
# %bb.2:                                # %_ZNKSt7__cxx1112basic_stringIcSt11char_traitsIcESaIcEE11_M_is_localEv.exit.thread.i
	beq	$a1, $s4, .LBB0_43
# %bb.3:                                # %_ZNKSt7__cxx1112basic_stringIcSt11char_traitsIcESaIcEE11_M_is_localEv.exit23.thread25.i
	vld	$vr0, $sp, 80
	ld.d	$a2, $fp, 16
	st.d	$a1, $fp, 0
	vst	$vr0, $fp, 8
	beqz	$a0, .LBB0_7
# %bb.4:
	st.d	$a0, $sp, 72
	st.d	$a2, $sp, 88
	st.d	$zero, $sp, 80
	st.b	$zero, $a0, 0
	ld.d	$a0, $sp, 72
	bne	$a0, $s4, .LBB0_8
	b	.LBB0_9
.LBB0_5:                                # %_ZNKSt7__cxx1112basic_stringIcSt11char_traitsIcESaIcEE11_M_is_localEv.exit.i
	beq	$a1, $s4, .LBB0_43
# %bb.6:                                # %.thread.i
	vld	$vr0, $sp, 80
	st.d	$a1, $fp, 0
	vst	$vr0, $fp, 8
.LBB0_7:
	st.d	$s4, $sp, 72
	move	$a0, $s4
	st.d	$zero, $sp, 80
	st.b	$zero, $a0, 0
	ld.d	$a0, $sp, 72
	beq	$a0, $s4, .LBB0_9
.LBB0_8:                                # %_ZNKSt7__cxx1112basic_stringIcSt11char_traitsIcESaIcEE11_M_is_localEv.exit.i.i
	ld.d	$a1, $sp, 88
	addi.d	$a1, $a1, 1
	pcaddu18i	$ra, %call36(_ZdlPvm)
	jirl	$ra, $ra, 0
.LBB0_9:                                # %_ZNSt7__cxx1112basic_stringIcSt11char_traitsIcESaIcEED2Ev.exit
	ld.d	$a0, $sp, 8
	beq	$a0, $s3, .LBB0_11
# %bb.10:                               # %_ZNKSt7__cxx1112basic_stringIcSt11char_traitsIcESaIcEE11_M_is_localEv.exit.i.i25
	ld.d	$a1, $sp, 24
	addi.d	$a1, $a1, 1
	pcaddu18i	$ra, %call36(_ZdlPvm)
	jirl	$ra, $ra, 0
.LBB0_11:                               # %_ZNSt7__cxx1112basic_stringIcSt11char_traitsIcESaIcEED2Ev.exit27
	ld.d	$a0, $sp, 40
	beq	$a0, $s2, .LBB0_13
# %bb.12:                               # %_ZNKSt7__cxx1112basic_stringIcSt11char_traitsIcESaIcEE11_M_is_localEv.exit.i.i28
	ld.d	$a1, $sp, 56
	addi.d	$a1, $a1, 1
	pcaddu18i	$ra, %call36(_ZdlPvm)
	jirl	$ra, $ra, 0
.LBB0_13:                               # %_ZNSt7__cxx1112basic_stringIcSt11char_traitsIcESaIcEED2Ev.exit30
	ld.d	$a2, $fp, 8
	ori	$a0, $zero, 3
	beq	$a2, $a0, .LBB0_16
# %bb.14:                               # %_ZNSt7__cxx1112basic_stringIcSt11char_traitsIcESaIcEED2Ev.exit30
	ori	$a0, $zero, 4
	bne	$a2, $a0, .LBB0_57
# %bb.15:                               # %_ZStneIcSt11char_traitsIcESaIcEEbRKNSt7__cxx1112basic_stringIT_T0_T1_EEPKS5_.exit40
	ld.d	$a0, $fp, 0
	pcalau12i	$a1, %pc_hi20(.L.str.4)
	addi.d	$a1, $a1, %pc_lo12(.L.str.4)
	pcaddu18i	$ra, %call36(bcmp)
	jirl	$ra, $ra, 0
	beqz	$a0, .LBB0_18
	b	.LBB0_61
.LBB0_16:                               # %_ZStneIcSt11char_traitsIcESaIcEEbRKNSt7__cxx1112basic_stringIT_T0_T1_EEPKS5_.exit
	ld.d	$a0, $fp, 0
	ld.hu	$a1, $a0, 0
	ld.bu	$a3, $a0, 2
	lu12i.w	$a4, 6
	ori	$a4, $a4, 2416
	xor	$a1, $a1, $a4
	xori	$a3, $a3, 101
	or	$a1, $a1, $a3
	beqz	$a1, .LBB0_18
# %bb.17:                               # %_ZStneIcSt11char_traitsIcESaIcEEbRKNSt7__cxx1112basic_stringIT_T0_T1_EEPKS5_.exit42
	pcalau12i	$a1, %pc_hi20(.L.str.5)
	addi.d	$a1, $a1, %pc_lo12(.L.str.5)
	pcaddu18i	$ra, %call36(bcmp)
	jirl	$ra, $ra, 0
	bnez	$a0, .LBB0_61
.LBB0_18:                               # %._crit_edge.i.i48
	addi.d	$s2, $sp, 88
	st.d	$s2, $sp, 72
	pcalau12i	$a0, %pc_hi20(.L.str.7)
	addi.d	$a0, $a0, %pc_lo12(.L.str.7)
	ld.d	$a1, $a0, 0
	ld.h	$a0, $a0, 8
	st.d	$a1, $sp, 88
	st.h	$a0, $sp, 96
	ori	$a0, $zero, 10
	st.d	$a0, $sp, 80
	st.b	$zero, $sp, 98
	st.d	$zero, $sp, 24
	vrepli.b	$vr0, 0
	vst	$vr0, $sp, 8
.Ltmp3:                                 # EH_LABEL
	addi.d	$a0, $sp, 40
	addi.d	$a2, $sp, 72
	addi.d	$a3, $sp, 8
	move	$a1, $s0
	pcaddu18i	$ra, %call36(_ZNK9InputFile13getDoubleListERKNSt7__cxx1112basic_stringIcSt11char_traitsIcESaIcEEERKSt6vectorIdSaIdEE)
	jirl	$ra, $ra, 0
.Ltmp4:                                 # EH_LABEL
# %bb.19:
	ld.d	$a0, $sp, 8
	beqz	$a0, .LBB0_21
# %bb.20:
	ld.d	$a1, $sp, 24
	sub.d	$a1, $a1, $a0
	pcaddu18i	$ra, %call36(_ZdlPvm)
	jirl	$ra, $ra, 0
.LBB0_21:                               # %_ZNSt6vectorIdSaIdEED2Ev.exit
	ld.d	$a0, $sp, 72
	beq	$a0, $s2, .LBB0_23
# %bb.22:                               # %_ZNKSt7__cxx1112basic_stringIcSt11char_traitsIcESaIcEE11_M_is_localEv.exit.i.i52
	ld.d	$a1, $sp, 88
	addi.d	$a1, $a1, 1
	pcaddu18i	$ra, %call36(_ZdlPvm)
	jirl	$ra, $ra, 0
.LBB0_23:                               # %_ZNSt7__cxx1112basic_stringIcSt11char_traitsIcESaIcEED2Ev.exit54
	ld.d	$a0, $sp, 40
	ld.d	$a1, $sp, 48
	beq	$a0, $a1, .LBB0_65
# %bb.24:
	sub.d	$a3, $a1, $a0
	srai.d	$a5, $a3, 3
	ori	$a1, $zero, 5
	bgeu	$a5, $a1, .LBB0_68
# %bb.25:
	fld.d	$fa0, $a0, 0
	ftintrz.w.d	$fa0, $fa0
	movfr2gr.s	$a1, $fa0
	ori	$a2, $zero, 2
	st.w	$a1, $fp, 32
	bltu	$a5, $a2, .LBB0_27
# %bb.26:
	fld.d	$fa0, $a0, 8
	b	.LBB0_28
.LBB0_27:
	movgr2fr.w	$fa0, $a1
	ffint.d.w	$fa0, $fa0
.LBB0_28:
	ld.d	$a2, $fp, 8
	ftintrz.w.d	$fa0, $fa0
	movfr2gr.s	$a4, $fa0
	ori	$a6, $zero, 3
	st.w	$a4, $fp, 36
	bne	$a2, $a6, .LBB0_30
# %bb.29:                               # %_ZStneIcSt11char_traitsIcESaIcEEbRKNSt7__cxx1112basic_stringIT_T0_T1_EEPKS5_.exit71
	ld.d	$a7, $fp, 0
	ld.hu	$t0, $a7, 0
	ld.bu	$a7, $a7, 2
	lu12i.w	$t1, 6
	ori	$t1, $t1, 2416
	xor	$t0, $t0, $t1
	xori	$a7, $a7, 101
	or	$a7, $t0, $a7
	beqz	$a7, .LBB0_47
.LBB0_30:                               # %_ZStneIcSt11char_traitsIcESaIcEEbRKNSt7__cxx1112basic_stringIT_T0_T1_EEPKS5_.exit71.thread
	bltu	$a5, $a6, .LBB0_33
# %bb.31:
	fld.d	$fa0, $a0, 16
	ori	$a5, $zero, 32
	fst.d	$fa0, $fp, 40
	bne	$a3, $a5, .LBB0_34
.LBB0_32:
	fld.d	$fa1, $a0, 24
	b	.LBB0_35
.LBB0_33:
	vldi	$vr0, -912
	ori	$a5, $zero, 32
	fst.d	$fa0, $fp, 40
	beq	$a3, $a5, .LBB0_32
.LBB0_34:
	vldi	$vr1, -912
.LBB0_35:
	fst.d	$fa1, $fp, 48
	blez	$a1, .LBB0_54
# %bb.36:
	blez	$a4, .LBB0_54
# %bb.37:
	movgr2fr.d	$fa2, $zero
	fcmp.cle.d	$fcc0, $fa0, $fa2
	bcnez	$fcc0, .LBB0_54
# %bb.38:
	fcmp.cult.d	$fcc0, $fa2, $fa1
	bceqz	$fcc0, .LBB0_54
# %bb.39:
	ori	$a1, $zero, 3
	bne	$a2, $a1, .LBB0_42
# %bb.40:                               # %_ZSteqIcSt11char_traitsIcESaIcEEbRKNSt7__cxx1112basic_stringIT_T0_T1_EEPKS5_.exit
	pcalau12i	$a1, %pc_hi20(.LCPI0_4)
	fld.d	$fa1, $a1, %pc_lo12(.LCPI0_4)
	fcmp.cult.d	$fcc0, $fa0, $fa1
	bcnez	$fcc0, .LBB0_42
# %bb.41:                               # %_ZSteqIcSt11char_traitsIcESaIcEEbRKNSt7__cxx1112basic_stringIT_T0_T1_EEPKS5_.exit
	ld.d	$a1, $fp, 0
	ld.hu	$a2, $a1, 0
	ld.bu	$a1, $a1, 2
	lu12i.w	$a3, 6
	ori	$a3, $a3, 2416
	xor	$a2, $a2, $a3
	xori	$a1, $a1, 101
	or	$a1, $a2, $a1
	beqz	$a1, .LBB0_71
.LBB0_42:                               # %_ZNSt6vectorIdSaIdEED2Ev.exit81
	ld.d	$a1, $sp, 56
	sub.d	$a1, $a1, $a0
	pcaddu18i	$ra, %call36(_ZdlPvm)
	jirl	$ra, $ra, 0
	ld.d	$s4, $sp, 104                   # 8-byte Folded Reload
	ld.d	$s3, $sp, 112                   # 8-byte Folded Reload
	ld.d	$s2, $sp, 120                   # 8-byte Folded Reload
	ld.d	$s1, $sp, 128                   # 8-byte Folded Reload
	ld.d	$s0, $sp, 136                   # 8-byte Folded Reload
	ld.d	$fp, $sp, 144                   # 8-byte Folded Reload
	ld.d	$ra, $sp, 152                   # 8-byte Folded Reload
	addi.d	$sp, $sp, 160
	ret
.LBB0_43:
	addi.d	$a2, $sp, 72
	beq	$a2, $fp, .LBB0_53
# %bb.44:
	ld.d	$a2, $sp, 80
	beqz	$a2, .LBB0_50
# %bb.45:
	ori	$a3, $zero, 1
	bne	$a2, $a3, .LBB0_49
# %bb.46:
	ld.b	$a1, $a1, 0
	st.b	$a1, $a0, 0
	b	.LBB0_50
.LBB0_47:                               # %_ZStneIcSt11char_traitsIcESaIcEEbRKNSt7__cxx1112basic_stringIT_T0_T1_EEPKS5_.exit71.thread87
	ori	$a6, $zero, 3
	bltu	$a5, $a6, .LBB0_51
# %bb.48:
	fld.d	$fa0, $a0, 16
	pcalau12i	$a5, %pc_hi20(.LCPI0_2)
	fld.d	$fa1, $a5, %pc_lo12(.LCPI0_2)
	fmul.d	$fa0, $fa0, $fa1
	b	.LBB0_52
.LBB0_49:
	pcaddu18i	$ra, %call36(memcpy)
	jirl	$ra, $ra, 0
.LBB0_50:                               # %_ZNSt7__cxx1112basic_stringIcSt11char_traitsIcESaIcEE7_S_copyEPcPKcm.exit.i
	ld.d	$a0, $sp, 80
	ld.d	$a1, $fp, 0
	st.d	$a0, $fp, 8
	stx.b	$zero, $a1, $a0
	ld.d	$a0, $sp, 72
	st.d	$zero, $sp, 80
	st.b	$zero, $a0, 0
	ld.d	$a0, $sp, 72
	bne	$a0, $s4, .LBB0_8
	b	.LBB0_9
.LBB0_51:
	pcalau12i	$a5, %pc_hi20(.LCPI0_1)
	fld.d	$fa0, $a5, %pc_lo12(.LCPI0_1)
.LBB0_52:
	pcalau12i	$a5, %pc_hi20(.LCPI0_3)
	fld.d	$fa1, $a5, %pc_lo12(.LCPI0_3)
	fdiv.d	$fa0, $fa0, $fa1
	ori	$a5, $zero, 32
	fst.d	$fa0, $fp, 40
	beq	$a3, $a5, .LBB0_32
	b	.LBB0_34
.LBB0_53:
	move	$a0, $a1
	st.d	$zero, $sp, 80
	st.b	$zero, $a0, 0
	ld.d	$a0, $sp, 72
	bne	$a0, $s4, .LBB0_8
	b	.LBB0_9
.LBB0_54:
	pcalau12i	$a0, %got_pc_hi20(_ZN8Parallel4mypeE)
	ld.d	$a0, $a0, %got_pc_lo12(_ZN8Parallel4mypeE)
	ld.w	$a0, $a0, 0
	bnez	$a0, .LBB0_74
# %bb.55:
.Ltmp10:                                # EH_LABEL
	pcalau12i	$a0, %got_pc_hi20(_ZSt4cerr)
	ld.d	$a0, $a0, %got_pc_lo12(_ZSt4cerr)
	pcalau12i	$a1, %pc_hi20(.L.str.10)
	addi.d	$a1, $a1, %pc_lo12(.L.str.10)
	ori	$a2, $zero, 42
	pcaddu18i	$ra, %call36(_ZSt16__ostream_insertIcSt11char_traitsIcEERSt13basic_ostreamIT_T0_ES6_PKS3_l)
	jirl	$ra, $ra, 0
.Ltmp11:                                # EH_LABEL
# %bb.56:                               # %_ZStlsISt11char_traitsIcEERSt13basic_ostreamIcT_ES5_PKc.exit73
.Ltmp12:                                # EH_LABEL
	pcalau12i	$a0, %got_pc_hi20(_ZSt4cerr)
	ld.d	$a0, $a0, %got_pc_lo12(_ZSt4cerr)
	pcaddu18i	$ra, %call36(_ZSt4endlIcSt11char_traitsIcEERSt13basic_ostreamIT_T0_ES6_)
	jirl	$ra, $ra, 0
.Ltmp13:                                # EH_LABEL
	b	.LBB0_74
.LBB0_57:                               # %_ZNSt7__cxx1112basic_stringIcSt11char_traitsIcESaIcEED2Ev.exit30
	bnez	$a2, .LBB0_61
# %bb.58:
	pcalau12i	$a0, %got_pc_hi20(_ZN8Parallel4mypeE)
	ld.d	$a0, $a0, %got_pc_lo12(_ZN8Parallel4mypeE)
	ld.w	$a0, $a0, 0
	bnez	$a0, .LBB0_74
# %bb.59:
.Ltmp23:                                # EH_LABEL
	pcalau12i	$a0, %got_pc_hi20(_ZSt4cerr)
	ld.d	$a0, $a0, %got_pc_lo12(_ZSt4cerr)
	pcalau12i	$a1, %pc_hi20(.L.str.2)
	addi.d	$a1, $a1, %pc_lo12(.L.str.2)
	ori	$a2, $zero, 29
	pcaddu18i	$ra, %call36(_ZSt16__ostream_insertIcSt11char_traitsIcEERSt13basic_ostreamIT_T0_ES6_PKS3_l)
	jirl	$ra, $ra, 0
.Ltmp24:                                # EH_LABEL
# %bb.60:                               # %_ZStlsISt11char_traitsIcEERSt13basic_ostreamIcT_ES5_PKc.exit
.Ltmp25:                                # EH_LABEL
	pcalau12i	$a0, %got_pc_hi20(_ZSt4cerr)
	ld.d	$a0, $a0, %got_pc_lo12(_ZSt4cerr)
	pcaddu18i	$ra, %call36(_ZSt4endlIcSt11char_traitsIcEERSt13basic_ostreamIT_T0_ES6_)
	jirl	$ra, $ra, 0
.Ltmp26:                                # EH_LABEL
	b	.LBB0_74
.LBB0_61:                               # %_ZStneIcSt11char_traitsIcESaIcEEbRKNSt7__cxx1112basic_stringIT_T0_T1_EEPKS5_.exit42.thread
	pcalau12i	$a0, %got_pc_hi20(_ZN8Parallel4mypeE)
	ld.d	$a0, $a0, %got_pc_lo12(_ZN8Parallel4mypeE)
	ld.w	$a0, $a0, 0
	bnez	$a0, .LBB0_74
# %bb.62:
.Ltmp27:                                # EH_LABEL
	pcalau12i	$a0, %got_pc_hi20(_ZSt4cerr)
	ld.d	$a0, $a0, %got_pc_lo12(_ZSt4cerr)
	pcalau12i	$a1, %pc_hi20(.L.str.6)
	addi.d	$a1, $a1, %pc_lo12(.L.str.6)
	ori	$a2, $zero, 25
	pcaddu18i	$ra, %call36(_ZSt16__ostream_insertIcSt11char_traitsIcEERSt13basic_ostreamIT_T0_ES6_PKS3_l)
	jirl	$ra, $ra, 0
.Ltmp28:                                # EH_LABEL
# %bb.63:                               # %_ZStlsISt11char_traitsIcEERSt13basic_ostreamIcT_ES5_PKc.exit44
	ld.d	$a1, $fp, 0
	ld.d	$a2, $fp, 8
.Ltmp29:                                # EH_LABEL
	pcalau12i	$a0, %got_pc_hi20(_ZSt4cerr)
	ld.d	$a0, $a0, %got_pc_lo12(_ZSt4cerr)
	pcaddu18i	$ra, %call36(_ZSt16__ostream_insertIcSt11char_traitsIcEERSt13basic_ostreamIT_T0_ES6_PKS3_l)
	jirl	$ra, $ra, 0
.Ltmp30:                                # EH_LABEL
# %bb.64:                               # %_ZStlsIcSt11char_traitsIcESaIcEERSt13basic_ostreamIT_T0_ES7_RKNSt7__cxx1112basic_stringIS4_S5_T1_EE.exit
.Ltmp31:                                # EH_LABEL
	pcaddu18i	$ra, %call36(_ZSt4endlIcSt11char_traitsIcEERSt13basic_ostreamIT_T0_ES6_)
	jirl	$ra, $ra, 0
.Ltmp32:                                # EH_LABEL
	b	.LBB0_74
.LBB0_65:
	pcalau12i	$a0, %got_pc_hi20(_ZN8Parallel4mypeE)
	ld.d	$a0, $a0, %got_pc_lo12(_ZN8Parallel4mypeE)
	ld.w	$a0, $a0, 0
	bnez	$a0, .LBB0_74
# %bb.66:
.Ltmp18:                                # EH_LABEL
	pcalau12i	$a0, %got_pc_hi20(_ZSt4cerr)
	ld.d	$a0, $a0, %got_pc_lo12(_ZSt4cerr)
	pcalau12i	$a1, %pc_hi20(.L.str.8)
	addi.d	$a1, $a1, %pc_lo12(.L.str.8)
	ori	$a2, $zero, 31
	pcaddu18i	$ra, %call36(_ZSt16__ostream_insertIcSt11char_traitsIcEERSt13basic_ostreamIT_T0_ES6_PKS3_l)
	jirl	$ra, $ra, 0
.Ltmp19:                                # EH_LABEL
# %bb.67:                               # %_ZStlsISt11char_traitsIcEERSt13basic_ostreamIcT_ES5_PKc.exit56
.Ltmp20:                                # EH_LABEL
	pcalau12i	$a0, %got_pc_hi20(_ZSt4cerr)
	ld.d	$a0, $a0, %got_pc_lo12(_ZSt4cerr)
	pcaddu18i	$ra, %call36(_ZSt4endlIcSt11char_traitsIcEERSt13basic_ostreamIT_T0_ES6_)
	jirl	$ra, $ra, 0
.Ltmp21:                                # EH_LABEL
	b	.LBB0_74
.LBB0_68:
	pcalau12i	$a0, %got_pc_hi20(_ZN8Parallel4mypeE)
	ld.d	$a0, $a0, %got_pc_lo12(_ZN8Parallel4mypeE)
	ld.w	$a0, $a0, 0
	bnez	$a0, .LBB0_74
# %bb.69:
.Ltmp14:                                # EH_LABEL
	pcalau12i	$a0, %got_pc_hi20(_ZSt4cerr)
	ld.d	$a0, $a0, %got_pc_lo12(_ZSt4cerr)
	pcalau12i	$a1, %pc_hi20(.L.str.9)
	addi.d	$a1, $a1, %pc_lo12(.L.str.9)
	ori	$a2, $zero, 40
	pcaddu18i	$ra, %call36(_ZSt16__ostream_insertIcSt11char_traitsIcEERSt13basic_ostreamIT_T0_ES6_PKS3_l)
	jirl	$ra, $ra, 0
.Ltmp15:                                # EH_LABEL
# %bb.70:                               # %_ZStlsISt11char_traitsIcEERSt13basic_ostreamIcT_ES5_PKc.exit67
.Ltmp16:                                # EH_LABEL
	pcalau12i	$a0, %got_pc_hi20(_ZSt4cerr)
	ld.d	$a0, $a0, %got_pc_lo12(_ZSt4cerr)
	pcaddu18i	$ra, %call36(_ZSt4endlIcSt11char_traitsIcEERSt13basic_ostreamIT_T0_ES6_)
	jirl	$ra, $ra, 0
.Ltmp17:                                # EH_LABEL
	b	.LBB0_74
.LBB0_71:
	pcalau12i	$a0, %got_pc_hi20(_ZN8Parallel4mypeE)
	ld.d	$a0, $a0, %got_pc_lo12(_ZN8Parallel4mypeE)
	ld.w	$a0, $a0, 0
	bnez	$a0, .LBB0_74
# %bb.72:
.Ltmp6:                                 # EH_LABEL
	pcalau12i	$a0, %got_pc_hi20(_ZSt4cerr)
	ld.d	$a0, $a0, %got_pc_lo12(_ZSt4cerr)
	pcalau12i	$a1, %pc_hi20(.L.str.11)
	addi.d	$a1, $a1, %pc_lo12(.L.str.11)
	ori	$a2, $zero, 38
	pcaddu18i	$ra, %call36(_ZSt16__ostream_insertIcSt11char_traitsIcEERSt13basic_ostreamIT_T0_ES6_PKS3_l)
	jirl	$ra, $ra, 0
.Ltmp7:                                 # EH_LABEL
# %bb.73:                               # %_ZStlsISt11char_traitsIcEERSt13basic_ostreamIcT_ES5_PKc.exit77
.Ltmp8:                                 # EH_LABEL
	pcalau12i	$a0, %got_pc_hi20(_ZSt4cerr)
	ld.d	$a0, $a0, %got_pc_lo12(_ZSt4cerr)
	pcaddu18i	$ra, %call36(_ZSt4endlIcSt11char_traitsIcEERSt13basic_ostreamIT_T0_ES6_)
	jirl	$ra, $ra, 0
.Ltmp9:                                 # EH_LABEL
.LBB0_74:                               # %_ZNSolsEPFRSoS_E.exit
	ori	$a0, $zero, 1
	pcaddu18i	$ra, %call36(exit)
	jirl	$ra, $ra, 0
.LBB0_75:
.Ltmp33:                                # EH_LABEL
	move	$s0, $a0
	b	.LBB0_88
.LBB0_76:
.Ltmp5:                                 # EH_LABEL
	ld.d	$a2, $sp, 8
	move	$s0, $a0
	beqz	$a2, .LBB0_78
# %bb.77:
	ld.d	$a0, $sp, 24
	sub.d	$a1, $a0, $a2
	move	$a0, $a2
	pcaddu18i	$ra, %call36(_ZdlPvm)
	jirl	$ra, $ra, 0
.LBB0_78:                               # %_ZNSt6vectorIdSaIdEED2Ev.exit60
	ld.d	$a0, $sp, 72
	beq	$a0, $s2, .LBB0_88
# %bb.79:                               # %_ZNKSt7__cxx1112basic_stringIcSt11char_traitsIcESaIcEE11_M_is_localEv.exit.i.i61
	ld.d	$a1, $sp, 88
	b	.LBB0_84
.LBB0_80:
.Ltmp2:                                 # EH_LABEL
	ld.d	$a2, $sp, 8
	move	$s0, $a0
	beq	$a2, $s3, .LBB0_82
# %bb.81:                               # %_ZNKSt7__cxx1112basic_stringIcSt11char_traitsIcESaIcEE11_M_is_localEv.exit.i.i33
	ld.d	$a0, $sp, 24
	addi.d	$a1, $a0, 1
	move	$a0, $a2
	pcaddu18i	$ra, %call36(_ZdlPvm)
	jirl	$ra, $ra, 0
.LBB0_82:                               # %_ZNSt7__cxx1112basic_stringIcSt11char_traitsIcESaIcEED2Ev.exit35
	ld.d	$a0, $sp, 40
	beq	$a0, $s2, .LBB0_88
# %bb.83:                               # %_ZNKSt7__cxx1112basic_stringIcSt11char_traitsIcESaIcEE11_M_is_localEv.exit.i.i36
	ld.d	$a1, $sp, 56
.LBB0_84:
	addi.d	$a1, $a1, 1
	b	.LBB0_87
.LBB0_85:
.Ltmp22:                                # EH_LABEL
	ld.d	$a2, $sp, 40
	move	$s0, $a0
	beqz	$a2, .LBB0_88
# %bb.86:
	ld.d	$a0, $sp, 56
	sub.d	$a1, $a0, $a2
	move	$a0, $a2
.LBB0_87:
	pcaddu18i	$ra, %call36(_ZdlPvm)
	jirl	$ra, $ra, 0
.LBB0_88:
	ld.d	$a0, $fp, 0
	beq	$a0, $s1, .LBB0_90
# %bb.89:                               # %_ZNKSt7__cxx1112basic_stringIcSt11char_traitsIcESaIcEE11_M_is_localEv.exit.i.i82
	ld.d	$a1, $s1, 0
	addi.d	$a1, $a1, 1
	pcaddu18i	$ra, %call36(_ZdlPvm)
	jirl	$ra, $ra, 0
.LBB0_90:                               # %_ZNSt7__cxx1112basic_stringIcSt11char_traitsIcESaIcEED2Ev.exit84
	move	$a0, $s0
	pcaddu18i	$ra, %call36(_Unwind_Resume)
	jirl	$ra, $ra, 0
.Lfunc_end0:
	.size	_ZN7GenMeshC2EPK9InputFile, .Lfunc_end0-_ZN7GenMeshC2EPK9InputFile
	.cfi_endproc
	.section	.gcc_except_table,"a",@progbits
	.p2align	2, 0x0
GCC_except_table0:
.Lexception0:
	.byte	255                             # @LPStart Encoding = omit
	.byte	255                             # @TType Encoding = omit
	.byte	1                               # Call site Encoding = uleb128
	.uleb128 .Lcst_end0-.Lcst_begin0
.Lcst_begin0:
	.uleb128 .Ltmp0-.Lfunc_begin0           # >> Call Site 1 <<
	.uleb128 .Ltmp1-.Ltmp0                  #   Call between .Ltmp0 and .Ltmp1
	.uleb128 .Ltmp2-.Lfunc_begin0           #     jumps to .Ltmp2
	.byte	0                               #   On action: cleanup
	.uleb128 .Ltmp1-.Lfunc_begin0           # >> Call Site 2 <<
	.uleb128 .Ltmp3-.Ltmp1                  #   Call between .Ltmp1 and .Ltmp3
	.byte	0                               #     has no landing pad
	.byte	0                               #   On action: cleanup
	.uleb128 .Ltmp3-.Lfunc_begin0           # >> Call Site 3 <<
	.uleb128 .Ltmp4-.Ltmp3                  #   Call between .Ltmp3 and .Ltmp4
	.uleb128 .Ltmp5-.Lfunc_begin0           #     jumps to .Ltmp5
	.byte	0                               #   On action: cleanup
	.uleb128 .Ltmp4-.Lfunc_begin0           # >> Call Site 4 <<
	.uleb128 .Ltmp10-.Ltmp4                 #   Call between .Ltmp4 and .Ltmp10
	.byte	0                               #     has no landing pad
	.byte	0                               #   On action: cleanup
	.uleb128 .Ltmp10-.Lfunc_begin0          # >> Call Site 5 <<
	.uleb128 .Ltmp13-.Ltmp10                #   Call between .Ltmp10 and .Ltmp13
	.uleb128 .Ltmp22-.Lfunc_begin0          #     jumps to .Ltmp22
	.byte	0                               #   On action: cleanup
	.uleb128 .Ltmp23-.Lfunc_begin0          # >> Call Site 6 <<
	.uleb128 .Ltmp32-.Ltmp23                #   Call between .Ltmp23 and .Ltmp32
	.uleb128 .Ltmp33-.Lfunc_begin0          #     jumps to .Ltmp33
	.byte	0                               #   On action: cleanup
	.uleb128 .Ltmp18-.Lfunc_begin0          # >> Call Site 7 <<
	.uleb128 .Ltmp9-.Ltmp18                 #   Call between .Ltmp18 and .Ltmp9
	.uleb128 .Ltmp22-.Lfunc_begin0          #     jumps to .Ltmp22
	.byte	0                               #   On action: cleanup
	.uleb128 .Ltmp9-.Lfunc_begin0           # >> Call Site 8 <<
	.uleb128 .Lfunc_end0-.Ltmp9             #   Call between .Ltmp9 and .Lfunc_end0
	.byte	0                               #     has no landing pad
	.byte	0                               #   On action: cleanup
.Lcst_end0:
	.p2align	2, 0x0
                                        # -- End function
	.text
	.globl	_ZN7GenMeshD2Ev                 # -- Begin function _ZN7GenMeshD2Ev
	.p2align	5
	.type	_ZN7GenMeshD2Ev,@function
_ZN7GenMeshD2Ev:                        # @_ZN7GenMeshD2Ev
	.cfi_startproc
# %bb.0:
	move	$a1, $a0
	ld.d	$a0, $a0, 0
	addi.d	$a1, $a1, 16
	beq	$a0, $a1, .LBB1_2
# %bb.1:                                # %_ZNKSt7__cxx1112basic_stringIcSt11char_traitsIcESaIcEE11_M_is_localEv.exit.i.i
	ld.d	$a1, $a1, 0
	addi.d	$a1, $a1, 1
	pcaddu18i	$t8, %call36(_ZdlPvm)
	jr	$t8
.LBB1_2:                                # %_ZNSt7__cxx1112basic_stringIcSt11char_traitsIcESaIcEED2Ev.exit
	ret
.Lfunc_end1:
	.size	_ZN7GenMeshD2Ev, .Lfunc_end1-_ZN7GenMeshD2Ev
	.cfi_endproc
                                        # -- End function
	.globl	_ZN7GenMesh8generateERSt6vectorI7double2SaIS1_EERS0_IiSaIiEES7_S7_S7_S7_S7_S7_S7_S7_ # -- Begin function _ZN7GenMesh8generateERSt6vectorI7double2SaIS1_EERS0_IiSaIiEES7_S7_S7_S7_S7_S7_S7_S7_
	.p2align	5
	.type	_ZN7GenMesh8generateERSt6vectorI7double2SaIS1_EERS0_IiSaIiEES7_S7_S7_S7_S7_S7_S7_S7_,@function
_ZN7GenMesh8generateERSt6vectorI7double2SaIS1_EERS0_IiSaIiEES7_S7_S7_S7_S7_S7_S7_S7_: # @_ZN7GenMesh8generateERSt6vectorI7double2SaIS1_EERS0_IiSaIiEES7_S7_S7_S7_S7_S7_S7_S7_
	.cfi_startproc
# %bb.0:
	addi.d	$sp, $sp, -112
	.cfi_def_cfa_offset 112
	st.d	$ra, $sp, 104                   # 8-byte Folded Spill
	st.d	$fp, $sp, 96                    # 8-byte Folded Spill
	st.d	$s0, $sp, 88                    # 8-byte Folded Spill
	st.d	$s1, $sp, 80                    # 8-byte Folded Spill
	st.d	$s2, $sp, 72                    # 8-byte Folded Spill
	st.d	$s3, $sp, 64                    # 8-byte Folded Spill
	st.d	$s4, $sp, 56                    # 8-byte Folded Spill
	st.d	$s5, $sp, 48                    # 8-byte Folded Spill
	st.d	$s6, $sp, 40                    # 8-byte Folded Spill
	st.d	$s7, $sp, 32                    # 8-byte Folded Spill
	st.d	$s8, $sp, 24                    # 8-byte Folded Spill
	.cfi_offset 1, -8
	.cfi_offset 22, -16
	.cfi_offset 23, -24
	.cfi_offset 24, -32
	.cfi_offset 25, -40
	.cfi_offset 26, -48
	.cfi_offset 27, -56
	.cfi_offset 28, -64
	.cfi_offset 29, -72
	.cfi_offset 30, -80
	.cfi_offset 31, -88
	ld.d	$fp, $sp, 128
	ld.d	$s8, $sp, 120
	ld.d	$s7, $sp, 112
	st.d	$a7, $sp, 16                    # 8-byte Folded Spill
	move	$s0, $a6
	move	$s1, $a5
	move	$s2, $a4
	move	$s3, $a3
	move	$s4, $a2
	move	$s5, $a1
	move	$s6, $a0
	pcaddu18i	$ra, %call36(_ZN7GenMesh9calcNumPEEv)
	jirl	$ra, $ra, 0
	ld.w	$a0, $s6, 64
	ld.w	$a1, $s6, 32
	ld.w	$a2, $s6, 56
	mul.w	$a3, $a1, $a0
	div.w	$a3, $a3, $a2
	st.w	$a3, $s6, 80
	addi.d	$a0, $a0, 1
	mul.w	$a0, $a0, $a1
	div.w	$a0, $a0, $a2
	ld.w	$a1, $s6, 68
	ld.w	$a2, $s6, 36
	ld.w	$a4, $s6, 60
	sub.d	$a0, $a0, $a3
	st.w	$a0, $s6, 72
	mul.w	$a0, $a2, $a1
	div.w	$a0, $a0, $a4
	st.w	$a0, $s6, 84
	addi.d	$a1, $a1, 1
	mul.w	$a1, $a1, $a2
	ld.d	$a2, $s6, 8
	div.w	$a1, $a1, $a4
	sub.d	$a0, $a1, $a0
	ori	$a1, $zero, 4
	st.w	$a0, $s6, 76
	beq	$a2, $a1, .LBB2_5
# %bb.1:
	ori	$a0, $zero, 3
	bne	$a2, $a0, .LBB2_6
# %bb.2:                                # %_ZSteqIcSt11char_traitsIcESaIcEEbRKNSt7__cxx1112basic_stringIT_T0_T1_EEPKS5_.exit
	ld.d	$a0, $s6, 0
	ld.hu	$a1, $a0, 0
	ld.bu	$a3, $a0, 2
	lu12i.w	$a4, 6
	ori	$a4, $a4, 2416
	xor	$a1, $a1, $a4
	xori	$a3, $a3, 101
	or	$a1, $a1, $a3
	beqz	$a1, .LBB2_7
# %bb.3:                                # %_ZSteqIcSt11char_traitsIcESaIcEEbRKNSt7__cxx1112basic_stringIT_T0_T1_EEPKS5_.exit35
	pcalau12i	$a1, %pc_hi20(.L.str.5)
	addi.d	$a1, $a1, %pc_lo12(.L.str.5)
	pcaddu18i	$ra, %call36(bcmp)
	jirl	$ra, $ra, 0
	bnez	$a0, .LBB2_6
# %bb.4:                                # %_ZSteqIcSt11char_traitsIcESaIcEEbRKNSt7__cxx1112basic_stringIT_T0_T1_EEPKS5_.exit35.thread
	st.d	$fp, $sp, 128
	st.d	$s8, $sp, 120
	st.d	$s7, $sp, 112
	move	$a0, $s6
	move	$a1, $s5
	move	$a2, $s4
	move	$a3, $s3
	move	$a4, $s2
	move	$a5, $s1
	move	$a6, $s0
	ld.d	$a7, $sp, 16                    # 8-byte Folded Reload
	ld.d	$s8, $sp, 24                    # 8-byte Folded Reload
	ld.d	$s7, $sp, 32                    # 8-byte Folded Reload
	ld.d	$s6, $sp, 40                    # 8-byte Folded Reload
	ld.d	$s5, $sp, 48                    # 8-byte Folded Reload
	ld.d	$s4, $sp, 56                    # 8-byte Folded Reload
	ld.d	$s3, $sp, 64                    # 8-byte Folded Reload
	ld.d	$s2, $sp, 72                    # 8-byte Folded Reload
	ld.d	$s1, $sp, 80                    # 8-byte Folded Reload
	ld.d	$s0, $sp, 88                    # 8-byte Folded Reload
	ld.d	$fp, $sp, 96                    # 8-byte Folded Reload
	ld.d	$ra, $sp, 104                   # 8-byte Folded Reload
	addi.d	$sp, $sp, 112
	pcaddu18i	$t8, %call36(_ZN7GenMesh11generateHexERSt6vectorI7double2SaIS1_EERS0_IiSaIiEES7_S7_S7_S7_S7_S7_S7_S7_)
	jr	$t8
.LBB2_5:                                # %_ZSteqIcSt11char_traitsIcESaIcEEbRKNSt7__cxx1112basic_stringIT_T0_T1_EEPKS5_.exit33
	ld.d	$a0, $s6, 0
	pcalau12i	$a1, %pc_hi20(.L.str.4)
	addi.d	$a1, $a1, %pc_lo12(.L.str.4)
	pcaddu18i	$ra, %call36(bcmp)
	jirl	$ra, $ra, 0
	beqz	$a0, .LBB2_8
.LBB2_6:                                # %_ZSteqIcSt11char_traitsIcESaIcEEbRKNSt7__cxx1112basic_stringIT_T0_T1_EEPKS5_.exit35.thread38
	ld.d	$s8, $sp, 24                    # 8-byte Folded Reload
	ld.d	$s7, $sp, 32                    # 8-byte Folded Reload
	ld.d	$s6, $sp, 40                    # 8-byte Folded Reload
	ld.d	$s5, $sp, 48                    # 8-byte Folded Reload
	ld.d	$s4, $sp, 56                    # 8-byte Folded Reload
	ld.d	$s3, $sp, 64                    # 8-byte Folded Reload
	ld.d	$s2, $sp, 72                    # 8-byte Folded Reload
	ld.d	$s1, $sp, 80                    # 8-byte Folded Reload
	ld.d	$s0, $sp, 88                    # 8-byte Folded Reload
	ld.d	$fp, $sp, 96                    # 8-byte Folded Reload
	ld.d	$ra, $sp, 104                   # 8-byte Folded Reload
	addi.d	$sp, $sp, 112
	ret
.LBB2_7:                                # %_ZSteqIcSt11char_traitsIcESaIcEEbRKNSt7__cxx1112basic_stringIT_T0_T1_EEPKS5_.exit.thread
	st.d	$fp, $sp, 128
	st.d	$s8, $sp, 120
	st.d	$s7, $sp, 112
	move	$a0, $s6
	move	$a1, $s5
	move	$a2, $s4
	move	$a3, $s3
	move	$a4, $s2
	move	$a5, $s1
	move	$a6, $s0
	ld.d	$a7, $sp, 16                    # 8-byte Folded Reload
	ld.d	$s8, $sp, 24                    # 8-byte Folded Reload
	ld.d	$s7, $sp, 32                    # 8-byte Folded Reload
	ld.d	$s6, $sp, 40                    # 8-byte Folded Reload
	ld.d	$s5, $sp, 48                    # 8-byte Folded Reload
	ld.d	$s4, $sp, 56                    # 8-byte Folded Reload
	ld.d	$s3, $sp, 64                    # 8-byte Folded Reload
	ld.d	$s2, $sp, 72                    # 8-byte Folded Reload
	ld.d	$s1, $sp, 80                    # 8-byte Folded Reload
	ld.d	$s0, $sp, 88                    # 8-byte Folded Reload
	ld.d	$fp, $sp, 96                    # 8-byte Folded Reload
	ld.d	$ra, $sp, 104                   # 8-byte Folded Reload
	addi.d	$sp, $sp, 112
	pcaddu18i	$t8, %call36(_ZN7GenMesh11generatePieERSt6vectorI7double2SaIS1_EERS0_IiSaIiEES7_S7_S7_S7_S7_S7_S7_S7_)
	jr	$t8
.LBB2_8:                                # %_ZSteqIcSt11char_traitsIcESaIcEEbRKNSt7__cxx1112basic_stringIT_T0_T1_EEPKS5_.exit33.thread
	st.d	$fp, $sp, 128
	st.d	$s8, $sp, 120
	st.d	$s7, $sp, 112
	move	$a0, $s6
	move	$a1, $s5
	move	$a2, $s4
	move	$a3, $s3
	move	$a4, $s2
	move	$a5, $s1
	move	$a6, $s0
	ld.d	$a7, $sp, 16                    # 8-byte Folded Reload
	ld.d	$s8, $sp, 24                    # 8-byte Folded Reload
	ld.d	$s7, $sp, 32                    # 8-byte Folded Reload
	ld.d	$s6, $sp, 40                    # 8-byte Folded Reload
	ld.d	$s5, $sp, 48                    # 8-byte Folded Reload
	ld.d	$s4, $sp, 56                    # 8-byte Folded Reload
	ld.d	$s3, $sp, 64                    # 8-byte Folded Reload
	ld.d	$s2, $sp, 72                    # 8-byte Folded Reload
	ld.d	$s1, $sp, 80                    # 8-byte Folded Reload
	ld.d	$s0, $sp, 88                    # 8-byte Folded Reload
	ld.d	$fp, $sp, 96                    # 8-byte Folded Reload
	ld.d	$ra, $sp, 104                   # 8-byte Folded Reload
	addi.d	$sp, $sp, 112
	pcaddu18i	$t8, %call36(_ZN7GenMesh12generateRectERSt6vectorI7double2SaIS1_EERS0_IiSaIiEES7_S7_S7_S7_S7_S7_S7_S7_)
	jr	$t8
.Lfunc_end2:
	.size	_ZN7GenMesh8generateERSt6vectorI7double2SaIS1_EERS0_IiSaIiEES7_S7_S7_S7_S7_S7_S7_S7_, .Lfunc_end2-_ZN7GenMesh8generateERSt6vectorI7double2SaIS1_EERS0_IiSaIiEES7_S7_S7_S7_S7_S7_S7_S7_
	.cfi_endproc
                                        # -- End function
	.section	.rodata.cst8,"aM",@progbits,8
	.p2align	3, 0x0                          # -- Begin function _ZN7GenMesh9calcNumPEEv
.LCPI3_0:
	.dword	0x3d719799812dea11              # double 9.9999999999999998E-13
.LCPI3_1:
	.dword	0xbd719799812dea11              # double -9.9999999999999998E-13
	.text
	.globl	_ZN7GenMesh9calcNumPEEv
	.p2align	5
	.type	_ZN7GenMesh9calcNumPEEv,@function
_ZN7GenMesh9calcNumPEEv:                # @_ZN7GenMesh9calcNumPEEv
# %bb.0:
	addi.d	$sp, $sp, -64
	st.d	$ra, $sp, 56                    # 8-byte Folded Spill
	st.d	$fp, $sp, 48                    # 8-byte Folded Spill
	st.d	$s0, $sp, 40                    # 8-byte Folded Spill
	fst.d	$fs0, $sp, 32                   # 8-byte Folded Spill
	fst.d	$fs1, $sp, 24                   # 8-byte Folded Spill
	fst.d	$fs2, $sp, 16                   # 8-byte Folded Spill
	fst.d	$fs3, $sp, 8                    # 8-byte Folded Spill
	ld.w	$a1, $a0, 32
	ld.w	$a2, $a0, 36
	movgr2fr.w	$fa0, $a1
	ffint.d.w	$fs0, $fa0
	movgr2fr.w	$fa0, $a2
	ffint.d.w	$fs1, $fa0
	fcmp.clt.d	$fcc0, $fs1, $fs0
	fsel	$fs2, $fs1, $fs0, $fcc0
	fsel	$fs3, $fs0, $fs1, $fcc0
	pcalau12i	$a1, %got_pc_hi20(_ZN8Parallel5numpeE)
	ld.d	$fp, $a1, %got_pc_lo12(_ZN8Parallel5numpeE)
	ld.w	$a1, $fp, 0
	movgr2fr.w	$fa0, $a1
	ffint.d.w	$fa0, $fa0
	fmul.d	$fa0, $fs3, $fa0
	fdiv.d	$fa1, $fa0, $fs2
	fsqrt.d	$fa0, $fa1
	fcmp.cor.d	$fcc0, $fa0, $fa0
	bceqz	$fcc0, .LBB3_9
.LBB3_1:                                # %.split
	pcalau12i	$a1, %pc_hi20(.LCPI3_0)
	fld.d	$fa1, $a1, %pc_lo12(.LCPI3_0)
	fadd.d	$fa1, $fa0, $fa1
	vreplvei.d	$vr1, $vr1, 0
	vfrintrm.d	$vr1, $vr1
	ftintrz.w.d	$fa1, $fa1
	movfr2gr.s	$a2, $fa1
	ori	$a3, $zero, 1
	slt	$a4, $a3, $a2
	ld.w	$a1, $fp, 0
	maskeqz	$a2, $a2, $a4
	masknez	$a3, $a3, $a4
	or	$a2, $a2, $a3
	.p2align	4, , 16
.LBB3_2:                                # =>This Inner Loop Header: Depth=1
	div.w	$a3, $a1, $a2
	mul.d	$a4, $a3, $a2
	sub.w	$a4, $a1, $a4
	addi.w	$a2, $a2, -1
	bnez	$a4, .LBB3_2
# %bb.3:
	pcalau12i	$a4, %pc_hi20(.LCPI3_1)
	fld.d	$fa1, $a4, %pc_lo12(.LCPI3_1)
	fadd.d	$fa0, $fa0, $fa1
	vreplvei.d	$vr0, $vr0, 0
	vfrintrp.d	$vr0, $vr0
	ftintrz.w.d	$fa0, $fa0
	movfr2gr.s	$a4, $fa0
	addi.w	$a2, $a2, 1
	.p2align	4, , 16
.LBB3_4:                                # =>This Inner Loop Header: Depth=1
	div.w	$a5, $a1, $a4
	mul.d	$a6, $a5, $a4
	sub.w	$a6, $a1, $a6
	addi.w	$a4, $a4, 1
	bnez	$a6, .LBB3_4
# %bb.5:
	movgr2fr.w	$fa0, $a2
	ffint.d.w	$fa0, $fa0
	fdiv.d	$fa0, $fs3, $fa0
	movgr2fr.w	$fa1, $a3
	ffint.d.w	$fa1, $fa1
	fdiv.d	$fa1, $fs2, $fa1
	fcmp.clt.d	$fcc0, $fa0, $fa1
	fsel	$fa0, $fa0, $fa1, $fcc0
	addi.d	$a3, $a4, -1
	movgr2fr.w	$fa1, $a3
	ffint.d.w	$fa1, $fa1
	fdiv.d	$fa1, $fs3, $fa1
	movgr2fr.w	$fa2, $a5
	ffint.d.w	$fa2, $fa2
	fdiv.d	$fa2, $fs2, $fa2
	fcmp.clt.d	$fcc0, $fa1, $fa2
	fsel	$fa1, $fa1, $fa2, $fcc0
	fcmp.cle.d	$fcc0, $fa0, $fa1
	addi.w	$a3, $a3, 0
	movcf2gr	$a4, $fcc0
	masknez	$a3, $a3, $a4
	maskeqz	$a2, $a2, $a4
	or	$a2, $a2, $a3
	st.w	$a2, $a0, 56
	div.w	$a1, $a1, $a2
	fcmp.cule.d	$fcc0, $fs0, $fs1
	st.w	$a1, $a0, 60
	bcnez	$fcc0, .LBB3_7
# %bb.6:
	st.w	$a1, $a0, 56
	st.w	$a2, $a0, 60
	b	.LBB3_8
.LBB3_7:
	move	$a1, $a2
.LBB3_8:
	pcalau12i	$a2, %got_pc_hi20(_ZN8Parallel4mypeE)
	ld.d	$a2, $a2, %got_pc_lo12(_ZN8Parallel4mypeE)
	ld.w	$a2, $a2, 0
	div.w	$a3, $a2, $a1
	mul.d	$a1, $a3, $a1
	sub.d	$a1, $a2, $a1
	st.w	$a1, $a0, 64
	st.w	$a3, $a0, 68
	fld.d	$fs3, $sp, 8                    # 8-byte Folded Reload
	fld.d	$fs2, $sp, 16                   # 8-byte Folded Reload
	fld.d	$fs1, $sp, 24                   # 8-byte Folded Reload
	fld.d	$fs0, $sp, 32                   # 8-byte Folded Reload
	ld.d	$s0, $sp, 40                    # 8-byte Folded Reload
	ld.d	$fp, $sp, 48                    # 8-byte Folded Reload
	ld.d	$ra, $sp, 56                    # 8-byte Folded Reload
	addi.d	$sp, $sp, 64
	ret
.LBB3_9:                                # %call.sqrt
	fmov.d	$fa0, $fa1
	move	$s0, $a0
	pcaddu18i	$ra, %call36(sqrt)
	jirl	$ra, $ra, 0
	move	$a0, $s0
	b	.LBB3_1
.Lfunc_end3:
	.size	_ZN7GenMesh9calcNumPEEv, .Lfunc_end3-_ZN7GenMesh9calcNumPEEv
                                        # -- End function
	.globl	_ZN7GenMesh11generatePieERSt6vectorI7double2SaIS1_EERS0_IiSaIiEES7_S7_S7_S7_S7_S7_S7_S7_ # -- Begin function _ZN7GenMesh11generatePieERSt6vectorI7double2SaIS1_EERS0_IiSaIiEES7_S7_S7_S7_S7_S7_S7_S7_
	.p2align	5
	.type	_ZN7GenMesh11generatePieERSt6vectorI7double2SaIS1_EERS0_IiSaIiEES7_S7_S7_S7_S7_S7_S7_S7_,@function
_ZN7GenMesh11generatePieERSt6vectorI7double2SaIS1_EERS0_IiSaIiEES7_S7_S7_S7_S7_S7_S7_S7_: # @_ZN7GenMesh11generatePieERSt6vectorI7double2SaIS1_EERS0_IiSaIiEES7_S7_S7_S7_S7_S7_S7_S7_
	.cfi_startproc
# %bb.0:
	addi.d	$sp, $sp, -272
	.cfi_def_cfa_offset 272
	st.d	$ra, $sp, 264                   # 8-byte Folded Spill
	st.d	$fp, $sp, 256                   # 8-byte Folded Spill
	st.d	$s0, $sp, 248                   # 8-byte Folded Spill
	st.d	$s1, $sp, 240                   # 8-byte Folded Spill
	st.d	$s2, $sp, 232                   # 8-byte Folded Spill
	st.d	$s3, $sp, 224                   # 8-byte Folded Spill
	st.d	$s4, $sp, 216                   # 8-byte Folded Spill
	st.d	$s5, $sp, 208                   # 8-byte Folded Spill
	st.d	$s6, $sp, 200                   # 8-byte Folded Spill
	st.d	$s7, $sp, 192                   # 8-byte Folded Spill
	st.d	$s8, $sp, 184                   # 8-byte Folded Spill
	fst.d	$fs0, $sp, 176                  # 8-byte Folded Spill
	fst.d	$fs1, $sp, 168                  # 8-byte Folded Spill
	fst.d	$fs2, $sp, 160                  # 8-byte Folded Spill
	fst.d	$fs3, $sp, 152                  # 8-byte Folded Spill
	fst.d	$fs4, $sp, 144                  # 8-byte Folded Spill
	.cfi_offset 1, -8
	.cfi_offset 22, -16
	.cfi_offset 23, -24
	.cfi_offset 24, -32
	.cfi_offset 25, -40
	.cfi_offset 26, -48
	.cfi_offset 27, -56
	.cfi_offset 28, -64
	.cfi_offset 29, -72
	.cfi_offset 30, -80
	.cfi_offset 31, -88
	.cfi_offset 56, -96
	.cfi_offset 57, -104
	.cfi_offset 58, -112
	.cfi_offset 59, -120
	.cfi_offset 60, -128
	ld.w	$t2, $a0, 72
	ld.w	$t0, $a0, 76
	st.d	$a0, $sp, 136                   # 8-byte Folded Spill
	ld.w	$a0, $a0, 68
	addi.d	$t1, $t2, 1
	addi.d	$t4, $t0, 1
	sltui	$a0, $a0, 1
	st.d	$t0, $sp, 80                    # 8-byte Folded Spill
	mul.d	$t3, $t1, $t0
	addi.d	$t0, $t3, 1
	st.d	$t1, $sp, 104                   # 8-byte Folded Spill
	st.d	$t4, $sp, 32                    # 8-byte Folded Spill
	mulw.d.w	$t1, $t4, $t1
	st.d	$t1, $sp, 16                    # 8-byte Folded Spill
	masknez	$t1, $t1, $a0
	maskeqz	$a0, $t0, $a0
	or	$a0, $a0, $t1
	addi.w	$s1, $a0, 0
	st.d	$a7, $sp, 56                    # 8-byte Folded Spill
	st.d	$a6, $sp, 40                    # 8-byte Folded Spill
	st.d	$a3, $sp, 88                    # 8-byte Folded Spill
	st.d	$a2, $sp, 120                   # 8-byte Folded Spill
	bltz	$s1, .LBB4_377
# %bb.1:
	move	$s3, $a4
	move	$s6, $a1
	st.d	$a5, $sp, 48                    # 8-byte Folded Spill
	st.d	$t3, $sp, 24                    # 8-byte Folded Spill
	st.d	$t2, $sp, 128                   # 8-byte Folded Spill
	ld.d	$fp, $a1, 16
	ld.d	$s0, $a1, 0
	sub.d	$s8, $fp, $s0
	srai.d	$a0, $s8, 4
	bgeu	$a0, $s1, .LBB4_8
# %bb.2:                                # %_ZNSt12_Vector_baseI7double2SaIS0_EE11_M_allocateEm.exit.i.i
	ld.d	$fp, $s6, 8
	slli.d	$a0, $s1, 4
	pcaddu18i	$ra, %call36(_Znwm)
	jirl	$ra, $ra, 0
	move	$s5, $a0
	beq	$fp, $s0, .LBB4_5
# %bb.3:                                # %.lr.ph.i.i.i.i.i.i.preheader
	move	$a0, $s5
	move	$a1, $s0
	.p2align	4, , 16
.LBB4_4:                                # %.lr.ph.i.i.i.i.i.i
                                        # =>This Inner Loop Header: Depth=1
	vld	$vr0, $a1, 0
	vst	$vr0, $a0, 0
	addi.d	$a1, $a1, 16
	addi.d	$a0, $a0, 16
	bne	$a1, $fp, .LBB4_4
.LBB4_5:                                # %_ZNSt6vectorI7double2SaIS0_EE20_M_allocate_and_copyIPKS0_EEPS0_mT_S7_.exit.i
	sub.d	$fp, $fp, $s0
	beqz	$s0, .LBB4_7
# %bb.6:
	move	$a0, $s0
	move	$a1, $s8
	pcaddu18i	$ra, %call36(_ZdlPvm)
	jirl	$ra, $ra, 0
.LBB4_7:                                # %_ZNSt12_Vector_baseI7double2SaIS0_EE13_M_deallocateEPS0_m.exit.i
	st.d	$s5, $s6, 0
	add.d	$a0, $s5, $fp
	st.d	$a0, $s6, 8
	alsl.d	$fp, $s1, $s5, 4
	st.d	$fp, $s6, 16
	ld.d	$a0, $sp, 80                    # 8-byte Folded Reload
	bgez	$a0, .LBB4_9
	b	.LBB4_33
.LBB4_8:
	move	$s5, $s0
	ld.d	$a0, $sp, 80                    # 8-byte Folded Reload
	bltz	$a0, .LBB4_33
.LBB4_9:                                # %.lr.ph515
	ld.d	$a2, $sp, 136                   # 8-byte Folded Reload
	ld.w	$a1, $a2, 32
	move	$a0, $zero
	fld.d	$fa0, $a2, 40
	movgr2fr.w	$fa1, $a1
	ld.w	$a1, $a2, 36
	ffint.d.w	$fa1, $fa1
	fld.d	$fa2, $a2, 48
	fdiv.d	$fs1, $fa0, $fa1
	movgr2fr.w	$fa0, $a1
	ffint.d.w	$fa0, $fa0
	fdiv.d	$fs2, $fa2, $fa0
	addi.w	$a1, $zero, -16
	lu52i.d	$a1, $a1, 2047
	st.d	$a1, $sp, 112                   # 8-byte Folded Spill
	addi.w	$a1, $zero, -1
	lu52i.d	$s1, $a1, 127
	vrepli.b	$vr0, 0
	vst	$vr0, $sp, 64                   # 16-byte Folded Spill
	b	.LBB4_14
	.p2align	4, , 16
.LBB4_10:                               #   in Loop: Header=BB4_14 Depth=1
	ld.d	$a0, $s6, 8
	beq	$a0, $fp, .LBB4_26
# %bb.11:                               #   in Loop: Header=BB4_14 Depth=1
	addi.d	$a1, $a0, 16
	vld	$vr0, $sp, 64                   # 16-byte Folded Reload
	vst	$vr0, $a0, 0
	st.d	$a1, $s6, 8
.LBB4_12:                               #   in Loop: Header=BB4_14 Depth=1
	move	$s7, $s5
.LBB4_13:                               # %_ZNSt6vectorI7double2SaIS0_EE9push_backEOS0_.exit
                                        #   in Loop: Header=BB4_14 Depth=1
	ld.d	$a2, $sp, 96                    # 8-byte Folded Reload
	addi.w	$a0, $a2, 1
	move	$s5, $s7
	ld.d	$a1, $sp, 80                    # 8-byte Folded Reload
	beq	$a2, $a1, .LBB4_33
.LBB4_14:                               # =>This Loop Header: Depth=1
                                        #     Child Loop BB4_18 Depth 2
                                        #       Child Loop BB4_22 Depth 3
                                        #     Child Loop BB4_29 Depth 2
	ld.d	$a1, $sp, 136                   # 8-byte Folded Reload
	ld.w	$a1, $a1, 84
	add.w	$a1, $a1, $a0
	st.d	$a0, $sp, 96                    # 8-byte Folded Spill
	beqz	$a1, .LBB4_10
# %bb.15:                               #   in Loop: Header=BB4_14 Depth=1
	ld.d	$a0, $sp, 128                   # 8-byte Folded Reload
	bltz	$a0, .LBB4_12
# %bb.16:                               # %.lr.ph.preheader
                                        #   in Loop: Header=BB4_14 Depth=1
	move	$a0, $zero
	ld.d	$s0, $s6, 8
	movgr2fr.w	$fa0, $a1
	ffint.d.w	$fa0, $fa0
	fmul.d	$fs3, $fs2, $fa0
	b	.LBB4_18
	.p2align	4, , 16
.LBB4_17:                               #   in Loop: Header=BB4_18 Depth=2
	fst.d	$fs4, $s0, 0
	fst.d	$fs0, $s0, 8
	addi.d	$s0, $s0, 16
	st.d	$s0, $s6, 8
	move	$s7, $s5
	addi.w	$a0, $s2, 1
	ld.d	$a1, $sp, 128                   # 8-byte Folded Reload
	beq	$s2, $a1, .LBB4_13
.LBB4_18:                               # %.lr.ph
                                        #   Parent Loop BB4_14 Depth=1
                                        # =>  This Loop Header: Depth=2
                                        #       Child Loop BB4_22 Depth 3
	ld.d	$a2, $sp, 136                   # 8-byte Folded Reload
	ld.w	$a1, $a2, 80
	ld.w	$a2, $a2, 32
	move	$s2, $a0
	add.d	$a0, $a0, $a1
	sub.d	$a0, $a2, $a0
	movgr2fr.w	$fa0, $a0
	ffint.d.w	$fa0, $fa0
	fmul.d	$fs0, $fs1, $fa0
	fmov.d	$fa0, $fs0
	pcaddu18i	$ra, %call36(cos)
	jirl	$ra, $ra, 0
	fmul.d	$fs4, $fs3, $fa0
	fmov.d	$fa0, $fs0
	pcaddu18i	$ra, %call36(sin)
	jirl	$ra, $ra, 0
	fmul.d	$fs0, $fs3, $fa0
	bne	$s0, $fp, .LBB4_17
# %bb.19:                               #   in Loop: Header=BB4_18 Depth=2
	sub.d	$s0, $fp, $s5
	ld.d	$a0, $sp, 112                   # 8-byte Folded Reload
	beq	$s0, $a0, .LBB4_376
# %bb.20:                               # %.noexc414
                                        #   in Loop: Header=BB4_18 Depth=2
	srai.d	$a0, $s0, 4
	ori	$a2, $zero, 1
	sltu	$a1, $a2, $a0
	masknez	$a2, $a2, $a1
	maskeqz	$a1, $a0, $a1
	or	$a1, $a1, $a2
	add.d	$a0, $a1, $a0
	sltu	$a1, $a0, $a1
	sltu	$a2, $a0, $s1
	maskeqz	$a0, $a0, $a2
	masknez	$a2, $s1, $a2
	or	$a0, $a0, $a2
	masknez	$a0, $a0, $a1
	maskeqz	$a1, $s1, $a1
	or	$s4, $a1, $a0
	slli.d	$a0, $s4, 4
	pcaddu18i	$ra, %call36(_Znwm)
	jirl	$ra, $ra, 0
	move	$s7, $a0
	add.d	$a0, $a0, $s0
	fstx.d	$fs4, $s7, $s0
	fst.d	$fs0, $a0, 8
	move	$s8, $s7
	beq	$s5, $fp, .LBB4_23
# %bb.21:                               # %.lr.ph.i.i.i.i.i.i.i405.preheader
                                        #   in Loop: Header=BB4_18 Depth=2
	move	$s8, $s7
	move	$a0, $s5
	.p2align	4, , 16
.LBB4_22:                               # %.lr.ph.i.i.i.i.i.i.i405
                                        #   Parent Loop BB4_14 Depth=1
                                        #     Parent Loop BB4_18 Depth=2
                                        # =>    This Inner Loop Header: Depth=3
	vld	$vr0, $a0, 0
	vst	$vr0, $s8, 0
	addi.d	$a0, $a0, 16
	addi.d	$s8, $s8, 16
	bne	$a0, $fp, .LBB4_22
.LBB4_23:                               # %_ZSt34__uninitialized_move_if_noexcept_aIP7double2S1_SaIS0_EET0_T_S4_S3_RT1_.exit.i.i409
                                        #   in Loop: Header=BB4_18 Depth=2
	beqz	$s5, .LBB4_25
# %bb.24:                               #   in Loop: Header=BB4_18 Depth=2
	move	$a0, $s5
	move	$a1, $s0
	pcaddu18i	$ra, %call36(_ZdlPvm)
	jirl	$ra, $ra, 0
.LBB4_25:                               # %_ZNSt6vectorI7double2SaIS0_EE17_M_realloc_appendIJS0_EEEvDpOT_.exit.i412
                                        #   in Loop: Header=BB4_18 Depth=2
	addi.d	$s0, $s8, 16
	st.d	$s7, $s6, 0
	st.d	$s0, $s6, 8
	alsl.d	$fp, $s4, $s7, 4
	st.d	$fp, $s6, 16
	move	$s5, $s7
	addi.w	$a0, $s2, 1
	ld.d	$a1, $sp, 128                   # 8-byte Folded Reload
	bne	$s2, $a1, .LBB4_18
	b	.LBB4_13
.LBB4_26:                               #   in Loop: Header=BB4_14 Depth=1
	sub.d	$s0, $fp, $s5
	ld.d	$a0, $sp, 112                   # 8-byte Folded Reload
	beq	$s0, $a0, .LBB4_376
# %bb.27:                               # %.noexc401
                                        #   in Loop: Header=BB4_14 Depth=1
	srai.d	$a0, $s0, 4
	ori	$a2, $zero, 1
	sltu	$a1, $a2, $a0
	masknez	$a2, $a2, $a1
	maskeqz	$a1, $a0, $a1
	or	$a1, $a1, $a2
	add.d	$a0, $a1, $a0
	sltu	$a1, $a0, $a1
	sltu	$a2, $a0, $s1
	maskeqz	$a0, $a0, $a2
	masknez	$a2, $s1, $a2
	or	$a0, $a0, $a2
	masknez	$a0, $a0, $a1
	maskeqz	$a1, $s1, $a1
	or	$s2, $a1, $a0
	slli.d	$a0, $s2, 4
	pcaddu18i	$ra, %call36(_Znwm)
	jirl	$ra, $ra, 0
	move	$s7, $a0
	vld	$vr0, $sp, 64                   # 16-byte Folded Reload
	vstx	$vr0, $a0, $s0
	move	$s4, $a0
	beq	$s5, $fp, .LBB4_30
# %bb.28:                               # %.lr.ph.i.i.i.i.i.i.i.preheader
                                        #   in Loop: Header=BB4_14 Depth=1
	move	$s4, $s7
	move	$a0, $s5
	.p2align	4, , 16
.LBB4_29:                               # %.lr.ph.i.i.i.i.i.i.i
                                        #   Parent Loop BB4_14 Depth=1
                                        # =>  This Inner Loop Header: Depth=2
	vld	$vr0, $a0, 0
	vst	$vr0, $s4, 0
	addi.d	$a0, $a0, 16
	addi.d	$s4, $s4, 16
	bne	$a0, $fp, .LBB4_29
.LBB4_30:                               # %_ZSt34__uninitialized_move_if_noexcept_aIP7double2S1_SaIS0_EET0_T_S4_S3_RT1_.exit.i.i
                                        #   in Loop: Header=BB4_14 Depth=1
	beqz	$s5, .LBB4_32
# %bb.31:                               #   in Loop: Header=BB4_14 Depth=1
	move	$a0, $s5
	move	$a1, $s0
	pcaddu18i	$ra, %call36(_ZdlPvm)
	jirl	$ra, $ra, 0
.LBB4_32:                               # %_ZNSt6vectorI7double2SaIS0_EE17_M_realloc_appendIJS0_EEEvDpOT_.exit.i
                                        #   in Loop: Header=BB4_14 Depth=1
	addi.d	$a0, $s4, 16
	st.d	$s7, $s6, 0
	st.d	$a0, $s6, 8
	alsl.d	$fp, $s2, $s7, 4
	st.d	$fp, $s6, 16
	b	.LBB4_13
.LBB4_33:                               # %._crit_edge
	ld.d	$a1, $sp, 128                   # 8-byte Folded Reload
	ld.d	$a0, $sp, 80                    # 8-byte Folded Reload
	mul.w	$fp, $a0, $a1
	bltz	$fp, .LBB4_377
# %bb.34:
	ld.d	$a1, $sp, 120                   # 8-byte Folded Reload
	ld.d	$a0, $a1, 16
	ld.d	$s0, $a1, 0
	sub.d	$s7, $a0, $s0
	srai.d	$a0, $s7, 2
	slli.d	$s6, $fp, 2
	ld.d	$s1, $sp, 136                   # 8-byte Folded Reload
	bgeu	$a0, $fp, .LBB4_40
# %bb.35:                               # %_ZNSt12_Vector_baseIiSaIiEE11_M_allocateEm.exit.i
	ld.d	$a0, $sp, 120                   # 8-byte Folded Reload
	ld.d	$a0, $a0, 8
	sub.d	$s8, $a0, $s0
	move	$a0, $s6
	pcaddu18i	$ra, %call36(_Znwm)
	jirl	$ra, $ra, 0
	move	$s2, $a0
	blez	$s8, .LBB4_37
# %bb.36:
	move	$a0, $s2
	move	$a1, $s0
	move	$a2, $s8
	pcaddu18i	$ra, %call36(memcpy)
	jirl	$ra, $ra, 0
.LBB4_37:                               # %_ZNSt6vectorIiSaIiEE11_S_relocateEPiS2_S2_RS0_.exit.i
	beqz	$s0, .LBB4_39
# %bb.38:
	move	$a0, $s0
	move	$a1, $s7
	pcaddu18i	$ra, %call36(_ZdlPvm)
	jirl	$ra, $ra, 0
.LBB4_39:                               # %_ZNSt12_Vector_baseIiSaIiEE13_M_deallocateEPim.exit.i
	ld.d	$a1, $sp, 120                   # 8-byte Folded Reload
	st.d	$s2, $a1, 0
	add.d	$a0, $s2, $s8
	st.d	$a0, $a1, 8
	alsl.d	$a0, $fp, $s2, 2
	st.d	$a0, $a1, 16
.LBB4_40:                               # %_ZNSt6vectorIiSaIiEE7reserveEm.exit
	ld.d	$a1, $sp, 88                    # 8-byte Folded Reload
	ld.d	$a0, $a1, 16
	ld.d	$s0, $a1, 0
	sub.d	$s7, $a0, $s0
	srai.d	$a0, $s7, 2
	bgeu	$a0, $fp, .LBB4_46
# %bb.41:                               # %_ZNSt12_Vector_baseIiSaIiEE11_M_allocateEm.exit.i160
	ld.d	$a0, $sp, 88                    # 8-byte Folded Reload
	ld.d	$a0, $a0, 8
	sub.d	$s8, $a0, $s0
	move	$a0, $s6
	pcaddu18i	$ra, %call36(_Znwm)
	jirl	$ra, $ra, 0
	move	$s2, $a0
	blez	$s8, .LBB4_43
# %bb.42:
	move	$a0, $s2
	move	$a1, $s0
	move	$a2, $s8
	pcaddu18i	$ra, %call36(memcpy)
	jirl	$ra, $ra, 0
.LBB4_43:                               # %_ZNSt6vectorIiSaIiEE11_S_relocateEPiS2_S2_RS0_.exit.i161
	beqz	$s0, .LBB4_45
# %bb.44:
	move	$a0, $s0
	move	$a1, $s7
	pcaddu18i	$ra, %call36(_ZdlPvm)
	jirl	$ra, $ra, 0
.LBB4_45:                               # %_ZNSt12_Vector_baseIiSaIiEE13_M_deallocateEPim.exit.i163
	ld.d	$a1, $sp, 88                    # 8-byte Folded Reload
	st.d	$s2, $a1, 0
	add.d	$a0, $s2, $s8
	st.d	$a0, $a1, 8
	alsl.d	$a0, $fp, $s2, 2
	st.d	$a0, $a1, 16
.LBB4_46:                               # %_ZNSt6vectorIiSaIiEE7reserveEm.exit164
	ld.d	$a0, $s3, 16
	ld.d	$s0, $s3, 0
	addi.w	$fp, $s6, 0
	sub.d	$s6, $a0, $s0
	srai.d	$a0, $s6, 2
	bgeu	$a0, $fp, .LBB4_52
# %bb.47:                               # %_ZNSt12_Vector_baseIiSaIiEE11_M_allocateEm.exit.i165
	ld.d	$a0, $s3, 8
	sub.d	$s7, $a0, $s0
	slli.d	$a0, $fp, 2
	pcaddu18i	$ra, %call36(_Znwm)
	jirl	$ra, $ra, 0
	move	$s2, $a0
	blez	$s7, .LBB4_49
# %bb.48:
	move	$a0, $s2
	move	$a1, $s0
	move	$a2, $s7
	pcaddu18i	$ra, %call36(memcpy)
	jirl	$ra, $ra, 0
.LBB4_49:                               # %_ZNSt6vectorIiSaIiEE11_S_relocateEPiS2_S2_RS0_.exit.i166
	beqz	$s0, .LBB4_51
# %bb.50:
	move	$a0, $s0
	move	$a1, $s6
	pcaddu18i	$ra, %call36(_ZdlPvm)
	jirl	$ra, $ra, 0
.LBB4_51:                               # %_ZNSt12_Vector_baseIiSaIiEE13_M_deallocateEPim.exit.i168
	st.d	$s2, $s3, 0
	add.d	$a0, $s2, $s7
	st.d	$a0, $s3, 8
	alsl.d	$a0, $fp, $s2, 2
	st.d	$a0, $s3, 16
.LBB4_52:                               # %_ZNSt6vectorIiSaIiEE7reserveEm.exit169
	ld.w	$a1, $s1, 76
	ld.d	$a5, $sp, 120                   # 8-byte Folded Reload
	blez	$a1, .LBB4_116
# %bb.53:                               # %.preheader509.lr.ph
	ld.w	$a0, $s1, 72
	blez	$a0, .LBB4_116
# %bb.54:                               # %.preheader509.preheader
	move	$s5, $zero
	addi.w	$a2, $zero, -4
	lu52i.d	$a2, $a2, 2047
	st.d	$a2, $sp, 112                   # 8-byte Folded Spill
	addi.w	$a2, $zero, -1
	lu52i.d	$fp, $a2, 511
	b	.LBB4_57
	.p2align	4, , 16
.LBB4_55:                               # %._crit_edge518.loopexit
                                        #   in Loop: Header=BB4_57 Depth=1
	ld.w	$a1, $s1, 76
.LBB4_56:                               # %._crit_edge518
                                        #   in Loop: Header=BB4_57 Depth=1
	addi.w	$a2, $s5, 1
	move	$s5, $a2
	bge	$a2, $a1, .LBB4_116
.LBB4_57:                               # %.preheader509
                                        # =>This Loop Header: Depth=1
                                        #     Child Loop BB4_60 Depth 2
	blez	$a0, .LBB4_56
# %bb.58:                               # %.lr.ph517
                                        #   in Loop: Header=BB4_57 Depth=1
	ld.d	$a1, $s3, 8
	move	$s2, $zero
	ld.d	$a0, $sp, 104                   # 8-byte Folded Reload
	mul.d	$a0, $s5, $a0
	st.d	$a0, $sp, 96                    # 8-byte Folded Spill
	b	.LBB4_60
	.p2align	4, , 16
.LBB4_59:                               #   in Loop: Header=BB4_60 Depth=2
	st.w	$s8, $a1, 0
	addi.d	$a1, $a1, 4
	st.d	$a1, $s3, 8
	ld.w	$a0, $s1, 72
	addi.w	$s2, $s2, 1
	bge	$s2, $a0, .LBB4_55
.LBB4_60:                               #   Parent Loop BB4_57 Depth=1
                                        # =>  This Inner Loop Header: Depth=2
	ld.d	$a2, $s3, 0
	ld.d	$a0, $a5, 8
	ld.d	$a3, $a5, 16
	sub.d	$a1, $a1, $a2
	srli.d	$s8, $a1, 2
	beq	$a0, $a3, .LBB4_62
# %bb.61:                               #   in Loop: Header=BB4_60 Depth=2
	st.w	$s8, $a0, 0
	addi.d	$a0, $a0, 4
	st.d	$a0, $a5, 8
	b	.LBB4_68
	.p2align	4, , 16
.LBB4_62:                               #   in Loop: Header=BB4_60 Depth=2
	ld.d	$s6, $a5, 0
	sub.d	$s0, $a0, $s6
	ld.d	$a0, $sp, 112                   # 8-byte Folded Reload
	beq	$s0, $a0, .LBB4_376
# %bb.63:                               # %_ZNSt12_Vector_baseIiSaIiEE11_M_allocateEm.exit.i.i.i
                                        #   in Loop: Header=BB4_60 Depth=2
	srai.d	$a0, $s0, 2
	ori	$a2, $zero, 1
	sltu	$a1, $a2, $a0
	masknez	$a2, $a2, $a1
	maskeqz	$a1, $a0, $a1
	or	$a1, $a1, $a2
	add.d	$a0, $a1, $a0
	sltu	$a1, $a0, $a1
	sltu	$a2, $a0, $fp
	maskeqz	$a0, $a0, $a2
	masknez	$a2, $fp, $a2
	or	$a0, $a0, $a2
	masknez	$a0, $a0, $a1
	maskeqz	$a1, $fp, $a1
	or	$s4, $a1, $a0
	slli.d	$a0, $s4, 2
	pcaddu18i	$ra, %call36(_Znwm)
	jirl	$ra, $ra, 0
	move	$s7, $a0
	stx.w	$s8, $a0, $s0
	blez	$s0, .LBB4_65
# %bb.64:                               #   in Loop: Header=BB4_60 Depth=2
	move	$a0, $s7
	move	$a1, $s6
	move	$a2, $s0
	pcaddu18i	$ra, %call36(memcpy)
	jirl	$ra, $ra, 0
.LBB4_65:                               # %_ZNSt6vectorIiSaIiEE11_S_relocateEPiS2_S2_RS0_.exit.i.i.i
                                        #   in Loop: Header=BB4_60 Depth=2
	beqz	$s6, .LBB4_67
# %bb.66:                               #   in Loop: Header=BB4_60 Depth=2
	move	$a0, $s6
	move	$a1, $s0
	pcaddu18i	$ra, %call36(_ZdlPvm)
	jirl	$ra, $ra, 0
.LBB4_67:                               # %_ZNSt6vectorIiSaIiEE17_M_realloc_appendIJiEEEvDpOT_.exit.i.i
                                        #   in Loop: Header=BB4_60 Depth=2
	add.d	$a0, $s7, $s0
	addi.d	$a0, $a0, 4
	ld.d	$a5, $sp, 120                   # 8-byte Folded Reload
	st.d	$s7, $a5, 0
	st.d	$a0, $a5, 8
	alsl.d	$a0, $s4, $s7, 2
	st.d	$a0, $a5, 16
.LBB4_68:                               # %_ZNSt6vectorIiSaIiEE9push_backEOi.exit
                                        #   in Loop: Header=BB4_60 Depth=2
	ld.w	$a0, $s1, 68
	ld.d	$a1, $sp, 96                    # 8-byte Folded Reload
	add.d	$a2, $s2, $a1
	sltui	$a3, $a0, 1
	ld.w	$a4, $s1, 84
	ld.d	$s1, $sp, 88                    # 8-byte Folded Reload
	ld.d	$a0, $s1, 8
	ld.d	$a1, $s1, 16
	ld.d	$a6, $sp, 128                   # 8-byte Folded Reload
	maskeqz	$a3, $a6, $a3
	sub.w	$a4, $zero, $a4
	sub.d	$s8, $a2, $a3
	bne	$s5, $a4, .LBB4_72
# %bb.69:                               #   in Loop: Header=BB4_60 Depth=2
	beq	$a0, $a1, .LBB4_78
# %bb.70:                               #   in Loop: Header=BB4_60 Depth=2
	ori	$a1, $zero, 3
	st.w	$a1, $a0, 0
	addi.d	$a0, $a0, 4
	st.d	$a0, $s1, 8
	ld.d	$a1, $s3, 8
	ld.d	$a0, $s3, 16
	beq	$a1, $a0, .LBB4_84
.LBB4_71:                               #   in Loop: Header=BB4_60 Depth=2
	st.w	$zero, $a1, 0
	b	.LBB4_76
	.p2align	4, , 16
.LBB4_72:                               #   in Loop: Header=BB4_60 Depth=2
	beq	$a0, $a1, .LBB4_102
# %bb.73:                               #   in Loop: Header=BB4_60 Depth=2
	ori	$a1, $zero, 4
	st.w	$a1, $a0, 0
	addi.d	$a0, $a0, 4
	st.d	$a0, $s1, 8
	ld.d	$a1, $s3, 8
	ld.d	$a0, $s3, 16
	beq	$a1, $a0, .LBB4_108
.LBB4_74:                               #   in Loop: Header=BB4_60 Depth=2
	st.w	$s8, $a1, 0
	addi.d	$a1, $a1, 4
	st.d	$a1, $s3, 8
	addi.d	$s1, $s8, 1
	beq	$a1, $a0, .LBB4_114
.LBB4_75:                               #   in Loop: Header=BB4_60 Depth=2
	st.w	$s1, $a1, 0
.LBB4_76:                               # %_ZNSt6vectorIiSaIiEE9push_backEOi.exit185
                                        #   in Loop: Header=BB4_60 Depth=2
	addi.d	$a1, $a1, 4
	st.d	$a1, $s3, 8
	ld.d	$a2, $sp, 104                   # 8-byte Folded Reload
	add.d	$s8, $s8, $a2
	addi.d	$s1, $s8, 1
	beq	$a1, $a0, .LBB4_90
.LBB4_77:                               #   in Loop: Header=BB4_60 Depth=2
	st.w	$s1, $a1, 0
	addi.d	$a1, $a1, 4
	st.d	$a1, $s3, 8
	ld.d	$s1, $sp, 136                   # 8-byte Folded Reload
	bne	$a1, $a0, .LBB4_59
	b	.LBB4_96
.LBB4_78:                               #   in Loop: Header=BB4_60 Depth=2
	ld.d	$s6, $s1, 0
	sub.d	$s0, $a0, $s6
	ld.d	$a0, $sp, 112                   # 8-byte Folded Reload
	beq	$s0, $a0, .LBB4_376
# %bb.79:                               # %_ZNSt12_Vector_baseIiSaIiEE11_M_allocateEm.exit.i.i.i173
                                        #   in Loop: Header=BB4_60 Depth=2
	srai.d	$a0, $s0, 2
	ori	$a2, $zero, 1
	sltu	$a1, $a2, $a0
	masknez	$a2, $a2, $a1
	maskeqz	$a1, $a0, $a1
	or	$a1, $a1, $a2
	add.d	$a0, $a1, $a0
	sltu	$a1, $a0, $a1
	sltu	$a2, $a0, $fp
	maskeqz	$a0, $a0, $a2
	masknez	$a2, $fp, $a2
	or	$a0, $a0, $a2
	masknez	$a0, $a0, $a1
	maskeqz	$a1, $fp, $a1
	or	$s4, $a1, $a0
	slli.d	$a0, $s4, 2
	pcaddu18i	$ra, %call36(_Znwm)
	jirl	$ra, $ra, 0
	move	$s7, $a0
	ori	$a0, $zero, 3
	stx.w	$a0, $s7, $s0
	blez	$s0, .LBB4_81
# %bb.80:                               #   in Loop: Header=BB4_60 Depth=2
	move	$a0, $s7
	move	$a1, $s6
	move	$a2, $s0
	pcaddu18i	$ra, %call36(memcpy)
	jirl	$ra, $ra, 0
.LBB4_81:                               # %_ZNSt6vectorIiSaIiEE11_S_relocateEPiS2_S2_RS0_.exit.i.i.i175
                                        #   in Loop: Header=BB4_60 Depth=2
	beqz	$s6, .LBB4_83
# %bb.82:                               #   in Loop: Header=BB4_60 Depth=2
	move	$a0, $s6
	move	$a1, $s0
	pcaddu18i	$ra, %call36(_ZdlPvm)
	jirl	$ra, $ra, 0
.LBB4_83:                               # %_ZNSt6vectorIiSaIiEE17_M_realloc_appendIJiEEEvDpOT_.exit.i.i177
                                        #   in Loop: Header=BB4_60 Depth=2
	add.d	$a0, $s7, $s0
	addi.d	$a0, $a0, 4
	st.d	$s7, $s1, 0
	st.d	$a0, $s1, 8
	alsl.d	$a0, $s4, $s7, 2
	st.d	$a0, $s1, 16
	ld.d	$a5, $sp, 120                   # 8-byte Folded Reload
	ld.d	$a1, $s3, 8
	ld.d	$a0, $s3, 16
	bne	$a1, $a0, .LBB4_71
.LBB4_84:                               #   in Loop: Header=BB4_60 Depth=2
	ld.d	$s6, $s3, 0
	sub.d	$s0, $a1, $s6
	ld.d	$a0, $sp, 112                   # 8-byte Folded Reload
	beq	$s0, $a0, .LBB4_376
# %bb.85:                               # %_ZNSt12_Vector_baseIiSaIiEE11_M_allocateEm.exit.i.i.i180
                                        #   in Loop: Header=BB4_60 Depth=2
	srai.d	$a0, $s0, 2
	ori	$a2, $zero, 1
	sltu	$a1, $a2, $a0
	masknez	$a2, $a2, $a1
	maskeqz	$a1, $a0, $a1
	or	$a1, $a1, $a2
	add.d	$a0, $a1, $a0
	sltu	$a1, $a0, $a1
	sltu	$a2, $a0, $fp
	maskeqz	$a0, $a0, $a2
	masknez	$a2, $fp, $a2
	or	$a0, $a0, $a2
	masknez	$a0, $a0, $a1
	maskeqz	$a1, $fp, $a1
	or	$s4, $a1, $a0
	slli.d	$a0, $s4, 2
	pcaddu18i	$ra, %call36(_Znwm)
	jirl	$ra, $ra, 0
	move	$s7, $a0
	stx.w	$zero, $a0, $s0
	blez	$s0, .LBB4_87
.LBB4_86:                               #   in Loop: Header=BB4_60 Depth=2
	move	$a0, $s7
	move	$a1, $s6
	move	$a2, $s0
	pcaddu18i	$ra, %call36(memcpy)
	jirl	$ra, $ra, 0
.LBB4_87:                               # %_ZNSt6vectorIiSaIiEE11_S_relocateEPiS2_S2_RS0_.exit.i.i.i182
                                        #   in Loop: Header=BB4_60 Depth=2
	beqz	$s6, .LBB4_89
# %bb.88:                               #   in Loop: Header=BB4_60 Depth=2
	move	$a0, $s6
	move	$a1, $s0
	pcaddu18i	$ra, %call36(_ZdlPvm)
	jirl	$ra, $ra, 0
.LBB4_89:                               # %_ZNSt6vectorIiSaIiEE17_M_realloc_appendIJiEEEvDpOT_.exit.i.i198
                                        #   in Loop: Header=BB4_60 Depth=2
	add.d	$a0, $s7, $s0
	addi.d	$a1, $a0, 4
	st.d	$s7, $s3, 0
	st.d	$a1, $s3, 8
	alsl.d	$a0, $s4, $s7, 2
	st.d	$a0, $s3, 16
	ld.d	$a5, $sp, 120                   # 8-byte Folded Reload
	ld.d	$a2, $sp, 104                   # 8-byte Folded Reload
	add.d	$s8, $s8, $a2
	addi.d	$s1, $s8, 1
	bne	$a1, $a0, .LBB4_77
.LBB4_90:                               #   in Loop: Header=BB4_60 Depth=2
	ld.d	$s6, $s3, 0
	sub.d	$s0, $a0, $s6
	ld.d	$a0, $sp, 112                   # 8-byte Folded Reload
	beq	$s0, $a0, .LBB4_376
# %bb.91:                               # %_ZNSt12_Vector_baseIiSaIiEE11_M_allocateEm.exit.i.i.i201
                                        #   in Loop: Header=BB4_60 Depth=2
	srai.d	$a0, $s0, 2
	ori	$a2, $zero, 1
	sltu	$a1, $a2, $a0
	masknez	$a2, $a2, $a1
	maskeqz	$a1, $a0, $a1
	or	$a1, $a1, $a2
	add.d	$a0, $a1, $a0
	sltu	$a1, $a0, $a1
	sltu	$a2, $a0, $fp
	maskeqz	$a0, $a0, $a2
	masknez	$a2, $fp, $a2
	or	$a0, $a0, $a2
	masknez	$a0, $a0, $a1
	maskeqz	$a1, $fp, $a1
	or	$s4, $a1, $a0
	slli.d	$a0, $s4, 2
	pcaddu18i	$ra, %call36(_Znwm)
	jirl	$ra, $ra, 0
	move	$s7, $a0
	stx.w	$s1, $a0, $s0
	blez	$s0, .LBB4_93
# %bb.92:                               #   in Loop: Header=BB4_60 Depth=2
	move	$a0, $s7
	move	$a1, $s6
	move	$a2, $s0
	pcaddu18i	$ra, %call36(memcpy)
	jirl	$ra, $ra, 0
.LBB4_93:                               # %_ZNSt6vectorIiSaIiEE11_S_relocateEPiS2_S2_RS0_.exit.i.i.i203
                                        #   in Loop: Header=BB4_60 Depth=2
	ld.d	$s1, $sp, 136                   # 8-byte Folded Reload
	beqz	$s6, .LBB4_95
# %bb.94:                               #   in Loop: Header=BB4_60 Depth=2
	move	$a0, $s6
	move	$a1, $s0
	pcaddu18i	$ra, %call36(_ZdlPvm)
	jirl	$ra, $ra, 0
.LBB4_95:                               # %_ZNSt6vectorIiSaIiEE17_M_realloc_appendIJiEEEvDpOT_.exit.i.i205
                                        #   in Loop: Header=BB4_60 Depth=2
	add.d	$a0, $s7, $s0
	addi.d	$a1, $a0, 4
	st.d	$s7, $s3, 0
	st.d	$a1, $s3, 8
	alsl.d	$a0, $s4, $s7, 2
	st.d	$a0, $s3, 16
	ld.d	$a5, $sp, 120                   # 8-byte Folded Reload
	bne	$a1, $a0, .LBB4_59
.LBB4_96:                               #   in Loop: Header=BB4_60 Depth=2
	ld.d	$s6, $s3, 0
	sub.d	$s0, $a0, $s6
	ld.d	$a0, $sp, 112                   # 8-byte Folded Reload
	beq	$s0, $a0, .LBB4_376
# %bb.97:                               # %_ZNSt12_Vector_baseIiSaIiEE11_M_allocateEm.exit.i.i.i208
                                        #   in Loop: Header=BB4_60 Depth=2
	srai.d	$a0, $s0, 2
	ori	$a2, $zero, 1
	sltu	$a1, $a2, $a0
	masknez	$a2, $a2, $a1
	maskeqz	$a1, $a0, $a1
	or	$a1, $a1, $a2
	add.d	$a0, $a1, $a0
	sltu	$a1, $a0, $a1
	sltu	$a2, $a0, $fp
	maskeqz	$a0, $a0, $a2
	masknez	$a2, $fp, $a2
	or	$a0, $a0, $a2
	masknez	$a0, $a0, $a1
	maskeqz	$a1, $fp, $a1
	or	$s4, $a1, $a0
	slli.d	$a0, $s4, 2
	pcaddu18i	$ra, %call36(_Znwm)
	jirl	$ra, $ra, 0
	move	$s7, $a0
	stx.w	$s8, $a0, $s0
	blez	$s0, .LBB4_99
# %bb.98:                               #   in Loop: Header=BB4_60 Depth=2
	move	$a0, $s7
	move	$a1, $s6
	move	$a2, $s0
	pcaddu18i	$ra, %call36(memcpy)
	jirl	$ra, $ra, 0
.LBB4_99:                               # %_ZNSt6vectorIiSaIiEE11_S_relocateEPiS2_S2_RS0_.exit.i.i.i210
                                        #   in Loop: Header=BB4_60 Depth=2
	beqz	$s6, .LBB4_101
# %bb.100:                              #   in Loop: Header=BB4_60 Depth=2
	move	$a0, $s6
	move	$a1, $s0
	pcaddu18i	$ra, %call36(_ZdlPvm)
	jirl	$ra, $ra, 0
.LBB4_101:                              # %_ZNSt6vectorIiSaIiEE17_M_realloc_appendIJiEEEvDpOT_.exit.i.i212
                                        #   in Loop: Header=BB4_60 Depth=2
	add.d	$a0, $s7, $s0
	addi.d	$a1, $a0, 4
	st.d	$s7, $s3, 0
	st.d	$a1, $s3, 8
	alsl.d	$a0, $s4, $s7, 2
	st.d	$a0, $s3, 16
	ld.d	$a5, $sp, 120                   # 8-byte Folded Reload
	ld.w	$a0, $s1, 72
	addi.w	$s2, $s2, 1
	blt	$s2, $a0, .LBB4_60
	b	.LBB4_55
.LBB4_102:                              #   in Loop: Header=BB4_60 Depth=2
	ld.d	$s6, $s1, 0
	sub.d	$s0, $a0, $s6
	ld.d	$a0, $sp, 112                   # 8-byte Folded Reload
	beq	$s0, $a0, .LBB4_376
# %bb.103:                              # %_ZNSt12_Vector_baseIiSaIiEE11_M_allocateEm.exit.i.i.i187
                                        #   in Loop: Header=BB4_60 Depth=2
	srai.d	$a0, $s0, 2
	ori	$a2, $zero, 1
	sltu	$a1, $a2, $a0
	masknez	$a2, $a2, $a1
	maskeqz	$a1, $a0, $a1
	or	$a1, $a1, $a2
	add.d	$a0, $a1, $a0
	sltu	$a1, $a0, $a1
	sltu	$a2, $a0, $fp
	maskeqz	$a0, $a0, $a2
	masknez	$a2, $fp, $a2
	or	$a0, $a0, $a2
	masknez	$a0, $a0, $a1
	maskeqz	$a1, $fp, $a1
	or	$s4, $a1, $a0
	slli.d	$a0, $s4, 2
	pcaddu18i	$ra, %call36(_Znwm)
	jirl	$ra, $ra, 0
	move	$s7, $a0
	ori	$a0, $zero, 4
	stx.w	$a0, $s7, $s0
	blez	$s0, .LBB4_105
# %bb.104:                              #   in Loop: Header=BB4_60 Depth=2
	move	$a0, $s7
	move	$a1, $s6
	move	$a2, $s0
	pcaddu18i	$ra, %call36(memcpy)
	jirl	$ra, $ra, 0
.LBB4_105:                              # %_ZNSt6vectorIiSaIiEE11_S_relocateEPiS2_S2_RS0_.exit.i.i.i189
                                        #   in Loop: Header=BB4_60 Depth=2
	beqz	$s6, .LBB4_107
# %bb.106:                              #   in Loop: Header=BB4_60 Depth=2
	move	$a0, $s6
	move	$a1, $s0
	pcaddu18i	$ra, %call36(_ZdlPvm)
	jirl	$ra, $ra, 0
.LBB4_107:                              # %_ZNSt6vectorIiSaIiEE17_M_realloc_appendIJiEEEvDpOT_.exit.i.i191
                                        #   in Loop: Header=BB4_60 Depth=2
	add.d	$a0, $s7, $s0
	addi.d	$a0, $a0, 4
	st.d	$s7, $s1, 0
	st.d	$a0, $s1, 8
	alsl.d	$a0, $s4, $s7, 2
	st.d	$a0, $s1, 16
	ld.d	$a5, $sp, 120                   # 8-byte Folded Reload
	ld.d	$a1, $s3, 8
	ld.d	$a0, $s3, 16
	bne	$a1, $a0, .LBB4_74
.LBB4_108:                              #   in Loop: Header=BB4_60 Depth=2
	ld.d	$s6, $s3, 0
	sub.d	$s0, $a1, $s6
	ld.d	$a0, $sp, 112                   # 8-byte Folded Reload
	beq	$s0, $a0, .LBB4_376
# %bb.109:                              # %_ZNSt12_Vector_baseIiSaIiEE11_M_allocateEm.exit.i.i
                                        #   in Loop: Header=BB4_60 Depth=2
	srai.d	$a0, $s0, 2
	ori	$a2, $zero, 1
	sltu	$a1, $a2, $a0
	masknez	$a2, $a2, $a1
	maskeqz	$a1, $a0, $a1
	or	$a1, $a1, $a2
	add.d	$a0, $a1, $a0
	sltu	$a1, $a0, $a1
	sltu	$a2, $a0, $fp
	maskeqz	$a0, $a0, $a2
	masknez	$a2, $fp, $a2
	or	$a0, $a0, $a2
	masknez	$a0, $a0, $a1
	maskeqz	$a1, $fp, $a1
	or	$s4, $a1, $a0
	slli.d	$a0, $s4, 2
	pcaddu18i	$ra, %call36(_Znwm)
	jirl	$ra, $ra, 0
	move	$s7, $a0
	stx.w	$s8, $a0, $s0
	blez	$s0, .LBB4_111
# %bb.110:                              #   in Loop: Header=BB4_60 Depth=2
	move	$a0, $s7
	move	$a1, $s6
	move	$a2, $s0
	pcaddu18i	$ra, %call36(memcpy)
	jirl	$ra, $ra, 0
.LBB4_111:                              # %_ZNSt6vectorIiSaIiEE11_S_relocateEPiS2_S2_RS0_.exit.i.i
                                        #   in Loop: Header=BB4_60 Depth=2
	beqz	$s6, .LBB4_113
# %bb.112:                              #   in Loop: Header=BB4_60 Depth=2
	move	$a0, $s6
	move	$a1, $s0
	pcaddu18i	$ra, %call36(_ZdlPvm)
	jirl	$ra, $ra, 0
.LBB4_113:                              # %_ZNSt6vectorIiSaIiEE17_M_realloc_appendIJRKiEEEvDpOT_.exit.i
                                        #   in Loop: Header=BB4_60 Depth=2
	add.d	$a0, $s7, $s0
	addi.d	$a1, $a0, 4
	st.d	$s7, $s3, 0
	st.d	$a1, $s3, 8
	alsl.d	$a0, $s4, $s7, 2
	st.d	$a0, $s3, 16
	ld.d	$a5, $sp, 120                   # 8-byte Folded Reload
	addi.d	$s1, $s8, 1
	bne	$a1, $a0, .LBB4_75
.LBB4_114:                              #   in Loop: Header=BB4_60 Depth=2
	ld.d	$s6, $s3, 0
	sub.d	$s0, $a0, $s6
	ld.d	$a0, $sp, 112                   # 8-byte Folded Reload
	beq	$s0, $a0, .LBB4_376
# %bb.115:                              # %_ZNSt12_Vector_baseIiSaIiEE11_M_allocateEm.exit.i.i.i194
                                        #   in Loop: Header=BB4_60 Depth=2
	srai.d	$a0, $s0, 2
	ori	$a2, $zero, 1
	sltu	$a1, $a2, $a0
	masknez	$a2, $a2, $a1
	maskeqz	$a1, $a0, $a1
	or	$a1, $a1, $a2
	add.d	$a0, $a1, $a0
	sltu	$a1, $a0, $a1
	sltu	$a2, $a0, $fp
	maskeqz	$a0, $a0, $a2
	masknez	$a2, $fp, $a2
	or	$a0, $a0, $a2
	masknez	$a0, $a0, $a1
	maskeqz	$a1, $fp, $a1
	or	$s4, $a1, $a0
	slli.d	$a0, $s4, 2
	pcaddu18i	$ra, %call36(_Znwm)
	jirl	$ra, $ra, 0
	move	$s7, $a0
	stx.w	$s1, $a0, $s0
	bgtz	$s0, .LBB4_86
	b	.LBB4_87
.LBB4_116:                              # %._crit_edge520
	pcalau12i	$a0, %got_pc_hi20(_ZN8Parallel5numpeE)
	ld.d	$a0, $a0, %got_pc_lo12(_ZN8Parallel5numpeE)
	ld.w	$a0, $a0, 0
	ori	$a1, $zero, 1
	beq	$a0, $a1, .LBB4_369
# %bb.117:
	move	$a0, $s1
	ld.w	$s1, $s1, 68
	ld.w	$fp, $a0, 64
	sltui	$a0, $s1, 1
	ld.d	$a1, $sp, 104                   # 8-byte Folded Reload
	masknez	$a0, $a1, $a0
	sltui	$a1, $fp, 1
	ld.d	$a3, $sp, 32                    # 8-byte Folded Reload
	masknez	$a1, $a3, $a1
	add.w	$s2, $a1, $a0
	bltz	$s2, .LBB4_377
# %bb.118:
	ld.d	$a1, $sp, 56                    # 8-byte Folded Reload
	ld.d	$a0, $a1, 16
	ld.d	$s4, $a1, 0
	sub.d	$s5, $a0, $s4
	srai.d	$a0, $s5, 2
	bgeu	$a0, $s2, .LBB4_124
# %bb.119:                              # %_ZNSt12_Vector_baseIiSaIiEE11_M_allocateEm.exit.i214
	ld.d	$a0, $a1, 8
	sub.d	$s0, $a0, $s4
	slli.d	$a0, $s2, 2
	pcaddu18i	$ra, %call36(_Znwm)
	jirl	$ra, $ra, 0
	move	$s3, $a0
	blez	$s0, .LBB4_121
# %bb.120:
	move	$a0, $s3
	move	$a1, $s4
	move	$a2, $s0
	pcaddu18i	$ra, %call36(memcpy)
	jirl	$ra, $ra, 0
.LBB4_121:                              # %_ZNSt6vectorIiSaIiEE11_S_relocateEPiS2_S2_RS0_.exit.i215
	beqz	$s4, .LBB4_123
# %bb.122:
	move	$a0, $s4
	move	$a1, $s5
	pcaddu18i	$ra, %call36(_ZdlPvm)
	jirl	$ra, $ra, 0
	ld.d	$a0, $sp, 136                   # 8-byte Folded Reload
	ld.w	$s1, $a0, 68
	ld.w	$fp, $a0, 64
.LBB4_123:                              # %_ZNSt12_Vector_baseIiSaIiEE13_M_deallocateEPim.exit.i217
	ld.d	$a1, $sp, 56                    # 8-byte Folded Reload
	st.d	$s3, $a1, 0
	add.d	$a0, $s3, $s0
	st.d	$a0, $a1, 8
	alsl.d	$a0, $s2, $s3, 2
	st.d	$a0, $a1, 16
	ld.d	$a3, $sp, 32                    # 8-byte Folded Reload
.LBB4_124:                              # %_ZNSt6vectorIiSaIiEE7reserveEm.exit218
	ld.d	$a1, $sp, 136                   # 8-byte Folded Reload
	ld.w	$a0, $a1, 60
	addi.w	$a0, $a0, -1
	ld.w	$a1, $a1, 56
	xor	$a0, $s1, $a0
	sltui	$a0, $a0, 1
	ld.d	$a2, $sp, 104                   # 8-byte Folded Reload
	masknez	$a0, $a2, $a0
	addi.w	$a1, $a1, -1
	xor	$a1, $fp, $a1
	sltui	$a1, $a1, 1
	masknez	$a1, $a3, $a1
	add.w	$a0, $a1, $a0
	addi.w	$a1, $zero, -2
	bge	$a1, $a0, .LBB4_377
# %bb.125:
	ld.d	$s6, $sp, 288
	ld.d	$a1, $s6, 16
	ld.d	$s3, $s6, 0
	addi.w	$s2, $a0, 1
	sub.d	$s4, $a1, $s3
	srai.d	$a0, $s4, 2
	bgeu	$a0, $s2, .LBB4_131
# %bb.126:                              # %_ZNSt12_Vector_baseIiSaIiEE11_M_allocateEm.exit.i219
	ld.d	$a0, $s6, 8
	sub.d	$s0, $a0, $s3
	slli.d	$a0, $s2, 2
	pcaddu18i	$ra, %call36(_Znwm)
	jirl	$ra, $ra, 0
	move	$s5, $a0
	blez	$s0, .LBB4_128
# %bb.127:
	move	$a0, $s5
	move	$a1, $s3
	move	$a2, $s0
	pcaddu18i	$ra, %call36(memcpy)
	jirl	$ra, $ra, 0
.LBB4_128:                              # %_ZNSt6vectorIiSaIiEE11_S_relocateEPiS2_S2_RS0_.exit.i220
	ld.d	$s1, $sp, 136                   # 8-byte Folded Reload
	beqz	$s3, .LBB4_130
# %bb.129:
	move	$a0, $s3
	move	$a1, $s4
	pcaddu18i	$ra, %call36(_ZdlPvm)
	jirl	$ra, $ra, 0
	ld.w	$fp, $s1, 64
.LBB4_130:                              # %_ZNSt12_Vector_baseIiSaIiEE13_M_deallocateEPim.exit.i222
	st.d	$s5, $s6, 0
	add.d	$a0, $s5, $s0
	st.d	$a0, $s6, 8
	alsl.d	$a0, $s2, $s5, 2
	st.d	$a0, $s6, 16
	ld.w	$s1, $s1, 68
.LBB4_131:                              # %_ZNSt6vectorIiSaIiEE7reserveEm.exit223
	ld.d	$s5, $sp, 128                   # 8-byte Folded Reload
	beqz	$fp, .LBB4_158
# %bb.132:                              # %_ZNSt6vectorIiSaIiEE7reserveEm.exit223
	beqz	$s1, .LBB4_158
# %bb.133:
	pcalau12i	$a0, %got_pc_hi20(_ZN8Parallel4mypeE)
	ld.d	$a0, $a0, %got_pc_lo12(_ZN8Parallel4mypeE)
	ld.w	$fp, $a0, 0
	ld.d	$a3, $sp, 56                    # 8-byte Folded Reload
	ld.d	$a0, $a3, 8
	ld.d	$a1, $a3, 16
	ld.d	$a2, $sp, 136                   # 8-byte Folded Reload
	ld.w	$s1, $a2, 56
	beq	$a0, $a1, .LBB4_135
# %bb.134:
	st.w	$zero, $a0, 0
	addi.d	$a0, $a0, 4
	st.d	$a0, $a3, 8
	b	.LBB4_141
.LBB4_135:
	ld.d	$s0, $a3, 0
	sub.d	$s3, $a0, $s0
	addi.w	$a0, $zero, -4
	lu52i.d	$a0, $a0, 2047
	beq	$s3, $a0, .LBB4_376
# %bb.136:                              # %_ZNSt12_Vector_baseIiSaIiEE11_M_allocateEm.exit.i.i.i225
	srai.d	$a0, $s3, 2
	ori	$a1, $zero, 1
	sltu	$a2, $a1, $a0
	masknez	$a1, $a1, $a2
	maskeqz	$a2, $a0, $a2
	or	$a1, $a2, $a1
	add.d	$a0, $a1, $a0
	sltu	$a1, $a0, $a1
	addi.w	$a2, $zero, -1
	lu52i.d	$a2, $a2, 511
	sltu	$a3, $a0, $a2
	maskeqz	$a0, $a0, $a3
	masknez	$a3, $a2, $a3
	or	$a0, $a0, $a3
	masknez	$a0, $a0, $a1
	maskeqz	$a1, $a2, $a1
	or	$s2, $a1, $a0
	slli.d	$a0, $s2, 2
	pcaddu18i	$ra, %call36(_Znwm)
	jirl	$ra, $ra, 0
	move	$s4, $a0
	stx.w	$zero, $a0, $s3
	blez	$s3, .LBB4_138
# %bb.137:
	move	$a0, $s4
	move	$a1, $s0
	move	$a2, $s3
	pcaddu18i	$ra, %call36(memcpy)
	jirl	$ra, $ra, 0
.LBB4_138:                              # %_ZNSt6vectorIiSaIiEE11_S_relocateEPiS2_S2_RS0_.exit.i.i.i227
	add.d	$s5, $s4, $s3
	beqz	$s0, .LBB4_140
# %bb.139:
	move	$a0, $s0
	move	$a1, $s3
	pcaddu18i	$ra, %call36(_ZdlPvm)
	jirl	$ra, $ra, 0
.LBB4_140:                              # %_ZNSt6vectorIiSaIiEE17_M_realloc_appendIJiEEEvDpOT_.exit.i.i229
	addi.d	$a0, $s5, 4
	ld.d	$a1, $sp, 56                    # 8-byte Folded Reload
	st.d	$s4, $a1, 0
	st.d	$a0, $a1, 8
	alsl.d	$a0, $s2, $s4, 2
	st.d	$a0, $a1, 16
	ld.d	$s5, $sp, 128                   # 8-byte Folded Reload
.LBB4_141:                              # %_ZNSt6vectorIiSaIiEE9push_backEOi.exit230
	ld.d	$a3, $sp, 48                    # 8-byte Folded Reload
	ld.d	$a0, $a3, 8
	ld.d	$a1, $a3, 16
	nor	$a2, $s1, $zero
	add.d	$fp, $fp, $a2
	beq	$a0, $a1, .LBB4_143
# %bb.142:
	st.w	$fp, $a0, 0
	addi.d	$a0, $a0, 4
	st.d	$a0, $a3, 8
	b	.LBB4_149
.LBB4_143:
	ld.d	$s0, $a3, 0
	sub.d	$s3, $a0, $s0
	addi.w	$a0, $zero, -4
	lu52i.d	$a0, $a0, 2047
	beq	$s3, $a0, .LBB4_376
# %bb.144:                              # %_ZNSt12_Vector_baseIiSaIiEE11_M_allocateEm.exit.i.i232
	srai.d	$a0, $s3, 2
	ori	$a1, $zero, 1
	sltu	$a2, $a1, $a0
	masknez	$a1, $a1, $a2
	maskeqz	$a2, $a0, $a2
	or	$a1, $a2, $a1
	add.d	$a0, $a1, $a0
	sltu	$a1, $a0, $a1
	addi.w	$a2, $zero, -1
	lu52i.d	$a2, $a2, 511
	sltu	$a3, $a0, $a2
	maskeqz	$a0, $a0, $a3
	masknez	$a3, $a2, $a3
	or	$a0, $a0, $a3
	masknez	$a0, $a0, $a1
	maskeqz	$a1, $a2, $a1
	or	$s1, $a1, $a0
	slli.d	$a0, $s1, 2
	pcaddu18i	$ra, %call36(_Znwm)
	jirl	$ra, $ra, 0
	move	$s4, $a0
	stx.w	$fp, $a0, $s3
	blez	$s3, .LBB4_146
# %bb.145:
	move	$a0, $s4
	move	$a1, $s0
	move	$a2, $s3
	pcaddu18i	$ra, %call36(memcpy)
	jirl	$ra, $ra, 0
.LBB4_146:                              # %_ZNSt6vectorIiSaIiEE11_S_relocateEPiS2_S2_RS0_.exit.i.i234
	add.d	$fp, $s4, $s3
	beqz	$s0, .LBB4_148
# %bb.147:
	move	$a0, $s0
	move	$a1, $s3
	pcaddu18i	$ra, %call36(_ZdlPvm)
	jirl	$ra, $ra, 0
.LBB4_148:                              # %_ZNSt6vectorIiSaIiEE17_M_realloc_appendIJRKiEEEvDpOT_.exit.i236
	addi.d	$a0, $fp, 4
	ld.d	$a1, $sp, 48                    # 8-byte Folded Reload
	st.d	$s4, $a1, 0
	st.d	$a0, $a1, 8
	alsl.d	$a0, $s1, $s4, 2
	st.d	$a0, $a1, 16
.LBB4_149:                              # %_ZNSt6vectorIiSaIiEE9push_backERKi.exit237
	ld.d	$a2, $sp, 136                   # 8-byte Folded Reload
	ld.d	$a3, $sp, 40                    # 8-byte Folded Reload
	ld.d	$a0, $a3, 8
	ld.d	$a1, $a3, 16
	beq	$a0, $a1, .LBB4_151
# %bb.150:
	ori	$a1, $zero, 1
	st.w	$a1, $a0, 0
	addi.d	$a0, $a0, 4
	st.d	$a0, $a3, 8
	b	.LBB4_157
.LBB4_151:
	ld.d	$s0, $a3, 0
	sub.d	$s3, $a0, $s0
	addi.w	$a0, $zero, -4
	lu52i.d	$a0, $a0, 2047
	beq	$s3, $a0, .LBB4_376
# %bb.152:                              # %_ZNSt12_Vector_baseIiSaIiEE11_M_allocateEm.exit.i.i.i239
	srai.d	$a0, $s3, 2
	ori	$s1, $zero, 1
	sltu	$a1, $s1, $a0
	masknez	$a2, $s1, $a1
	maskeqz	$a1, $a0, $a1
	or	$a1, $a1, $a2
	add.d	$a0, $a1, $a0
	sltu	$a1, $a0, $a1
	addi.w	$a2, $zero, -1
	lu52i.d	$a2, $a2, 511
	sltu	$a3, $a0, $a2
	maskeqz	$a0, $a0, $a3
	masknez	$a3, $a2, $a3
	or	$a0, $a0, $a3
	masknez	$a0, $a0, $a1
	maskeqz	$a1, $a2, $a1
	or	$fp, $a1, $a0
	slli.d	$a0, $fp, 2
	pcaddu18i	$ra, %call36(_Znwm)
	jirl	$ra, $ra, 0
	move	$s4, $a0
	stx.w	$s1, $a0, $s3
	blez	$s3, .LBB4_154
# %bb.153:
	move	$a0, $s4
	move	$a1, $s0
	move	$a2, $s3
	pcaddu18i	$ra, %call36(memcpy)
	jirl	$ra, $ra, 0
.LBB4_154:                              # %_ZNSt6vectorIiSaIiEE11_S_relocateEPiS2_S2_RS0_.exit.i.i.i241
	add.d	$s1, $s4, $s3
	beqz	$s0, .LBB4_156
# %bb.155:
	move	$a0, $s0
	move	$a1, $s3
	pcaddu18i	$ra, %call36(_ZdlPvm)
	jirl	$ra, $ra, 0
.LBB4_156:                              # %_ZNSt6vectorIiSaIiEE17_M_realloc_appendIJiEEEvDpOT_.exit.i.i243
	addi.d	$a0, $s1, 4
	ld.d	$a1, $sp, 40                    # 8-byte Folded Reload
	st.d	$s4, $a1, 0
	st.d	$a0, $a1, 8
	alsl.d	$a0, $fp, $s4, 2
	st.d	$a0, $a1, 16
	ld.d	$a2, $sp, 136                   # 8-byte Folded Reload
.LBB4_157:                              # %_ZNSt6vectorIiSaIiEE9push_backEOi.exit244thread-pre-split
	ld.w	$s1, $a2, 68
.LBB4_158:                              # %_ZNSt6vectorIiSaIiEE9push_backEOi.exit244
	beqz	$s1, .LBB4_184
# %bb.159:
	pcalau12i	$a0, %got_pc_hi20(_ZN8Parallel4mypeE)
	ld.d	$a0, $a0, %got_pc_lo12(_ZN8Parallel4mypeE)
	ld.w	$a0, $a0, 0
	st.d	$a0, $sp, 112                   # 8-byte Folded Spill
	ld.d	$a2, $sp, 56                    # 8-byte Folded Reload
	ld.d	$a0, $a2, 8
	ld.d	$s4, $a2, 0
	ld.d	$a1, $sp, 136                   # 8-byte Folded Reload
	ld.w	$s1, $a1, 56
	sub.d	$s2, $a0, $s4
	st.d	$s2, $sp, 120                   # 8-byte Folded Spill
	bltz	$s5, .LBB4_174
# %bb.160:                              # %.lr.ph525.preheader
	ld.w	$a1, $a1, 64
	beqz	$a1, .LBB4_171
# %bb.161:
	move	$s5, $s4
	ld.d	$a1, $sp, 128                   # 8-byte Folded Reload
	beqz	$a1, .LBB4_173
.LBB4_162:                              # %.lr.ph525.peel.next.preheader
	move	$s2, $zero
	addi.w	$a1, $zero, -4
	lu52i.d	$s7, $a1, 2047
	ori	$s8, $zero, 1
	addi.w	$a1, $zero, -1
	lu52i.d	$s3, $a1, 511
	b	.LBB4_164
	.p2align	4, , 16
.LBB4_163:                              #   in Loop: Header=BB4_164 Depth=1
	st.w	$s2, $a0, 0
	addi.d	$a0, $a0, 4
	st.d	$a0, $a2, 8
	move	$s4, $s5
	ld.d	$a1, $sp, 128                   # 8-byte Folded Reload
	beq	$a1, $s2, .LBB4_174
.LBB4_164:                              # %.lr.ph525.peel.next
                                        # =>This Inner Loop Header: Depth=1
	ld.d	$a1, $a2, 16
	addi.w	$s2, $s2, 1
	bne	$a0, $a1, .LBB4_163
# %bb.165:                              #   in Loop: Header=BB4_164 Depth=1
	sub.d	$s0, $a0, $s5
	beq	$s0, $s7, .LBB4_376
# %bb.166:                              # %_ZNSt12_Vector_baseIiSaIiEE11_M_allocateEm.exit.i.i260
                                        #   in Loop: Header=BB4_164 Depth=1
	srai.d	$a0, $s0, 2
	sltu	$a1, $s8, $a0
	masknez	$a2, $s8, $a1
	maskeqz	$a1, $a0, $a1
	or	$a1, $a1, $a2
	add.d	$a0, $a1, $a0
	sltu	$a1, $a0, $a1
	sltu	$a2, $a0, $s3
	maskeqz	$a0, $a0, $a2
	masknez	$a2, $s3, $a2
	or	$a0, $a0, $a2
	masknez	$a0, $a0, $a1
	maskeqz	$a1, $s3, $a1
	or	$fp, $a1, $a0
	slli.d	$a0, $fp, 2
	pcaddu18i	$ra, %call36(_Znwm)
	jirl	$ra, $ra, 0
	move	$s4, $a0
	stx.w	$s2, $a0, $s0
	blez	$s0, .LBB4_168
# %bb.167:                              #   in Loop: Header=BB4_164 Depth=1
	move	$a0, $s4
	move	$a1, $s5
	move	$a2, $s0
	pcaddu18i	$ra, %call36(memcpy)
	jirl	$ra, $ra, 0
.LBB4_168:                              # %_ZNSt6vectorIiSaIiEE11_S_relocateEPiS2_S2_RS0_.exit.i.i262
                                        #   in Loop: Header=BB4_164 Depth=1
	beqz	$s5, .LBB4_170
# %bb.169:                              #   in Loop: Header=BB4_164 Depth=1
	move	$a0, $s5
	move	$a1, $s0
	pcaddu18i	$ra, %call36(_ZdlPvm)
	jirl	$ra, $ra, 0
.LBB4_170:                              # %_ZNSt6vectorIiSaIiEE17_M_realloc_appendIJRKiEEEvDpOT_.exit.i264
                                        #   in Loop: Header=BB4_164 Depth=1
	add.d	$a0, $s4, $s0
	addi.d	$a0, $a0, 4
	ld.d	$a2, $sp, 56                    # 8-byte Folded Reload
	st.d	$s4, $a2, 0
	st.d	$a0, $a2, 8
	alsl.d	$a1, $fp, $s4, 2
	st.d	$a1, $a2, 16
	move	$s5, $s4
	ld.d	$a1, $sp, 128                   # 8-byte Folded Reload
	bne	$a1, $s2, .LBB4_164
	b	.LBB4_174
.LBB4_171:
	ld.d	$a1, $a2, 16
	beq	$a0, $a1, .LBB4_213
# %bb.172:
	st.w	$zero, $a0, 0
	addi.d	$a0, $a0, 4
	st.d	$a0, $a2, 8
	move	$s5, $s4
	ld.d	$a1, $sp, 128                   # 8-byte Folded Reload
	bnez	$a1, .LBB4_162
.LBB4_173:
	move	$s4, $s5
.LBB4_174:                              # %._crit_edge526
	ld.d	$a3, $sp, 48                    # 8-byte Folded Reload
	ld.d	$a0, $a3, 8
	ld.d	$a1, $a3, 16
	ld.d	$a4, $sp, 112                   # 8-byte Folded Reload
	sub.d	$s1, $a4, $s1
	beq	$a0, $a1, .LBB4_176
# %bb.175:
	st.w	$s1, $a0, 0
	addi.d	$a0, $a0, 4
	st.d	$a0, $a3, 8
	ld.d	$s5, $sp, 128                   # 8-byte Folded Reload
	ld.d	$s2, $sp, 120                   # 8-byte Folded Reload
	b	.LBB4_182
.LBB4_176:
	ld.d	$s0, $a3, 0
	sub.d	$s4, $a0, $s0
	addi.w	$a0, $zero, -4
	lu52i.d	$a0, $a0, 2047
	ld.d	$s2, $sp, 120                   # 8-byte Folded Reload
	beq	$s4, $a0, .LBB4_376
# %bb.177:                              # %_ZNSt12_Vector_baseIiSaIiEE11_M_allocateEm.exit.i.i246
	srai.d	$a0, $s4, 2
	ori	$a1, $zero, 1
	sltu	$a2, $a1, $a0
	masknez	$a1, $a1, $a2
	maskeqz	$a2, $a0, $a2
	or	$a1, $a2, $a1
	add.d	$a0, $a1, $a0
	sltu	$a1, $a0, $a1
	addi.w	$a2, $zero, -1
	lu52i.d	$a2, $a2, 511
	sltu	$a3, $a0, $a2
	maskeqz	$a0, $a0, $a3
	masknez	$a3, $a2, $a3
	or	$a0, $a0, $a3
	masknez	$a0, $a0, $a1
	maskeqz	$a1, $a2, $a1
	or	$fp, $a1, $a0
	slli.d	$a0, $fp, 2
	pcaddu18i	$ra, %call36(_Znwm)
	jirl	$ra, $ra, 0
	move	$s5, $a0
	stx.w	$s1, $a0, $s4
	blez	$s4, .LBB4_179
# %bb.178:
	move	$a0, $s5
	move	$a1, $s0
	move	$a2, $s4
	pcaddu18i	$ra, %call36(memcpy)
	jirl	$ra, $ra, 0
.LBB4_179:                              # %_ZNSt6vectorIiSaIiEE11_S_relocateEPiS2_S2_RS0_.exit.i.i248
	add.d	$s1, $s5, $s4
	beqz	$s0, .LBB4_181
# %bb.180:
	move	$a0, $s0
	move	$a1, $s4
	pcaddu18i	$ra, %call36(_ZdlPvm)
	jirl	$ra, $ra, 0
.LBB4_181:                              # %_ZNSt6vectorIiSaIiEE17_M_realloc_appendIJRKiEEEvDpOT_.exit.i250
	addi.d	$a0, $s1, 4
	ld.d	$a1, $sp, 48                    # 8-byte Folded Reload
	st.d	$s5, $a1, 0
	ld.d	$a2, $sp, 56                    # 8-byte Folded Reload
	ld.d	$s4, $a2, 0
	st.d	$a0, $a1, 8
	alsl.d	$a0, $fp, $s5, 2
	st.d	$a0, $a1, 16
	ld.d	$s5, $sp, 128                   # 8-byte Folded Reload
.LBB4_182:                              # %_ZNSt6vectorIiSaIiEE9push_backERKi.exit251
	ld.d	$a1, $a2, 8
	ld.d	$a4, $sp, 40                    # 8-byte Folded Reload
	ld.d	$a0, $a4, 8
	ld.d	$a2, $a4, 16
	srli.d	$a3, $s2, 2
	sub.d	$a1, $a1, $s4
	srli.d	$a1, $a1, 2
	sub.d	$fp, $a1, $a3
	beq	$a0, $a2, .LBB4_198
# %bb.183:
	st.w	$fp, $a0, 0
	addi.d	$a0, $a0, 4
	st.d	$a0, $a4, 8
.LBB4_184:                              # %_ZNSt6vectorIiSaIiEE9push_backEOi.exit258
	ld.d	$s1, $sp, 136                   # 8-byte Folded Reload
	ld.w	$a0, $s1, 64
	ld.d	$a3, $sp, 56                    # 8-byte Folded Reload
	beqz	$a0, .LBB4_247
.LBB4_185:
	pcalau12i	$a0, %got_pc_hi20(_ZN8Parallel4mypeE)
	ld.d	$a1, $a0, %got_pc_lo12(_ZN8Parallel4mypeE)
	ld.d	$a0, $a3, 8
	ld.d	$s3, $a3, 0
	ld.w	$a2, $s1, 68
	ld.w	$s7, $a1, 0
	sub.d	$s4, $a0, $s3
	srai.d	$s5, $s4, 2
	st.d	$s7, $sp, 120                   # 8-byte Folded Spill
	beqz	$a2, .LBB4_196
.LBB4_186:
	st.d	$s5, $sp, 112                   # 8-byte Folded Spill
	ld.d	$a0, $sp, 80                    # 8-byte Folded Reload
	blez	$a0, .LBB4_231
.LBB4_187:                              # %.lr.ph531.preheader
	ld.d	$a0, $sp, 136                   # 8-byte Folded Reload
	ld.w	$a0, $a0, 68
	slti	$a0, $a0, 1
	ld.d	$a1, $sp, 104                   # 8-byte Folded Reload
	masknez	$a1, $a1, $a0
	ori	$s2, $zero, 1
	maskeqz	$a0, $s2, $a0
	or	$s5, $a0, $a1
	ld.d	$a0, $a3, 8
	ld.d	$a1, $a3, 16
	addi.w	$a2, $zero, -4
	lu52i.d	$s7, $a2, 2047
	addi.w	$a2, $zero, -1
	lu52i.d	$s8, $a2, 511
	ld.d	$s1, $sp, 80                    # 8-byte Folded Reload
	b	.LBB4_189
	.p2align	4, , 16
.LBB4_188:                              #   in Loop: Header=BB4_189 Depth=1
	st.w	$s5, $a0, 0
	addi.d	$a0, $a0, 4
	st.d	$a0, $a3, 8
	addi.w	$s1, $s1, -1
	ld.d	$a2, $sp, 104                   # 8-byte Folded Reload
	add.d	$s5, $s5, $a2
	beqz	$s1, .LBB4_231
.LBB4_189:                              # %.lr.ph531
                                        # =>This Inner Loop Header: Depth=1
	bne	$a0, $a1, .LBB4_188
# %bb.190:                              #   in Loop: Header=BB4_189 Depth=1
	ld.d	$s3, $a3, 0
	sub.d	$s0, $a1, $s3
	beq	$s0, $s7, .LBB4_376
# %bb.191:                              # %_ZNSt12_Vector_baseIiSaIiEE11_M_allocateEm.exit.i.i302
                                        #   in Loop: Header=BB4_189 Depth=1
	srai.d	$a0, $s0, 2
	sltu	$a1, $s2, $a0
	masknez	$a2, $s2, $a1
	maskeqz	$a1, $a0, $a1
	or	$a1, $a1, $a2
	add.d	$a0, $a1, $a0
	sltu	$a1, $a0, $a1
	sltu	$a2, $a0, $s8
	maskeqz	$a0, $a0, $a2
	masknez	$a2, $s8, $a2
	or	$a0, $a0, $a2
	masknez	$a0, $a0, $a1
	maskeqz	$a1, $s8, $a1
	or	$fp, $a1, $a0
	slli.d	$a0, $fp, 2
	pcaddu18i	$ra, %call36(_Znwm)
	jirl	$ra, $ra, 0
	move	$s4, $a0
	stx.w	$s5, $a0, $s0
	blez	$s0, .LBB4_193
# %bb.192:                              #   in Loop: Header=BB4_189 Depth=1
	move	$a0, $s4
	move	$a1, $s3
	move	$a2, $s0
	pcaddu18i	$ra, %call36(memcpy)
	jirl	$ra, $ra, 0
.LBB4_193:                              # %_ZNSt6vectorIiSaIiEE11_S_relocateEPiS2_S2_RS0_.exit.i.i304
                                        #   in Loop: Header=BB4_189 Depth=1
	beqz	$s3, .LBB4_195
# %bb.194:                              #   in Loop: Header=BB4_189 Depth=1
	move	$a0, $s3
	move	$a1, $s0
	pcaddu18i	$ra, %call36(_ZdlPvm)
	jirl	$ra, $ra, 0
.LBB4_195:                              # %_ZNSt6vectorIiSaIiEE17_M_realloc_appendIJRKiEEEvDpOT_.exit.i306
                                        #   in Loop: Header=BB4_189 Depth=1
	add.d	$a0, $s4, $s0
	addi.d	$a0, $a0, 4
	ld.d	$a3, $sp, 56                    # 8-byte Folded Reload
	st.d	$s4, $a3, 0
	st.d	$a0, $a3, 8
	alsl.d	$a1, $fp, $s4, 2
	st.d	$a1, $a3, 16
	addi.w	$s1, $s1, -1
	ld.d	$a2, $sp, 104                   # 8-byte Folded Reload
	add.d	$s5, $s5, $a2
	bnez	$s1, .LBB4_189
	b	.LBB4_231
.LBB4_196:
	ld.d	$a1, $a3, 16
	beq	$a0, $a1, .LBB4_204
# %bb.197:
	st.w	$zero, $a0, 0
	addi.d	$a0, $a0, 4
	st.d	$a0, $a3, 8
	ld.d	$s2, $sp, 48                    # 8-byte Folded Reload
	ld.w	$a0, $s1, 64
	ori	$a1, $zero, 2
	bge	$a0, $a1, .LBB4_210
	b	.LBB4_186
.LBB4_198:
	ld.d	$s0, $a4, 0
	sub.d	$s3, $a0, $s0
	addi.w	$a0, $zero, -4
	lu52i.d	$a0, $a0, 2047
	beq	$s3, $a0, .LBB4_376
# %bb.199:                              # %_ZNSt12_Vector_baseIiSaIiEE11_M_allocateEm.exit.i.i.i253
	srai.d	$a0, $s3, 2
	ori	$a1, $zero, 1
	sltu	$a2, $a1, $a0
	masknez	$a1, $a1, $a2
	maskeqz	$a2, $a0, $a2
	or	$a1, $a2, $a1
	add.d	$a0, $a1, $a0
	sltu	$a1, $a0, $a1
	addi.w	$a2, $zero, -1
	lu52i.d	$a2, $a2, 511
	sltu	$a3, $a0, $a2
	maskeqz	$a0, $a0, $a3
	masknez	$a3, $a2, $a3
	or	$a0, $a0, $a3
	masknez	$a0, $a0, $a1
	maskeqz	$a1, $a2, $a1
	or	$s1, $a1, $a0
	slli.d	$a0, $s1, 2
	pcaddu18i	$ra, %call36(_Znwm)
	jirl	$ra, $ra, 0
	move	$s4, $a0
	stx.w	$fp, $a0, $s3
	blez	$s3, .LBB4_201
# %bb.200:
	move	$a0, $s4
	move	$a1, $s0
	move	$a2, $s3
	pcaddu18i	$ra, %call36(memcpy)
	jirl	$ra, $ra, 0
.LBB4_201:                              # %_ZNSt6vectorIiSaIiEE11_S_relocateEPiS2_S2_RS0_.exit.i.i.i255
	add.d	$fp, $s4, $s3
	beqz	$s0, .LBB4_203
# %bb.202:
	move	$a0, $s0
	move	$a1, $s3
	pcaddu18i	$ra, %call36(_ZdlPvm)
	jirl	$ra, $ra, 0
.LBB4_203:                              # %_ZNSt6vectorIiSaIiEE17_M_realloc_appendIJiEEEvDpOT_.exit.i.i257
	addi.d	$a0, $fp, 4
	ld.d	$a1, $sp, 40                    # 8-byte Folded Reload
	st.d	$s4, $a1, 0
	st.d	$a0, $a1, 8
	alsl.d	$a0, $s1, $s4, 2
	st.d	$a0, $a1, 16
	ld.d	$s1, $sp, 136                   # 8-byte Folded Reload
	ld.w	$a0, $s1, 64
	ld.d	$a3, $sp, 56                    # 8-byte Folded Reload
	bnez	$a0, .LBB4_185
	b	.LBB4_247
.LBB4_204:
	addi.w	$a0, $zero, -4
	lu52i.d	$a0, $a0, 2047
	ld.d	$s2, $sp, 48                    # 8-byte Folded Reload
	beq	$s4, $a0, .LBB4_376
# %bb.205:                              # %_ZNSt12_Vector_baseIiSaIiEE11_M_allocateEm.exit.i.i.i267
	ori	$a0, $zero, 1
	sltu	$a1, $a0, $s5
	masknez	$a0, $a0, $a1
	maskeqz	$a1, $s5, $a1
	or	$a0, $a1, $a0
	add.d	$a1, $a0, $s5
	sltu	$a0, $a1, $a0
	addi.w	$a2, $zero, -1
	lu52i.d	$a2, $a2, 511
	sltu	$a3, $a1, $a2
	maskeqz	$a1, $a1, $a3
	masknez	$a3, $a2, $a3
	or	$a1, $a1, $a3
	masknez	$a1, $a1, $a0
	maskeqz	$a0, $a2, $a0
	or	$s1, $a0, $a1
	slli.d	$a0, $s1, 2
	pcaddu18i	$ra, %call36(_Znwm)
	jirl	$ra, $ra, 0
	move	$s0, $a0
	stx.w	$zero, $a0, $s4
	blez	$s4, .LBB4_207
# %bb.206:
	move	$a0, $s0
	move	$a1, $s3
	move	$a2, $s4
	pcaddu18i	$ra, %call36(memcpy)
	jirl	$ra, $ra, 0
.LBB4_207:                              # %_ZNSt6vectorIiSaIiEE11_S_relocateEPiS2_S2_RS0_.exit.i.i.i269
	add.d	$fp, $s0, $s4
	beqz	$s3, .LBB4_209
# %bb.208:
	move	$a0, $s3
	move	$a1, $s4
	pcaddu18i	$ra, %call36(_ZdlPvm)
	jirl	$ra, $ra, 0
.LBB4_209:                              # %_ZNSt6vectorIiSaIiEE17_M_realloc_appendIJiEEEvDpOT_.exit.i.i271
	addi.d	$a0, $fp, 4
	ld.d	$a3, $sp, 56                    # 8-byte Folded Reload
	st.d	$s0, $a3, 0
	st.d	$a0, $a3, 8
	alsl.d	$a0, $s1, $s0, 2
	st.d	$a0, $a3, 16
	ld.d	$s1, $sp, 136                   # 8-byte Folded Reload
	ld.w	$a0, $s1, 64
	ori	$a1, $zero, 2
	blt	$a0, $a1, .LBB4_186
.LBB4_210:
	ld.d	$a0, $s2, 8
	ld.d	$a1, $s2, 16
	beq	$a0, $a1, .LBB4_219
# %bb.211:
	st.w	$zero, $a0, 0
	addi.d	$a0, $a0, 4
	st.d	$a0, $s2, 8
	ld.d	$a2, $sp, 40                    # 8-byte Folded Reload
	ld.d	$a0, $a2, 8
	ld.d	$a1, $a2, 16
	beq	$a0, $a1, .LBB4_225
.LBB4_212:
	ori	$a1, $zero, 1
	st.w	$a1, $a0, 0
	addi.d	$a0, $a0, 4
	st.d	$a0, $a2, 8
	addi.d	$s5, $s5, 1
	st.d	$s5, $sp, 112                   # 8-byte Folded Spill
	ld.d	$a0, $sp, 80                    # 8-byte Folded Reload
	bgtz	$a0, .LBB4_187
	b	.LBB4_231
.LBB4_213:
	addi.w	$a0, $zero, -4
	lu52i.d	$a0, $a0, 2047
	beq	$s2, $a0, .LBB4_376
# %bb.214:                              # %_ZNSt12_Vector_baseIiSaIiEE11_M_allocateEm.exit.i.i260.peel
	move	$a1, $s2
	srai.d	$a0, $a1, 2
	ori	$a1, $zero, 1
	sltu	$a2, $a1, $a0
	masknez	$a1, $a1, $a2
	maskeqz	$a2, $a0, $a2
	or	$a1, $a2, $a1
	add.d	$a0, $a1, $a0
	sltu	$a1, $a0, $a1
	addi.w	$a2, $zero, -1
	lu52i.d	$a2, $a2, 511
	sltu	$a3, $a0, $a2
	maskeqz	$a0, $a0, $a3
	masknez	$a3, $a2, $a3
	or	$a0, $a0, $a3
	masknez	$a0, $a0, $a1
	maskeqz	$a1, $a2, $a1
	or	$s0, $a1, $a0
	slli.d	$a0, $s0, 2
	pcaddu18i	$ra, %call36(_Znwm)
	jirl	$ra, $ra, 0
	move	$s5, $a0
	stx.w	$zero, $a0, $s2
	blez	$s2, .LBB4_216
# %bb.215:
	move	$a0, $s5
	move	$a1, $s4
	move	$a2, $s2
	pcaddu18i	$ra, %call36(memcpy)
	jirl	$ra, $ra, 0
.LBB4_216:                              # %_ZNSt6vectorIiSaIiEE11_S_relocateEPiS2_S2_RS0_.exit.i.i262.peel
	add.d	$fp, $s5, $s2
	beqz	$s4, .LBB4_218
# %bb.217:
	move	$a0, $s4
	move	$a1, $s2
	pcaddu18i	$ra, %call36(_ZdlPvm)
	jirl	$ra, $ra, 0
.LBB4_218:                              # %_ZNSt6vectorIiSaIiEE17_M_realloc_appendIJRKiEEEvDpOT_.exit.i264.peel
	addi.d	$a0, $fp, 4
	ld.d	$a2, $sp, 56                    # 8-byte Folded Reload
	st.d	$s5, $a2, 0
	st.d	$a0, $a2, 8
	alsl.d	$a1, $s0, $s5, 2
	st.d	$a1, $a2, 16
	ld.d	$a1, $sp, 128                   # 8-byte Folded Reload
	bnez	$a1, .LBB4_162
	b	.LBB4_173
.LBB4_219:
	ld.d	$s0, $s2, 0
	sub.d	$s3, $a0, $s0
	addi.w	$a0, $zero, -4
	lu52i.d	$a0, $a0, 2047
	beq	$s3, $a0, .LBB4_376
# %bb.220:                              # %_ZNSt12_Vector_baseIiSaIiEE11_M_allocateEm.exit.i.i.i274
	srai.d	$a0, $s3, 2
	ori	$a1, $zero, 1
	sltu	$a2, $a1, $a0
	masknez	$a1, $a1, $a2
	maskeqz	$a2, $a0, $a2
	or	$a1, $a2, $a1
	add.d	$a0, $a1, $a0
	sltu	$a1, $a0, $a1
	addi.w	$a2, $zero, -1
	lu52i.d	$a2, $a2, 511
	sltu	$a3, $a0, $a2
	maskeqz	$a0, $a0, $a3
	masknez	$a3, $a2, $a3
	or	$a0, $a0, $a3
	masknez	$a0, $a0, $a1
	maskeqz	$a1, $a2, $a1
	or	$s1, $a1, $a0
	slli.d	$a0, $s1, 2
	pcaddu18i	$ra, %call36(_Znwm)
	jirl	$ra, $ra, 0
	move	$s4, $a0
	stx.w	$zero, $a0, $s3
	blez	$s3, .LBB4_222
# %bb.221:
	move	$a0, $s4
	move	$a1, $s0
	move	$a2, $s3
	pcaddu18i	$ra, %call36(memcpy)
	jirl	$ra, $ra, 0
.LBB4_222:                              # %_ZNSt6vectorIiSaIiEE11_S_relocateEPiS2_S2_RS0_.exit.i.i.i276
	add.d	$fp, $s4, $s3
	beqz	$s0, .LBB4_224
# %bb.223:
	move	$a0, $s0
	move	$a1, $s3
	pcaddu18i	$ra, %call36(_ZdlPvm)
	jirl	$ra, $ra, 0
.LBB4_224:                              # %_ZNSt6vectorIiSaIiEE17_M_realloc_appendIJiEEEvDpOT_.exit.i.i278
	addi.d	$a0, $fp, 4
	st.d	$s4, $s2, 0
	st.d	$a0, $s2, 8
	alsl.d	$a0, $s1, $s4, 2
	st.d	$a0, $s2, 16
	ld.d	$a2, $sp, 40                    # 8-byte Folded Reload
	ld.d	$a3, $sp, 56                    # 8-byte Folded Reload
	ld.d	$a0, $a2, 8
	ld.d	$a1, $a2, 16
	bne	$a0, $a1, .LBB4_212
.LBB4_225:
	ld.d	$s0, $a2, 0
	sub.d	$s3, $a0, $s0
	addi.w	$a0, $zero, -4
	lu52i.d	$a0, $a0, 2047
	beq	$s3, $a0, .LBB4_376
# %bb.226:                              # %_ZNSt12_Vector_baseIiSaIiEE11_M_allocateEm.exit.i.i.i281
	srai.d	$a0, $s3, 2
	ori	$fp, $zero, 1
	sltu	$a1, $fp, $a0
	masknez	$a2, $fp, $a1
	maskeqz	$a1, $a0, $a1
	or	$a1, $a1, $a2
	add.d	$a0, $a1, $a0
	sltu	$a1, $a0, $a1
	addi.w	$a2, $zero, -1
	lu52i.d	$a2, $a2, 511
	sltu	$a3, $a0, $a2
	maskeqz	$a0, $a0, $a3
	masknez	$a3, $a2, $a3
	or	$a0, $a0, $a3
	masknez	$a0, $a0, $a1
	maskeqz	$a1, $a2, $a1
	or	$s1, $a1, $a0
	slli.d	$a0, $s1, 2
	pcaddu18i	$ra, %call36(_Znwm)
	jirl	$ra, $ra, 0
	move	$s4, $a0
	stx.w	$fp, $a0, $s3
	blez	$s3, .LBB4_228
# %bb.227:
	move	$a0, $s4
	move	$a1, $s0
	move	$a2, $s3
	pcaddu18i	$ra, %call36(memcpy)
	jirl	$ra, $ra, 0
.LBB4_228:                              # %_ZNSt6vectorIiSaIiEE11_S_relocateEPiS2_S2_RS0_.exit.i.i.i283
	add.d	$fp, $s4, $s3
	beqz	$s0, .LBB4_230
# %bb.229:
	move	$a0, $s0
	move	$a1, $s3
	pcaddu18i	$ra, %call36(_ZdlPvm)
	jirl	$ra, $ra, 0
.LBB4_230:                              # %_ZNSt6vectorIiSaIiEE17_M_realloc_appendIJiEEEvDpOT_.exit.i.i285
	addi.d	$a0, $fp, 4
	ld.d	$a1, $sp, 40                    # 8-byte Folded Reload
	st.d	$s4, $a1, 0
	st.d	$a0, $a1, 8
	alsl.d	$a0, $s1, $s4, 2
	st.d	$a0, $a1, 16
	ld.d	$a3, $sp, 56                    # 8-byte Folded Reload
	addi.d	$s5, $s5, 1
	st.d	$s5, $sp, 112                   # 8-byte Folded Spill
	ld.d	$a0, $sp, 80                    # 8-byte Folded Reload
	bgtz	$a0, .LBB4_187
.LBB4_231:                              # %._crit_edge532
	ld.d	$a2, $sp, 48                    # 8-byte Folded Reload
	ld.d	$a0, $a2, 8
	ld.d	$a1, $a2, 16
	ld.d	$a4, $sp, 120                   # 8-byte Folded Reload
	addi.d	$s1, $a4, -1
	beq	$a0, $a1, .LBB4_233
# %bb.232:
	st.w	$s1, $a0, 0
	addi.d	$a0, $a0, 4
	st.d	$a0, $a2, 8
	ld.d	$s5, $sp, 128                   # 8-byte Folded Reload
	ld.d	$s1, $sp, 136                   # 8-byte Folded Reload
	b	.LBB4_239
.LBB4_233:
	ld.d	$s0, $a2, 0
	sub.d	$s3, $a0, $s0
	addi.w	$a0, $zero, -4
	lu52i.d	$a0, $a0, 2047
	ld.d	$s5, $sp, 128                   # 8-byte Folded Reload
	beq	$s3, $a0, .LBB4_376
# %bb.234:                              # %_ZNSt12_Vector_baseIiSaIiEE11_M_allocateEm.exit.i.i288
	srai.d	$a0, $s3, 2
	ori	$a1, $zero, 1
	sltu	$a2, $a1, $a0
	masknez	$a1, $a1, $a2
	maskeqz	$a2, $a0, $a2
	or	$a1, $a2, $a1
	add.d	$a0, $a1, $a0
	sltu	$a1, $a0, $a1
	addi.w	$a2, $zero, -1
	lu52i.d	$a2, $a2, 511
	sltu	$a3, $a0, $a2
	maskeqz	$a0, $a0, $a3
	masknez	$a3, $a2, $a3
	or	$a0, $a0, $a3
	masknez	$a0, $a0, $a1
	maskeqz	$a1, $a2, $a1
	or	$s2, $a1, $a0
	slli.d	$a0, $s2, 2
	pcaddu18i	$ra, %call36(_Znwm)
	jirl	$ra, $ra, 0
	move	$s4, $a0
	stx.w	$s1, $a0, $s3
	blez	$s3, .LBB4_236
# %bb.235:
	move	$a0, $s4
	move	$a1, $s0
	move	$a2, $s3
	pcaddu18i	$ra, %call36(memcpy)
	jirl	$ra, $ra, 0
.LBB4_236:                              # %_ZNSt6vectorIiSaIiEE11_S_relocateEPiS2_S2_RS0_.exit.i.i290
	add.d	$fp, $s4, $s3
	ld.d	$s1, $sp, 136                   # 8-byte Folded Reload
	beqz	$s0, .LBB4_238
# %bb.237:
	move	$a0, $s0
	move	$a1, $s3
	pcaddu18i	$ra, %call36(_ZdlPvm)
	jirl	$ra, $ra, 0
.LBB4_238:                              # %_ZNSt6vectorIiSaIiEE17_M_realloc_appendIJRKiEEEvDpOT_.exit.i292
	addi.d	$a0, $fp, 4
	ld.d	$a1, $sp, 48                    # 8-byte Folded Reload
	st.d	$s4, $a1, 0
	st.d	$a0, $a1, 8
	alsl.d	$a0, $s2, $s4, 2
	st.d	$a0, $a1, 16
	ld.d	$a3, $sp, 56                    # 8-byte Folded Reload
.LBB4_239:                              # %_ZNSt6vectorIiSaIiEE9push_backERKi.exit293
	ld.d	$a1, $a3, 8
	ld.d	$a2, $a3, 0
	ld.d	$a4, $sp, 40                    # 8-byte Folded Reload
	ld.d	$a0, $a4, 8
	ld.d	$a3, $a4, 16
	sub.d	$a1, $a1, $a2
	srli.d	$a1, $a1, 2
	ld.d	$a2, $sp, 112                   # 8-byte Folded Reload
	sub.d	$fp, $a1, $a2
	beq	$a0, $a3, .LBB4_241
# %bb.240:
	st.w	$fp, $a0, 0
	addi.d	$a0, $a0, 4
	st.d	$a0, $a4, 8
	b	.LBB4_247
.LBB4_241:
	ld.d	$s0, $a4, 0
	sub.d	$s1, $a0, $s0
	addi.w	$a0, $zero, -4
	lu52i.d	$a0, $a0, 2047
	beq	$s1, $a0, .LBB4_376
# %bb.242:                              # %_ZNSt12_Vector_baseIiSaIiEE11_M_allocateEm.exit.i.i.i295
	srai.d	$a0, $s1, 2
	ori	$a1, $zero, 1
	sltu	$a2, $a1, $a0
	masknez	$a1, $a1, $a2
	maskeqz	$a2, $a0, $a2
	or	$a1, $a2, $a1
	add.d	$a0, $a1, $a0
	sltu	$a1, $a0, $a1
	addi.w	$a2, $zero, -1
	lu52i.d	$a2, $a2, 511
	sltu	$a3, $a0, $a2
	maskeqz	$a0, $a0, $a3
	masknez	$a3, $a2, $a3
	or	$a0, $a0, $a3
	masknez	$a0, $a0, $a1
	maskeqz	$a1, $a2, $a1
	or	$s3, $a1, $a0
	slli.d	$a0, $s3, 2
	pcaddu18i	$ra, %call36(_Znwm)
	jirl	$ra, $ra, 0
	move	$s2, $a0
	stx.w	$fp, $a0, $s1
	blez	$s1, .LBB4_244
# %bb.243:
	move	$a0, $s2
	move	$a1, $s0
	move	$a2, $s1
	pcaddu18i	$ra, %call36(memcpy)
	jirl	$ra, $ra, 0
.LBB4_244:                              # %_ZNSt6vectorIiSaIiEE11_S_relocateEPiS2_S2_RS0_.exit.i.i.i297
	add.d	$fp, $s2, $s1
	beqz	$s0, .LBB4_246
# %bb.245:
	move	$a0, $s0
	move	$a1, $s1
	pcaddu18i	$ra, %call36(_ZdlPvm)
	jirl	$ra, $ra, 0
.LBB4_246:                              # %_ZNSt6vectorIiSaIiEE17_M_realloc_appendIJiEEEvDpOT_.exit.i.i299
	addi.d	$a0, $fp, 4
	ld.d	$a1, $sp, 40                    # 8-byte Folded Reload
	st.d	$s2, $a1, 0
	st.d	$a0, $a1, 8
	alsl.d	$a0, $s3, $s2, 2
	st.d	$a0, $a1, 16
	ld.d	$s1, $sp, 136                   # 8-byte Folded Reload
.LBB4_247:                              # %_ZNSt6vectorIiSaIiEE9push_backEOi.exit300
	ld.d	$a5, $sp, 280
	ld.d	$a6, $sp, 272
	ld.w	$a0, $s1, 56
	ld.w	$a2, $s1, 64
	ld.w	$a1, $s1, 68
	addi.w	$a0, $a0, -1
	st.d	$a5, $sp, 112                   # 8-byte Folded Spill
	st.d	$a6, $sp, 120                   # 8-byte Folded Spill
	beq	$a2, $a0, .LBB4_311
# %bb.248:
	pcalau12i	$a0, %got_pc_hi20(_ZN8Parallel4mypeE)
	ld.d	$a3, $a0, %got_pc_lo12(_ZN8Parallel4mypeE)
	ld.d	$a0, $s6, 8
	ld.d	$s1, $s6, 0
	ld.w	$s5, $a3, 0
	sub.d	$s2, $a0, $s1
	or	$a1, $a2, $a1
	srai.d	$a2, $s2, 2
	st.d	$a2, $sp, 96                    # 8-byte Folded Spill
	bnez	$a1, .LBB4_251
# %bb.249:
	ld.d	$a1, $s6, 16
	beq	$a0, $a1, .LBB4_262
# %bb.250:
	st.w	$zero, $a0, 0
	addi.d	$a0, $a0, 4
	st.d	$a0, $s6, 8
.LBB4_251:
	move	$s0, $s1
	ld.d	$a1, $sp, 136                   # 8-byte Folded Reload
	ld.d	$a2, $sp, 80                    # 8-byte Folded Reload
	blez	$a2, .LBB4_268
.LBB4_252:                              # %.lr.ph536.preheader
	ld.w	$a1, $a1, 68
	slt	$a1, $zero, $a1
	addi.w	$a2, $zero, -1
	ld.d	$a4, $sp, 104                   # 8-byte Folded Reload
	alsl.w	$a3, $a4, $a2, 1
	maskeqz	$a3, $a3, $a1
	masknez	$a1, $a4, $a1
	or	$s7, $a3, $a1
	ld.d	$a1, $s6, 16
	addi.w	$a3, $zero, -4
	lu52i.d	$s8, $a3, 2047
	ori	$fp, $zero, 1
	lu52i.d	$s3, $a2, 511
	b	.LBB4_255
	.p2align	4, , 16
.LBB4_253:                              #   in Loop: Header=BB4_255 Depth=1
	st.w	$s7, $a0, 0
	addi.d	$a0, $a0, 4
	st.d	$a0, $s6, 8
	move	$s1, $s0
.LBB4_254:                              # %_ZNSt6vectorIiSaIiEE9push_backERKi.exit335
                                        #   in Loop: Header=BB4_255 Depth=1
	ld.d	$a2, $sp, 80                    # 8-byte Folded Reload
	addi.w	$a2, $a2, -1
	ld.d	$a3, $sp, 104                   # 8-byte Folded Reload
	add.d	$s7, $s7, $a3
	st.d	$a2, $sp, 80                    # 8-byte Folded Spill
	beqz	$a2, .LBB4_269
.LBB4_255:                              # %.lr.ph536
                                        # =>This Inner Loop Header: Depth=1
	bne	$a0, $a1, .LBB4_253
# %bb.256:                              #   in Loop: Header=BB4_255 Depth=1
	sub.d	$s2, $a1, $s0
	beq	$s2, $s8, .LBB4_376
# %bb.257:                              # %_ZNSt12_Vector_baseIiSaIiEE11_M_allocateEm.exit.i.i330
                                        #   in Loop: Header=BB4_255 Depth=1
	srai.d	$a0, $s2, 2
	sltu	$a1, $fp, $a0
	masknez	$a2, $fp, $a1
	maskeqz	$a1, $a0, $a1
	or	$a1, $a1, $a2
	add.d	$a0, $a1, $a0
	sltu	$a1, $a0, $a1
	sltu	$a2, $a0, $s3
	maskeqz	$a0, $a0, $a2
	masknez	$a2, $s3, $a2
	or	$a0, $a0, $a2
	masknez	$a0, $a0, $a1
	maskeqz	$a1, $s3, $a1
	or	$s4, $a1, $a0
	slli.d	$a0, $s4, 2
	pcaddu18i	$ra, %call36(_Znwm)
	jirl	$ra, $ra, 0
	move	$s1, $a0
	stx.w	$s7, $a0, $s2
	blez	$s2, .LBB4_259
# %bb.258:                              #   in Loop: Header=BB4_255 Depth=1
	move	$a0, $s1
	move	$a1, $s0
	move	$a2, $s2
	pcaddu18i	$ra, %call36(memcpy)
	jirl	$ra, $ra, 0
.LBB4_259:                              # %_ZNSt6vectorIiSaIiEE11_S_relocateEPiS2_S2_RS0_.exit.i.i332
                                        #   in Loop: Header=BB4_255 Depth=1
	beqz	$s0, .LBB4_261
# %bb.260:                              #   in Loop: Header=BB4_255 Depth=1
	move	$a0, $s0
	move	$a1, $s2
	pcaddu18i	$ra, %call36(_ZdlPvm)
	jirl	$ra, $ra, 0
.LBB4_261:                              # %_ZNSt6vectorIiSaIiEE17_M_realloc_appendIJRKiEEEvDpOT_.exit.i334
                                        #   in Loop: Header=BB4_255 Depth=1
	add.d	$a0, $s1, $s2
	addi.d	$a0, $a0, 4
	st.d	$s1, $s6, 0
	st.d	$a0, $s6, 8
	alsl.d	$a1, $s4, $s1, 2
	st.d	$a1, $s6, 16
	move	$s0, $s1
	b	.LBB4_254
.LBB4_262:
	addi.w	$a0, $zero, -4
	lu52i.d	$a0, $a0, 2047
	beq	$s2, $a0, .LBB4_376
# %bb.263:                              # %_ZNSt12_Vector_baseIiSaIiEE11_M_allocateEm.exit.i.i.i309
	ori	$a0, $zero, 1
	sltu	$a1, $a0, $a2
	masknez	$a0, $a0, $a1
	maskeqz	$a1, $a2, $a1
	or	$a0, $a1, $a0
	add.d	$a1, $a0, $a2
	sltu	$a0, $a1, $a0
	addi.w	$a2, $zero, -1
	lu52i.d	$a2, $a2, 511
	sltu	$a3, $a1, $a2
	maskeqz	$a1, $a1, $a3
	masknez	$a3, $a2, $a3
	or	$a1, $a1, $a3
	masknez	$a1, $a1, $a0
	maskeqz	$a0, $a2, $a0
	or	$fp, $a0, $a1
	slli.d	$a0, $fp, 2
	pcaddu18i	$ra, %call36(_Znwm)
	jirl	$ra, $ra, 0
	move	$s0, $a0
	stx.w	$zero, $a0, $s2
	blez	$s2, .LBB4_265
# %bb.264:
	move	$a0, $s0
	move	$a1, $s1
	move	$a2, $s2
	pcaddu18i	$ra, %call36(memcpy)
	jirl	$ra, $ra, 0
.LBB4_265:                              # %_ZNSt6vectorIiSaIiEE11_S_relocateEPiS2_S2_RS0_.exit.i.i.i311
	add.d	$s3, $s0, $s2
	beqz	$s1, .LBB4_267
# %bb.266:
	move	$a0, $s1
	move	$a1, $s2
	pcaddu18i	$ra, %call36(_ZdlPvm)
	jirl	$ra, $ra, 0
.LBB4_267:                              # %_ZNSt6vectorIiSaIiEE17_M_realloc_appendIJiEEEvDpOT_.exit.i.i313
	addi.d	$a0, $s3, 4
	st.d	$s0, $s6, 0
	st.d	$a0, $s6, 8
	alsl.d	$a1, $fp, $s0, 2
	st.d	$a1, $s6, 16
	ld.d	$a1, $sp, 136                   # 8-byte Folded Reload
	ld.d	$a2, $sp, 80                    # 8-byte Folded Reload
	bgtz	$a2, .LBB4_252
.LBB4_268:
	move	$s1, $s0
.LBB4_269:                              # %._crit_edge537
	ld.d	$a6, $sp, 120                   # 8-byte Folded Reload
	ld.d	$a0, $a6, 8
	ld.d	$a1, $a6, 16
	addi.d	$s3, $s5, 1
	beq	$a0, $a1, .LBB4_271
# %bb.270:
	st.w	$s3, $a0, 0
	addi.d	$a0, $a0, 4
	st.d	$a0, $a6, 8
	ld.d	$s5, $sp, 128                   # 8-byte Folded Reload
	b	.LBB4_277
.LBB4_271:
	ld.d	$s0, $a6, 0
	sub.d	$s1, $a0, $s0
	addi.w	$a0, $zero, -4
	lu52i.d	$a0, $a0, 2047
	ld.d	$s5, $sp, 128                   # 8-byte Folded Reload
	beq	$s1, $a0, .LBB4_376
# %bb.272:                              # %_ZNSt12_Vector_baseIiSaIiEE11_M_allocateEm.exit.i.i316
	srai.d	$a0, $s1, 2
	ori	$a1, $zero, 1
	sltu	$a2, $a1, $a0
	masknez	$a1, $a1, $a2
	maskeqz	$a2, $a0, $a2
	or	$a1, $a2, $a1
	add.d	$a0, $a1, $a0
	sltu	$a1, $a0, $a1
	addi.w	$a2, $zero, -1
	lu52i.d	$a2, $a2, 511
	sltu	$a3, $a0, $a2
	maskeqz	$a0, $a0, $a3
	masknez	$a3, $a2, $a3
	or	$a0, $a0, $a3
	masknez	$a0, $a0, $a1
	maskeqz	$a1, $a2, $a1
	or	$fp, $a1, $a0
	slli.d	$a0, $fp, 2
	pcaddu18i	$ra, %call36(_Znwm)
	jirl	$ra, $ra, 0
	move	$s2, $a0
	stx.w	$s3, $a0, $s1
	blez	$s1, .LBB4_274
# %bb.273:
	move	$a0, $s2
	move	$a1, $s0
	move	$a2, $s1
	pcaddu18i	$ra, %call36(memcpy)
	jirl	$ra, $ra, 0
.LBB4_274:                              # %_ZNSt6vectorIiSaIiEE11_S_relocateEPiS2_S2_RS0_.exit.i.i318
	add.d	$s3, $s2, $s1
	beqz	$s0, .LBB4_276
# %bb.275:
	move	$a0, $s0
	move	$a1, $s1
	pcaddu18i	$ra, %call36(_ZdlPvm)
	jirl	$ra, $ra, 0
.LBB4_276:                              # %_ZNSt6vectorIiSaIiEE17_M_realloc_appendIJRKiEEEvDpOT_.exit.i320
	addi.d	$a0, $s3, 4
	ld.d	$a6, $sp, 120                   # 8-byte Folded Reload
	st.d	$s2, $a6, 0
	ld.d	$s1, $s6, 0
	st.d	$a0, $a6, 8
	alsl.d	$a0, $fp, $s2, 2
	st.d	$a0, $a6, 16
.LBB4_277:                              # %_ZNSt6vectorIiSaIiEE9push_backERKi.exit321
	ld.d	$a1, $s6, 8
	ld.d	$a5, $sp, 112                   # 8-byte Folded Reload
	ld.d	$a0, $a5, 8
	ld.d	$a2, $a5, 16
	sub.d	$a1, $a1, $s1
	srli.d	$a1, $a1, 2
	ld.d	$a3, $sp, 96                    # 8-byte Folded Reload
	sub.d	$fp, $a1, $a3
	beq	$a0, $a2, .LBB4_279
# %bb.278:
	st.w	$fp, $a0, 0
	addi.d	$a0, $a0, 4
	st.d	$a0, $a5, 8
	b	.LBB4_285
.LBB4_279:
	ld.d	$s0, $a5, 0
	sub.d	$s1, $a0, $s0
	addi.w	$a0, $zero, -4
	lu52i.d	$a0, $a0, 2047
	beq	$s1, $a0, .LBB4_376
# %bb.280:                              # %_ZNSt12_Vector_baseIiSaIiEE11_M_allocateEm.exit.i.i.i323
	srai.d	$a0, $s1, 2
	ori	$a1, $zero, 1
	sltu	$a2, $a1, $a0
	masknez	$a1, $a1, $a2
	maskeqz	$a2, $a0, $a2
	or	$a1, $a2, $a1
	add.d	$a0, $a1, $a0
	sltu	$a1, $a0, $a1
	addi.w	$a2, $zero, -1
	lu52i.d	$a2, $a2, 511
	sltu	$a3, $a0, $a2
	maskeqz	$a0, $a0, $a3
	masknez	$a3, $a2, $a3
	or	$a0, $a0, $a3
	masknez	$a0, $a0, $a1
	maskeqz	$a1, $a2, $a1
	or	$s3, $a1, $a0
	slli.d	$a0, $s3, 2
	pcaddu18i	$ra, %call36(_Znwm)
	jirl	$ra, $ra, 0
	move	$s2, $a0
	stx.w	$fp, $a0, $s1
	blez	$s1, .LBB4_282
# %bb.281:
	move	$a0, $s2
	move	$a1, $s0
	move	$a2, $s1
	pcaddu18i	$ra, %call36(memcpy)
	jirl	$ra, $ra, 0
.LBB4_282:                              # %_ZNSt6vectorIiSaIiEE11_S_relocateEPiS2_S2_RS0_.exit.i.i.i325
	add.d	$fp, $s2, $s1
	beqz	$s0, .LBB4_284
# %bb.283:
	move	$a0, $s0
	move	$a1, $s1
	pcaddu18i	$ra, %call36(_ZdlPvm)
	jirl	$ra, $ra, 0
.LBB4_284:                              # %_ZNSt6vectorIiSaIiEE17_M_realloc_appendIJiEEEvDpOT_.exit.i.i327
	addi.d	$a0, $fp, 4
	ld.d	$a5, $sp, 112                   # 8-byte Folded Reload
	st.d	$s2, $a5, 0
	st.d	$a0, $a5, 8
	alsl.d	$a0, $s3, $s2, 2
	st.d	$a0, $a5, 16
	ld.d	$a6, $sp, 120                   # 8-byte Folded Reload
.LBB4_285:                              # %_ZNSt6vectorIiSaIiEE9push_backEOi.exit328
	ld.d	$s1, $sp, 136                   # 8-byte Folded Reload
	ld.w	$a0, $s1, 64
	ld.w	$a1, $s1, 68
	or	$a0, $a0, $a1
	bnez	$a0, .LBB4_311
# %bb.286:                              # %.preheader
	ld.w	$a0, $s1, 56
	ori	$a1, $zero, 3
	blt	$a0, $a1, .LBB4_324
# %bb.287:                              # %.lr.ph539.preheader
	ori	$fp, $zero, 2
	addi.w	$a0, $zero, -4
	lu52i.d	$s3, $a0, 2047
	ori	$s7, $zero, 1
	addi.w	$a0, $zero, -1
	lu52i.d	$s8, $a0, 511
	b	.LBB4_289
	.p2align	4, , 16
.LBB4_288:                              #   in Loop: Header=BB4_289 Depth=1
	st.w	$s7, $a0, 0
	addi.d	$a0, $a0, 4
	st.d	$a0, $a5, 8
	ld.w	$a0, $s1, 56
	addi.w	$fp, $fp, 1
	bge	$fp, $a0, .LBB4_310
.LBB4_289:                              # %.lr.ph539
                                        # =>This Inner Loop Header: Depth=1
	ld.d	$a0, $s6, 8
	ld.d	$a1, $s6, 16
	beq	$a0, $a1, .LBB4_292
# %bb.290:                              #   in Loop: Header=BB4_289 Depth=1
	st.w	$zero, $a0, 0
	addi.d	$a0, $a0, 4
	st.d	$a0, $s6, 8
	ld.d	$a0, $a6, 8
	ld.d	$a1, $a6, 16
	beq	$a0, $a1, .LBB4_298
.LBB4_291:                              #   in Loop: Header=BB4_289 Depth=1
	st.w	$fp, $a0, 0
	addi.d	$a0, $a0, 4
	st.d	$a0, $a6, 8
	ld.d	$a0, $a5, 8
	ld.d	$a1, $a5, 16
	bne	$a0, $a1, .LBB4_288
	b	.LBB4_304
	.p2align	4, , 16
.LBB4_292:                              #   in Loop: Header=BB4_289 Depth=1
	ld.d	$s1, $s6, 0
	sub.d	$s0, $a0, $s1
	beq	$s0, $s3, .LBB4_376
# %bb.293:                              # %_ZNSt12_Vector_baseIiSaIiEE11_M_allocateEm.exit.i.i.i337
                                        #   in Loop: Header=BB4_289 Depth=1
	srai.d	$a0, $s0, 2
	sltu	$a1, $s7, $a0
	masknez	$a2, $s7, $a1
	maskeqz	$a1, $a0, $a1
	or	$a1, $a1, $a2
	add.d	$a0, $a1, $a0
	sltu	$a1, $a0, $a1
	sltu	$a2, $a0, $s8
	maskeqz	$a0, $a0, $a2
	masknez	$a2, $s8, $a2
	or	$a0, $a0, $a2
	masknez	$a0, $a0, $a1
	maskeqz	$a1, $s8, $a1
	or	$s4, $a1, $a0
	slli.d	$a0, $s4, 2
	pcaddu18i	$ra, %call36(_Znwm)
	jirl	$ra, $ra, 0
	move	$s2, $a0
	stx.w	$zero, $a0, $s0
	blez	$s0, .LBB4_295
# %bb.294:                              #   in Loop: Header=BB4_289 Depth=1
	move	$a0, $s2
	move	$a1, $s1
	move	$a2, $s0
	pcaddu18i	$ra, %call36(memcpy)
	jirl	$ra, $ra, 0
.LBB4_295:                              # %_ZNSt6vectorIiSaIiEE11_S_relocateEPiS2_S2_RS0_.exit.i.i.i339
                                        #   in Loop: Header=BB4_289 Depth=1
	beqz	$s1, .LBB4_297
# %bb.296:                              #   in Loop: Header=BB4_289 Depth=1
	move	$a0, $s1
	move	$a1, $s0
	pcaddu18i	$ra, %call36(_ZdlPvm)
	jirl	$ra, $ra, 0
.LBB4_297:                              # %_ZNSt6vectorIiSaIiEE17_M_realloc_appendIJiEEEvDpOT_.exit.i.i341
                                        #   in Loop: Header=BB4_289 Depth=1
	add.d	$a0, $s2, $s0
	addi.d	$a0, $a0, 4
	st.d	$s2, $s6, 0
	st.d	$a0, $s6, 8
	alsl.d	$a0, $s4, $s2, 2
	st.d	$a0, $s6, 16
	ld.d	$s1, $sp, 136                   # 8-byte Folded Reload
	ld.d	$a5, $sp, 112                   # 8-byte Folded Reload
	ld.d	$a6, $sp, 120                   # 8-byte Folded Reload
	ld.d	$a0, $a6, 8
	ld.d	$a1, $a6, 16
	bne	$a0, $a1, .LBB4_291
.LBB4_298:                              #   in Loop: Header=BB4_289 Depth=1
	ld.d	$s1, $a6, 0
	sub.d	$s0, $a0, $s1
	beq	$s0, $s3, .LBB4_376
# %bb.299:                              # %_ZNSt12_Vector_baseIiSaIiEE11_M_allocateEm.exit.i.i344
                                        #   in Loop: Header=BB4_289 Depth=1
	srai.d	$a0, $s0, 2
	sltu	$a1, $s7, $a0
	masknez	$a2, $s7, $a1
	maskeqz	$a1, $a0, $a1
	or	$a1, $a1, $a2
	add.d	$a0, $a1, $a0
	sltu	$a1, $a0, $a1
	sltu	$a2, $a0, $s8
	maskeqz	$a0, $a0, $a2
	masknez	$a2, $s8, $a2
	or	$a0, $a0, $a2
	masknez	$a0, $a0, $a1
	maskeqz	$a1, $s8, $a1
	or	$s4, $a1, $a0
	slli.d	$a0, $s4, 2
	pcaddu18i	$ra, %call36(_Znwm)
	jirl	$ra, $ra, 0
	move	$s2, $a0
	stx.w	$fp, $a0, $s0
	blez	$s0, .LBB4_301
# %bb.300:                              #   in Loop: Header=BB4_289 Depth=1
	move	$a0, $s2
	move	$a1, $s1
	move	$a2, $s0
	pcaddu18i	$ra, %call36(memcpy)
	jirl	$ra, $ra, 0
.LBB4_301:                              # %_ZNSt6vectorIiSaIiEE11_S_relocateEPiS2_S2_RS0_.exit.i.i346
                                        #   in Loop: Header=BB4_289 Depth=1
	beqz	$s1, .LBB4_303
# %bb.302:                              #   in Loop: Header=BB4_289 Depth=1
	move	$a0, $s1
	move	$a1, $s0
	pcaddu18i	$ra, %call36(_ZdlPvm)
	jirl	$ra, $ra, 0
.LBB4_303:                              # %_ZNSt6vectorIiSaIiEE17_M_realloc_appendIJRKiEEEvDpOT_.exit.i348
                                        #   in Loop: Header=BB4_289 Depth=1
	add.d	$a0, $s2, $s0
	addi.d	$a0, $a0, 4
	ld.d	$a6, $sp, 120                   # 8-byte Folded Reload
	st.d	$s2, $a6, 0
	st.d	$a0, $a6, 8
	alsl.d	$a0, $s4, $s2, 2
	st.d	$a0, $a6, 16
	ld.d	$s1, $sp, 136                   # 8-byte Folded Reload
	ld.d	$a5, $sp, 112                   # 8-byte Folded Reload
	ld.d	$a0, $a5, 8
	ld.d	$a1, $a5, 16
	bne	$a0, $a1, .LBB4_288
.LBB4_304:                              #   in Loop: Header=BB4_289 Depth=1
	ld.d	$s1, $a5, 0
	sub.d	$s0, $a0, $s1
	beq	$s0, $s3, .LBB4_376
# %bb.305:                              # %_ZNSt12_Vector_baseIiSaIiEE11_M_allocateEm.exit.i.i.i351
                                        #   in Loop: Header=BB4_289 Depth=1
	srai.d	$a0, $s0, 2
	sltu	$a1, $s7, $a0
	masknez	$a2, $s7, $a1
	maskeqz	$a1, $a0, $a1
	or	$a1, $a1, $a2
	add.d	$a0, $a1, $a0
	sltu	$a1, $a0, $a1
	sltu	$a2, $a0, $s8
	maskeqz	$a0, $a0, $a2
	masknez	$a2, $s8, $a2
	or	$a0, $a0, $a2
	masknez	$a0, $a0, $a1
	maskeqz	$a1, $s8, $a1
	or	$s4, $a1, $a0
	slli.d	$a0, $s4, 2
	pcaddu18i	$ra, %call36(_Znwm)
	jirl	$ra, $ra, 0
	move	$s2, $a0
	stx.w	$s7, $a0, $s0
	blez	$s0, .LBB4_307
# %bb.306:                              #   in Loop: Header=BB4_289 Depth=1
	move	$a0, $s2
	move	$a1, $s1
	move	$a2, $s0
	pcaddu18i	$ra, %call36(memcpy)
	jirl	$ra, $ra, 0
.LBB4_307:                              # %_ZNSt6vectorIiSaIiEE11_S_relocateEPiS2_S2_RS0_.exit.i.i.i353
                                        #   in Loop: Header=BB4_289 Depth=1
	beqz	$s1, .LBB4_309
# %bb.308:                              #   in Loop: Header=BB4_289 Depth=1
	move	$a0, $s1
	move	$a1, $s0
	pcaddu18i	$ra, %call36(_ZdlPvm)
	jirl	$ra, $ra, 0
.LBB4_309:                              # %_ZNSt6vectorIiSaIiEE17_M_realloc_appendIJiEEEvDpOT_.exit.i.i355
                                        #   in Loop: Header=BB4_289 Depth=1
	add.d	$a0, $s2, $s0
	addi.d	$a0, $a0, 4
	ld.d	$a5, $sp, 112                   # 8-byte Folded Reload
	st.d	$s2, $a5, 0
	st.d	$a0, $a5, 8
	alsl.d	$a0, $s4, $s2, 2
	st.d	$a0, $a5, 16
	ld.d	$s1, $sp, 136                   # 8-byte Folded Reload
	ld.d	$a6, $sp, 120                   # 8-byte Folded Reload
	ld.w	$a0, $s1, 56
	addi.w	$fp, $fp, 1
	blt	$fp, $a0, .LBB4_289
.LBB4_310:                              # %thread-pre-split.loopexit
	ld.w	$a1, $s1, 68
.LBB4_311:                              # %thread-pre-split
	ld.w	$a0, $s1, 60
	addi.w	$a0, $a0, -1
	beq	$a1, $a0, .LBB4_325
.LBB4_312:
	pcalau12i	$a0, %got_pc_hi20(_ZN8Parallel4mypeE)
	ld.d	$a0, $a0, %got_pc_lo12(_ZN8Parallel4mypeE)
	ld.w	$a4, $a0, 0
	ld.d	$a0, $s6, 8
	move	$a2, $s1
	ld.d	$s1, $s6, 0
	ld.w	$a5, $a2, 56
	sub.d	$s4, $a0, $s1
	st.d	$s4, $sp, 88                    # 8-byte Folded Spill
	st.d	$a4, $sp, 104                   # 8-byte Folded Spill
	st.d	$a5, $sp, 96                    # 8-byte Folded Spill
	bltz	$s5, .LBB4_329
# %bb.313:                              # %.lr.ph544.preheader
	ld.w	$a2, $a2, 64
	sltui	$a1, $a1, 1
	maskeqz	$a1, $s5, $a1
	ld.d	$a3, $sp, 24                    # 8-byte Folded Reload
	sub.d	$fp, $a3, $a1
	beqz	$a2, .LBB4_326
# %bb.314:
	move	$s2, $s1
	beqz	$s5, .LBB4_328
.LBB4_315:                              # %.lr.ph544.peel.next.preheader
	addi.d	$s8, $fp, 1
	addi.w	$a1, $zero, -4
	lu52i.d	$s0, $a1, 2047
	ori	$fp, $zero, 1
	addi.w	$a1, $zero, -1
	lu52i.d	$s7, $a1, 511
	move	$s4, $s5
	b	.LBB4_317
	.p2align	4, , 16
.LBB4_316:                              #   in Loop: Header=BB4_317 Depth=1
	st.w	$s8, $a0, 0
	addi.d	$a0, $a0, 4
	st.d	$a0, $s6, 8
	move	$s1, $s2
	addi.w	$s4, $s4, -1
	addi.d	$s8, $s8, 1
	beqz	$s4, .LBB4_329
.LBB4_317:                              # %.lr.ph544.peel.next
                                        # =>This Inner Loop Header: Depth=1
	ld.d	$a1, $s6, 16
	bne	$a0, $a1, .LBB4_316
# %bb.318:                              #   in Loop: Header=BB4_317 Depth=1
	sub.d	$s3, $a0, $s2
	beq	$s3, $s0, .LBB4_376
# %bb.319:                              # %_ZNSt12_Vector_baseIiSaIiEE11_M_allocateEm.exit.i.i372
                                        #   in Loop: Header=BB4_317 Depth=1
	srai.d	$a0, $s3, 2
	sltu	$a1, $fp, $a0
	masknez	$a2, $fp, $a1
	maskeqz	$a1, $a0, $a1
	or	$a1, $a1, $a2
	add.d	$a0, $a1, $a0
	sltu	$a1, $a0, $a1
	sltu	$a2, $a0, $s7
	maskeqz	$a0, $a0, $a2
	masknez	$a2, $s7, $a2
	or	$a0, $a0, $a2
	masknez	$a0, $a0, $a1
	maskeqz	$a1, $s7, $a1
	or	$s5, $a1, $a0
	slli.d	$a0, $s5, 2
	pcaddu18i	$ra, %call36(_Znwm)
	jirl	$ra, $ra, 0
	move	$s1, $a0
	stx.w	$s8, $a0, $s3
	blez	$s3, .LBB4_321
# %bb.320:                              #   in Loop: Header=BB4_317 Depth=1
	move	$a0, $s1
	move	$a1, $s2
	move	$a2, $s3
	pcaddu18i	$ra, %call36(memcpy)
	jirl	$ra, $ra, 0
.LBB4_321:                              # %_ZNSt6vectorIiSaIiEE11_S_relocateEPiS2_S2_RS0_.exit.i.i374
                                        #   in Loop: Header=BB4_317 Depth=1
	beqz	$s2, .LBB4_323
# %bb.322:                              #   in Loop: Header=BB4_317 Depth=1
	move	$a0, $s2
	move	$a1, $s3
	pcaddu18i	$ra, %call36(_ZdlPvm)
	jirl	$ra, $ra, 0
.LBB4_323:                              # %_ZNSt6vectorIiSaIiEE17_M_realloc_appendIJRKiEEEvDpOT_.exit.i376
                                        #   in Loop: Header=BB4_317 Depth=1
	add.d	$a0, $s1, $s3
	addi.d	$a0, $a0, 4
	st.d	$s1, $s6, 0
	st.d	$a0, $s6, 8
	alsl.d	$a1, $s5, $s1, 2
	st.d	$a1, $s6, 16
	move	$s2, $s1
	ld.d	$s5, $sp, 128                   # 8-byte Folded Reload
	addi.w	$s4, $s4, -1
	addi.d	$s8, $s8, 1
	bnez	$s4, .LBB4_317
	b	.LBB4_329
.LBB4_324:
	move	$a1, $zero
	ld.w	$a0, $s1, 60
	addi.w	$a0, $a0, -1
	bne	$a1, $a0, .LBB4_312
.LBB4_325:                              # %_ZNSt6vectorIiSaIiEE9push_backEOi.exit370
	ld.w	$s3, $s1, 56
	ld.w	$a0, $s1, 64
	addi.w	$a1, $s3, -1
	beq	$a0, $a1, .LBB4_369
	b	.LBB4_345
.LBB4_326:
	ld.d	$a1, $s6, 16
	beq	$a0, $a1, .LBB4_370
# %bb.327:
	st.w	$fp, $a0, 0
	addi.d	$a0, $a0, 4
	st.d	$a0, $s6, 8
	move	$s2, $s1
	bnez	$s5, .LBB4_315
.LBB4_328:
	move	$s1, $s2
.LBB4_329:                              # %._crit_edge545
	ld.d	$a6, $sp, 120                   # 8-byte Folded Reload
	ld.d	$a0, $a6, 8
	ld.d	$a1, $a6, 16
	ld.d	$a2, $sp, 104                   # 8-byte Folded Reload
	ld.d	$a3, $sp, 96                    # 8-byte Folded Reload
	add.d	$s0, $a3, $a2
	beq	$a0, $a1, .LBB4_331
# %bb.330:
	st.w	$s0, $a0, 0
	addi.d	$a0, $a0, 4
	st.d	$a0, $a6, 8
	ld.d	$s4, $sp, 88                    # 8-byte Folded Reload
	b	.LBB4_337
.LBB4_331:
	ld.d	$s1, $a6, 0
	sub.d	$s2, $a0, $s1
	addi.w	$a0, $zero, -4
	lu52i.d	$a0, $a0, 2047
	ld.d	$s4, $sp, 88                    # 8-byte Folded Reload
	beq	$s2, $a0, .LBB4_376
# %bb.332:                              # %_ZNSt12_Vector_baseIiSaIiEE11_M_allocateEm.exit.i.i358
	srai.d	$a0, $s2, 2
	ori	$a1, $zero, 1
	sltu	$a2, $a1, $a0
	masknez	$a1, $a1, $a2
	maskeqz	$a2, $a0, $a2
	or	$a1, $a2, $a1
	add.d	$a0, $a1, $a0
	sltu	$a1, $a0, $a1
	addi.w	$a2, $zero, -1
	lu52i.d	$a2, $a2, 511
	sltu	$a3, $a0, $a2
	maskeqz	$a0, $a0, $a3
	masknez	$a3, $a2, $a3
	or	$a0, $a0, $a3
	masknez	$a0, $a0, $a1
	maskeqz	$a1, $a2, $a1
	or	$fp, $a1, $a0
	slli.d	$a0, $fp, 2
	pcaddu18i	$ra, %call36(_Znwm)
	jirl	$ra, $ra, 0
	move	$s3, $a0
	stx.w	$s0, $a0, $s2
	blez	$s2, .LBB4_334
# %bb.333:
	move	$a0, $s3
	move	$a1, $s1
	move	$a2, $s2
	pcaddu18i	$ra, %call36(memcpy)
	jirl	$ra, $ra, 0
.LBB4_334:                              # %_ZNSt6vectorIiSaIiEE11_S_relocateEPiS2_S2_RS0_.exit.i.i360
	add.d	$s0, $s3, $s2
	beqz	$s1, .LBB4_336
# %bb.335:
	move	$a0, $s1
	move	$a1, $s2
	pcaddu18i	$ra, %call36(_ZdlPvm)
	jirl	$ra, $ra, 0
.LBB4_336:                              # %_ZNSt6vectorIiSaIiEE17_M_realloc_appendIJRKiEEEvDpOT_.exit.i362
	addi.d	$a0, $s0, 4
	ld.d	$a6, $sp, 120                   # 8-byte Folded Reload
	st.d	$s3, $a6, 0
	ld.d	$s1, $s6, 0
	st.d	$a0, $a6, 8
	alsl.d	$a0, $fp, $s3, 2
	st.d	$a0, $a6, 16
.LBB4_337:                              # %_ZNSt6vectorIiSaIiEE9push_backERKi.exit363
	ld.d	$a1, $s6, 8
	ld.d	$a5, $sp, 112                   # 8-byte Folded Reload
	ld.d	$a0, $a5, 8
	ld.d	$a2, $a5, 16
	srli.d	$a3, $s4, 2
	sub.d	$a1, $a1, $s1
	srli.d	$a1, $a1, 2
	sub.d	$fp, $a1, $a3
	beq	$a0, $a2, .LBB4_339
# %bb.338:
	st.w	$fp, $a0, 0
	addi.d	$a0, $a0, 4
	st.d	$a0, $a5, 8
	ld.d	$s1, $sp, 136                   # 8-byte Folded Reload
	ld.w	$s3, $s1, 56
	ld.w	$a0, $s1, 64
	addi.w	$a1, $s3, -1
	beq	$a0, $a1, .LBB4_369
	b	.LBB4_345
.LBB4_339:
	ld.d	$s0, $a5, 0
	sub.d	$s1, $a0, $s0
	addi.w	$a0, $zero, -4
	lu52i.d	$a0, $a0, 2047
	beq	$s1, $a0, .LBB4_376
# %bb.340:                              # %_ZNSt12_Vector_baseIiSaIiEE11_M_allocateEm.exit.i.i.i365
	srai.d	$a0, $s1, 2
	ori	$a1, $zero, 1
	sltu	$a2, $a1, $a0
	masknez	$a1, $a1, $a2
	maskeqz	$a2, $a0, $a2
	or	$a1, $a2, $a1
	add.d	$a0, $a1, $a0
	sltu	$a1, $a0, $a1
	addi.w	$a2, $zero, -1
	lu52i.d	$a2, $a2, 511
	sltu	$a3, $a0, $a2
	maskeqz	$a0, $a0, $a3
	masknez	$a3, $a2, $a3
	or	$a0, $a0, $a3
	masknez	$a0, $a0, $a1
	maskeqz	$a1, $a2, $a1
	or	$s3, $a1, $a0
	slli.d	$a0, $s3, 2
	pcaddu18i	$ra, %call36(_Znwm)
	jirl	$ra, $ra, 0
	move	$s2, $a0
	stx.w	$fp, $a0, $s1
	blez	$s1, .LBB4_342
# %bb.341:
	move	$a0, $s2
	move	$a1, $s0
	move	$a2, $s1
	pcaddu18i	$ra, %call36(memcpy)
	jirl	$ra, $ra, 0
.LBB4_342:                              # %_ZNSt6vectorIiSaIiEE11_S_relocateEPiS2_S2_RS0_.exit.i.i.i367
	add.d	$fp, $s2, $s1
	beqz	$s0, .LBB4_344
# %bb.343:
	move	$a0, $s0
	move	$a1, $s1
	pcaddu18i	$ra, %call36(_ZdlPvm)
	jirl	$ra, $ra, 0
.LBB4_344:                              # %_ZNSt6vectorIiSaIiEE17_M_realloc_appendIJiEEEvDpOT_.exit.i.i369
	addi.d	$a0, $fp, 4
	ld.d	$a5, $sp, 112                   # 8-byte Folded Reload
	st.d	$s2, $a5, 0
	st.d	$a0, $a5, 8
	alsl.d	$a0, $s3, $s2, 2
	st.d	$a0, $a5, 16
	ld.d	$s1, $sp, 136                   # 8-byte Folded Reload
	ld.d	$a6, $sp, 120                   # 8-byte Folded Reload
	ld.w	$s3, $s1, 56
	ld.w	$a0, $s1, 64
	addi.w	$a1, $s3, -1
	beq	$a0, $a1, .LBB4_369
.LBB4_345:
	ld.w	$a1, $s1, 60
	ld.w	$a0, $s1, 68
	addi.w	$a1, $a1, -1
	beq	$a0, $a1, .LBB4_369
# %bb.346:
	pcalau12i	$a1, %got_pc_hi20(_ZN8Parallel4mypeE)
	ld.d	$a1, $a1, %got_pc_lo12(_ZN8Parallel4mypeE)
	ld.w	$s4, $a1, 0
	sltui	$a1, $a0, 1
	nor	$a2, $s5, $zero
	addi.w	$s2, $zero, -1
	ld.d	$a0, $s6, 8
	ld.d	$a3, $s6, 16
	masknez	$a4, $s2, $a1
	maskeqz	$a1, $a2, $a1
	or	$a1, $a1, $a4
	ld.d	$a2, $sp, 16                    # 8-byte Folded Reload
	add.d	$s7, $a1, $a2
	beq	$a0, $a3, .LBB4_348
# %bb.347:
	st.w	$s7, $a0, 0
	addi.d	$a0, $a0, 4
	st.d	$a0, $s6, 8
	b	.LBB4_354
.LBB4_348:
	ld.d	$fp, $s6, 0
	sub.d	$s0, $a0, $fp
	addi.w	$a0, $zero, -4
	lu52i.d	$a0, $a0, 2047
	beq	$s0, $a0, .LBB4_376
# %bb.349:                              # %_ZNSt12_Vector_baseIiSaIiEE11_M_allocateEm.exit.i.i379
	srai.d	$a0, $s0, 2
	ori	$a1, $zero, 1
	sltu	$a2, $a1, $a0
	masknez	$a1, $a1, $a2
	maskeqz	$a2, $a0, $a2
	or	$a1, $a2, $a1
	add.d	$a0, $a1, $a0
	sltu	$a1, $a0, $a1
	lu52i.d	$a2, $s2, 511
	sltu	$a3, $a0, $a2
	maskeqz	$a0, $a0, $a3
	masknez	$a3, $a2, $a3
	or	$a0, $a0, $a3
	masknez	$a0, $a0, $a1
	maskeqz	$a1, $a2, $a1
	or	$s5, $a1, $a0
	slli.d	$a0, $s5, 2
	pcaddu18i	$ra, %call36(_Znwm)
	jirl	$ra, $ra, 0
	move	$s1, $a0
	stx.w	$s7, $a0, $s0
	blez	$s0, .LBB4_351
# %bb.350:
	move	$a0, $s1
	move	$a1, $fp
	move	$a2, $s0
	pcaddu18i	$ra, %call36(memcpy)
	jirl	$ra, $ra, 0
.LBB4_351:                              # %_ZNSt6vectorIiSaIiEE11_S_relocateEPiS2_S2_RS0_.exit.i.i381
	add.d	$s7, $s1, $s0
	beqz	$fp, .LBB4_353
# %bb.352:
	move	$a0, $fp
	move	$a1, $s0
	pcaddu18i	$ra, %call36(_ZdlPvm)
	jirl	$ra, $ra, 0
.LBB4_353:                              # %_ZNSt6vectorIiSaIiEE17_M_realloc_appendIJRKiEEEvDpOT_.exit.i383
	addi.d	$a0, $s7, 4
	st.d	$s1, $s6, 0
	st.d	$a0, $s6, 8
	alsl.d	$a0, $s5, $s1, 2
	st.d	$a0, $s6, 16
	ld.d	$a5, $sp, 112                   # 8-byte Folded Reload
	ld.d	$a6, $sp, 120                   # 8-byte Folded Reload
.LBB4_354:                              # %_ZNSt6vectorIiSaIiEE9push_backERKi.exit384
	ld.d	$a0, $a6, 8
	ld.d	$a1, $a6, 16
	add.d	$a2, $s3, $s4
	addi.d	$s3, $a2, 1
	beq	$a0, $a1, .LBB4_357
# %bb.355:
	st.w	$s3, $a0, 0
	addi.d	$a0, $a0, 4
	st.d	$a0, $a6, 8
	ld.d	$a0, $a5, 8
	ld.d	$a1, $a5, 16
	beq	$a0, $a1, .LBB4_363
.LBB4_356:
	ori	$a1, $zero, 1
	st.w	$a1, $a0, 0
	addi.d	$a0, $a0, 4
	st.d	$a0, $a5, 8
	b	.LBB4_369
.LBB4_357:
	ld.d	$fp, $a6, 0
	sub.d	$s0, $a0, $fp
	addi.w	$a0, $zero, -4
	lu52i.d	$a0, $a0, 2047
	beq	$s0, $a0, .LBB4_376
# %bb.358:                              # %_ZNSt12_Vector_baseIiSaIiEE11_M_allocateEm.exit.i.i386
	srai.d	$a0, $s0, 2
	ori	$a1, $zero, 1
	sltu	$a2, $a1, $a0
	masknez	$a1, $a1, $a2
	maskeqz	$a2, $a0, $a2
	or	$a1, $a2, $a1
	add.d	$a0, $a1, $a0
	sltu	$a1, $a0, $a1
	lu52i.d	$a2, $s2, 511
	sltu	$a3, $a0, $a2
	maskeqz	$a0, $a0, $a3
	masknez	$a3, $a2, $a3
	or	$a0, $a0, $a3
	masknez	$a0, $a0, $a1
	maskeqz	$a1, $a2, $a1
	or	$s4, $a1, $a0
	slli.d	$a0, $s4, 2
	pcaddu18i	$ra, %call36(_Znwm)
	jirl	$ra, $ra, 0
	move	$s1, $a0
	stx.w	$s3, $a0, $s0
	blez	$s0, .LBB4_360
# %bb.359:
	move	$a0, $s1
	move	$a1, $fp
	move	$a2, $s0
	pcaddu18i	$ra, %call36(memcpy)
	jirl	$ra, $ra, 0
.LBB4_360:                              # %_ZNSt6vectorIiSaIiEE11_S_relocateEPiS2_S2_RS0_.exit.i.i388
	add.d	$s3, $s1, $s0
	beqz	$fp, .LBB4_362
# %bb.361:
	move	$a0, $fp
	move	$a1, $s0
	pcaddu18i	$ra, %call36(_ZdlPvm)
	jirl	$ra, $ra, 0
.LBB4_362:                              # %_ZNSt6vectorIiSaIiEE17_M_realloc_appendIJRKiEEEvDpOT_.exit.i390
	addi.d	$a0, $s3, 4
	ld.d	$a1, $sp, 120                   # 8-byte Folded Reload
	st.d	$s1, $a1, 0
	st.d	$a0, $a1, 8
	alsl.d	$a0, $s4, $s1, 2
	st.d	$a0, $a1, 16
	ld.d	$a5, $sp, 112                   # 8-byte Folded Reload
	ld.d	$a0, $a5, 8
	ld.d	$a1, $a5, 16
	bne	$a0, $a1, .LBB4_356
.LBB4_363:
	ld.d	$fp, $a5, 0
	sub.d	$s0, $a0, $fp
	addi.w	$a0, $zero, -4
	lu52i.d	$a0, $a0, 2047
	beq	$s0, $a0, .LBB4_376
# %bb.364:                              # %_ZNSt12_Vector_baseIiSaIiEE11_M_allocateEm.exit.i.i.i393
	srai.d	$a0, $s0, 2
	ori	$s3, $zero, 1
	sltu	$a1, $s3, $a0
	masknez	$a2, $s3, $a1
	maskeqz	$a1, $a0, $a1
	or	$a1, $a1, $a2
	add.d	$a0, $a1, $a0
	sltu	$a1, $a0, $a1
	lu52i.d	$a2, $s2, 511
	sltu	$a3, $a0, $a2
	maskeqz	$a0, $a0, $a3
	masknez	$a3, $a2, $a3
	or	$a0, $a0, $a3
	masknez	$a0, $a0, $a1
	maskeqz	$a1, $a2, $a1
	or	$s2, $a1, $a0
	slli.d	$a0, $s2, 2
	pcaddu18i	$ra, %call36(_Znwm)
	jirl	$ra, $ra, 0
	move	$s1, $a0
	stx.w	$s3, $a0, $s0
	blez	$s0, .LBB4_366
# %bb.365:
	move	$a0, $s1
	move	$a1, $fp
	move	$a2, $s0
	pcaddu18i	$ra, %call36(memcpy)
	jirl	$ra, $ra, 0
.LBB4_366:                              # %_ZNSt6vectorIiSaIiEE11_S_relocateEPiS2_S2_RS0_.exit.i.i.i395
	add.d	$s3, $s1, $s0
	beqz	$fp, .LBB4_368
# %bb.367:
	move	$a0, $fp
	move	$a1, $s0
	pcaddu18i	$ra, %call36(_ZdlPvm)
	jirl	$ra, $ra, 0
.LBB4_368:                              # %_ZNSt6vectorIiSaIiEE17_M_realloc_appendIJiEEEvDpOT_.exit.i.i397
	addi.d	$a0, $s3, 4
	ld.d	$a1, $sp, 112                   # 8-byte Folded Reload
	st.d	$s1, $a1, 0
	st.d	$a0, $a1, 8
	alsl.d	$a0, $s2, $s1, 2
	st.d	$a0, $a1, 16
.LBB4_369:                              # %_ZNSt6vectorIiSaIiEE9push_backEOi.exit398
	fld.d	$fs4, $sp, 144                  # 8-byte Folded Reload
	fld.d	$fs3, $sp, 152                  # 8-byte Folded Reload
	fld.d	$fs2, $sp, 160                  # 8-byte Folded Reload
	fld.d	$fs1, $sp, 168                  # 8-byte Folded Reload
	fld.d	$fs0, $sp, 176                  # 8-byte Folded Reload
	ld.d	$s8, $sp, 184                   # 8-byte Folded Reload
	ld.d	$s7, $sp, 192                   # 8-byte Folded Reload
	ld.d	$s6, $sp, 200                   # 8-byte Folded Reload
	ld.d	$s5, $sp, 208                   # 8-byte Folded Reload
	ld.d	$s4, $sp, 216                   # 8-byte Folded Reload
	ld.d	$s3, $sp, 224                   # 8-byte Folded Reload
	ld.d	$s2, $sp, 232                   # 8-byte Folded Reload
	ld.d	$s1, $sp, 240                   # 8-byte Folded Reload
	ld.d	$s0, $sp, 248                   # 8-byte Folded Reload
	ld.d	$fp, $sp, 256                   # 8-byte Folded Reload
	ld.d	$ra, $sp, 264                   # 8-byte Folded Reload
	addi.d	$sp, $sp, 272
	ret
.LBB4_370:
	addi.w	$a0, $zero, -4
	lu52i.d	$a0, $a0, 2047
	beq	$s4, $a0, .LBB4_376
# %bb.371:                              # %_ZNSt12_Vector_baseIiSaIiEE11_M_allocateEm.exit.i.i372.peel
	move	$a1, $s4
	srai.d	$a0, $a1, 2
	ori	$a1, $zero, 1
	sltu	$a2, $a1, $a0
	masknez	$a1, $a1, $a2
	maskeqz	$a2, $a0, $a2
	or	$a1, $a2, $a1
	add.d	$a0, $a1, $a0
	sltu	$a1, $a0, $a1
	addi.w	$a2, $zero, -1
	lu52i.d	$a2, $a2, 511
	sltu	$a3, $a0, $a2
	maskeqz	$a0, $a0, $a3
	masknez	$a3, $a2, $a3
	or	$a0, $a0, $a3
	masknez	$a0, $a0, $a1
	maskeqz	$a1, $a2, $a1
	or	$s0, $a1, $a0
	slli.d	$a0, $s0, 2
	pcaddu18i	$ra, %call36(_Znwm)
	jirl	$ra, $ra, 0
	move	$s2, $a0
	stx.w	$fp, $a0, $s4
	blez	$s4, .LBB4_373
# %bb.372:
	move	$a0, $s2
	move	$a1, $s1
	move	$a2, $s4
	pcaddu18i	$ra, %call36(memcpy)
	jirl	$ra, $ra, 0
.LBB4_373:                              # %_ZNSt6vectorIiSaIiEE11_S_relocateEPiS2_S2_RS0_.exit.i.i374.peel
	add.d	$s3, $s2, $s4
	beqz	$s1, .LBB4_375
# %bb.374:
	move	$a0, $s1
	move	$a1, $s4
	pcaddu18i	$ra, %call36(_ZdlPvm)
	jirl	$ra, $ra, 0
.LBB4_375:                              # %_ZNSt6vectorIiSaIiEE17_M_realloc_appendIJRKiEEEvDpOT_.exit.i376.peel
	addi.d	$a0, $s3, 4
	st.d	$s2, $s6, 0
	st.d	$a0, $s6, 8
	alsl.d	$a1, $s0, $s2, 2
	st.d	$a1, $s6, 16
	bnez	$s5, .LBB4_315
	b	.LBB4_328
.LBB4_376:                              # %.noexc
	pcalau12i	$a0, %pc_hi20(.L.str.14)
	addi.d	$a0, $a0, %pc_lo12(.L.str.14)
	pcaddu18i	$ra, %call36(_ZSt20__throw_length_errorPKc)
	jirl	$ra, $ra, 0
.LBB4_377:
	pcalau12i	$a0, %pc_hi20(.L.str.13)
	addi.d	$a0, $a0, %pc_lo12(.L.str.13)
	pcaddu18i	$ra, %call36(_ZSt20__throw_length_errorPKc)
	jirl	$ra, $ra, 0
.Lfunc_end4:
	.size	_ZN7GenMesh11generatePieERSt6vectorI7double2SaIS1_EERS0_IiSaIiEES7_S7_S7_S7_S7_S7_S7_S7_, .Lfunc_end4-_ZN7GenMesh11generatePieERSt6vectorI7double2SaIS1_EERS0_IiSaIiEES7_S7_S7_S7_S7_S7_S7_S7_
	.cfi_endproc
                                        # -- End function
	.globl	_ZN7GenMesh12generateRectERSt6vectorI7double2SaIS1_EERS0_IiSaIiEES7_S7_S7_S7_S7_S7_S7_S7_ # -- Begin function _ZN7GenMesh12generateRectERSt6vectorI7double2SaIS1_EERS0_IiSaIiEES7_S7_S7_S7_S7_S7_S7_S7_
	.p2align	5
	.type	_ZN7GenMesh12generateRectERSt6vectorI7double2SaIS1_EERS0_IiSaIiEES7_S7_S7_S7_S7_S7_S7_S7_,@function
_ZN7GenMesh12generateRectERSt6vectorI7double2SaIS1_EERS0_IiSaIiEES7_S7_S7_S7_S7_S7_S7_S7_: # @_ZN7GenMesh12generateRectERSt6vectorI7double2SaIS1_EERS0_IiSaIiEES7_S7_S7_S7_S7_S7_S7_S7_
	.cfi_startproc
# %bb.0:
	addi.d	$sp, $sp, -240
	.cfi_def_cfa_offset 240
	st.d	$ra, $sp, 232                   # 8-byte Folded Spill
	st.d	$fp, $sp, 224                   # 8-byte Folded Spill
	st.d	$s0, $sp, 216                   # 8-byte Folded Spill
	st.d	$s1, $sp, 208                   # 8-byte Folded Spill
	st.d	$s2, $sp, 200                   # 8-byte Folded Spill
	st.d	$s3, $sp, 192                   # 8-byte Folded Spill
	st.d	$s4, $sp, 184                   # 8-byte Folded Spill
	st.d	$s5, $sp, 176                   # 8-byte Folded Spill
	st.d	$s6, $sp, 168                   # 8-byte Folded Spill
	st.d	$s7, $sp, 160                   # 8-byte Folded Spill
	st.d	$s8, $sp, 152                   # 8-byte Folded Spill
	fst.d	$fs0, $sp, 144                  # 8-byte Folded Spill
	fst.d	$fs1, $sp, 136                  # 8-byte Folded Spill
	fst.d	$fs2, $sp, 128                  # 8-byte Folded Spill
	fst.d	$fs3, $sp, 120                  # 8-byte Folded Spill
	.cfi_offset 1, -8
	.cfi_offset 22, -16
	.cfi_offset 23, -24
	.cfi_offset 24, -32
	.cfi_offset 25, -40
	.cfi_offset 26, -48
	.cfi_offset 27, -56
	.cfi_offset 28, -64
	.cfi_offset 29, -72
	.cfi_offset 30, -80
	.cfi_offset 31, -88
	.cfi_offset 56, -96
	.cfi_offset 57, -104
	.cfi_offset 58, -112
	.cfi_offset 59, -120
	move	$s4, $a0
	ld.w	$a0, $a0, 72
	ld.w	$t0, $s4, 76
	st.d	$a0, $sp, 64                    # 8-byte Folded Spill
	addi.d	$a0, $a0, 1
	st.d	$t0, $sp, 48                    # 8-byte Folded Spill
	addi.d	$t0, $t0, 1
	st.d	$t0, $sp, 16                    # 8-byte Folded Spill
	mul.w	$s0, $t0, $a0
	st.d	$a7, $sp, 40                    # 8-byte Folded Spill
	bltz	$s0, .LBB5_317
# %bb.1:
	move	$s3, $a4
	move	$s6, $a1
	st.d	$a0, $sp, 56                    # 8-byte Folded Spill
	ld.d	$fp, $a1, 16
	ld.d	$s7, $a1, 0
	sub.d	$s8, $fp, $s7
	srai.d	$a0, $s8, 4
	st.d	$a6, $sp, 24                    # 8-byte Folded Spill
	st.d	$a5, $sp, 32                    # 8-byte Folded Spill
	st.d	$a3, $sp, 72                    # 8-byte Folded Spill
	st.d	$a2, $sp, 96                    # 8-byte Folded Spill
	st.d	$s0, $sp, 8                     # 8-byte Folded Spill
	bgeu	$a0, $s0, .LBB5_8
# %bb.2:                                # %_ZNSt12_Vector_baseI7double2SaIS0_EE11_M_allocateEm.exit.i.i
	ld.d	$fp, $s6, 8
	slli.d	$a0, $s0, 4
	pcaddu18i	$ra, %call36(_Znwm)
	jirl	$ra, $ra, 0
	move	$s5, $a0
	beq	$fp, $s7, .LBB5_5
# %bb.3:                                # %.lr.ph.i.i.i.i.i.i.preheader
	move	$a0, $s5
	move	$a1, $s7
	.p2align	4, , 16
.LBB5_4:                                # %.lr.ph.i.i.i.i.i.i
                                        # =>This Inner Loop Header: Depth=1
	vld	$vr0, $a1, 0
	vst	$vr0, $a0, 0
	addi.d	$a1, $a1, 16
	addi.d	$a0, $a0, 16
	bne	$a1, $fp, .LBB5_4
.LBB5_5:                                # %_ZNSt6vectorI7double2SaIS0_EE20_M_allocate_and_copyIPKS0_EEPS0_mT_S7_.exit.i
	sub.d	$fp, $fp, $s7
	beqz	$s7, .LBB5_7
# %bb.6:
	move	$a0, $s7
	move	$a1, $s8
	pcaddu18i	$ra, %call36(_ZdlPvm)
	jirl	$ra, $ra, 0
.LBB5_7:                                # %_ZNSt12_Vector_baseI7double2SaIS0_EE13_M_deallocateEPS0_m.exit.i
	st.d	$s5, $s6, 0
	add.d	$a0, $s5, $fp
	st.d	$a0, $s6, 8
	alsl.d	$fp, $s0, $s5, 4
	st.d	$fp, $s6, 16
	st.d	$s4, $sp, 104                   # 8-byte Folded Spill
	ld.d	$s8, $sp, 64                    # 8-byte Folded Reload
	ld.d	$a0, $sp, 48                    # 8-byte Folded Reload
	bgez	$a0, .LBB5_9
	b	.LBB5_22
.LBB5_8:
	move	$s5, $s7
	st.d	$s4, $sp, 104                   # 8-byte Folded Spill
	ld.d	$s8, $sp, 64                    # 8-byte Folded Reload
	ld.d	$a0, $sp, 48                    # 8-byte Folded Reload
	bltz	$a0, .LBB5_22
.LBB5_9:                                # %.lr.ph380
	bltz	$s8, .LBB5_22
# %bb.10:                               # %.lr.ph.preheader
	ld.w	$a0, $s4, 32
	move	$a1, $zero
	fld.d	$fa0, $s4, 40
	movgr2fr.w	$fa1, $a0
	ld.w	$a0, $s4, 36
	ffint.d.w	$fa1, $fa1
	fld.d	$fa2, $s4, 48
	fdiv.d	$fs0, $fa0, $fa1
	movgr2fr.w	$fa0, $a0
	ffint.d.w	$fa0, $fa0
	fdiv.d	$fs1, $fa2, $fa0
	ld.d	$a0, $s6, 8
	addi.w	$a2, $zero, -16
	lu52i.d	$a2, $a2, 2047
	st.d	$a2, $sp, 112                   # 8-byte Folded Spill
	addi.w	$a2, $zero, -1
	lu52i.d	$s1, $a2, 127
	b	.LBB5_12
	.p2align	4, , 16
.LBB5_11:                               # %._crit_edge
                                        #   in Loop: Header=BB5_12 Depth=1
	ld.d	$a3, $sp, 88                    # 8-byte Folded Reload
	addi.w	$a1, $a3, 1
	ld.d	$a2, $sp, 48                    # 8-byte Folded Reload
	beq	$a3, $a2, .LBB5_22
.LBB5_12:                               # %.lr.ph
                                        # =>This Loop Header: Depth=1
                                        #     Child Loop BB5_14 Depth 2
                                        #       Child Loop BB5_18 Depth 3
	ld.w	$a3, $s4, 84
	move	$a2, $zero
	st.d	$a1, $sp, 88                    # 8-byte Folded Spill
	add.d	$a1, $a3, $a1
	movgr2fr.w	$fa0, $a1
	ffint.d.w	$fa0, $fa0
	fmul.d	$fs2, $fs1, $fa0
	b	.LBB5_14
	.p2align	4, , 16
.LBB5_13:                               #   in Loop: Header=BB5_14 Depth=2
	fst.d	$fs3, $a0, 0
	fst.d	$fs2, $a0, 8
	addi.d	$a0, $a0, 16
	st.d	$a0, $s6, 8
	addi.w	$a2, $s2, 1
	beq	$s2, $s8, .LBB5_11
.LBB5_14:                               #   Parent Loop BB5_12 Depth=1
                                        # =>  This Loop Header: Depth=2
                                        #       Child Loop BB5_18 Depth 3
	ld.w	$a1, $s4, 80
	move	$s2, $a2
	add.d	$a1, $a1, $a2
	movgr2fr.w	$fa0, $a1
	ffint.d.w	$fa0, $fa0
	fmul.d	$fs3, $fs0, $fa0
	bne	$a0, $fp, .LBB5_13
# %bb.15:                               #   in Loop: Header=BB5_14 Depth=2
	sub.d	$s8, $fp, $s5
	ld.d	$a0, $sp, 112                   # 8-byte Folded Reload
	beq	$s8, $a0, .LBB5_316
# %bb.16:                               # %.noexc314
                                        #   in Loop: Header=BB5_14 Depth=2
	srai.d	$a0, $s8, 4
	ori	$a2, $zero, 1
	sltu	$a1, $a2, $a0
	masknez	$a2, $a2, $a1
	maskeqz	$a1, $a0, $a1
	or	$a1, $a1, $a2
	add.d	$a0, $a1, $a0
	sltu	$a1, $a0, $a1
	sltu	$a2, $a0, $s1
	maskeqz	$a0, $a0, $a2
	masknez	$a2, $s1, $a2
	or	$a0, $a0, $a2
	masknez	$a0, $a0, $a1
	maskeqz	$a1, $s1, $a1
	or	$s4, $a1, $a0
	slli.d	$a0, $s4, 4
	pcaddu18i	$ra, %call36(_Znwm)
	jirl	$ra, $ra, 0
	move	$s0, $a0
	add.d	$a0, $a0, $s8
	fstx.d	$fs3, $s0, $s8
	fst.d	$fs2, $a0, 8
	move	$s7, $s0
	beq	$s5, $fp, .LBB5_19
# %bb.17:                               # %.lr.ph.i.i.i.i.i.i.i.preheader
                                        #   in Loop: Header=BB5_14 Depth=2
	move	$s7, $s0
	move	$a0, $s5
	.p2align	4, , 16
.LBB5_18:                               # %.lr.ph.i.i.i.i.i.i.i
                                        #   Parent Loop BB5_12 Depth=1
                                        #     Parent Loop BB5_14 Depth=2
                                        # =>    This Inner Loop Header: Depth=3
	vld	$vr0, $a0, 0
	vst	$vr0, $s7, 0
	addi.d	$a0, $a0, 16
	addi.d	$s7, $s7, 16
	bne	$a0, $fp, .LBB5_18
.LBB5_19:                               # %_ZSt34__uninitialized_move_if_noexcept_aIP7double2S1_SaIS0_EET0_T_S4_S3_RT1_.exit.i.i
                                        #   in Loop: Header=BB5_14 Depth=2
	beqz	$s5, .LBB5_21
# %bb.20:                               #   in Loop: Header=BB5_14 Depth=2
	move	$a0, $s5
	move	$a1, $s8
	pcaddu18i	$ra, %call36(_ZdlPvm)
	jirl	$ra, $ra, 0
.LBB5_21:                               # %_ZNSt6vectorI7double2SaIS0_EE17_M_realloc_appendIJS0_EEEvDpOT_.exit.i
                                        #   in Loop: Header=BB5_14 Depth=2
	addi.d	$a0, $s7, 16
	st.d	$s0, $s6, 0
	st.d	$a0, $s6, 8
	alsl.d	$fp, $s4, $s0, 4
	st.d	$fp, $s6, 16
	move	$s5, $s0
	ld.d	$s4, $sp, 104                   # 8-byte Folded Reload
	ld.d	$s8, $sp, 64                    # 8-byte Folded Reload
	addi.w	$a2, $s2, 1
	bne	$s2, $s8, .LBB5_14
	b	.LBB5_11
.LBB5_22:                               # %._crit_edge381
	ld.d	$a0, $sp, 48                    # 8-byte Folded Reload
	mul.w	$fp, $a0, $s8
	bltz	$fp, .LBB5_317
# %bb.23:
	ld.d	$s2, $sp, 96                    # 8-byte Folded Reload
	ld.d	$a0, $s2, 16
	ld.d	$s0, $s2, 0
	sub.d	$s6, $a0, $s0
	srai.d	$a0, $s6, 2
	ld.d	$s1, $sp, 72                    # 8-byte Folded Reload
	bgeu	$a0, $fp, .LBB5_29
# %bb.24:                               # %_ZNSt12_Vector_baseIiSaIiEE11_M_allocateEm.exit.i
	ld.d	$a0, $s2, 8
	sub.d	$s7, $a0, $s0
	slli.d	$a0, $fp, 2
	pcaddu18i	$ra, %call36(_Znwm)
	jirl	$ra, $ra, 0
	move	$s8, $a0
	blez	$s7, .LBB5_26
# %bb.25:
	move	$a0, $s8
	move	$a1, $s0
	move	$a2, $s7
	pcaddu18i	$ra, %call36(memcpy)
	jirl	$ra, $ra, 0
.LBB5_26:                               # %_ZNSt6vectorIiSaIiEE11_S_relocateEPiS2_S2_RS0_.exit.i
	beqz	$s0, .LBB5_28
# %bb.27:
	move	$a0, $s0
	move	$a1, $s6
	pcaddu18i	$ra, %call36(_ZdlPvm)
	jirl	$ra, $ra, 0
.LBB5_28:                               # %_ZNSt12_Vector_baseIiSaIiEE13_M_deallocateEPim.exit.i
	st.d	$s8, $s2, 0
	add.d	$a0, $s8, $s7
	st.d	$a0, $s2, 8
	alsl.d	$a0, $fp, $s8, 2
	st.d	$a0, $s2, 16
	ld.d	$s8, $sp, 64                    # 8-byte Folded Reload
.LBB5_29:                               # %_ZNSt6vectorIiSaIiEE7reserveEm.exit
	ld.d	$a0, $s1, 16
	ld.d	$s0, $s1, 0
	sub.d	$s6, $a0, $s0
	srai.d	$a0, $s6, 2
	bgeu	$a0, $fp, .LBB5_35
# %bb.30:                               # %_ZNSt12_Vector_baseIiSaIiEE11_M_allocateEm.exit.i137
	ld.d	$a0, $s1, 8
	sub.d	$s7, $a0, $s0
	slli.d	$a0, $fp, 2
	pcaddu18i	$ra, %call36(_Znwm)
	jirl	$ra, $ra, 0
	move	$s8, $a0
	blez	$s7, .LBB5_32
# %bb.31:
	move	$a0, $s8
	move	$a1, $s0
	move	$a2, $s7
	pcaddu18i	$ra, %call36(memcpy)
	jirl	$ra, $ra, 0
.LBB5_32:                               # %_ZNSt6vectorIiSaIiEE11_S_relocateEPiS2_S2_RS0_.exit.i138
	beqz	$s0, .LBB5_34
# %bb.33:
	move	$a0, $s0
	move	$a1, $s6
	pcaddu18i	$ra, %call36(_ZdlPvm)
	jirl	$ra, $ra, 0
.LBB5_34:                               # %_ZNSt12_Vector_baseIiSaIiEE13_M_deallocateEPim.exit.i140
	st.d	$s8, $s1, 0
	add.d	$a0, $s8, $s7
	st.d	$a0, $s1, 8
	alsl.d	$a0, $fp, $s8, 2
	st.d	$a0, $s1, 16
	ld.d	$s8, $sp, 64                    # 8-byte Folded Reload
.LBB5_35:                               # %_ZNSt6vectorIiSaIiEE7reserveEm.exit141
	ld.d	$a0, $s3, 16
	ld.d	$s0, $s3, 0
	slli.w	$fp, $fp, 2
	sub.d	$s6, $a0, $s0
	srai.d	$a0, $s6, 2
	bgeu	$a0, $fp, .LBB5_41
# %bb.36:                               # %_ZNSt12_Vector_baseIiSaIiEE11_M_allocateEm.exit.i142
	ld.d	$a0, $s3, 8
	sub.d	$s7, $a0, $s0
	slli.d	$a0, $fp, 2
	pcaddu18i	$ra, %call36(_Znwm)
	jirl	$ra, $ra, 0
	move	$s8, $a0
	blez	$s7, .LBB5_38
# %bb.37:
	move	$a0, $s8
	move	$a1, $s0
	move	$a2, $s7
	pcaddu18i	$ra, %call36(memcpy)
	jirl	$ra, $ra, 0
.LBB5_38:                               # %_ZNSt6vectorIiSaIiEE11_S_relocateEPiS2_S2_RS0_.exit.i143
	beqz	$s0, .LBB5_40
# %bb.39:
	move	$a0, $s0
	move	$a1, $s6
	pcaddu18i	$ra, %call36(_ZdlPvm)
	jirl	$ra, $ra, 0
.LBB5_40:                               # %_ZNSt12_Vector_baseIiSaIiEE13_M_deallocateEPim.exit.i145
	st.d	$s8, $s3, 0
	add.d	$a0, $s8, $s7
	st.d	$a0, $s3, 8
	alsl.d	$a0, $fp, $s8, 2
	st.d	$a0, $s3, 16
	ld.d	$s8, $sp, 64                    # 8-byte Folded Reload
.LBB5_41:                               # %_ZNSt6vectorIiSaIiEE7reserveEm.exit146
	ld.w	$a1, $s4, 76
	blez	$a1, .LBB5_93
# %bb.42:                               # %.preheader.lr.ph
	ld.w	$a0, $s4, 72
	blez	$a0, .LBB5_93
# %bb.43:                               # %.preheader.preheader
	st.d	$zero, $sp, 88                  # 8-byte Folded Spill
	move	$s5, $zero
	addi.w	$a2, $zero, -4
	lu52i.d	$a2, $a2, 2047
	st.d	$a2, $sp, 112                   # 8-byte Folded Spill
	addi.w	$a2, $zero, -1
	lu52i.d	$fp, $a2, 511
	b	.LBB5_46
	.p2align	4, , 16
.LBB5_44:                               # %._crit_edge384.loopexit
                                        #   in Loop: Header=BB5_46 Depth=1
	ld.w	$a1, $s4, 76
	ld.d	$s8, $sp, 64                    # 8-byte Folded Reload
.LBB5_45:                               # %._crit_edge384
                                        #   in Loop: Header=BB5_46 Depth=1
	addi.w	$s5, $s5, 1
	ld.d	$a2, $sp, 88                    # 8-byte Folded Reload
	ld.d	$a3, $sp, 56                    # 8-byte Folded Reload
	add.d	$a2, $a2, $a3
	st.d	$a2, $sp, 88                    # 8-byte Folded Spill
	bge	$s5, $a1, .LBB5_93
.LBB5_46:                               # %.preheader
                                        # =>This Loop Header: Depth=1
                                        #     Child Loop BB5_50 Depth 2
	blez	$a0, .LBB5_45
# %bb.47:                               # %.lr.ph383
                                        #   in Loop: Header=BB5_46 Depth=1
	ld.d	$a1, $s3, 8
	move	$a0, $s8
	move	$s8, $zero
	ld.d	$a2, $sp, 88                    # 8-byte Folded Reload
	add.d	$a0, $a0, $a2
	st.d	$a0, $sp, 80                    # 8-byte Folded Spill
	b	.LBB5_50
	.p2align	4, , 16
.LBB5_48:                               #   in Loop: Header=BB5_50 Depth=2
	st.w	$s4, $a1, 0
	addi.d	$a1, $a1, 4
	st.d	$a1, $s3, 8
	ld.d	$s4, $sp, 104                   # 8-byte Folded Reload
.LBB5_49:                               # %_ZNSt6vectorIiSaIiEE9push_backEOi.exit175
                                        #   in Loop: Header=BB5_50 Depth=2
	ld.d	$s2, $sp, 96                    # 8-byte Folded Reload
	ld.w	$a0, $s4, 72
	addi.w	$s8, $s8, 1
	bge	$s8, $a0, .LBB5_44
.LBB5_50:                               #   Parent Loop BB5_46 Depth=1
                                        # =>  This Inner Loop Header: Depth=2
	ld.d	$a2, $s3, 0
	ld.d	$a0, $s2, 8
	ld.d	$a3, $s2, 16
	sub.d	$a1, $a1, $a2
	srli.d	$s4, $a1, 2
	beq	$a0, $a3, .LBB5_53
# %bb.51:                               #   in Loop: Header=BB5_50 Depth=2
	st.w	$s4, $a0, 0
	addi.d	$a0, $a0, 4
	st.d	$a0, $s2, 8
	ld.d	$a0, $s1, 8
	ld.d	$a1, $s1, 16
	beq	$a0, $a1, .LBB5_59
.LBB5_52:                               #   in Loop: Header=BB5_50 Depth=2
	ori	$a1, $zero, 4
	st.w	$a1, $a0, 0
	addi.d	$a0, $a0, 4
	st.d	$a0, $s1, 8
	b	.LBB5_65
	.p2align	4, , 16
.LBB5_53:                               #   in Loop: Header=BB5_50 Depth=2
	ld.d	$s7, $s2, 0
	sub.d	$s6, $a0, $s7
	ld.d	$a0, $sp, 112                   # 8-byte Folded Reload
	beq	$s6, $a0, .LBB5_316
# %bb.54:                               # %_ZNSt12_Vector_baseIiSaIiEE11_M_allocateEm.exit.i.i.i
                                        #   in Loop: Header=BB5_50 Depth=2
	srai.d	$a0, $s6, 2
	ori	$a2, $zero, 1
	sltu	$a1, $a2, $a0
	masknez	$a2, $a2, $a1
	maskeqz	$a1, $a0, $a1
	or	$a1, $a1, $a2
	add.d	$a0, $a1, $a0
	sltu	$a1, $a0, $a1
	sltu	$a2, $a0, $fp
	maskeqz	$a0, $a0, $a2
	masknez	$a2, $fp, $a2
	or	$a0, $a0, $a2
	masknez	$a0, $a0, $a1
	maskeqz	$a1, $fp, $a1
	or	$s2, $a1, $a0
	slli.d	$a0, $s2, 2
	pcaddu18i	$ra, %call36(_Znwm)
	jirl	$ra, $ra, 0
	move	$s0, $a0
	stx.w	$s4, $a0, $s6
	blez	$s6, .LBB5_56
# %bb.55:                               #   in Loop: Header=BB5_50 Depth=2
	move	$a0, $s0
	move	$a1, $s7
	move	$a2, $s6
	pcaddu18i	$ra, %call36(memcpy)
	jirl	$ra, $ra, 0
.LBB5_56:                               # %_ZNSt6vectorIiSaIiEE11_S_relocateEPiS2_S2_RS0_.exit.i.i.i
                                        #   in Loop: Header=BB5_50 Depth=2
	beqz	$s7, .LBB5_58
# %bb.57:                               #   in Loop: Header=BB5_50 Depth=2
	move	$a0, $s7
	move	$a1, $s6
	pcaddu18i	$ra, %call36(_ZdlPvm)
	jirl	$ra, $ra, 0
.LBB5_58:                               # %_ZNSt6vectorIiSaIiEE17_M_realloc_appendIJiEEEvDpOT_.exit.i.i
                                        #   in Loop: Header=BB5_50 Depth=2
	add.d	$a0, $s0, $s6
	addi.d	$a0, $a0, 4
	ld.d	$a1, $sp, 96                    # 8-byte Folded Reload
	st.d	$s0, $a1, 0
	st.d	$a0, $a1, 8
	alsl.d	$a0, $s2, $s0, 2
	st.d	$a0, $a1, 16
	ld.d	$a0, $s1, 8
	ld.d	$a1, $s1, 16
	bne	$a0, $a1, .LBB5_52
.LBB5_59:                               #   in Loop: Header=BB5_50 Depth=2
	ld.d	$s7, $s1, 0
	sub.d	$s6, $a0, $s7
	ld.d	$a0, $sp, 112                   # 8-byte Folded Reload
	beq	$s6, $a0, .LBB5_316
# %bb.60:                               # %_ZNSt12_Vector_baseIiSaIiEE11_M_allocateEm.exit.i.i.i149
                                        #   in Loop: Header=BB5_50 Depth=2
	srai.d	$a0, $s6, 2
	ori	$a2, $zero, 1
	sltu	$a1, $a2, $a0
	masknez	$a2, $a2, $a1
	maskeqz	$a1, $a0, $a1
	or	$a1, $a1, $a2
	add.d	$a0, $a1, $a0
	sltu	$a1, $a0, $a1
	sltu	$a2, $a0, $fp
	maskeqz	$a0, $a0, $a2
	masknez	$a2, $fp, $a2
	or	$a0, $a0, $a2
	masknez	$a0, $a0, $a1
	maskeqz	$a1, $fp, $a1
	or	$s2, $a1, $a0
	slli.d	$a0, $s2, 2
	pcaddu18i	$ra, %call36(_Znwm)
	jirl	$ra, $ra, 0
	move	$s0, $a0
	ori	$a0, $zero, 4
	stx.w	$a0, $s0, $s6
	blez	$s6, .LBB5_62
# %bb.61:                               #   in Loop: Header=BB5_50 Depth=2
	move	$a0, $s0
	move	$a1, $s7
	move	$a2, $s6
	pcaddu18i	$ra, %call36(memcpy)
	jirl	$ra, $ra, 0
.LBB5_62:                               # %_ZNSt6vectorIiSaIiEE11_S_relocateEPiS2_S2_RS0_.exit.i.i.i151
                                        #   in Loop: Header=BB5_50 Depth=2
	beqz	$s7, .LBB5_64
# %bb.63:                               #   in Loop: Header=BB5_50 Depth=2
	move	$a0, $s7
	move	$a1, $s6
	pcaddu18i	$ra, %call36(_ZdlPvm)
	jirl	$ra, $ra, 0
.LBB5_64:                               # %_ZNSt6vectorIiSaIiEE17_M_realloc_appendIJiEEEvDpOT_.exit.i.i153
                                        #   in Loop: Header=BB5_50 Depth=2
	add.d	$a0, $s0, $s6
	addi.d	$a0, $a0, 4
	st.d	$s0, $s1, 0
	st.d	$a0, $s1, 8
	alsl.d	$a0, $s2, $s0, 2
	st.d	$a0, $s1, 16
.LBB5_65:                               # %_ZNSt6vectorIiSaIiEE9push_backEOi.exit154
                                        #   in Loop: Header=BB5_50 Depth=2
	ld.d	$a1, $s3, 8
	ld.d	$a0, $s3, 16
	ld.d	$a2, $sp, 88                    # 8-byte Folded Reload
	add.d	$s2, $a2, $s8
	beq	$a1, $a0, .LBB5_69
# %bb.66:                               #   in Loop: Header=BB5_50 Depth=2
	st.w	$s2, $a1, 0
	addi.d	$a1, $a1, 4
	st.d	$a1, $s3, 8
	addi.d	$s4, $s2, 1
	beq	$a1, $a0, .LBB5_75
.LBB5_67:                               #   in Loop: Header=BB5_50 Depth=2
	st.w	$s4, $a1, 0
	addi.d	$a1, $a1, 4
	st.d	$a1, $s3, 8
	ld.d	$a2, $sp, 80                    # 8-byte Folded Reload
	add.d	$s2, $a2, $s8
	addi.d	$s1, $s2, 2
	beq	$a1, $a0, .LBB5_81
.LBB5_68:                               #   in Loop: Header=BB5_50 Depth=2
	st.w	$s1, $a1, 0
	addi.d	$a1, $a1, 4
	st.d	$a1, $s3, 8
	ld.d	$s1, $sp, 72                    # 8-byte Folded Reload
	addi.d	$s4, $s2, 1
	bne	$a1, $a0, .LBB5_48
	b	.LBB5_87
	.p2align	4, , 16
.LBB5_69:                               #   in Loop: Header=BB5_50 Depth=2
	ld.d	$s7, $s3, 0
	sub.d	$s6, $a1, $s7
	ld.d	$a0, $sp, 112                   # 8-byte Folded Reload
	beq	$s6, $a0, .LBB5_316
# %bb.70:                               # %_ZNSt12_Vector_baseIiSaIiEE11_M_allocateEm.exit.i.i
                                        #   in Loop: Header=BB5_50 Depth=2
	srai.d	$a0, $s6, 2
	ori	$a2, $zero, 1
	sltu	$a1, $a2, $a0
	masknez	$a2, $a2, $a1
	maskeqz	$a1, $a0, $a1
	or	$a1, $a1, $a2
	add.d	$a0, $a1, $a0
	sltu	$a1, $a0, $a1
	sltu	$a2, $a0, $fp
	maskeqz	$a0, $a0, $a2
	masknez	$a2, $fp, $a2
	or	$a0, $a0, $a2
	masknez	$a0, $a0, $a1
	maskeqz	$a1, $fp, $a1
	or	$s4, $a1, $a0
	slli.d	$a0, $s4, 2
	pcaddu18i	$ra, %call36(_Znwm)
	jirl	$ra, $ra, 0
	move	$s0, $a0
	stx.w	$s2, $a0, $s6
	blez	$s6, .LBB5_72
# %bb.71:                               #   in Loop: Header=BB5_50 Depth=2
	move	$a0, $s0
	move	$a1, $s7
	move	$a2, $s6
	pcaddu18i	$ra, %call36(memcpy)
	jirl	$ra, $ra, 0
.LBB5_72:                               # %_ZNSt6vectorIiSaIiEE11_S_relocateEPiS2_S2_RS0_.exit.i.i
                                        #   in Loop: Header=BB5_50 Depth=2
	beqz	$s7, .LBB5_74
# %bb.73:                               #   in Loop: Header=BB5_50 Depth=2
	move	$a0, $s7
	move	$a1, $s6
	pcaddu18i	$ra, %call36(_ZdlPvm)
	jirl	$ra, $ra, 0
.LBB5_74:                               # %_ZNSt6vectorIiSaIiEE17_M_realloc_appendIJRKiEEEvDpOT_.exit.i
                                        #   in Loop: Header=BB5_50 Depth=2
	add.d	$a0, $s0, $s6
	addi.d	$a1, $a0, 4
	st.d	$s0, $s3, 0
	st.d	$a1, $s3, 8
	alsl.d	$a0, $s4, $s0, 2
	st.d	$a0, $s3, 16
	addi.d	$s4, $s2, 1
	bne	$a1, $a0, .LBB5_67
.LBB5_75:                               #   in Loop: Header=BB5_50 Depth=2
	ld.d	$s7, $s3, 0
	sub.d	$s6, $a0, $s7
	ld.d	$a0, $sp, 112                   # 8-byte Folded Reload
	beq	$s6, $a0, .LBB5_316
# %bb.76:                               # %_ZNSt12_Vector_baseIiSaIiEE11_M_allocateEm.exit.i.i.i156
                                        #   in Loop: Header=BB5_50 Depth=2
	srai.d	$a0, $s6, 2
	ori	$a2, $zero, 1
	sltu	$a1, $a2, $a0
	masknez	$a2, $a2, $a1
	maskeqz	$a1, $a0, $a1
	or	$a1, $a1, $a2
	add.d	$a0, $a1, $a0
	sltu	$a1, $a0, $a1
	sltu	$a2, $a0, $fp
	maskeqz	$a0, $a0, $a2
	masknez	$a2, $fp, $a2
	or	$a0, $a0, $a2
	masknez	$a0, $a0, $a1
	maskeqz	$a1, $fp, $a1
	or	$s2, $a1, $a0
	slli.d	$a0, $s2, 2
	pcaddu18i	$ra, %call36(_Znwm)
	jirl	$ra, $ra, 0
	move	$s0, $a0
	stx.w	$s4, $a0, $s6
	blez	$s6, .LBB5_78
# %bb.77:                               #   in Loop: Header=BB5_50 Depth=2
	move	$a0, $s0
	move	$a1, $s7
	move	$a2, $s6
	pcaddu18i	$ra, %call36(memcpy)
	jirl	$ra, $ra, 0
.LBB5_78:                               # %_ZNSt6vectorIiSaIiEE11_S_relocateEPiS2_S2_RS0_.exit.i.i.i158
                                        #   in Loop: Header=BB5_50 Depth=2
	beqz	$s7, .LBB5_80
# %bb.79:                               #   in Loop: Header=BB5_50 Depth=2
	move	$a0, $s7
	move	$a1, $s6
	pcaddu18i	$ra, %call36(_ZdlPvm)
	jirl	$ra, $ra, 0
.LBB5_80:                               # %_ZNSt6vectorIiSaIiEE17_M_realloc_appendIJiEEEvDpOT_.exit.i.i160
                                        #   in Loop: Header=BB5_50 Depth=2
	add.d	$a0, $s0, $s6
	addi.d	$a1, $a0, 4
	st.d	$s0, $s3, 0
	st.d	$a1, $s3, 8
	alsl.d	$a0, $s2, $s0, 2
	st.d	$a0, $s3, 16
	ld.d	$a2, $sp, 80                    # 8-byte Folded Reload
	add.d	$s2, $a2, $s8
	addi.d	$s1, $s2, 2
	bne	$a1, $a0, .LBB5_68
.LBB5_81:                               #   in Loop: Header=BB5_50 Depth=2
	ld.d	$s7, $s3, 0
	sub.d	$s6, $a0, $s7
	ld.d	$a0, $sp, 112                   # 8-byte Folded Reload
	beq	$s6, $a0, .LBB5_316
# %bb.82:                               # %_ZNSt12_Vector_baseIiSaIiEE11_M_allocateEm.exit.i.i.i163
                                        #   in Loop: Header=BB5_50 Depth=2
	srai.d	$a0, $s6, 2
	ori	$a2, $zero, 1
	sltu	$a1, $a2, $a0
	masknez	$a2, $a2, $a1
	maskeqz	$a1, $a0, $a1
	or	$a1, $a1, $a2
	add.d	$a0, $a1, $a0
	sltu	$a1, $a0, $a1
	sltu	$a2, $a0, $fp
	maskeqz	$a0, $a0, $a2
	masknez	$a2, $fp, $a2
	or	$a0, $a0, $a2
	masknez	$a0, $a0, $a1
	maskeqz	$a1, $fp, $a1
	or	$s4, $a1, $a0
	slli.d	$a0, $s4, 2
	pcaddu18i	$ra, %call36(_Znwm)
	jirl	$ra, $ra, 0
	move	$s0, $a0
	stx.w	$s1, $a0, $s6
	blez	$s6, .LBB5_84
# %bb.83:                               #   in Loop: Header=BB5_50 Depth=2
	move	$a0, $s0
	move	$a1, $s7
	move	$a2, $s6
	pcaddu18i	$ra, %call36(memcpy)
	jirl	$ra, $ra, 0
.LBB5_84:                               # %_ZNSt6vectorIiSaIiEE11_S_relocateEPiS2_S2_RS0_.exit.i.i.i165
                                        #   in Loop: Header=BB5_50 Depth=2
	ld.d	$s1, $sp, 72                    # 8-byte Folded Reload
	beqz	$s7, .LBB5_86
# %bb.85:                               #   in Loop: Header=BB5_50 Depth=2
	move	$a0, $s7
	move	$a1, $s6
	pcaddu18i	$ra, %call36(_ZdlPvm)
	jirl	$ra, $ra, 0
.LBB5_86:                               # %_ZNSt6vectorIiSaIiEE17_M_realloc_appendIJiEEEvDpOT_.exit.i.i167
                                        #   in Loop: Header=BB5_50 Depth=2
	add.d	$a0, $s0, $s6
	addi.d	$a1, $a0, 4
	st.d	$s0, $s3, 0
	st.d	$a1, $s3, 8
	alsl.d	$a0, $s4, $s0, 2
	st.d	$a0, $s3, 16
	addi.d	$s4, $s2, 1
	bne	$a1, $a0, .LBB5_48
.LBB5_87:                               #   in Loop: Header=BB5_50 Depth=2
	ld.d	$s7, $s3, 0
	sub.d	$s6, $a0, $s7
	ld.d	$a0, $sp, 112                   # 8-byte Folded Reload
	beq	$s6, $a0, .LBB5_316
# %bb.88:                               # %_ZNSt12_Vector_baseIiSaIiEE11_M_allocateEm.exit.i.i.i170
                                        #   in Loop: Header=BB5_50 Depth=2
	srai.d	$a0, $s6, 2
	ori	$a2, $zero, 1
	sltu	$a1, $a2, $a0
	masknez	$a2, $a2, $a1
	maskeqz	$a1, $a0, $a1
	or	$a1, $a1, $a2
	add.d	$a0, $a1, $a0
	sltu	$a1, $a0, $a1
	sltu	$a2, $a0, $fp
	maskeqz	$a0, $a0, $a2
	masknez	$a2, $fp, $a2
	or	$a0, $a0, $a2
	masknez	$a0, $a0, $a1
	maskeqz	$a1, $fp, $a1
	or	$s2, $a1, $a0
	slli.d	$a0, $s2, 2
	pcaddu18i	$ra, %call36(_Znwm)
	jirl	$ra, $ra, 0
	move	$s0, $a0
	stx.w	$s4, $a0, $s6
	blez	$s6, .LBB5_90
# %bb.89:                               #   in Loop: Header=BB5_50 Depth=2
	move	$a0, $s0
	move	$a1, $s7
	move	$a2, $s6
	pcaddu18i	$ra, %call36(memcpy)
	jirl	$ra, $ra, 0
.LBB5_90:                               # %_ZNSt6vectorIiSaIiEE11_S_relocateEPiS2_S2_RS0_.exit.i.i.i172
                                        #   in Loop: Header=BB5_50 Depth=2
	ld.d	$s4, $sp, 104                   # 8-byte Folded Reload
	beqz	$s7, .LBB5_92
# %bb.91:                               #   in Loop: Header=BB5_50 Depth=2
	move	$a0, $s7
	move	$a1, $s6
	pcaddu18i	$ra, %call36(_ZdlPvm)
	jirl	$ra, $ra, 0
.LBB5_92:                               # %_ZNSt6vectorIiSaIiEE17_M_realloc_appendIJiEEEvDpOT_.exit.i.i174
                                        #   in Loop: Header=BB5_50 Depth=2
	add.d	$a0, $s0, $s6
	addi.d	$a1, $a0, 4
	st.d	$s0, $s3, 0
	st.d	$a1, $s3, 8
	alsl.d	$a0, $s2, $s0, 2
	st.d	$a0, $s3, 16
	b	.LBB5_49
.LBB5_93:                               # %._crit_edge386
	pcalau12i	$a0, %got_pc_hi20(_ZN8Parallel5numpeE)
	ld.d	$a0, $a0, %got_pc_lo12(_ZN8Parallel5numpeE)
	ld.w	$a0, $a0, 0
	ori	$a1, $zero, 1
	beq	$a0, $a1, .LBB5_315
# %bb.94:
	ld.w	$s1, $s4, 68
	ld.w	$fp, $s4, 64
	sltui	$a0, $s1, 1
	ld.d	$a1, $sp, 56                    # 8-byte Folded Reload
	masknez	$a0, $a1, $a0
	sltui	$a1, $fp, 1
	ld.d	$a2, $sp, 16                    # 8-byte Folded Reload
	masknez	$a1, $a2, $a1
	add.w	$s2, $a1, $a0
	bltz	$s2, .LBB5_317
# %bb.95:
	ld.d	$a1, $sp, 40                    # 8-byte Folded Reload
	ld.d	$a0, $a1, 16
	ld.d	$s4, $a1, 0
	sub.d	$s5, $a0, $s4
	srai.d	$a0, $s5, 2
	bgeu	$a0, $s2, .LBB5_101
# %bb.96:                               # %_ZNSt12_Vector_baseIiSaIiEE11_M_allocateEm.exit.i176
	ld.d	$a0, $a1, 8
	sub.d	$s0, $a0, $s4
	slli.d	$a0, $s2, 2
	pcaddu18i	$ra, %call36(_Znwm)
	jirl	$ra, $ra, 0
	move	$s3, $a0
	blez	$s0, .LBB5_98
# %bb.97:
	move	$a0, $s3
	move	$a1, $s4
	move	$a2, $s0
	pcaddu18i	$ra, %call36(memcpy)
	jirl	$ra, $ra, 0
.LBB5_98:                               # %_ZNSt6vectorIiSaIiEE11_S_relocateEPiS2_S2_RS0_.exit.i177
	beqz	$s4, .LBB5_100
# %bb.99:
	move	$a0, $s4
	move	$a1, $s5
	pcaddu18i	$ra, %call36(_ZdlPvm)
	jirl	$ra, $ra, 0
	ld.d	$a0, $sp, 104                   # 8-byte Folded Reload
	ld.w	$s1, $a0, 68
	ld.w	$fp, $a0, 64
.LBB5_100:                              # %_ZNSt12_Vector_baseIiSaIiEE13_M_deallocateEPim.exit.i179
	ld.d	$a1, $sp, 40                    # 8-byte Folded Reload
	st.d	$s3, $a1, 0
	add.d	$a0, $s3, $s0
	st.d	$a0, $a1, 8
	alsl.d	$a0, $s2, $s3, 2
	st.d	$a0, $a1, 16
	ld.d	$a2, $sp, 16                    # 8-byte Folded Reload
.LBB5_101:                              # %_ZNSt6vectorIiSaIiEE7reserveEm.exit180
	ld.d	$a1, $sp, 104                   # 8-byte Folded Reload
	ld.w	$a0, $a1, 60
	addi.w	$a0, $a0, -1
	ld.w	$a1, $a1, 56
	xor	$a0, $s1, $a0
	sltui	$a0, $a0, 1
	ld.d	$s5, $sp, 56                    # 8-byte Folded Reload
	masknez	$a0, $s5, $a0
	addi.w	$a1, $a1, -1
	xor	$a1, $fp, $a1
	sltui	$a1, $a1, 1
	masknez	$a1, $a2, $a1
	add.w	$a0, $a1, $a0
	addi.w	$a1, $zero, -2
	bge	$a1, $a0, .LBB5_317
# %bb.102:
	ld.d	$s7, $sp, 256
	ld.d	$a1, $s7, 16
	ld.d	$s3, $s7, 0
	addi.w	$s2, $a0, 1
	sub.d	$s4, $a1, $s3
	srai.d	$a0, $s4, 2
	bgeu	$a0, $s2, .LBB5_108
# %bb.103:                              # %_ZNSt12_Vector_baseIiSaIiEE11_M_allocateEm.exit.i181
	ld.d	$a0, $s7, 8
	sub.d	$s0, $a0, $s3
	slli.d	$a0, $s2, 2
	pcaddu18i	$ra, %call36(_Znwm)
	jirl	$ra, $ra, 0
	move	$s5, $a0
	blez	$s0, .LBB5_105
# %bb.104:
	move	$a0, $s5
	move	$a1, $s3
	move	$a2, $s0
	pcaddu18i	$ra, %call36(memcpy)
	jirl	$ra, $ra, 0
.LBB5_105:                              # %_ZNSt6vectorIiSaIiEE11_S_relocateEPiS2_S2_RS0_.exit.i182
	ld.d	$s6, $sp, 104                   # 8-byte Folded Reload
	beqz	$s3, .LBB5_107
# %bb.106:
	move	$a0, $s3
	move	$a1, $s4
	pcaddu18i	$ra, %call36(_ZdlPvm)
	jirl	$ra, $ra, 0
	ld.w	$fp, $s6, 64
.LBB5_107:                              # %_ZNSt12_Vector_baseIiSaIiEE13_M_deallocateEPim.exit.i184
	st.d	$s5, $s7, 0
	add.d	$a0, $s5, $s0
	st.d	$a0, $s7, 8
	alsl.d	$a0, $s2, $s5, 2
	st.d	$a0, $s7, 16
	ld.w	$s1, $s6, 68
	move	$s4, $s6
	ld.d	$s5, $sp, 56                    # 8-byte Folded Reload
	ld.d	$s2, $sp, 32                    # 8-byte Folded Reload
	bnez	$fp, .LBB5_109
	b	.LBB5_134
.LBB5_108:
	ld.d	$s4, $sp, 104                   # 8-byte Folded Reload
	ld.d	$s2, $sp, 32                    # 8-byte Folded Reload
	beqz	$fp, .LBB5_134
.LBB5_109:                              # %_ZNSt6vectorIiSaIiEE7reserveEm.exit185
	beqz	$s1, .LBB5_134
# %bb.110:
	pcalau12i	$a0, %got_pc_hi20(_ZN8Parallel4mypeE)
	ld.d	$a0, $a0, %got_pc_lo12(_ZN8Parallel4mypeE)
	ld.w	$fp, $a0, 0
	ld.d	$a2, $sp, 40                    # 8-byte Folded Reload
	ld.d	$a0, $a2, 8
	ld.d	$a1, $a2, 16
	ld.w	$s1, $s4, 56
	beq	$a0, $a1, .LBB5_112
# %bb.111:
	st.w	$zero, $a0, 0
	addi.d	$a0, $a0, 4
	st.d	$a0, $a2, 8
	b	.LBB5_118
.LBB5_112:
	ld.d	$s3, $a2, 0
	sub.d	$s4, $a0, $s3
	addi.w	$a0, $zero, -4
	lu52i.d	$a0, $a0, 2047
	beq	$s4, $a0, .LBB5_316
# %bb.113:                              # %_ZNSt12_Vector_baseIiSaIiEE11_M_allocateEm.exit.i.i.i187
	srai.d	$a0, $s4, 2
	ori	$a1, $zero, 1
	sltu	$a2, $a1, $a0
	masknez	$a1, $a1, $a2
	maskeqz	$a2, $a0, $a2
	or	$a1, $a2, $a1
	add.d	$a0, $a1, $a0
	sltu	$a1, $a0, $a1
	addi.w	$a2, $zero, -1
	lu52i.d	$a2, $a2, 511
	sltu	$a3, $a0, $a2
	maskeqz	$a0, $a0, $a3
	masknez	$a3, $a2, $a3
	or	$a0, $a0, $a3
	masknez	$a0, $a0, $a1
	maskeqz	$a1, $a2, $a1
	or	$s2, $a1, $a0
	slli.d	$a0, $s2, 2
	pcaddu18i	$ra, %call36(_Znwm)
	jirl	$ra, $ra, 0
	move	$s0, $a0
	stx.w	$zero, $a0, $s4
	blez	$s4, .LBB5_115
# %bb.114:
	move	$a0, $s0
	move	$a1, $s3
	move	$a2, $s4
	pcaddu18i	$ra, %call36(memcpy)
	jirl	$ra, $ra, 0
.LBB5_115:                              # %_ZNSt6vectorIiSaIiEE11_S_relocateEPiS2_S2_RS0_.exit.i.i.i189
	add.d	$s5, $s0, $s4
	beqz	$s3, .LBB5_117
# %bb.116:
	move	$a0, $s3
	move	$a1, $s4
	pcaddu18i	$ra, %call36(_ZdlPvm)
	jirl	$ra, $ra, 0
.LBB5_117:                              # %_ZNSt6vectorIiSaIiEE17_M_realloc_appendIJiEEEvDpOT_.exit.i.i191
	addi.d	$a0, $s5, 4
	ld.d	$a1, $sp, 40                    # 8-byte Folded Reload
	st.d	$s0, $a1, 0
	st.d	$a0, $a1, 8
	alsl.d	$a0, $s2, $s0, 2
	st.d	$a0, $a1, 16
	ld.d	$s4, $sp, 104                   # 8-byte Folded Reload
	ld.d	$s5, $sp, 56                    # 8-byte Folded Reload
	ld.d	$s2, $sp, 32                    # 8-byte Folded Reload
.LBB5_118:                              # %_ZNSt6vectorIiSaIiEE9push_backEOi.exit192
	ld.d	$a0, $s2, 8
	ld.d	$a1, $s2, 16
	nor	$a2, $s1, $zero
	add.d	$fp, $fp, $a2
	beq	$a0, $a1, .LBB5_121
# %bb.119:
	st.w	$fp, $a0, 0
	addi.d	$a0, $a0, 4
	st.d	$a0, $s2, 8
	ld.d	$a2, $sp, 24                    # 8-byte Folded Reload
	ld.d	$a0, $a2, 8
	ld.d	$a1, $a2, 16
	beq	$a0, $a1, .LBB5_127
.LBB5_120:
	ori	$a1, $zero, 1
	st.w	$a1, $a0, 0
	addi.d	$a0, $a0, 4
	st.d	$a0, $a2, 8
	b	.LBB5_133
.LBB5_121:
	ld.d	$s3, $s2, 0
	sub.d	$s4, $a0, $s3
	addi.w	$a0, $zero, -4
	lu52i.d	$a0, $a0, 2047
	beq	$s4, $a0, .LBB5_316
# %bb.122:                              # %_ZNSt12_Vector_baseIiSaIiEE11_M_allocateEm.exit.i.i194
	srai.d	$a0, $s4, 2
	ori	$a1, $zero, 1
	sltu	$a2, $a1, $a0
	masknez	$a1, $a1, $a2
	maskeqz	$a2, $a0, $a2
	or	$a1, $a2, $a1
	add.d	$a0, $a1, $a0
	sltu	$a1, $a0, $a1
	addi.w	$a2, $zero, -1
	lu52i.d	$a2, $a2, 511
	sltu	$a3, $a0, $a2
	maskeqz	$a0, $a0, $a3
	masknez	$a3, $a2, $a3
	or	$a0, $a0, $a3
	masknez	$a0, $a0, $a1
	maskeqz	$a1, $a2, $a1
	or	$s1, $a1, $a0
	slli.d	$a0, $s1, 2
	pcaddu18i	$ra, %call36(_Znwm)
	jirl	$ra, $ra, 0
	move	$s0, $a0
	stx.w	$fp, $a0, $s4
	blez	$s4, .LBB5_124
# %bb.123:
	move	$a0, $s0
	move	$a1, $s3
	move	$a2, $s4
	pcaddu18i	$ra, %call36(memcpy)
	jirl	$ra, $ra, 0
.LBB5_124:                              # %_ZNSt6vectorIiSaIiEE11_S_relocateEPiS2_S2_RS0_.exit.i.i196
	add.d	$fp, $s0, $s4
	beqz	$s3, .LBB5_126
# %bb.125:
	move	$a0, $s3
	move	$a1, $s4
	pcaddu18i	$ra, %call36(_ZdlPvm)
	jirl	$ra, $ra, 0
.LBB5_126:                              # %_ZNSt6vectorIiSaIiEE17_M_realloc_appendIJRKiEEEvDpOT_.exit.i198
	addi.d	$a0, $fp, 4
	st.d	$s0, $s2, 0
	st.d	$a0, $s2, 8
	alsl.d	$a0, $s1, $s0, 2
	st.d	$a0, $s2, 16
	ld.d	$s4, $sp, 104                   # 8-byte Folded Reload
	ld.d	$a2, $sp, 24                    # 8-byte Folded Reload
	ld.d	$a0, $a2, 8
	ld.d	$a1, $a2, 16
	bne	$a0, $a1, .LBB5_120
.LBB5_127:
	ld.d	$s3, $a2, 0
	sub.d	$s4, $a0, $s3
	addi.w	$a0, $zero, -4
	lu52i.d	$a0, $a0, 2047
	beq	$s4, $a0, .LBB5_316
# %bb.128:                              # %_ZNSt12_Vector_baseIiSaIiEE11_M_allocateEm.exit.i.i.i201
	srai.d	$a0, $s4, 2
	ori	$s1, $zero, 1
	sltu	$a1, $s1, $a0
	masknez	$a2, $s1, $a1
	maskeqz	$a1, $a0, $a1
	or	$a1, $a1, $a2
	add.d	$a0, $a1, $a0
	sltu	$a1, $a0, $a1
	addi.w	$a2, $zero, -1
	lu52i.d	$a2, $a2, 511
	sltu	$a3, $a0, $a2
	maskeqz	$a0, $a0, $a3
	masknez	$a3, $a2, $a3
	or	$a0, $a0, $a3
	masknez	$a0, $a0, $a1
	maskeqz	$a1, $a2, $a1
	or	$fp, $a1, $a0
	slli.d	$a0, $fp, 2
	pcaddu18i	$ra, %call36(_Znwm)
	jirl	$ra, $ra, 0
	move	$s0, $a0
	stx.w	$s1, $a0, $s4
	blez	$s4, .LBB5_130
# %bb.129:
	move	$a0, $s0
	move	$a1, $s3
	move	$a2, $s4
	pcaddu18i	$ra, %call36(memcpy)
	jirl	$ra, $ra, 0
.LBB5_130:                              # %_ZNSt6vectorIiSaIiEE11_S_relocateEPiS2_S2_RS0_.exit.i.i.i203
	add.d	$s1, $s0, $s4
	beqz	$s3, .LBB5_132
# %bb.131:
	move	$a0, $s3
	move	$a1, $s4
	pcaddu18i	$ra, %call36(_ZdlPvm)
	jirl	$ra, $ra, 0
.LBB5_132:                              # %_ZNSt6vectorIiSaIiEE17_M_realloc_appendIJiEEEvDpOT_.exit.i.i205
	addi.d	$a0, $s1, 4
	ld.d	$a1, $sp, 24                    # 8-byte Folded Reload
	st.d	$s0, $a1, 0
	st.d	$a0, $a1, 8
	alsl.d	$a0, $fp, $s0, 2
	st.d	$a0, $a1, 16
	ld.d	$s4, $sp, 104                   # 8-byte Folded Reload
.LBB5_133:                              # %_ZNSt6vectorIiSaIiEE9push_backEOi.exit206thread-pre-split
	ld.w	$s1, $s4, 68
.LBB5_134:                              # %_ZNSt6vectorIiSaIiEE9push_backEOi.exit206
	beqz	$s1, .LBB5_173
# %bb.135:
	pcalau12i	$a0, %got_pc_hi20(_ZN8Parallel4mypeE)
	ld.d	$a0, $a0, %got_pc_lo12(_ZN8Parallel4mypeE)
	ld.w	$a0, $a0, 0
	st.d	$a0, $sp, 112                   # 8-byte Folded Spill
	ld.d	$a2, $sp, 40                    # 8-byte Folded Reload
	ld.d	$a0, $a2, 8
	move	$a1, $s4
	ld.d	$s4, $a2, 0
	ld.w	$s0, $a1, 56
	sub.d	$s2, $a0, $s4
	st.d	$s2, $sp, 96                    # 8-byte Folded Spill
	bltz	$s8, .LBB5_156
# %bb.136:                              # %.lr.ph391.preheader
	ld.w	$a1, $a1, 64
	beqz	$a1, .LBB5_138
# %bb.137:
	move	$s5, $s4
	bnez	$s8, .LBB5_140
	b	.LBB5_155
.LBB5_138:
	ld.d	$a1, $a2, 16
	beq	$a0, $a1, .LBB5_149
# %bb.139:
	st.w	$zero, $a0, 0
	addi.d	$a0, $a0, 4
	st.d	$a0, $a2, 8
	move	$s5, $s4
	beqz	$s8, .LBB5_155
.LBB5_140:                              # %.lr.ph391.peel.next.preheader
	move	$s1, $zero
	addi.w	$a1, $zero, -4
	lu52i.d	$s2, $a1, 2047
	ori	$s8, $zero, 1
	addi.w	$a1, $zero, -1
	lu52i.d	$s3, $a1, 511
	b	.LBB5_142
	.p2align	4, , 16
.LBB5_141:                              #   in Loop: Header=BB5_142 Depth=1
	st.w	$s1, $a0, 0
	addi.d	$a0, $a0, 4
	st.d	$a0, $a2, 8
	move	$s4, $s5
	ld.d	$a1, $sp, 64                    # 8-byte Folded Reload
	beq	$a1, $s1, .LBB5_156
.LBB5_142:                              # %.lr.ph391.peel.next
                                        # =>This Inner Loop Header: Depth=1
	ld.d	$a1, $a2, 16
	addi.w	$s1, $s1, 1
	bne	$a0, $a1, .LBB5_141
# %bb.143:                              #   in Loop: Header=BB5_142 Depth=1
	sub.d	$s6, $a0, $s5
	beq	$s6, $s2, .LBB5_316
# %bb.144:                              # %_ZNSt12_Vector_baseIiSaIiEE11_M_allocateEm.exit.i.i222
                                        #   in Loop: Header=BB5_142 Depth=1
	srai.d	$a0, $s6, 2
	sltu	$a1, $s8, $a0
	masknez	$a2, $s8, $a1
	maskeqz	$a1, $a0, $a1
	or	$a1, $a1, $a2
	add.d	$a0, $a1, $a0
	sltu	$a1, $a0, $a1
	sltu	$a2, $a0, $s3
	maskeqz	$a0, $a0, $a2
	masknez	$a2, $s3, $a2
	or	$a0, $a0, $a2
	masknez	$a0, $a0, $a1
	maskeqz	$a1, $s3, $a1
	or	$fp, $a1, $a0
	slli.d	$a0, $fp, 2
	pcaddu18i	$ra, %call36(_Znwm)
	jirl	$ra, $ra, 0
	move	$s4, $a0
	stx.w	$s1, $a0, $s6
	blez	$s6, .LBB5_146
# %bb.145:                              #   in Loop: Header=BB5_142 Depth=1
	move	$a0, $s4
	move	$a1, $s5
	move	$a2, $s6
	pcaddu18i	$ra, %call36(memcpy)
	jirl	$ra, $ra, 0
.LBB5_146:                              # %_ZNSt6vectorIiSaIiEE11_S_relocateEPiS2_S2_RS0_.exit.i.i224
                                        #   in Loop: Header=BB5_142 Depth=1
	beqz	$s5, .LBB5_148
# %bb.147:                              #   in Loop: Header=BB5_142 Depth=1
	move	$a0, $s5
	move	$a1, $s6
	pcaddu18i	$ra, %call36(_ZdlPvm)
	jirl	$ra, $ra, 0
.LBB5_148:                              # %_ZNSt6vectorIiSaIiEE17_M_realloc_appendIJRKiEEEvDpOT_.exit.i226
                                        #   in Loop: Header=BB5_142 Depth=1
	add.d	$a0, $s4, $s6
	addi.d	$a0, $a0, 4
	ld.d	$a2, $sp, 40                    # 8-byte Folded Reload
	st.d	$s4, $a2, 0
	st.d	$a0, $a2, 8
	alsl.d	$a1, $fp, $s4, 2
	st.d	$a1, $a2, 16
	move	$s5, $s4
	ld.d	$a1, $sp, 64                    # 8-byte Folded Reload
	bne	$a1, $s1, .LBB5_142
	b	.LBB5_156
.LBB5_149:
	addi.w	$a0, $zero, -4
	lu52i.d	$a0, $a0, 2047
	beq	$s2, $a0, .LBB5_316
# %bb.150:                              # %_ZNSt12_Vector_baseIiSaIiEE11_M_allocateEm.exit.i.i222.peel
	move	$a1, $s2
	srai.d	$a0, $a1, 2
	ori	$a1, $zero, 1
	sltu	$a2, $a1, $a0
	masknez	$a1, $a1, $a2
	maskeqz	$a2, $a0, $a2
	or	$a1, $a2, $a1
	add.d	$a0, $a1, $a0
	sltu	$a1, $a0, $a1
	addi.w	$a2, $zero, -1
	lu52i.d	$a2, $a2, 511
	sltu	$a3, $a0, $a2
	maskeqz	$a0, $a0, $a3
	masknez	$a3, $a2, $a3
	or	$a0, $a0, $a3
	masknez	$a0, $a0, $a1
	maskeqz	$a1, $a2, $a1
	or	$s1, $a1, $a0
	slli.d	$a0, $s1, 2
	pcaddu18i	$ra, %call36(_Znwm)
	jirl	$ra, $ra, 0
	move	$s5, $a0
	stx.w	$zero, $a0, $s2
	blez	$s2, .LBB5_152
# %bb.151:
	move	$a0, $s5
	move	$a1, $s4
	move	$a2, $s2
	pcaddu18i	$ra, %call36(memcpy)
	jirl	$ra, $ra, 0
.LBB5_152:                              # %_ZNSt6vectorIiSaIiEE11_S_relocateEPiS2_S2_RS0_.exit.i.i224.peel
	add.d	$fp, $s5, $s2
	ld.d	$s8, $sp, 64                    # 8-byte Folded Reload
	beqz	$s4, .LBB5_154
# %bb.153:
	move	$a0, $s4
	move	$a1, $s2
	pcaddu18i	$ra, %call36(_ZdlPvm)
	jirl	$ra, $ra, 0
.LBB5_154:                              # %_ZNSt6vectorIiSaIiEE17_M_realloc_appendIJRKiEEEvDpOT_.exit.i226.peel
	addi.d	$a0, $fp, 4
	ld.d	$a2, $sp, 40                    # 8-byte Folded Reload
	st.d	$s5, $a2, 0
	st.d	$a0, $a2, 8
	alsl.d	$a1, $s1, $s5, 2
	st.d	$a1, $a2, 16
	bnez	$s8, .LBB5_140
.LBB5_155:
	move	$s4, $s5
.LBB5_156:                              # %._crit_edge392
	ld.d	$s2, $sp, 32                    # 8-byte Folded Reload
	ld.d	$a0, $s2, 8
	ld.d	$a1, $s2, 16
	ld.d	$a3, $sp, 112                   # 8-byte Folded Reload
	sub.d	$s1, $a3, $s0
	beq	$a0, $a1, .LBB5_158
# %bb.157:
	st.w	$s1, $a0, 0
	addi.d	$a0, $a0, 4
	st.d	$a0, $s2, 8
	ld.d	$s8, $sp, 64                    # 8-byte Folded Reload
	b	.LBB5_164
.LBB5_158:
	ld.d	$s4, $s2, 0
	sub.d	$s5, $a0, $s4
	addi.w	$a0, $zero, -4
	lu52i.d	$a0, $a0, 2047
	ld.d	$s8, $sp, 64                    # 8-byte Folded Reload
	beq	$s5, $a0, .LBB5_316
# %bb.159:                              # %_ZNSt12_Vector_baseIiSaIiEE11_M_allocateEm.exit.i.i208
	srai.d	$a0, $s5, 2
	ori	$a1, $zero, 1
	sltu	$a2, $a1, $a0
	masknez	$a1, $a1, $a2
	maskeqz	$a2, $a0, $a2
	or	$a1, $a2, $a1
	add.d	$a0, $a1, $a0
	sltu	$a1, $a0, $a1
	addi.w	$a2, $zero, -1
	lu52i.d	$a2, $a2, 511
	sltu	$a3, $a0, $a2
	maskeqz	$a0, $a0, $a3
	masknez	$a3, $a2, $a3
	or	$a0, $a0, $a3
	masknez	$a0, $a0, $a1
	maskeqz	$a1, $a2, $a1
	or	$fp, $a1, $a0
	slli.d	$a0, $fp, 2
	pcaddu18i	$ra, %call36(_Znwm)
	jirl	$ra, $ra, 0
	move	$s0, $a0
	stx.w	$s1, $a0, $s5
	blez	$s5, .LBB5_161
# %bb.160:
	move	$a0, $s0
	move	$a1, $s4
	move	$a2, $s5
	pcaddu18i	$ra, %call36(memcpy)
	jirl	$ra, $ra, 0
.LBB5_161:                              # %_ZNSt6vectorIiSaIiEE11_S_relocateEPiS2_S2_RS0_.exit.i.i210
	add.d	$s1, $s0, $s5
	beqz	$s4, .LBB5_163
# %bb.162:
	move	$a0, $s4
	move	$a1, $s5
	pcaddu18i	$ra, %call36(_ZdlPvm)
	jirl	$ra, $ra, 0
.LBB5_163:                              # %_ZNSt6vectorIiSaIiEE17_M_realloc_appendIJRKiEEEvDpOT_.exit.i212
	addi.d	$a0, $s1, 4
	st.d	$s0, $s2, 0
	ld.d	$a2, $sp, 40                    # 8-byte Folded Reload
	ld.d	$s4, $a2, 0
	st.d	$a0, $s2, 8
	alsl.d	$a0, $fp, $s0, 2
	st.d	$a0, $s2, 16
.LBB5_164:                              # %_ZNSt6vectorIiSaIiEE9push_backERKi.exit213
	ld.d	$a1, $a2, 8
	ld.d	$a4, $sp, 24                    # 8-byte Folded Reload
	ld.d	$a0, $a4, 8
	ld.d	$a2, $a4, 16
	ld.d	$a3, $sp, 96                    # 8-byte Folded Reload
	srli.d	$a3, $a3, 2
	sub.d	$a1, $a1, $s4
	srli.d	$a1, $a1, 2
	sub.d	$fp, $a1, $a3
	ld.d	$s5, $sp, 56                    # 8-byte Folded Reload
	beq	$a0, $a2, .LBB5_166
# %bb.165:
	st.w	$fp, $a0, 0
	addi.d	$a0, $a0, 4
	st.d	$a0, $a4, 8
	b	.LBB5_172
.LBB5_166:
	ld.d	$s3, $a4, 0
	sub.d	$s4, $a0, $s3
	addi.w	$a0, $zero, -4
	lu52i.d	$a0, $a0, 2047
	beq	$s4, $a0, .LBB5_316
# %bb.167:                              # %_ZNSt12_Vector_baseIiSaIiEE11_M_allocateEm.exit.i.i.i215
	srai.d	$a0, $s4, 2
	ori	$a1, $zero, 1
	sltu	$a2, $a1, $a0
	masknez	$a1, $a1, $a2
	maskeqz	$a2, $a0, $a2
	or	$a1, $a2, $a1
	add.d	$a0, $a1, $a0
	sltu	$a1, $a0, $a1
	addi.w	$a2, $zero, -1
	lu52i.d	$a2, $a2, 511
	sltu	$a3, $a0, $a2
	maskeqz	$a0, $a0, $a3
	masknez	$a3, $a2, $a3
	or	$a0, $a0, $a3
	masknez	$a0, $a0, $a1
	maskeqz	$a1, $a2, $a1
	or	$s1, $a1, $a0
	slli.d	$a0, $s1, 2
	pcaddu18i	$ra, %call36(_Znwm)
	jirl	$ra, $ra, 0
	move	$s0, $a0
	stx.w	$fp, $a0, $s4
	blez	$s4, .LBB5_169
# %bb.168:
	move	$a0, $s0
	move	$a1, $s3
	move	$a2, $s4
	pcaddu18i	$ra, %call36(memcpy)
	jirl	$ra, $ra, 0
.LBB5_169:                              # %_ZNSt6vectorIiSaIiEE11_S_relocateEPiS2_S2_RS0_.exit.i.i.i217
	add.d	$fp, $s0, $s4
	beqz	$s3, .LBB5_171
# %bb.170:
	move	$a0, $s3
	move	$a1, $s4
	pcaddu18i	$ra, %call36(_ZdlPvm)
	jirl	$ra, $ra, 0
.LBB5_171:                              # %_ZNSt6vectorIiSaIiEE17_M_realloc_appendIJiEEEvDpOT_.exit.i.i219
	addi.d	$a0, $fp, 4
	ld.d	$a1, $sp, 24                    # 8-byte Folded Reload
	st.d	$s0, $a1, 0
	st.d	$a0, $a1, 8
	alsl.d	$a0, $s1, $s0, 2
	st.d	$a0, $a1, 16
.LBB5_172:                              # %_ZNSt6vectorIiSaIiEE9push_backEOi.exit220
	ld.d	$s4, $sp, 104                   # 8-byte Folded Reload
.LBB5_173:                              # %_ZNSt6vectorIiSaIiEE9push_backEOi.exit220
	ld.w	$a0, $s4, 64
	ld.d	$a2, $sp, 40                    # 8-byte Folded Reload
	beqz	$a0, .LBB5_212
# %bb.174:
	pcalau12i	$a0, %got_pc_hi20(_ZN8Parallel4mypeE)
	ld.d	$a1, $a0, %got_pc_lo12(_ZN8Parallel4mypeE)
	ld.d	$a0, $a2, 8
	ld.d	$s4, $a2, 0
	ld.w	$a3, $a1, 0
	sub.d	$s1, $a0, $s4
	ld.d	$s8, $sp, 48                    # 8-byte Folded Reload
	st.d	$s1, $sp, 96                    # 8-byte Folded Spill
	st.d	$a3, $sp, 112                   # 8-byte Folded Spill
	bltz	$s8, .LBB5_196
# %bb.175:                              # %.lr.ph397.preheader
	ld.d	$a1, $sp, 104                   # 8-byte Folded Reload
	ld.w	$a1, $a1, 68
	beqz	$a1, .LBB5_177
# %bb.176:
	move	$s5, $s4
	bnez	$s8, .LBB5_179
	b	.LBB5_195
.LBB5_177:
	ld.d	$a1, $a2, 16
	beq	$a0, $a1, .LBB5_189
# %bb.178:
	st.w	$zero, $a0, 0
	addi.d	$a0, $a0, 4
	st.d	$a0, $a2, 8
	move	$s5, $s4
	beqz	$s8, .LBB5_195
.LBB5_179:
	addi.w	$a1, $zero, -4
	lu52i.d	$s0, $a1, 2047
	ori	$s1, $zero, 1
	addi.w	$a1, $zero, -1
	lu52i.d	$s2, $a1, 511
	ld.d	$s3, $sp, 56                    # 8-byte Folded Reload
	b	.LBB5_182
	.p2align	4, , 16
.LBB5_180:                              #   in Loop: Header=BB5_182 Depth=1
	st.w	$s3, $a0, 0
	addi.d	$a0, $a0, 4
	st.d	$a0, $a2, 8
	move	$s4, $s5
.LBB5_181:                              # %_ZNSt6vectorIiSaIiEE9push_backERKi.exit248
                                        #   in Loop: Header=BB5_182 Depth=1
	addi.w	$s8, $s8, -1
	ld.d	$a1, $sp, 56                    # 8-byte Folded Reload
	add.d	$s3, $s3, $a1
	beqz	$s8, .LBB5_196
.LBB5_182:                              # %.lr.ph397.peel.next
                                        # =>This Inner Loop Header: Depth=1
	ld.d	$a1, $a2, 16
	bne	$a0, $a1, .LBB5_180
# %bb.183:                              #   in Loop: Header=BB5_182 Depth=1
	sub.d	$s6, $a0, $s5
	beq	$s6, $s0, .LBB5_316
# %bb.184:                              # %_ZNSt12_Vector_baseIiSaIiEE11_M_allocateEm.exit.i.i243
                                        #   in Loop: Header=BB5_182 Depth=1
	srai.d	$a0, $s6, 2
	sltu	$a1, $s1, $a0
	masknez	$a2, $s1, $a1
	maskeqz	$a1, $a0, $a1
	or	$a1, $a1, $a2
	add.d	$a0, $a1, $a0
	sltu	$a1, $a0, $a1
	sltu	$a2, $a0, $s2
	maskeqz	$a0, $a0, $a2
	masknez	$a2, $s2, $a2
	or	$a0, $a0, $a2
	masknez	$a0, $a0, $a1
	maskeqz	$a1, $s2, $a1
	or	$fp, $a1, $a0
	slli.d	$a0, $fp, 2
	pcaddu18i	$ra, %call36(_Znwm)
	jirl	$ra, $ra, 0
	move	$s4, $a0
	stx.w	$s3, $a0, $s6
	blez	$s6, .LBB5_186
# %bb.185:                              #   in Loop: Header=BB5_182 Depth=1
	move	$a0, $s4
	move	$a1, $s5
	move	$a2, $s6
	pcaddu18i	$ra, %call36(memcpy)
	jirl	$ra, $ra, 0
.LBB5_186:                              # %_ZNSt6vectorIiSaIiEE11_S_relocateEPiS2_S2_RS0_.exit.i.i245
                                        #   in Loop: Header=BB5_182 Depth=1
	beqz	$s5, .LBB5_188
# %bb.187:                              #   in Loop: Header=BB5_182 Depth=1
	move	$a0, $s5
	move	$a1, $s6
	pcaddu18i	$ra, %call36(_ZdlPvm)
	jirl	$ra, $ra, 0
.LBB5_188:                              # %_ZNSt6vectorIiSaIiEE17_M_realloc_appendIJRKiEEEvDpOT_.exit.i247
                                        #   in Loop: Header=BB5_182 Depth=1
	add.d	$a0, $s4, $s6
	addi.d	$a0, $a0, 4
	ld.d	$a2, $sp, 40                    # 8-byte Folded Reload
	st.d	$s4, $a2, 0
	st.d	$a0, $a2, 8
	alsl.d	$a1, $fp, $s4, 2
	st.d	$a1, $a2, 16
	move	$s5, $s4
	b	.LBB5_181
.LBB5_189:
	addi.w	$a0, $zero, -4
	lu52i.d	$a0, $a0, 2047
	beq	$s1, $a0, .LBB5_316
# %bb.190:                              # %_ZNSt12_Vector_baseIiSaIiEE11_M_allocateEm.exit.i.i243.peel
	move	$a1, $s1
	srai.d	$a0, $a1, 2
	ori	$a1, $zero, 1
	sltu	$a2, $a1, $a0
	masknez	$a1, $a1, $a2
	maskeqz	$a2, $a0, $a2
	or	$a1, $a2, $a1
	add.d	$a0, $a1, $a0
	sltu	$a1, $a0, $a1
	addi.w	$a2, $zero, -1
	lu52i.d	$a2, $a2, 511
	sltu	$a3, $a0, $a2
	maskeqz	$a0, $a0, $a3
	masknez	$a3, $a2, $a3
	or	$a0, $a0, $a3
	masknez	$a0, $a0, $a1
	maskeqz	$a1, $a2, $a1
	or	$s0, $a1, $a0
	slli.d	$a0, $s0, 2
	pcaddu18i	$ra, %call36(_Znwm)
	jirl	$ra, $ra, 0
	move	$s5, $a0
	stx.w	$zero, $a0, $s1
	blez	$s1, .LBB5_192
# %bb.191:
	move	$a0, $s5
	move	$a1, $s4
	move	$a2, $s1
	pcaddu18i	$ra, %call36(memcpy)
	jirl	$ra, $ra, 0
.LBB5_192:                              # %_ZNSt6vectorIiSaIiEE11_S_relocateEPiS2_S2_RS0_.exit.i.i245.peel
	add.d	$fp, $s5, $s1
	ld.d	$s8, $sp, 48                    # 8-byte Folded Reload
	beqz	$s4, .LBB5_194
# %bb.193:
	move	$a0, $s4
	move	$a1, $s1
	pcaddu18i	$ra, %call36(_ZdlPvm)
	jirl	$ra, $ra, 0
.LBB5_194:                              # %_ZNSt6vectorIiSaIiEE17_M_realloc_appendIJRKiEEEvDpOT_.exit.i247.peel
	addi.d	$a0, $fp, 4
	ld.d	$a2, $sp, 40                    # 8-byte Folded Reload
	st.d	$s5, $a2, 0
	st.d	$a0, $a2, 8
	alsl.d	$a1, $s0, $s5, 2
	st.d	$a1, $a2, 16
	bnez	$s8, .LBB5_179
.LBB5_195:
	move	$s4, $s5
.LBB5_196:                              # %._crit_edge398
	ld.d	$s2, $sp, 32                    # 8-byte Folded Reload
	ld.d	$a0, $s2, 8
	ld.d	$a1, $s2, 16
	ld.d	$a3, $sp, 112                   # 8-byte Folded Reload
	addi.d	$s1, $a3, -1
	beq	$a0, $a1, .LBB5_198
# %bb.197:
	st.w	$s1, $a0, 0
	addi.d	$a0, $a0, 4
	st.d	$a0, $s2, 8
	ld.d	$s8, $sp, 64                    # 8-byte Folded Reload
	b	.LBB5_204
.LBB5_198:
	ld.d	$s4, $s2, 0
	sub.d	$s5, $a0, $s4
	addi.w	$a0, $zero, -4
	lu52i.d	$a0, $a0, 2047
	beq	$s5, $a0, .LBB5_316
# %bb.199:                              # %_ZNSt12_Vector_baseIiSaIiEE11_M_allocateEm.exit.i.i229
	srai.d	$a0, $s5, 2
	ori	$a1, $zero, 1
	sltu	$a2, $a1, $a0
	masknez	$a1, $a1, $a2
	maskeqz	$a2, $a0, $a2
	or	$a1, $a2, $a1
	add.d	$a0, $a1, $a0
	sltu	$a1, $a0, $a1
	addi.w	$a2, $zero, -1
	lu52i.d	$a2, $a2, 511
	sltu	$a3, $a0, $a2
	maskeqz	$a0, $a0, $a3
	masknez	$a3, $a2, $a3
	or	$a0, $a0, $a3
	masknez	$a0, $a0, $a1
	maskeqz	$a1, $a2, $a1
	or	$fp, $a1, $a0
	slli.d	$a0, $fp, 2
	pcaddu18i	$ra, %call36(_Znwm)
	jirl	$ra, $ra, 0
	move	$s0, $a0
	stx.w	$s1, $a0, $s5
	blez	$s5, .LBB5_201
# %bb.200:
	move	$a0, $s0
	move	$a1, $s4
	move	$a2, $s5
	pcaddu18i	$ra, %call36(memcpy)
	jirl	$ra, $ra, 0
.LBB5_201:                              # %_ZNSt6vectorIiSaIiEE11_S_relocateEPiS2_S2_RS0_.exit.i.i231
	add.d	$s1, $s0, $s5
	ld.d	$s8, $sp, 64                    # 8-byte Folded Reload
	beqz	$s4, .LBB5_203
# %bb.202:
	move	$a0, $s4
	move	$a1, $s5
	pcaddu18i	$ra, %call36(_ZdlPvm)
	jirl	$ra, $ra, 0
.LBB5_203:                              # %_ZNSt6vectorIiSaIiEE17_M_realloc_appendIJRKiEEEvDpOT_.exit.i233
	addi.d	$a0, $s1, 4
	st.d	$s0, $s2, 0
	ld.d	$a2, $sp, 40                    # 8-byte Folded Reload
	ld.d	$s4, $a2, 0
	st.d	$a0, $s2, 8
	alsl.d	$a0, $fp, $s0, 2
	st.d	$a0, $s2, 16
.LBB5_204:                              # %_ZNSt6vectorIiSaIiEE9push_backERKi.exit234
	ld.d	$a1, $a2, 8
	ld.d	$a4, $sp, 24                    # 8-byte Folded Reload
	ld.d	$a0, $a4, 8
	ld.d	$a2, $a4, 16
	ld.d	$a3, $sp, 96                    # 8-byte Folded Reload
	srli.d	$a3, $a3, 2
	sub.d	$a1, $a1, $s4
	srli.d	$a1, $a1, 2
	sub.d	$fp, $a1, $a3
	ld.d	$s5, $sp, 56                    # 8-byte Folded Reload
	beq	$a0, $a2, .LBB5_206
# %bb.205:
	st.w	$fp, $a0, 0
	addi.d	$a0, $a0, 4
	st.d	$a0, $a4, 8
	ld.d	$s4, $sp, 104                   # 8-byte Folded Reload
	b	.LBB5_212
.LBB5_206:
	ld.d	$s1, $a4, 0
	sub.d	$s3, $a0, $s1
	addi.w	$a0, $zero, -4
	lu52i.d	$a0, $a0, 2047
	ld.d	$s4, $sp, 104                   # 8-byte Folded Reload
	beq	$s3, $a0, .LBB5_316
# %bb.207:                              # %_ZNSt12_Vector_baseIiSaIiEE11_M_allocateEm.exit.i.i.i236
	srai.d	$a0, $s3, 2
	ori	$a1, $zero, 1
	sltu	$a2, $a1, $a0
	masknez	$a1, $a1, $a2
	maskeqz	$a2, $a0, $a2
	or	$a1, $a2, $a1
	add.d	$a0, $a1, $a0
	sltu	$a1, $a0, $a1
	addi.w	$a2, $zero, -1
	lu52i.d	$a2, $a2, 511
	sltu	$a3, $a0, $a2
	maskeqz	$a0, $a0, $a3
	masknez	$a3, $a2, $a3
	or	$a0, $a0, $a3
	masknez	$a0, $a0, $a1
	maskeqz	$a1, $a2, $a1
	or	$s2, $a1, $a0
	slli.d	$a0, $s2, 2
	pcaddu18i	$ra, %call36(_Znwm)
	jirl	$ra, $ra, 0
	move	$s0, $a0
	stx.w	$fp, $a0, $s3
	blez	$s3, .LBB5_209
# %bb.208:
	move	$a0, $s0
	move	$a1, $s1
	move	$a2, $s3
	pcaddu18i	$ra, %call36(memcpy)
	jirl	$ra, $ra, 0
.LBB5_209:                              # %_ZNSt6vectorIiSaIiEE11_S_relocateEPiS2_S2_RS0_.exit.i.i.i238
	add.d	$fp, $s0, $s3
	beqz	$s1, .LBB5_211
# %bb.210:
	move	$a0, $s1
	move	$a1, $s3
	pcaddu18i	$ra, %call36(_ZdlPvm)
	jirl	$ra, $ra, 0
.LBB5_211:                              # %_ZNSt6vectorIiSaIiEE17_M_realloc_appendIJiEEEvDpOT_.exit.i.i240
	addi.d	$a0, $fp, 4
	ld.d	$a1, $sp, 24                    # 8-byte Folded Reload
	st.d	$s0, $a1, 0
	st.d	$a0, $a1, 8
	alsl.d	$a0, $s2, $s0, 2
	st.d	$a0, $a1, 16
.LBB5_212:                              # %_ZNSt6vectorIiSaIiEE9push_backEOi.exit241
	ld.d	$a4, $sp, 248
	ld.w	$a0, $s4, 56
	ld.w	$a1, $s4, 64
	ld.d	$a2, $sp, 240
	st.d	$a2, $sp, 96                    # 8-byte Folded Spill
	addi.w	$a0, $a0, -1
	st.d	$a4, $sp, 112                   # 8-byte Folded Spill
	beq	$a1, $a0, .LBB5_245
# %bb.213:
	pcalau12i	$a0, %got_pc_hi20(_ZN8Parallel4mypeE)
	ld.d	$a1, $a0, %got_pc_lo12(_ZN8Parallel4mypeE)
	ld.d	$a0, $s7, 8
	ld.d	$s1, $s7, 0
	ld.w	$a3, $a1, 0
	sub.d	$a2, $a0, $s1
	ld.d	$a1, $sp, 48                    # 8-byte Folded Reload
	st.d	$a2, $sp, 88                    # 8-byte Folded Spill
	st.d	$a3, $sp, 80                    # 8-byte Folded Spill
	bltz	$a1, .LBB5_235
# %bb.214:                              # %.lr.ph403.preheader
	ld.w	$a1, $s4, 68
	beqz	$a1, .LBB5_216
# %bb.215:
	move	$s4, $s1
	ld.d	$s5, $sp, 48                    # 8-byte Folded Reload
	bnez	$s5, .LBB5_218
	b	.LBB5_234
.LBB5_216:
	ld.d	$a1, $s7, 16
	beq	$a0, $a1, .LBB5_228
# %bb.217:
	st.w	$s8, $a0, 0
	addi.d	$a0, $a0, 4
	st.d	$a0, $s7, 8
	move	$s4, $s1
	ld.d	$s5, $sp, 48                    # 8-byte Folded Reload
	beqz	$s5, .LBB5_234
.LBB5_218:                              # %.lr.ph403.peel.next.preheader
	slli.d	$a1, $s8, 1
	addi.d	$s2, $a1, 1
	addi.w	$a1, $zero, -4
	lu52i.d	$s8, $a1, 2047
	ori	$s0, $zero, 1
	addi.w	$a1, $zero, -1
	lu52i.d	$fp, $a1, 511
	b	.LBB5_221
	.p2align	4, , 16
.LBB5_219:                              #   in Loop: Header=BB5_221 Depth=1
	st.w	$s2, $a0, 0
	addi.d	$a0, $a0, 4
	st.d	$a0, $s7, 8
	move	$s1, $s4
.LBB5_220:                              # %_ZNSt6vectorIiSaIiEE9push_backERKi.exit269
                                        #   in Loop: Header=BB5_221 Depth=1
	addi.w	$s5, $s5, -1
	ld.d	$a1, $sp, 56                    # 8-byte Folded Reload
	add.d	$s2, $s2, $a1
	beqz	$s5, .LBB5_235
.LBB5_221:                              # %.lr.ph403.peel.next
                                        # =>This Inner Loop Header: Depth=1
	ld.d	$a1, $s7, 16
	bne	$a0, $a1, .LBB5_219
# %bb.222:                              #   in Loop: Header=BB5_221 Depth=1
	sub.d	$s3, $a0, $s4
	beq	$s3, $s8, .LBB5_316
# %bb.223:                              # %_ZNSt12_Vector_baseIiSaIiEE11_M_allocateEm.exit.i.i264
                                        #   in Loop: Header=BB5_221 Depth=1
	srai.d	$a0, $s3, 2
	sltu	$a1, $s0, $a0
	masknez	$a2, $s0, $a1
	maskeqz	$a1, $a0, $a1
	or	$a1, $a1, $a2
	add.d	$a0, $a1, $a0
	sltu	$a1, $a0, $a1
	sltu	$a2, $a0, $fp
	maskeqz	$a0, $a0, $a2
	masknez	$a2, $fp, $a2
	or	$a0, $a0, $a2
	masknez	$a0, $a0, $a1
	maskeqz	$a1, $fp, $a1
	or	$s6, $a1, $a0
	slli.d	$a0, $s6, 2
	pcaddu18i	$ra, %call36(_Znwm)
	jirl	$ra, $ra, 0
	move	$s1, $a0
	stx.w	$s2, $a0, $s3
	blez	$s3, .LBB5_225
# %bb.224:                              #   in Loop: Header=BB5_221 Depth=1
	move	$a0, $s1
	move	$a1, $s4
	move	$a2, $s3
	pcaddu18i	$ra, %call36(memcpy)
	jirl	$ra, $ra, 0
.LBB5_225:                              # %_ZNSt6vectorIiSaIiEE11_S_relocateEPiS2_S2_RS0_.exit.i.i266
                                        #   in Loop: Header=BB5_221 Depth=1
	beqz	$s4, .LBB5_227
# %bb.226:                              #   in Loop: Header=BB5_221 Depth=1
	move	$a0, $s4
	move	$a1, $s3
	pcaddu18i	$ra, %call36(_ZdlPvm)
	jirl	$ra, $ra, 0
.LBB5_227:                              # %_ZNSt6vectorIiSaIiEE17_M_realloc_appendIJRKiEEEvDpOT_.exit.i268
                                        #   in Loop: Header=BB5_221 Depth=1
	add.d	$a0, $s1, $s3
	addi.d	$a0, $a0, 4
	st.d	$s1, $s7, 0
	st.d	$a0, $s7, 8
	alsl.d	$a1, $s6, $s1, 2
	st.d	$a1, $s7, 16
	move	$s4, $s1
	b	.LBB5_220
.LBB5_228:
	addi.w	$a0, $zero, -4
	lu52i.d	$a0, $a0, 2047
	beq	$a2, $a0, .LBB5_316
# %bb.229:                              # %_ZNSt12_Vector_baseIiSaIiEE11_M_allocateEm.exit.i.i264.peel
	ld.d	$s2, $sp, 88                    # 8-byte Folded Reload
	srai.d	$a0, $s2, 2
	ori	$a1, $zero, 1
	sltu	$a2, $a1, $a0
	masknez	$a1, $a1, $a2
	maskeqz	$a2, $a0, $a2
	or	$a1, $a2, $a1
	add.d	$a0, $a1, $a0
	sltu	$a1, $a0, $a1
	addi.w	$a2, $zero, -1
	lu52i.d	$a2, $a2, 511
	sltu	$a3, $a0, $a2
	maskeqz	$a0, $a0, $a3
	masknez	$a3, $a2, $a3
	or	$a0, $a0, $a3
	masknez	$a0, $a0, $a1
	maskeqz	$a1, $a2, $a1
	or	$fp, $a1, $a0
	slli.d	$a0, $fp, 2
	pcaddu18i	$ra, %call36(_Znwm)
	jirl	$ra, $ra, 0
	move	$s4, $a0
	ld.d	$s8, $sp, 64                    # 8-byte Folded Reload
	stx.w	$s8, $a0, $s2
	blez	$s2, .LBB5_231
# %bb.230:
	move	$a0, $s4
	move	$a1, $s1
	move	$a2, $s2
	pcaddu18i	$ra, %call36(memcpy)
	jirl	$ra, $ra, 0
.LBB5_231:                              # %_ZNSt6vectorIiSaIiEE11_S_relocateEPiS2_S2_RS0_.exit.i.i266.peel
	add.d	$s0, $s4, $s2
	beqz	$s1, .LBB5_233
# %bb.232:
	move	$a0, $s1
	move	$a1, $s2
	pcaddu18i	$ra, %call36(_ZdlPvm)
	jirl	$ra, $ra, 0
.LBB5_233:                              # %_ZNSt6vectorIiSaIiEE17_M_realloc_appendIJRKiEEEvDpOT_.exit.i268.peel
	addi.d	$a0, $s0, 4
	st.d	$s4, $s7, 0
	st.d	$a0, $s7, 8
	alsl.d	$a1, $fp, $s4, 2
	st.d	$a1, $s7, 16
	ld.d	$s5, $sp, 48                    # 8-byte Folded Reload
	bnez	$s5, .LBB5_218
.LBB5_234:
	move	$s1, $s4
.LBB5_235:                              # %._crit_edge404
	ld.d	$a2, $sp, 96                    # 8-byte Folded Reload
	ld.d	$a0, $a2, 8
	ld.d	$a1, $a2, 16
	ld.d	$a3, $sp, 80                    # 8-byte Folded Reload
	addi.d	$s0, $a3, 1
	beq	$a0, $a1, .LBB5_237
# %bb.236:
	st.w	$s0, $a0, 0
	addi.d	$a0, $a0, 4
	st.d	$a0, $a2, 8
	ld.d	$s8, $sp, 64                    # 8-byte Folded Reload
	ld.d	$s5, $sp, 56                    # 8-byte Folded Reload
	b	.LBB5_243
.LBB5_237:
	ld.d	$s1, $a2, 0
	sub.d	$s4, $a0, $s1
	addi.w	$a0, $zero, -4
	lu52i.d	$a0, $a0, 2047
	ld.d	$s8, $sp, 64                    # 8-byte Folded Reload
	ld.d	$s5, $sp, 56                    # 8-byte Folded Reload
	beq	$s4, $a0, .LBB5_316
# %bb.238:                              # %_ZNSt12_Vector_baseIiSaIiEE11_M_allocateEm.exit.i.i250
	srai.d	$a0, $s4, 2
	ori	$a1, $zero, 1
	sltu	$a2, $a1, $a0
	masknez	$a1, $a1, $a2
	maskeqz	$a2, $a0, $a2
	or	$a1, $a2, $a1
	add.d	$a0, $a1, $a0
	sltu	$a1, $a0, $a1
	addi.w	$a2, $zero, -1
	lu52i.d	$a2, $a2, 511
	sltu	$a3, $a0, $a2
	maskeqz	$a0, $a0, $a3
	masknez	$a3, $a2, $a3
	or	$a0, $a0, $a3
	masknez	$a0, $a0, $a1
	maskeqz	$a1, $a2, $a1
	or	$fp, $a1, $a0
	slli.d	$a0, $fp, 2
	pcaddu18i	$ra, %call36(_Znwm)
	jirl	$ra, $ra, 0
	move	$s3, $a0
	stx.w	$s0, $a0, $s4
	blez	$s4, .LBB5_240
# %bb.239:
	move	$a0, $s3
	move	$a1, $s1
	move	$a2, $s4
	pcaddu18i	$ra, %call36(memcpy)
	jirl	$ra, $ra, 0
.LBB5_240:                              # %_ZNSt6vectorIiSaIiEE11_S_relocateEPiS2_S2_RS0_.exit.i.i252
	add.d	$s0, $s3, $s4
	beqz	$s1, .LBB5_242
# %bb.241:
	move	$a0, $s1
	move	$a1, $s4
	pcaddu18i	$ra, %call36(_ZdlPvm)
	jirl	$ra, $ra, 0
.LBB5_242:                              # %_ZNSt6vectorIiSaIiEE17_M_realloc_appendIJRKiEEEvDpOT_.exit.i254
	addi.d	$a0, $s0, 4
	ld.d	$a1, $sp, 96                    # 8-byte Folded Reload
	st.d	$s3, $a1, 0
	ld.d	$s1, $s7, 0
	st.d	$a0, $a1, 8
	alsl.d	$a0, $fp, $s3, 2
	st.d	$a0, $a1, 16
.LBB5_243:                              # %_ZNSt6vectorIiSaIiEE9push_backERKi.exit255
	ld.d	$a1, $s7, 8
	ld.d	$a4, $sp, 112                   # 8-byte Folded Reload
	ld.d	$a0, $a4, 8
	ld.d	$a2, $a4, 16
	ld.d	$a3, $sp, 88                    # 8-byte Folded Reload
	srli.d	$a3, $a3, 2
	sub.d	$a1, $a1, $s1
	srli.d	$a1, $a1, 2
	sub.d	$fp, $a1, $a3
	ld.d	$s4, $sp, 104                   # 8-byte Folded Reload
	beq	$a0, $a2, .LBB5_249
# %bb.244:
	st.w	$fp, $a0, 0
	addi.d	$a0, $a0, 4
	st.d	$a0, $a4, 8
.LBB5_245:                              # %_ZNSt6vectorIiSaIiEE9push_backEOi.exit262
	ld.w	$a0, $s4, 60
	ld.w	$a1, $s4, 68
	addi.w	$a0, $a0, -1
	beq	$a1, $a0, .LBB5_284
.LBB5_246:
	pcalau12i	$a0, %got_pc_hi20(_ZN8Parallel4mypeE)
	ld.d	$a0, $a0, %got_pc_lo12(_ZN8Parallel4mypeE)
	ld.w	$a0, $a0, 0
	st.d	$a0, $sp, 88                    # 8-byte Folded Spill
	ld.d	$a0, $s7, 8
	ld.d	$s1, $s7, 0
	ld.w	$a1, $s4, 56
	st.d	$a1, $sp, 80                    # 8-byte Folded Spill
	sub.d	$s6, $a0, $s1
	bltz	$s8, .LBB5_274
# %bb.247:                              # %.lr.ph409.preheader
	ld.w	$a1, $s4, 64
	ld.d	$a2, $sp, 48                    # 8-byte Folded Reload
	mul.d	$fp, $a2, $s5
	beqz	$a1, .LBB5_255
# %bb.248:
	move	$s4, $s1
	bnez	$s8, .LBB5_257
	b	.LBB5_273
.LBB5_249:
	ld.d	$s0, $a4, 0
	sub.d	$s1, $a0, $s0
	addi.w	$a0, $zero, -4
	lu52i.d	$a0, $a0, 2047
	beq	$s1, $a0, .LBB5_316
# %bb.250:                              # %_ZNSt12_Vector_baseIiSaIiEE11_M_allocateEm.exit.i.i.i257
	srai.d	$a0, $s1, 2
	ori	$a1, $zero, 1
	sltu	$a2, $a1, $a0
	masknez	$a1, $a1, $a2
	maskeqz	$a2, $a0, $a2
	or	$a1, $a2, $a1
	add.d	$a0, $a1, $a0
	sltu	$a1, $a0, $a1
	addi.w	$a2, $zero, -1
	lu52i.d	$a2, $a2, 511
	sltu	$a3, $a0, $a2
	maskeqz	$a0, $a0, $a3
	masknez	$a3, $a2, $a3
	or	$a0, $a0, $a3
	masknez	$a0, $a0, $a1
	maskeqz	$a1, $a2, $a1
	or	$s2, $a1, $a0
	slli.d	$a0, $s2, 2
	pcaddu18i	$ra, %call36(_Znwm)
	jirl	$ra, $ra, 0
	move	$s3, $a0
	stx.w	$fp, $a0, $s1
	blez	$s1, .LBB5_252
# %bb.251:
	move	$a0, $s3
	move	$a1, $s0
	move	$a2, $s1
	pcaddu18i	$ra, %call36(memcpy)
	jirl	$ra, $ra, 0
.LBB5_252:                              # %_ZNSt6vectorIiSaIiEE11_S_relocateEPiS2_S2_RS0_.exit.i.i.i259
	add.d	$fp, $s3, $s1
	beqz	$s0, .LBB5_254
# %bb.253:
	move	$a0, $s0
	move	$a1, $s1
	pcaddu18i	$ra, %call36(_ZdlPvm)
	jirl	$ra, $ra, 0
.LBB5_254:                              # %_ZNSt6vectorIiSaIiEE17_M_realloc_appendIJiEEEvDpOT_.exit.i.i261
	addi.d	$a0, $fp, 4
	ld.d	$a4, $sp, 112                   # 8-byte Folded Reload
	st.d	$s3, $a4, 0
	st.d	$a0, $a4, 8
	alsl.d	$a0, $s2, $s3, 2
	st.d	$a0, $a4, 16
	ld.w	$a0, $s4, 60
	ld.w	$a1, $s4, 68
	addi.w	$a0, $a0, -1
	bne	$a1, $a0, .LBB5_246
	b	.LBB5_284
.LBB5_255:
	ld.d	$a1, $s7, 16
	beq	$a0, $a1, .LBB5_267
# %bb.256:
	st.w	$fp, $a0, 0
	addi.d	$a0, $a0, 4
	st.d	$a0, $s7, 8
	move	$s4, $s1
	beqz	$s8, .LBB5_273
.LBB5_257:                              # %.lr.ph409.peel.next.preheader
	addi.d	$s8, $fp, 1
	addi.w	$a1, $zero, -4
	lu52i.d	$s0, $a1, 2047
	ori	$fp, $zero, 1
	addi.w	$a1, $zero, -1
	lu52i.d	$s2, $a1, 511
	b	.LBB5_260
	.p2align	4, , 16
.LBB5_258:                              #   in Loop: Header=BB5_260 Depth=1
	st.w	$s8, $a0, 0
	addi.d	$a0, $a0, 4
	st.d	$a0, $s7, 8
	move	$s1, $s4
.LBB5_259:                              # %_ZNSt6vectorIiSaIiEE9push_backERKi.exit290
                                        #   in Loop: Header=BB5_260 Depth=1
	ld.d	$a1, $sp, 64                    # 8-byte Folded Reload
	addi.w	$a1, $a1, -1
	addi.d	$s8, $s8, 1
	st.d	$a1, $sp, 64                    # 8-byte Folded Spill
	beqz	$a1, .LBB5_274
.LBB5_260:                              # %.lr.ph409.peel.next
                                        # =>This Inner Loop Header: Depth=1
	ld.d	$a1, $s7, 16
	bne	$a0, $a1, .LBB5_258
# %bb.261:                              #   in Loop: Header=BB5_260 Depth=1
	sub.d	$s3, $a0, $s4
	beq	$s3, $s0, .LBB5_316
# %bb.262:                              # %_ZNSt12_Vector_baseIiSaIiEE11_M_allocateEm.exit.i.i285
                                        #   in Loop: Header=BB5_260 Depth=1
	srai.d	$a0, $s3, 2
	sltu	$a1, $fp, $a0
	masknez	$a2, $fp, $a1
	maskeqz	$a1, $a0, $a1
	or	$a1, $a1, $a2
	add.d	$a0, $a1, $a0
	sltu	$a1, $a0, $a1
	sltu	$a2, $a0, $s2
	maskeqz	$a0, $a0, $a2
	masknez	$a2, $s2, $a2
	or	$a0, $a0, $a2
	masknez	$a0, $a0, $a1
	maskeqz	$a1, $s2, $a1
	or	$s5, $a1, $a0
	slli.d	$a0, $s5, 2
	pcaddu18i	$ra, %call36(_Znwm)
	jirl	$ra, $ra, 0
	move	$s1, $a0
	stx.w	$s8, $a0, $s3
	blez	$s3, .LBB5_264
# %bb.263:                              #   in Loop: Header=BB5_260 Depth=1
	move	$a0, $s1
	move	$a1, $s4
	move	$a2, $s3
	pcaddu18i	$ra, %call36(memcpy)
	jirl	$ra, $ra, 0
.LBB5_264:                              # %_ZNSt6vectorIiSaIiEE11_S_relocateEPiS2_S2_RS0_.exit.i.i287
                                        #   in Loop: Header=BB5_260 Depth=1
	beqz	$s4, .LBB5_266
# %bb.265:                              #   in Loop: Header=BB5_260 Depth=1
	move	$a0, $s4
	move	$a1, $s3
	pcaddu18i	$ra, %call36(_ZdlPvm)
	jirl	$ra, $ra, 0
.LBB5_266:                              # %_ZNSt6vectorIiSaIiEE17_M_realloc_appendIJRKiEEEvDpOT_.exit.i289
                                        #   in Loop: Header=BB5_260 Depth=1
	add.d	$a0, $s1, $s3
	addi.d	$a0, $a0, 4
	st.d	$s1, $s7, 0
	st.d	$a0, $s7, 8
	alsl.d	$a1, $s5, $s1, 2
	st.d	$a1, $s7, 16
	move	$s4, $s1
	b	.LBB5_259
.LBB5_267:
	addi.w	$a0, $zero, -4
	lu52i.d	$a0, $a0, 2047
	beq	$s6, $a0, .LBB5_316
# %bb.268:                              # %_ZNSt12_Vector_baseIiSaIiEE11_M_allocateEm.exit.i.i285.peel
	srai.d	$a0, $s6, 2
	ori	$a1, $zero, 1
	sltu	$a2, $a1, $a0
	masknez	$a1, $a1, $a2
	maskeqz	$a2, $a0, $a2
	or	$a1, $a2, $a1
	add.d	$a0, $a1, $a0
	sltu	$a1, $a0, $a1
	addi.w	$a2, $zero, -1
	lu52i.d	$a2, $a2, 511
	sltu	$a3, $a0, $a2
	maskeqz	$a0, $a0, $a3
	masknez	$a3, $a2, $a3
	or	$a0, $a0, $a3
	masknez	$a0, $a0, $a1
	maskeqz	$a1, $a2, $a1
	or	$s0, $a1, $a0
	slli.d	$a0, $s0, 2
	pcaddu18i	$ra, %call36(_Znwm)
	jirl	$ra, $ra, 0
	move	$s4, $a0
	stx.w	$fp, $a0, $s6
	blez	$s6, .LBB5_270
# %bb.269:
	move	$a0, $s4
	move	$a1, $s1
	move	$a2, $s6
	pcaddu18i	$ra, %call36(memcpy)
	jirl	$ra, $ra, 0
.LBB5_270:                              # %_ZNSt6vectorIiSaIiEE11_S_relocateEPiS2_S2_RS0_.exit.i.i287.peel
	add.d	$s2, $s4, $s6
	ld.d	$s8, $sp, 64                    # 8-byte Folded Reload
	beqz	$s1, .LBB5_272
# %bb.271:
	move	$a0, $s1
	move	$a1, $s6
	pcaddu18i	$ra, %call36(_ZdlPvm)
	jirl	$ra, $ra, 0
.LBB5_272:                              # %_ZNSt6vectorIiSaIiEE17_M_realloc_appendIJRKiEEEvDpOT_.exit.i289.peel
	addi.d	$a0, $s2, 4
	st.d	$s4, $s7, 0
	st.d	$a0, $s7, 8
	alsl.d	$a1, $s0, $s4, 2
	st.d	$a1, $s7, 16
	bnez	$s8, .LBB5_257
.LBB5_273:
	move	$s1, $s4
.LBB5_274:                              # %._crit_edge410
	ld.d	$s5, $sp, 96                    # 8-byte Folded Reload
	ld.d	$a0, $s5, 8
	ld.d	$a1, $s5, 16
	ld.d	$a2, $sp, 88                    # 8-byte Folded Reload
	ld.d	$a3, $sp, 80                    # 8-byte Folded Reload
	add.d	$s0, $a3, $a2
	beq	$a0, $a1, .LBB5_276
# %bb.275:
	st.w	$s0, $a0, 0
	addi.d	$a0, $a0, 4
	st.d	$a0, $s5, 8
	ld.d	$s4, $sp, 104                   # 8-byte Folded Reload
	b	.LBB5_282
.LBB5_276:
	ld.d	$s1, $s5, 0
	sub.d	$s2, $a0, $s1
	addi.w	$a0, $zero, -4
	lu52i.d	$a0, $a0, 2047
	beq	$s2, $a0, .LBB5_316
# %bb.277:                              # %_ZNSt12_Vector_baseIiSaIiEE11_M_allocateEm.exit.i.i271
	srai.d	$a0, $s2, 2
	ori	$a1, $zero, 1
	sltu	$a2, $a1, $a0
	masknez	$a1, $a1, $a2
	maskeqz	$a2, $a0, $a2
	or	$a1, $a2, $a1
	add.d	$a0, $a1, $a0
	sltu	$a1, $a0, $a1
	addi.w	$a2, $zero, -1
	lu52i.d	$a2, $a2, 511
	sltu	$a3, $a0, $a2
	maskeqz	$a0, $a0, $a3
	masknez	$a3, $a2, $a3
	or	$a0, $a0, $a3
	masknez	$a0, $a0, $a1
	maskeqz	$a1, $a2, $a1
	or	$fp, $a1, $a0
	slli.d	$a0, $fp, 2
	pcaddu18i	$ra, %call36(_Znwm)
	jirl	$ra, $ra, 0
	move	$s3, $a0
	stx.w	$s0, $a0, $s2
	blez	$s2, .LBB5_279
# %bb.278:
	move	$a0, $s3
	move	$a1, $s1
	move	$a2, $s2
	pcaddu18i	$ra, %call36(memcpy)
	jirl	$ra, $ra, 0
.LBB5_279:                              # %_ZNSt6vectorIiSaIiEE11_S_relocateEPiS2_S2_RS0_.exit.i.i273
	add.d	$s0, $s3, $s2
	ld.d	$s4, $sp, 104                   # 8-byte Folded Reload
	beqz	$s1, .LBB5_281
# %bb.280:
	move	$a0, $s1
	move	$a1, $s2
	pcaddu18i	$ra, %call36(_ZdlPvm)
	jirl	$ra, $ra, 0
.LBB5_281:                              # %_ZNSt6vectorIiSaIiEE17_M_realloc_appendIJRKiEEEvDpOT_.exit.i275
	addi.d	$a0, $s0, 4
	st.d	$s3, $s5, 0
	ld.d	$s1, $s7, 0
	st.d	$a0, $s5, 8
	alsl.d	$a0, $fp, $s3, 2
	st.d	$a0, $s5, 16
.LBB5_282:                              # %_ZNSt6vectorIiSaIiEE9push_backERKi.exit276
	ld.d	$a1, $s7, 8
	ld.d	$a4, $sp, 112                   # 8-byte Folded Reload
	ld.d	$a0, $a4, 8
	ld.d	$a2, $a4, 16
	srli.d	$a3, $s6, 2
	sub.d	$a1, $a1, $s1
	srli.d	$a1, $a1, 2
	sub.d	$fp, $a1, $a3
	beq	$a0, $a2, .LBB5_288
# %bb.283:
	st.w	$fp, $a0, 0
	addi.d	$a0, $a0, 4
	st.d	$a0, $a4, 8
.LBB5_284:                              # %_ZNSt6vectorIiSaIiEE9push_backEOi.exit283
	ld.w	$s2, $s4, 56
	ld.w	$a0, $s4, 64
	addi.w	$a1, $s2, -1
	beq	$a0, $a1, .LBB5_315
.LBB5_285:
	ld.w	$a0, $s4, 60
	ld.w	$a1, $s4, 68
	addi.w	$a0, $a0, -1
	beq	$a1, $a0, .LBB5_315
# %bb.286:
	pcalau12i	$a0, %got_pc_hi20(_ZN8Parallel4mypeE)
	ld.d	$a1, $a0, %got_pc_lo12(_ZN8Parallel4mypeE)
	ld.d	$a0, $s7, 8
	ld.d	$a2, $s7, 16
	ld.w	$s3, $a1, 0
	ld.d	$a1, $sp, 8                     # 8-byte Folded Reload
	addi.d	$s4, $a1, -1
	beq	$a0, $a2, .LBB5_294
# %bb.287:
	st.w	$s4, $a0, 0
	addi.d	$a0, $a0, 4
	st.d	$a0, $s7, 8
	ld.d	$s6, $sp, 96                    # 8-byte Folded Reload
	b	.LBB5_300
.LBB5_288:
	ld.d	$s0, $a4, 0
	sub.d	$s1, $a0, $s0
	addi.w	$a0, $zero, -4
	lu52i.d	$a0, $a0, 2047
	beq	$s1, $a0, .LBB5_316
# %bb.289:                              # %_ZNSt12_Vector_baseIiSaIiEE11_M_allocateEm.exit.i.i.i278
	srai.d	$a0, $s1, 2
	ori	$a1, $zero, 1
	sltu	$a2, $a1, $a0
	masknez	$a1, $a1, $a2
	maskeqz	$a2, $a0, $a2
	or	$a1, $a2, $a1
	add.d	$a0, $a1, $a0
	sltu	$a1, $a0, $a1
	addi.w	$a2, $zero, -1
	lu52i.d	$a2, $a2, 511
	sltu	$a3, $a0, $a2
	maskeqz	$a0, $a0, $a3
	masknez	$a3, $a2, $a3
	or	$a0, $a0, $a3
	masknez	$a0, $a0, $a1
	maskeqz	$a1, $a2, $a1
	or	$s3, $a1, $a0
	slli.d	$a0, $s3, 2
	pcaddu18i	$ra, %call36(_Znwm)
	jirl	$ra, $ra, 0
	move	$s2, $a0
	stx.w	$fp, $a0, $s1
	blez	$s1, .LBB5_291
# %bb.290:
	move	$a0, $s2
	move	$a1, $s0
	move	$a2, $s1
	pcaddu18i	$ra, %call36(memcpy)
	jirl	$ra, $ra, 0
.LBB5_291:                              # %_ZNSt6vectorIiSaIiEE11_S_relocateEPiS2_S2_RS0_.exit.i.i.i280
	add.d	$fp, $s2, $s1
	beqz	$s0, .LBB5_293
# %bb.292:
	move	$a0, $s0
	move	$a1, $s1
	pcaddu18i	$ra, %call36(_ZdlPvm)
	jirl	$ra, $ra, 0
.LBB5_293:                              # %_ZNSt6vectorIiSaIiEE17_M_realloc_appendIJiEEEvDpOT_.exit.i.i282
	addi.d	$a0, $fp, 4
	ld.d	$a4, $sp, 112                   # 8-byte Folded Reload
	st.d	$s2, $a4, 0
	st.d	$a0, $a4, 8
	alsl.d	$a0, $s3, $s2, 2
	st.d	$a0, $a4, 16
	ld.w	$s2, $s4, 56
	ld.w	$a0, $s4, 64
	addi.w	$a1, $s2, -1
	bne	$a0, $a1, .LBB5_285
	b	.LBB5_315
.LBB5_294:
	ld.d	$fp, $s7, 0
	sub.d	$s0, $a0, $fp
	addi.w	$a0, $zero, -4
	lu52i.d	$a0, $a0, 2047
	ld.d	$s6, $sp, 96                    # 8-byte Folded Reload
	beq	$s0, $a0, .LBB5_316
# %bb.295:                              # %_ZNSt12_Vector_baseIiSaIiEE11_M_allocateEm.exit.i.i292
	srai.d	$a0, $s0, 2
	ori	$a1, $zero, 1
	sltu	$a2, $a1, $a0
	masknez	$a1, $a1, $a2
	maskeqz	$a2, $a0, $a2
	or	$a1, $a2, $a1
	add.d	$a0, $a1, $a0
	sltu	$a1, $a0, $a1
	addi.w	$a2, $zero, -1
	lu52i.d	$a2, $a2, 511
	sltu	$a3, $a0, $a2
	maskeqz	$a0, $a0, $a3
	masknez	$a3, $a2, $a3
	or	$a0, $a0, $a3
	masknez	$a0, $a0, $a1
	maskeqz	$a1, $a2, $a1
	or	$s5, $a1, $a0
	slli.d	$a0, $s5, 2
	pcaddu18i	$ra, %call36(_Znwm)
	jirl	$ra, $ra, 0
	move	$s1, $a0
	stx.w	$s4, $a0, $s0
	blez	$s0, .LBB5_297
# %bb.296:
	move	$a0, $s1
	move	$a1, $fp
	move	$a2, $s0
	pcaddu18i	$ra, %call36(memcpy)
	jirl	$ra, $ra, 0
.LBB5_297:                              # %_ZNSt6vectorIiSaIiEE11_S_relocateEPiS2_S2_RS0_.exit.i.i294
	add.d	$s4, $s1, $s0
	beqz	$fp, .LBB5_299
# %bb.298:
	move	$a0, $fp
	move	$a1, $s0
	pcaddu18i	$ra, %call36(_ZdlPvm)
	jirl	$ra, $ra, 0
.LBB5_299:                              # %_ZNSt6vectorIiSaIiEE17_M_realloc_appendIJRKiEEEvDpOT_.exit.i296
	addi.d	$a0, $s4, 4
	st.d	$s1, $s7, 0
	st.d	$a0, $s7, 8
	alsl.d	$a0, $s5, $s1, 2
	st.d	$a0, $s7, 16
	ld.d	$a4, $sp, 112                   # 8-byte Folded Reload
.LBB5_300:                              # %_ZNSt6vectorIiSaIiEE9push_backERKi.exit297
	ld.d	$a0, $s6, 8
	ld.d	$a1, $s6, 16
	add.d	$a2, $s2, $s3
	addi.d	$s2, $a2, 1
	beq	$a0, $a1, .LBB5_303
# %bb.301:
	st.w	$s2, $a0, 0
	addi.d	$a0, $a0, 4
	st.d	$a0, $s6, 8
	ld.d	$a0, $a4, 8
	ld.d	$a1, $a4, 16
	beq	$a0, $a1, .LBB5_309
.LBB5_302:
	ori	$a1, $zero, 1
	st.w	$a1, $a0, 0
	addi.d	$a0, $a0, 4
	st.d	$a0, $a4, 8
	b	.LBB5_315
.LBB5_303:
	ld.d	$fp, $s6, 0
	sub.d	$s0, $a0, $fp
	addi.w	$a0, $zero, -4
	lu52i.d	$a0, $a0, 2047
	beq	$s0, $a0, .LBB5_316
# %bb.304:                              # %_ZNSt12_Vector_baseIiSaIiEE11_M_allocateEm.exit.i.i299
	srai.d	$a0, $s0, 2
	ori	$a1, $zero, 1
	sltu	$a2, $a1, $a0
	masknez	$a1, $a1, $a2
	maskeqz	$a2, $a0, $a2
	or	$a1, $a2, $a1
	add.d	$a0, $a1, $a0
	sltu	$a1, $a0, $a1
	addi.w	$a2, $zero, -1
	lu52i.d	$a2, $a2, 511
	sltu	$a3, $a0, $a2
	maskeqz	$a0, $a0, $a3
	masknez	$a3, $a2, $a3
	or	$a0, $a0, $a3
	masknez	$a0, $a0, $a1
	maskeqz	$a1, $a2, $a1
	or	$s3, $a1, $a0
	slli.d	$a0, $s3, 2
	pcaddu18i	$ra, %call36(_Znwm)
	jirl	$ra, $ra, 0
	move	$s1, $a0
	stx.w	$s2, $a0, $s0
	blez	$s0, .LBB5_306
# %bb.305:
	move	$a0, $s1
	move	$a1, $fp
	move	$a2, $s0
	pcaddu18i	$ra, %call36(memcpy)
	jirl	$ra, $ra, 0
.LBB5_306:                              # %_ZNSt6vectorIiSaIiEE11_S_relocateEPiS2_S2_RS0_.exit.i.i301
	add.d	$s2, $s1, $s0
	beqz	$fp, .LBB5_308
# %bb.307:
	move	$a0, $fp
	move	$a1, $s0
	pcaddu18i	$ra, %call36(_ZdlPvm)
	jirl	$ra, $ra, 0
.LBB5_308:                              # %_ZNSt6vectorIiSaIiEE17_M_realloc_appendIJRKiEEEvDpOT_.exit.i303
	addi.d	$a0, $s2, 4
	st.d	$s1, $s6, 0
	st.d	$a0, $s6, 8
	alsl.d	$a0, $s3, $s1, 2
	st.d	$a0, $s6, 16
	ld.d	$a4, $sp, 112                   # 8-byte Folded Reload
	ld.d	$a0, $a4, 8
	ld.d	$a1, $a4, 16
	bne	$a0, $a1, .LBB5_302
.LBB5_309:
	ld.d	$fp, $a4, 0
	sub.d	$s0, $a0, $fp
	addi.w	$a0, $zero, -4
	lu52i.d	$a0, $a0, 2047
	beq	$s0, $a0, .LBB5_316
# %bb.310:                              # %_ZNSt12_Vector_baseIiSaIiEE11_M_allocateEm.exit.i.i.i306
	srai.d	$a0, $s0, 2
	ori	$s3, $zero, 1
	sltu	$a1, $s3, $a0
	masknez	$a2, $s3, $a1
	maskeqz	$a1, $a0, $a1
	or	$a1, $a1, $a2
	add.d	$a0, $a1, $a0
	sltu	$a1, $a0, $a1
	addi.w	$a2, $zero, -1
	lu52i.d	$a2, $a2, 511
	sltu	$a3, $a0, $a2
	maskeqz	$a0, $a0, $a3
	masknez	$a3, $a2, $a3
	or	$a0, $a0, $a3
	masknez	$a0, $a0, $a1
	maskeqz	$a1, $a2, $a1
	or	$s2, $a1, $a0
	slli.d	$a0, $s2, 2
	pcaddu18i	$ra, %call36(_Znwm)
	jirl	$ra, $ra, 0
	move	$s1, $a0
	stx.w	$s3, $a0, $s0
	blez	$s0, .LBB5_312
# %bb.311:
	move	$a0, $s1
	move	$a1, $fp
	move	$a2, $s0
	pcaddu18i	$ra, %call36(memcpy)
	jirl	$ra, $ra, 0
.LBB5_312:                              # %_ZNSt6vectorIiSaIiEE11_S_relocateEPiS2_S2_RS0_.exit.i.i.i308
	add.d	$s3, $s1, $s0
	beqz	$fp, .LBB5_314
# %bb.313:
	move	$a0, $fp
	move	$a1, $s0
	pcaddu18i	$ra, %call36(_ZdlPvm)
	jirl	$ra, $ra, 0
.LBB5_314:                              # %_ZNSt6vectorIiSaIiEE17_M_realloc_appendIJiEEEvDpOT_.exit.i.i310
	addi.d	$a0, $s3, 4
	ld.d	$a1, $sp, 112                   # 8-byte Folded Reload
	st.d	$s1, $a1, 0
	st.d	$a0, $a1, 8
	alsl.d	$a0, $s2, $s1, 2
	st.d	$a0, $a1, 16
.LBB5_315:                              # %_ZNSt6vectorIiSaIiEE9push_backEOi.exit311
	fld.d	$fs3, $sp, 120                  # 8-byte Folded Reload
	fld.d	$fs2, $sp, 128                  # 8-byte Folded Reload
	fld.d	$fs1, $sp, 136                  # 8-byte Folded Reload
	fld.d	$fs0, $sp, 144                  # 8-byte Folded Reload
	ld.d	$s8, $sp, 152                   # 8-byte Folded Reload
	ld.d	$s7, $sp, 160                   # 8-byte Folded Reload
	ld.d	$s6, $sp, 168                   # 8-byte Folded Reload
	ld.d	$s5, $sp, 176                   # 8-byte Folded Reload
	ld.d	$s4, $sp, 184                   # 8-byte Folded Reload
	ld.d	$s3, $sp, 192                   # 8-byte Folded Reload
	ld.d	$s2, $sp, 200                   # 8-byte Folded Reload
	ld.d	$s1, $sp, 208                   # 8-byte Folded Reload
	ld.d	$s0, $sp, 216                   # 8-byte Folded Reload
	ld.d	$fp, $sp, 224                   # 8-byte Folded Reload
	ld.d	$ra, $sp, 232                   # 8-byte Folded Reload
	addi.d	$sp, $sp, 240
	ret
.LBB5_316:                              # %.noexc
	pcalau12i	$a0, %pc_hi20(.L.str.14)
	addi.d	$a0, $a0, %pc_lo12(.L.str.14)
	pcaddu18i	$ra, %call36(_ZSt20__throw_length_errorPKc)
	jirl	$ra, $ra, 0
.LBB5_317:
	pcalau12i	$a0, %pc_hi20(.L.str.13)
	addi.d	$a0, $a0, %pc_lo12(.L.str.13)
	pcaddu18i	$ra, %call36(_ZSt20__throw_length_errorPKc)
	jirl	$ra, $ra, 0
.Lfunc_end5:
	.size	_ZN7GenMesh12generateRectERSt6vectorI7double2SaIS1_EERS0_IiSaIiEES7_S7_S7_S7_S7_S7_S7_S7_, .Lfunc_end5-_ZN7GenMesh12generateRectERSt6vectorI7double2SaIS1_EERS0_IiSaIiEES7_S7_S7_S7_S7_S7_S7_S7_
	.cfi_endproc
                                        # -- End function
	.globl	_ZN7GenMesh11generateHexERSt6vectorI7double2SaIS1_EERS0_IiSaIiEES7_S7_S7_S7_S7_S7_S7_S7_ # -- Begin function _ZN7GenMesh11generateHexERSt6vectorI7double2SaIS1_EERS0_IiSaIiEES7_S7_S7_S7_S7_S7_S7_S7_
	.p2align	5
	.type	_ZN7GenMesh11generateHexERSt6vectorI7double2SaIS1_EERS0_IiSaIiEES7_S7_S7_S7_S7_S7_S7_S7_,@function
_ZN7GenMesh11generateHexERSt6vectorI7double2SaIS1_EERS0_IiSaIiEES7_S7_S7_S7_S7_S7_S7_S7_: # @_ZN7GenMesh11generateHexERSt6vectorI7double2SaIS1_EERS0_IiSaIiEES7_S7_S7_S7_S7_S7_S7_S7_
.Lfunc_begin1:
	.cfi_startproc
	.cfi_personality 155, DW.ref.__gxx_personality_v0
	.cfi_lsda 27, .Lexception1
# %bb.0:
	addi.d	$sp, $sp, -336
	.cfi_def_cfa_offset 336
	st.d	$ra, $sp, 328                   # 8-byte Folded Spill
	st.d	$fp, $sp, 320                   # 8-byte Folded Spill
	st.d	$s0, $sp, 312                   # 8-byte Folded Spill
	st.d	$s1, $sp, 304                   # 8-byte Folded Spill
	st.d	$s2, $sp, 296                   # 8-byte Folded Spill
	st.d	$s3, $sp, 288                   # 8-byte Folded Spill
	st.d	$s4, $sp, 280                   # 8-byte Folded Spill
	st.d	$s5, $sp, 272                   # 8-byte Folded Spill
	st.d	$s6, $sp, 264                   # 8-byte Folded Spill
	st.d	$s7, $sp, 256                   # 8-byte Folded Spill
	st.d	$s8, $sp, 248                   # 8-byte Folded Spill
	fst.d	$fs0, $sp, 240                  # 8-byte Folded Spill
	fst.d	$fs1, $sp, 232                  # 8-byte Folded Spill
	fst.d	$fs2, $sp, 224                  # 8-byte Folded Spill
	fst.d	$fs3, $sp, 216                  # 8-byte Folded Spill
	fst.d	$fs4, $sp, 208                  # 8-byte Folded Spill
	fst.d	$fs5, $sp, 200                  # 8-byte Folded Spill
	fst.d	$fs6, $sp, 192                  # 8-byte Folded Spill
	fst.d	$fs7, $sp, 184                  # 8-byte Folded Spill
	.cfi_offset 1, -8
	.cfi_offset 22, -16
	.cfi_offset 23, -24
	.cfi_offset 24, -32
	.cfi_offset 25, -40
	.cfi_offset 26, -48
	.cfi_offset 27, -56
	.cfi_offset 28, -64
	.cfi_offset 29, -72
	.cfi_offset 30, -80
	.cfi_offset 31, -88
	.cfi_offset 56, -96
	.cfi_offset 57, -104
	.cfi_offset 58, -112
	.cfi_offset 59, -120
	.cfi_offset 60, -128
	.cfi_offset 61, -136
	.cfi_offset 62, -144
	.cfi_offset 63, -152
	move	$s5, $a0
	ld.w	$t0, $a0, 72
	ld.w	$a0, $a0, 76
	st.d	$t0, $sp, 120                   # 8-byte Folded Spill
	addi.w	$t0, $t0, 1
	st.d	$a0, $sp, 72                    # 8-byte Folded Spill
	addi.w	$s4, $a0, 1
	st.d	$t0, $sp, 48                    # 8-byte Folded Spill
	mul.d	$a0, $t0, $s4
	slli.w	$s0, $a0, 1
	st.d	$a7, $sp, 88                    # 8-byte Folded Spill
	st.d	$a6, $sp, 64                    # 8-byte Folded Spill
	st.d	$a5, $sp, 56                    # 8-byte Folded Spill
	st.d	$a4, $sp, 144                   # 8-byte Folded Spill
	st.d	$a3, $sp, 136                   # 8-byte Folded Spill
	st.d	$a2, $sp, 128                   # 8-byte Folded Spill
	bltz	$s0, .LBB6_494
# %bb.1:
	move	$s8, $a1
	ld.d	$s2, $a1, 16
	ld.d	$fp, $a1, 0
	ld.d	$a0, $sp, 352
	st.d	$a0, $sp, 80                    # 8-byte Folded Spill
	ld.d	$s3, $sp, 344
	ld.d	$a0, $sp, 336
	st.d	$a0, $sp, 40                    # 8-byte Folded Spill
	sub.d	$s1, $s2, $fp
	srai.d	$a0, $s1, 4
	bgeu	$a0, $s0, .LBB6_8
# %bb.2:                                # %_ZNSt12_Vector_baseI7double2SaIS0_EE11_M_allocateEm.exit.i.i
	ld.d	$s2, $s8, 8
	slli.d	$a0, $s0, 4
	pcaddu18i	$ra, %call36(_Znwm)
	jirl	$ra, $ra, 0
	move	$a2, $a0
	beq	$s2, $fp, .LBB6_5
# %bb.3:                                # %.lr.ph.i.i.i.i.i.i.preheader
	move	$a0, $a2
	move	$a1, $fp
	.p2align	4, , 16
.LBB6_4:                                # %.lr.ph.i.i.i.i.i.i
                                        # =>This Inner Loop Header: Depth=1
	vld	$vr0, $a1, 0
	vst	$vr0, $a0, 0
	addi.d	$a1, $a1, 16
	addi.d	$a0, $a0, 16
	bne	$a1, $s2, .LBB6_4
.LBB6_5:                                # %_ZNSt6vectorI7double2SaIS0_EE20_M_allocate_and_copyIPKS0_EEPS0_mT_S7_.exit.i
	sub.d	$s2, $s2, $fp
	beqz	$fp, .LBB6_7
# %bb.6:
	move	$a0, $fp
	move	$a1, $s1
	move	$fp, $a2
	pcaddu18i	$ra, %call36(_ZdlPvm)
	jirl	$ra, $ra, 0
	move	$a2, $fp
.LBB6_7:                                # %_ZNSt12_Vector_baseI7double2SaIS0_EE13_M_deallocateEPS0_m.exit.i
	st.d	$a2, $s8, 0
	add.d	$a0, $a2, $s2
	st.d	$a0, $s8, 8
	alsl.d	$s2, $s0, $a2, 4
	st.d	$s2, $s8, 16
	b	.LBB6_9
.LBB6_8:
	move	$a2, $fp
.LBB6_9:                                # %_ZNSt6vectorI7double2SaIS0_EE7reserveEm.exit
	addi.w	$a0, $zero, -2
	ld.d	$a1, $sp, 72                    # 8-byte Folded Reload
	bge	$a0, $a1, .LBB6_495
# %bb.10:                               # %_ZNSt6vectorIiSaIiEE17_S_check_init_lenEmRKS0_.exit.i
	st.d	$s3, $sp, 32                    # 8-byte Folded Spill
	st.d	$s5, $sp, 176                   # 8-byte Folded Spill
	st.d	$s4, $sp, 96                    # 8-byte Folded Spill
	beqz	$s4, .LBB6_71
# %bb.11:                               # %.noexc296
	move	$fp, $a2
	ld.w	$a0, $s5, 32
	fld.d	$fa0, $s5, 40
	addi.d	$a0, $a0, -1
	movgr2fr.w	$fa1, $a0
	ld.w	$a0, $s5, 36
	ffint.d.w	$fa1, $fa1
	fdiv.d	$fs0, $fa0, $fa1
	fld.d	$fa0, $s5, 48
	addi.d	$a0, $a0, -1
	movgr2fr.w	$fa1, $a0
	ffint.d.w	$fa1, $fa1
	fdiv.d	$fa0, $fa0, $fa1
	fst.d	$fa0, $sp, 168                  # 8-byte Folded Spill
	slli.d	$a0, $s4, 2
	pcaddu18i	$ra, %call36(_Znwm)
	jirl	$ra, $ra, 0
	move	$s6, $a0
	addi.d	$a1, $s4, -1
	st.w	$zero, $a0, 0
	ld.d	$s0, $sp, 120                   # 8-byte Folded Reload
	beqz	$a1, .LBB6_13
# %bb.12:                               # %_ZSt6fill_nIPimiET_S1_T0_RKT1_.exit.loopexit.i.i.i.i.i
	addi.d	$a0, $s6, 4
	slli.d	$a2, $a1, 2
	move	$a1, $zero
	pcaddu18i	$ra, %call36(memset)
	jirl	$ra, $ra, 0
.LBB6_13:                               # %.lr.ph975
	move	$a4, $zero
	ld.d	$a0, $sp, 96                    # 8-byte Folded Reload
	alsl.d	$a0, $a0, $s6, 2
	st.d	$a0, $sp, 24                    # 8-byte Folded Spill
	vldi	$vr0, -1000
	fdiv.d	$fs2, $fs0, $fa0
	fld.d	$fa1, $sp, 168                  # 8-byte Folded Reload
	fdiv.d	$fa0, $fa1, $fa0
	fst.d	$fa0, $sp, 160                  # 8-byte Folded Spill
	ld.d	$a3, $s8, 8
	vldi	$vr3, -800
	movgr2fr.d	$fs4, $zero
	move	$a2, $fp
	st.d	$s6, $sp, 112                   # 8-byte Folded Spill
	b	.LBB6_15
	.p2align	4, , 16
.LBB6_14:                               # %._crit_edge
                                        #   in Loop: Header=BB6_15 Depth=1
	addi.d	$a4, $a4, 1
	ld.d	$a0, $sp, 96                    # 8-byte Folded Reload
	ld.d	$s6, $sp, 112                   # 8-byte Folded Reload
	beq	$a4, $a0, .LBB6_70
.LBB6_15:                               # =>This Loop Header: Depth=1
                                        #     Child Loop BB6_21 Depth 2
                                        #       Child Loop BB6_54 Depth 3
                                        #       Child Loop BB6_62 Depth 3
                                        #       Child Loop BB6_69 Depth 3
                                        #       Child Loop BB6_49 Depth 3
                                        #       Child Loop BB6_33 Depth 3
	sub.d	$a0, $a3, $a2
	srli.d	$a0, $a0, 4
	slli.d	$a1, $a4, 2
	stx.w	$a0, $s6, $a1
	bltz	$s0, .LBB6_14
# %bb.16:                               # %.lr.ph
                                        #   in Loop: Header=BB6_15 Depth=1
	ld.w	$a1, $s5, 84
	move	$a0, $zero
	add.d	$a1, $a1, $a4
	movgr2fr.w	$fa0, $a1
	addi.w	$a5, $a1, 0
	fld.d	$fa1, $s5, 48
	ffint.d.w	$fa0, $fa0
	fadd.d	$fa0, $fa0, $fa3
	fld.d	$fa2, $sp, 168                  # 8-byte Folded Reload
	fmul.d	$fa0, $fa2, $fa0
	fcmp.clt.d	$fcc0, $fa0, $fa1
	fsel	$fa0, $fa1, $fa0, $fcc0
	fmax.d	$fs5, $fa0, $fs4
	fld.d	$fa0, $sp, 160                  # 8-byte Folded Reload
	fadd.d	$fs6, $fa0, $fs5
	fsub.d	$fs7, $fs5, $fa0
	move	$s4, $a2
	move	$s6, $a4
	move	$s7, $a5
	b	.LBB6_21
	.p2align	4, , 16
.LBB6_17:                               #   in Loop: Header=BB6_21 Depth=2
	beq	$a3, $s2, .LBB6_29
# %bb.18:                               #   in Loop: Header=BB6_21 Depth=2
	fst.d	$fs1, $a3, 0
	fst.d	$fs5, $a3, 8
.LBB6_19:                               # %_ZNSt6vectorI7double2SaIS0_EE9push_backEOS0_.exit
                                        #   in Loop: Header=BB6_21 Depth=2
	addi.d	$a3, $a3, 16
	st.d	$a3, $s8, 8
	move	$a2, $s4
.LBB6_20:                               # %_ZNSt6vectorI7double2SaIS0_EE9push_backEOS0_.exit
                                        #   in Loop: Header=BB6_21 Depth=2
	addi.w	$a0, $fp, 1
	move	$s4, $a2
	beq	$fp, $s0, .LBB6_14
.LBB6_21:                               #   Parent Loop BB6_15 Depth=1
                                        # =>  This Loop Header: Depth=2
                                        #       Child Loop BB6_54 Depth 3
                                        #       Child Loop BB6_62 Depth 3
                                        #       Child Loop BB6_69 Depth 3
                                        #       Child Loop BB6_49 Depth 3
                                        #       Child Loop BB6_33 Depth 3
	ld.w	$a1, $s5, 80
	move	$fp, $a0
	add.d	$a1, $a1, $a0
	addi.w	$a0, $a1, 0
	movgr2fr.w	$fa0, $a1
	fld.d	$fa1, $s5, 40
	ffint.d.w	$fa0, $fa0
	fadd.d	$fa0, $fa0, $fa3
	fmul.d	$fa0, $fs0, $fa0
	fcmp.clt.d	$fcc0, $fa0, $fa1
	fsel	$fa0, $fa1, $fa0, $fcc0
	fmax.d	$fs1, $fa0, $fs4
	beqz	$a0, .LBB6_17
# %bb.22:                               #   in Loop: Header=BB6_21 Depth=2
	ld.w	$a1, $s5, 32
	beq	$a0, $a1, .LBB6_17
# %bb.23:                               #   in Loop: Header=BB6_21 Depth=2
	beqz	$a5, .LBB6_17
# %bb.24:                               #   in Loop: Header=BB6_21 Depth=2
	ld.w	$a0, $s5, 36
	beq	$a5, $a0, .LBB6_17
# %bb.25:                               #   in Loop: Header=BB6_21 Depth=2
	bnez	$a4, .LBB6_38
# %bb.26:                               #   in Loop: Header=BB6_21 Depth=2
	ld.w	$a0, $s5, 72
	bne	$fp, $a0, .LBB6_38
# %bb.27:                               #   in Loop: Header=BB6_21 Depth=2
	fsub.d	$fs1, $fs1, $fs2
	beq	$a3, $s2, .LBB6_45
# %bb.28:                               #   in Loop: Header=BB6_21 Depth=2
	fst.d	$fs1, $a3, 0
	fst.d	$fs6, $a3, 8
	b	.LBB6_19
	.p2align	4, , 16
.LBB6_29:                               #   in Loop: Header=BB6_21 Depth=2
	sub.d	$s1, $s2, $s4
	addi.w	$a0, $zero, -16
	lu52i.d	$a0, $a0, 2047
	beq	$s1, $a0, .LBB6_482
# %bb.30:                               #   in Loop: Header=BB6_21 Depth=2
	srai.d	$a0, $s1, 4
	ori	$a2, $zero, 1
	sltu	$a1, $a2, $a0
	masknez	$a2, $a2, $a1
	maskeqz	$a1, $a0, $a1
	or	$a1, $a1, $a2
	add.d	$a0, $a1, $a0
	sltu	$a1, $a0, $a1
	addi.w	$a2, $zero, -1
	lu52i.d	$a2, $a2, 127
	sltu	$a3, $a0, $a2
	maskeqz	$a0, $a0, $a3
	masknez	$a3, $a2, $a3
	or	$a0, $a0, $a3
	masknez	$a0, $a0, $a1
	maskeqz	$a1, $a2, $a1
	or	$s0, $a1, $a0
	slli.d	$a0, $s0, 4
.Ltmp58:                                # EH_LABEL
	pcaddu18i	$ra, %call36(_Znwm)
	jirl	$ra, $ra, 0
.Ltmp59:                                # EH_LABEL
# %bb.31:                               # %.noexc627
                                        #   in Loop: Header=BB6_21 Depth=2
	move	$a2, $a0
	add.d	$a0, $a0, $s1
	fstx.d	$fs1, $a2, $s1
	fst.d	$fs5, $a0, 8
	move	$s3, $a2
	beq	$s4, $s2, .LBB6_34
# %bb.32:                               # %.lr.ph.i.i.i.i.i.i.i.preheader
                                        #   in Loop: Header=BB6_21 Depth=2
	move	$s3, $a2
	move	$a0, $s4
	.p2align	4, , 16
.LBB6_33:                               # %.lr.ph.i.i.i.i.i.i.i
                                        #   Parent Loop BB6_15 Depth=1
                                        #     Parent Loop BB6_21 Depth=2
                                        # =>    This Inner Loop Header: Depth=3
	vld	$vr0, $a0, 0
	vst	$vr0, $s3, 0
	addi.d	$a0, $a0, 16
	addi.d	$s3, $s3, 16
	bne	$a0, $s2, .LBB6_33
.LBB6_34:                               # %_ZSt34__uninitialized_move_if_noexcept_aIP7double2S1_SaIS0_EET0_T_S4_S3_RT1_.exit.i.i
                                        #   in Loop: Header=BB6_21 Depth=2
	beqz	$s4, .LBB6_37
# %bb.35:                               #   in Loop: Header=BB6_21 Depth=2
	move	$a0, $s4
	move	$a1, $s1
.LBB6_36:                               # %_ZNSt6vectorI7double2SaIS0_EE17_M_realloc_appendIJS0_EEEvDpOT_.exit.i
                                        #   in Loop: Header=BB6_21 Depth=2
	move	$s1, $a2
	pcaddu18i	$ra, %call36(_ZdlPvm)
	jirl	$ra, $ra, 0
	move	$a2, $s1
.LBB6_37:                               # %_ZNSt6vectorI7double2SaIS0_EE17_M_realloc_appendIJS0_EEEvDpOT_.exit.i
                                        #   in Loop: Header=BB6_21 Depth=2
	addi.d	$a3, $s3, 16
	st.d	$a2, $s8, 0
	st.d	$a3, $s8, 8
	alsl.d	$s2, $s0, $a2, 4
	st.d	$s2, $s8, 16
	move	$a4, $s6
	vldi	$vr3, -800
	move	$a5, $s7
	ld.d	$s0, $sp, 120                   # 8-byte Folded Reload
	b	.LBB6_20
.LBB6_38:                               #   in Loop: Header=BB6_21 Depth=2
	bnez	$fp, .LBB6_42
# %bb.39:                               #   in Loop: Header=BB6_21 Depth=2
	ld.wu	$a0, $s5, 76
	bne	$a4, $a0, .LBB6_42
# %bb.40:                               #   in Loop: Header=BB6_21 Depth=2
	fadd.d	$fs1, $fs2, $fs1
	beq	$a3, $s2, .LBB6_65
# %bb.41:                               #   in Loop: Header=BB6_21 Depth=2
	fst.d	$fs1, $a3, 0
	fst.d	$fs7, $a3, 8
	b	.LBB6_19
.LBB6_42:                               #   in Loop: Header=BB6_21 Depth=2
	fsub.d	$fs3, $fs1, $fs2
	beq	$a3, $s2, .LBB6_50
# %bb.43:                               #   in Loop: Header=BB6_21 Depth=2
	fst.d	$fs3, $a3, 0
	fst.d	$fs6, $a3, 8
	addi.d	$a0, $a3, 16
	st.d	$a0, $s8, 8
	move	$s1, $s4
	fadd.d	$fs1, $fs2, $fs1
	beq	$a0, $s2, .LBB6_58
.LBB6_44:                               #   in Loop: Header=BB6_21 Depth=2
	fst.d	$fs1, $a0, 0
	fst.d	$fs7, $a0, 8
	addi.d	$a3, $a0, 16
	st.d	$a3, $s8, 8
	move	$a2, $s1
	b	.LBB6_20
.LBB6_45:                               #   in Loop: Header=BB6_21 Depth=2
	sub.d	$s1, $s2, $s4
	addi.w	$a0, $zero, -16
	lu52i.d	$a0, $a0, 2047
	beq	$s1, $a0, .LBB6_484
# %bb.46:                               #   in Loop: Header=BB6_21 Depth=2
	srai.d	$a0, $s1, 4
	ori	$a2, $zero, 1
	sltu	$a1, $a2, $a0
	masknez	$a2, $a2, $a1
	maskeqz	$a1, $a0, $a1
	or	$a1, $a1, $a2
	add.d	$a0, $a1, $a0
	sltu	$a1, $a0, $a1
	addi.w	$a2, $zero, -1
	lu52i.d	$a2, $a2, 127
	sltu	$a3, $a0, $a2
	maskeqz	$a0, $a0, $a3
	masknez	$a3, $a2, $a3
	or	$a0, $a0, $a3
	masknez	$a0, $a0, $a1
	maskeqz	$a1, $a2, $a1
	or	$s0, $a1, $a0
	slli.d	$a0, $s0, 4
.Ltmp52:                                # EH_LABEL
	pcaddu18i	$ra, %call36(_Znwm)
	jirl	$ra, $ra, 0
.Ltmp53:                                # EH_LABEL
# %bb.47:                               # %.noexc640
                                        #   in Loop: Header=BB6_21 Depth=2
	move	$a2, $a0
	add.d	$a0, $a0, $s1
	fstx.d	$fs1, $a2, $s1
	fst.d	$fs6, $a0, 8
	move	$s3, $a2
	beq	$s4, $s2, .LBB6_34
# %bb.48:                               # %.lr.ph.i.i.i.i.i.i.i631.preheader
                                        #   in Loop: Header=BB6_21 Depth=2
	move	$s3, $a2
	move	$a0, $s4
	.p2align	4, , 16
.LBB6_49:                               # %.lr.ph.i.i.i.i.i.i.i631
                                        #   Parent Loop BB6_15 Depth=1
                                        #     Parent Loop BB6_21 Depth=2
                                        # =>    This Inner Loop Header: Depth=3
	vld	$vr0, $a0, 0
	vst	$vr0, $s3, 0
	addi.d	$a0, $a0, 16
	addi.d	$s3, $s3, 16
	bne	$a0, $s2, .LBB6_49
	b	.LBB6_34
.LBB6_50:                               #   in Loop: Header=BB6_21 Depth=2
	sub.d	$s3, $s2, $s4
	addi.w	$a0, $zero, -16
	lu52i.d	$a0, $a0, 2047
	beq	$s3, $a0, .LBB6_486
# %bb.51:                               #   in Loop: Header=BB6_21 Depth=2
	srai.d	$a0, $s3, 4
	ori	$a2, $zero, 1
	sltu	$a1, $a2, $a0
	masknez	$a2, $a2, $a1
	maskeqz	$a1, $a0, $a1
	or	$a1, $a1, $a2
	add.d	$a0, $a1, $a0
	sltu	$a1, $a0, $a1
	addi.w	$a2, $zero, -1
	lu52i.d	$a2, $a2, 127
	sltu	$a3, $a0, $a2
	maskeqz	$a0, $a0, $a3
	masknez	$a3, $a2, $a3
	or	$a0, $a0, $a3
	masknez	$a0, $a0, $a1
	maskeqz	$a1, $a2, $a1
	or	$s0, $a1, $a0
	slli.d	$a0, $s0, 4
.Ltmp34:                                # EH_LABEL
	pcaddu18i	$ra, %call36(_Znwm)
	jirl	$ra, $ra, 0
.Ltmp35:                                # EH_LABEL
# %bb.52:                               # %.noexc668
                                        #   in Loop: Header=BB6_21 Depth=2
	move	$s1, $a0
	add.d	$a0, $a0, $s3
	fstx.d	$fs3, $s1, $s3
	fst.d	$fs6, $a0, 8
	move	$s5, $s1
	beq	$s4, $s2, .LBB6_55
# %bb.53:                               # %.lr.ph.i.i.i.i.i.i.i659.preheader
                                        #   in Loop: Header=BB6_21 Depth=2
	move	$s5, $s1
	move	$a0, $s4
	.p2align	4, , 16
.LBB6_54:                               # %.lr.ph.i.i.i.i.i.i.i659
                                        #   Parent Loop BB6_15 Depth=1
                                        #     Parent Loop BB6_21 Depth=2
                                        # =>    This Inner Loop Header: Depth=3
	vld	$vr0, $a0, 0
	vst	$vr0, $s5, 0
	addi.d	$a0, $a0, 16
	addi.d	$s5, $s5, 16
	bne	$a0, $s2, .LBB6_54
.LBB6_55:                               # %_ZSt34__uninitialized_move_if_noexcept_aIP7double2S1_SaIS0_EET0_T_S4_S3_RT1_.exit.i.i663
                                        #   in Loop: Header=BB6_21 Depth=2
	beqz	$s4, .LBB6_57
# %bb.56:                               #   in Loop: Header=BB6_21 Depth=2
	move	$a0, $s4
	move	$a1, $s3
	pcaddu18i	$ra, %call36(_ZdlPvm)
	jirl	$ra, $ra, 0
.LBB6_57:                               # %_ZNSt6vectorI7double2SaIS0_EE17_M_realloc_appendIJS0_EEEvDpOT_.exit.i666
                                        #   in Loop: Header=BB6_21 Depth=2
	addi.d	$a0, $s5, 16
	st.d	$s1, $s8, 0
	st.d	$a0, $s8, 8
	alsl.d	$s2, $s0, $s1, 4
	st.d	$s2, $s8, 16
	ld.d	$s5, $sp, 176                   # 8-byte Folded Reload
	move	$a4, $s6
	vldi	$vr3, -800
	move	$a5, $s7
	ld.d	$s0, $sp, 120                   # 8-byte Folded Reload
	fadd.d	$fs1, $fs2, $fs1
	bne	$a0, $s2, .LBB6_44
.LBB6_58:                               #   in Loop: Header=BB6_21 Depth=2
	sub.d	$s4, $s2, $s1
	addi.w	$a0, $zero, -16
	lu52i.d	$a0, $a0, 2047
	beq	$s4, $a0, .LBB6_488
# %bb.59:                               #   in Loop: Header=BB6_21 Depth=2
	srai.d	$a0, $s4, 4
	ori	$a2, $zero, 1
	sltu	$a1, $a2, $a0
	masknez	$a2, $a2, $a1
	maskeqz	$a1, $a0, $a1
	or	$a1, $a1, $a2
	add.d	$a0, $a1, $a0
	sltu	$a1, $a0, $a1
	addi.w	$a2, $zero, -1
	lu52i.d	$a2, $a2, 127
	sltu	$a3, $a0, $a2
	maskeqz	$a0, $a0, $a3
	masknez	$a3, $a2, $a3
	or	$a0, $a0, $a3
	masknez	$a0, $a0, $a1
	maskeqz	$a1, $a2, $a1
	or	$s0, $a1, $a0
	slli.d	$a0, $s0, 4
.Ltmp37:                                # EH_LABEL
	pcaddu18i	$ra, %call36(_Znwm)
	jirl	$ra, $ra, 0
.Ltmp38:                                # EH_LABEL
# %bb.60:                               # %.noexc682
                                        #   in Loop: Header=BB6_21 Depth=2
	move	$a2, $a0
	add.d	$a0, $a0, $s4
	fstx.d	$fs1, $a2, $s4
	fst.d	$fs7, $a0, 8
	move	$s3, $a2
	beq	$s1, $s2, .LBB6_63
# %bb.61:                               # %.lr.ph.i.i.i.i.i.i.i673.preheader
                                        #   in Loop: Header=BB6_21 Depth=2
	move	$s3, $a2
	move	$a0, $s1
	.p2align	4, , 16
.LBB6_62:                               # %.lr.ph.i.i.i.i.i.i.i673
                                        #   Parent Loop BB6_15 Depth=1
                                        #     Parent Loop BB6_21 Depth=2
                                        # =>    This Inner Loop Header: Depth=3
	vld	$vr0, $a0, 0
	vst	$vr0, $s3, 0
	addi.d	$a0, $a0, 16
	addi.d	$s3, $s3, 16
	bne	$a0, $s2, .LBB6_62
.LBB6_63:                               # %_ZSt34__uninitialized_move_if_noexcept_aIP7double2S1_SaIS0_EET0_T_S4_S3_RT1_.exit.i.i677
                                        #   in Loop: Header=BB6_21 Depth=2
	beqz	$s1, .LBB6_37
# %bb.64:                               #   in Loop: Header=BB6_21 Depth=2
	move	$a0, $s1
	move	$a1, $s4
	b	.LBB6_36
.LBB6_65:                               #   in Loop: Header=BB6_21 Depth=2
	sub.d	$s1, $s2, $s4
	addi.w	$a0, $zero, -16
	lu52i.d	$a0, $a0, 2047
	beq	$s1, $a0, .LBB6_490
# %bb.66:                               #   in Loop: Header=BB6_21 Depth=2
	srai.d	$a0, $s1, 4
	ori	$a2, $zero, 1
	sltu	$a1, $a2, $a0
	masknez	$a2, $a2, $a1
	maskeqz	$a1, $a0, $a1
	or	$a1, $a1, $a2
	add.d	$a0, $a1, $a0
	sltu	$a1, $a0, $a1
	addi.w	$a2, $zero, -1
	lu52i.d	$a2, $a2, 127
	sltu	$a3, $a0, $a2
	maskeqz	$a0, $a0, $a3
	masknez	$a3, $a2, $a3
	or	$a0, $a0, $a3
	masknez	$a0, $a0, $a1
	maskeqz	$a1, $a2, $a1
	or	$s0, $a1, $a0
	slli.d	$a0, $s0, 4
.Ltmp46:                                # EH_LABEL
	pcaddu18i	$ra, %call36(_Znwm)
	jirl	$ra, $ra, 0
.Ltmp47:                                # EH_LABEL
# %bb.67:                               # %.noexc654
                                        #   in Loop: Header=BB6_21 Depth=2
	move	$a2, $a0
	add.d	$a0, $a0, $s1
	fstx.d	$fs1, $a2, $s1
	fst.d	$fs7, $a0, 8
	move	$s3, $a2
	beq	$s4, $s2, .LBB6_34
# %bb.68:                               # %.lr.ph.i.i.i.i.i.i.i645.preheader
                                        #   in Loop: Header=BB6_21 Depth=2
	move	$s3, $a2
	move	$a0, $s4
	.p2align	4, , 16
.LBB6_69:                               # %.lr.ph.i.i.i.i.i.i.i645
                                        #   Parent Loop BB6_15 Depth=1
                                        #     Parent Loop BB6_21 Depth=2
                                        # =>    This Inner Loop Header: Depth=3
	vld	$vr0, $a0, 0
	vst	$vr0, $s3, 0
	addi.d	$a0, $a0, 16
	addi.d	$s3, $s3, 16
	bne	$a0, $s2, .LBB6_69
	b	.LBB6_34
.LBB6_70:
	st.d	$a3, $sp, 8                     # 8-byte Folded Spill
	st.d	$a2, $sp, 16                    # 8-byte Folded Spill
	ld.d	$a0, $sp, 72                    # 8-byte Folded Reload
	mul.w	$s0, $a0, $s0
	ld.d	$a1, $sp, 128                   # 8-byte Folded Reload
	bgez	$s0, .LBB6_72
	b	.LBB6_492
.LBB6_71:                               # %_ZNSt6vectorIiSaIiEEC2EmRKS0_.exit.._crit_edge976_crit_edge
	st.d	$a2, $sp, 16                    # 8-byte Folded Spill
	ld.d	$a0, $s8, 8
	st.d	$a0, $sp, 8                     # 8-byte Folded Spill
	move	$s6, $zero
	st.d	$zero, $sp, 24                  # 8-byte Folded Spill
	ld.d	$s0, $sp, 120                   # 8-byte Folded Reload
	ld.d	$a0, $sp, 72                    # 8-byte Folded Reload
	mul.w	$s0, $a0, $s0
	ld.d	$a1, $sp, 128                   # 8-byte Folded Reload
	bltz	$s0, .LBB6_492
.LBB6_72:
	ld.d	$a0, $a1, 16
	ld.d	$s1, $a1, 0
	sub.d	$s2, $a0, $s1
	srai.d	$a0, $s2, 2
	bgeu	$a0, $s0, .LBB6_79
# %bb.73:                               # %_ZNSt12_Vector_baseIiSaIiEE11_M_allocateEm.exit.i
	ld.d	$a0, $sp, 128                   # 8-byte Folded Reload
	ld.d	$s3, $a0, 8
	slli.d	$a0, $s0, 2
.Ltmp64:                                # EH_LABEL
	pcaddu18i	$ra, %call36(_Znwm)
	jirl	$ra, $ra, 0
.Ltmp65:                                # EH_LABEL
# %bb.74:                               # %.noexc298
	move	$fp, $a0
	sub.d	$s4, $s3, $s1
	blez	$s4, .LBB6_76
# %bb.75:
	move	$a0, $fp
	move	$a1, $s1
	move	$a2, $s4
	pcaddu18i	$ra, %call36(memcpy)
	jirl	$ra, $ra, 0
.LBB6_76:                               # %_ZNSt6vectorIiSaIiEE11_S_relocateEPiS2_S2_RS0_.exit.i
	beqz	$s1, .LBB6_78
# %bb.77:
	move	$a0, $s1
	move	$a1, $s2
	pcaddu18i	$ra, %call36(_ZdlPvm)
	jirl	$ra, $ra, 0
.LBB6_78:                               # %_ZNSt12_Vector_baseIiSaIiEE13_M_deallocateEPim.exit.i
	ld.d	$a1, $sp, 128                   # 8-byte Folded Reload
	st.d	$fp, $a1, 0
	add.d	$a0, $fp, $s4
	st.d	$a0, $a1, 8
	alsl.d	$a0, $s0, $fp, 2
	st.d	$a0, $a1, 16
	ld.d	$s5, $sp, 176                   # 8-byte Folded Reload
.LBB6_79:                               # %_ZNSt6vectorIiSaIiEE7reserveEm.exit
	ld.d	$a1, $sp, 136                   # 8-byte Folded Reload
	ld.d	$a0, $a1, 16
	ld.d	$s1, $a1, 0
	sub.d	$s2, $a0, $s1
	srai.d	$a0, $s2, 2
	bgeu	$a0, $s0, .LBB6_86
# %bb.80:                               # %_ZNSt12_Vector_baseIiSaIiEE11_M_allocateEm.exit.i311
	ld.d	$a0, $sp, 136                   # 8-byte Folded Reload
	ld.d	$s3, $a0, 8
	slli.d	$a0, $s0, 2
.Ltmp66:                                # EH_LABEL
	pcaddu18i	$ra, %call36(_Znwm)
	jirl	$ra, $ra, 0
.Ltmp67:                                # EH_LABEL
# %bb.81:                               # %.noexc316
	move	$fp, $a0
	sub.d	$s4, $s3, $s1
	blez	$s4, .LBB6_83
# %bb.82:
	move	$a0, $fp
	move	$a1, $s1
	move	$a2, $s4
	pcaddu18i	$ra, %call36(memcpy)
	jirl	$ra, $ra, 0
.LBB6_83:                               # %_ZNSt6vectorIiSaIiEE11_S_relocateEPiS2_S2_RS0_.exit.i312
	beqz	$s1, .LBB6_85
# %bb.84:
	move	$a0, $s1
	move	$a1, $s2
	pcaddu18i	$ra, %call36(_ZdlPvm)
	jirl	$ra, $ra, 0
.LBB6_85:                               # %_ZNSt12_Vector_baseIiSaIiEE13_M_deallocateEPim.exit.i314
	ld.d	$a1, $sp, 136                   # 8-byte Folded Reload
	st.d	$fp, $a1, 0
	add.d	$a0, $fp, $s4
	st.d	$a0, $a1, 8
	alsl.d	$a0, $s0, $fp, 2
	st.d	$a0, $a1, 16
	ld.d	$s5, $sp, 176                   # 8-byte Folded Reload
.LBB6_86:                               # %_ZNSt6vectorIiSaIiEE7reserveEm.exit317
	ld.d	$a1, $sp, 144                   # 8-byte Folded Reload
	ld.d	$a0, $a1, 16
	ld.d	$s1, $a1, 0
	slli.d	$a1, $s0, 2
	alsl.w	$s0, $s0, $a1, 1
	sub.d	$s2, $a0, $s1
	srai.d	$a0, $s2, 2
	ld.d	$s7, $sp, 120                   # 8-byte Folded Reload
	bgeu	$a0, $s0, .LBB6_93
# %bb.87:                               # %_ZNSt12_Vector_baseIiSaIiEE11_M_allocateEm.exit.i318
	ld.d	$a0, $sp, 144                   # 8-byte Folded Reload
	ld.d	$s3, $a0, 8
	slli.d	$a0, $s0, 2
.Ltmp68:                                # EH_LABEL
	pcaddu18i	$ra, %call36(_Znwm)
	jirl	$ra, $ra, 0
.Ltmp69:                                # EH_LABEL
# %bb.88:                               # %.noexc323
	move	$fp, $a0
	sub.d	$s4, $s3, $s1
	blez	$s4, .LBB6_90
# %bb.89:
	move	$a0, $fp
	move	$a1, $s1
	move	$a2, $s4
	pcaddu18i	$ra, %call36(memcpy)
	jirl	$ra, $ra, 0
.LBB6_90:                               # %_ZNSt6vectorIiSaIiEE11_S_relocateEPiS2_S2_RS0_.exit.i319
	ld.d	$s5, $sp, 176                   # 8-byte Folded Reload
	ld.d	$s7, $sp, 120                   # 8-byte Folded Reload
	beqz	$s1, .LBB6_92
# %bb.91:
	move	$a0, $s1
	move	$a1, $s2
	pcaddu18i	$ra, %call36(_ZdlPvm)
	jirl	$ra, $ra, 0
.LBB6_92:                               # %_ZNSt12_Vector_baseIiSaIiEE13_M_deallocateEPim.exit.i321
	ld.d	$a1, $sp, 144                   # 8-byte Folded Reload
	st.d	$fp, $a1, 0
	add.d	$a0, $fp, $s4
	st.d	$a0, $a1, 8
	alsl.d	$a0, $s0, $fp, 2
	st.d	$a0, $a1, 16
.LBB6_93:                               # %_ZNSt6vectorIiSaIiEE7reserveEm.exit324
	ld.w	$a0, $s5, 76
	st.d	$s6, $sp, 112                   # 8-byte Folded Spill
	ld.d	$s0, $sp, 144                   # 8-byte Folded Reload
	ld.d	$s1, $sp, 136                   # 8-byte Folded Reload
	ld.d	$s2, $sp, 128                   # 8-byte Folded Reload
	blez	$a0, .LBB6_138
# %bb.94:                               # %.lr.ph981
	move	$a5, $zero
	b	.LBB6_97
	.p2align	4, , 16
.LBB6_95:                               # %.loopexit926.loopexit
                                        #   in Loop: Header=BB6_97 Depth=1
	ld.w	$a0, $s5, 76
	ld.d	$s6, $sp, 112                   # 8-byte Folded Reload
	ld.d	$s7, $sp, 120                   # 8-byte Folded Reload
	ld.d	$a5, $sp, 104                   # 8-byte Folded Reload
.LBB6_96:                               # %.loopexit926
                                        #   in Loop: Header=BB6_97 Depth=1
	bge	$a5, $a0, .LBB6_138
.LBB6_97:                               # =>This Loop Header: Depth=1
                                        #     Child Loop BB6_101 Depth 2
	move	$a1, $a5
	ld.w	$a2, $s5, 84
	slli.d	$a3, $a5, 2
	ldx.w	$a6, $s6, $a3
	addi.d	$a5, $a5, 1
	slli.d	$a3, $a5, 2
	ld.w	$a4, $s5, 64
	ldx.w	$a3, $s6, $a3
	add.w	$a7, $a2, $a1
	blez	$a4, .LBB6_99
# %bb.98:                               #   in Loop: Header=BB6_97 Depth=1
	slt	$a2, $zero, $a7
	add.d	$a6, $a6, $a2
	addi.w	$a2, $a0, -1
	slt	$a1, $a1, $a2
	add.d	$a3, $a3, $a1
.LBB6_99:                               #   in Loop: Header=BB6_97 Depth=1
	ld.w	$a1, $s5, 72
	blez	$a1, .LBB6_96
# %bb.100:                              # %.lr.ph979
                                        #   in Loop: Header=BB6_97 Depth=1
	st.d	$a7, $sp, 152                   # 8-byte Folded Spill
	st.d	$a3, $sp, 160                   # 8-byte Folded Spill
	st.d	$a6, $sp, 168                   # 8-byte Folded Spill
	st.d	$a5, $sp, 104                   # 8-byte Folded Spill
	move	$s6, $zero
	move	$s7, $zero
	ori	$s3, $zero, 2
	.p2align	4, , 16
.LBB6_101:                              #   Parent Loop BB6_97 Depth=1
                                        # =>  This Inner Loop Header: Depth=2
	ld.w	$fp, $s5, 80
.Ltmp70:                                # EH_LABEL
	ori	$a0, $zero, 24
	pcaddu18i	$ra, %call36(_Znwm)
	jirl	$ra, $ra, 0
.Ltmp71:                                # EH_LABEL
# %bb.102:                              #   in Loop: Header=BB6_101 Depth=2
	move	$s4, $a0
	add.w	$a2, $s7, $fp
	addi.d	$a0, $a0, 4
	addi.d	$s8, $s4, 24
	ld.d	$a5, $sp, 168                   # 8-byte Folded Reload
	add.d	$a1, $a5, $s3
	addi.d	$a3, $a1, -2
	st.w	$a3, $s4, 4
	addi.d	$a3, $a1, -3
	st.w	$a3, $s4, 0
	addi.d	$a1, $a1, -1
	st.w	$a1, $s4, 8
	ld.d	$a4, $sp, 160                   # 8-byte Folded Reload
	add.d	$a3, $a4, $s6
	addi.d	$a1, $s4, 20
	st.w	$a3, $s4, 20
	addi.d	$a3, $a3, 1
	st.w	$a3, $s4, 16
	add.d	$a3, $a4, $s3
	st.w	$a3, $s4, 12
	ld.d	$a6, $sp, 152                   # 8-byte Folded Reload
	beqz	$a6, .LBB6_106
# %bb.103:                              #   in Loop: Header=BB6_101 Depth=2
	ld.w	$a3, $s5, 36
	addi.w	$a3, $a3, -1
	bne	$a6, $a3, .LBB6_110
# %bb.104:                              #   in Loop: Header=BB6_101 Depth=2
	add.d	$a3, $a4, $s7
	st.w	$a3, $s4, 20
	addi.d	$a4, $a3, 1
	st.w	$a4, $s4, 12
	st.w	$a3, $s4, 16
	move	$s8, $a1
	bnez	$a2, .LBB6_115
# %bb.105:                              #   in Loop: Header=BB6_101 Depth=2
	vld	$vr0, $a0, 0
	addi.d	$s8, $s4, 16
	vst	$vr0, $s4, 0
	b	.LBB6_115
	.p2align	4, , 16
.LBB6_106:                              #   in Loop: Header=BB6_101 Depth=2
	ld.w	$a4, $s5, 32
	add.d	$a3, $a5, $s7
	st.w	$a3, $s4, 0
	addi.d	$a3, $a3, 1
	addi.w	$a4, $a4, -1
	st.w	$a3, $s4, 8
	bne	$a2, $a4, .LBB6_108
# %bb.107:                              #   in Loop: Header=BB6_101 Depth=2
	ld.d	$a2, $s4, 16
	st.d	$a2, $s4, 12
	move	$s8, $a1
.LBB6_108:                              #   in Loop: Header=BB6_101 Depth=2
	addi.d	$a1, $s4, 8
	sub.d	$a2, $s8, $a1
	ori	$a4, $zero, 5
	blt	$a2, $a4, .LBB6_135
# %bb.109:                              #   in Loop: Header=BB6_101 Depth=2
	pcaddu18i	$ra, %call36(memmove)
	jirl	$ra, $ra, 0
	addi.d	$s8, $s8, -4
	b	.LBB6_115
	.p2align	4, , 16
.LBB6_110:                              #   in Loop: Header=BB6_101 Depth=2
	beqz	$a2, .LBB6_113
# %bb.111:                              #   in Loop: Header=BB6_101 Depth=2
	ld.w	$a0, $s5, 32
	addi.w	$a0, $a0, -1
	bne	$a2, $a0, .LBB6_115
# %bb.112:                              #   in Loop: Header=BB6_101 Depth=2
	ld.d	$a0, $s4, 16
	st.d	$a0, $s4, 12
	b	.LBB6_114
.LBB6_113:                              #   in Loop: Header=BB6_101 Depth=2
	ld.w	$a2, $a0, 16
	vld	$vr0, $a0, 0
	st.w	$a2, $s4, 16
	vst	$vr0, $s4, 0
.LBB6_114:                              #   in Loop: Header=BB6_101 Depth=2
	move	$s8, $a1
.LBB6_115:                              #   in Loop: Header=BB6_101 Depth=2
	ld.d	$a1, $s0, 8
	ld.d	$a2, $s0, 0
	ld.d	$a0, $s2, 8
	ld.d	$a3, $s2, 16
	sub.d	$a1, $a1, $a2
	srli.d	$s5, $a1, 2
	beq	$a0, $a3, .LBB6_117
# %bb.116:                              #   in Loop: Header=BB6_101 Depth=2
	st.w	$s5, $a0, 0
	addi.d	$a0, $a0, 4
	st.d	$a0, $s2, 8
	b	.LBB6_124
	.p2align	4, , 16
.LBB6_117:                              #   in Loop: Header=BB6_101 Depth=2
	ld.d	$s2, $s2, 0
	sub.d	$s1, $a0, $s2
	addi.w	$a0, $zero, -4
	lu52i.d	$a0, $a0, 2047
	beq	$s1, $a0, .LBB6_478
# %bb.118:                              # %_ZNSt12_Vector_baseIiSaIiEE11_M_allocateEm.exit.i.i.i
                                        #   in Loop: Header=BB6_101 Depth=2
	srai.d	$a0, $s1, 2
	ori	$a2, $zero, 1
	sltu	$a1, $a2, $a0
	masknez	$a2, $a2, $a1
	maskeqz	$a1, $a0, $a1
	or	$a1, $a1, $a2
	add.d	$a0, $a1, $a0
	sltu	$a1, $a0, $a1
	addi.w	$a2, $zero, -1
	lu52i.d	$a2, $a2, 511
	sltu	$a3, $a0, $a2
	maskeqz	$a0, $a0, $a3
	masknez	$a3, $a2, $a3
	or	$a0, $a0, $a3
	masknez	$a0, $a0, $a1
	maskeqz	$a1, $a2, $a1
	or	$s0, $a1, $a0
	slli.d	$a0, $s0, 2
.Ltmp73:                                # EH_LABEL
	pcaddu18i	$ra, %call36(_Znwm)
	jirl	$ra, $ra, 0
.Ltmp74:                                # EH_LABEL
# %bb.119:                              # %.noexc348
                                        #   in Loop: Header=BB6_101 Depth=2
	move	$fp, $a0
	stx.w	$s5, $a0, $s1
	blez	$s1, .LBB6_121
# %bb.120:                              #   in Loop: Header=BB6_101 Depth=2
	move	$a0, $fp
	move	$a1, $s2
	move	$a2, $s1
	pcaddu18i	$ra, %call36(memcpy)
	jirl	$ra, $ra, 0
.LBB6_121:                              # %_ZNSt6vectorIiSaIiEE11_S_relocateEPiS2_S2_RS0_.exit.i.i.i
                                        #   in Loop: Header=BB6_101 Depth=2
	beqz	$s2, .LBB6_123
# %bb.122:                              #   in Loop: Header=BB6_101 Depth=2
	move	$a0, $s2
	move	$a1, $s1
	pcaddu18i	$ra, %call36(_ZdlPvm)
	jirl	$ra, $ra, 0
.LBB6_123:                              # %_ZNSt6vectorIiSaIiEE17_M_realloc_appendIJiEEEvDpOT_.exit.i.i
                                        #   in Loop: Header=BB6_101 Depth=2
	add.d	$a0, $fp, $s1
	addi.d	$a0, $a0, 4
	ld.d	$s2, $sp, 128                   # 8-byte Folded Reload
	st.d	$fp, $s2, 0
	st.d	$a0, $s2, 8
	alsl.d	$a0, $s0, $fp, 2
	st.d	$a0, $s2, 16
	ld.d	$s0, $sp, 144                   # 8-byte Folded Reload
	ld.d	$s1, $sp, 136                   # 8-byte Folded Reload
.LBB6_124:                              # %_ZNSt6vectorIiSaIiEE9push_backEOi.exit
                                        #   in Loop: Header=BB6_101 Depth=2
	ld.d	$a0, $s1, 8
	ld.d	$a1, $s1, 16
	sub.d	$a2, $s8, $s4
	srli.d	$s5, $a2, 2
	beq	$a0, $a1, .LBB6_126
# %bb.125:                              #   in Loop: Header=BB6_101 Depth=2
	st.w	$s5, $a0, 0
	addi.d	$a0, $a0, 4
	st.d	$a0, $s1, 8
	ld.d	$s5, $sp, 176                   # 8-byte Folded Reload
	b	.LBB6_133
	.p2align	4, , 16
.LBB6_126:                              #   in Loop: Header=BB6_101 Depth=2
	ld.d	$s2, $s1, 0
	sub.d	$s1, $a0, $s2
	addi.w	$a0, $zero, -4
	lu52i.d	$a0, $a0, 2047
	beq	$s1, $a0, .LBB6_480
# %bb.127:                              # %_ZNSt12_Vector_baseIiSaIiEE11_M_allocateEm.exit.i.i.i350
                                        #   in Loop: Header=BB6_101 Depth=2
	srai.d	$a0, $s1, 2
	ori	$a2, $zero, 1
	sltu	$a1, $a2, $a0
	masknez	$a2, $a2, $a1
	maskeqz	$a1, $a0, $a1
	or	$a1, $a1, $a2
	add.d	$a0, $a1, $a0
	sltu	$a1, $a0, $a1
	addi.w	$a2, $zero, -1
	lu52i.d	$a2, $a2, 511
	sltu	$a3, $a0, $a2
	maskeqz	$a0, $a0, $a3
	masknez	$a3, $a2, $a3
	or	$a0, $a0, $a3
	masknez	$a0, $a0, $a1
	maskeqz	$a1, $a2, $a1
	or	$s0, $a1, $a0
	slli.d	$a0, $s0, 2
.Ltmp76:                                # EH_LABEL
	pcaddu18i	$ra, %call36(_Znwm)
	jirl	$ra, $ra, 0
.Ltmp77:                                # EH_LABEL
# %bb.128:                              # %.noexc356
                                        #   in Loop: Header=BB6_101 Depth=2
	move	$fp, $a0
	stx.w	$s5, $a0, $s1
	blez	$s1, .LBB6_130
# %bb.129:                              #   in Loop: Header=BB6_101 Depth=2
	move	$a0, $fp
	move	$a1, $s2
	move	$a2, $s1
	pcaddu18i	$ra, %call36(memcpy)
	jirl	$ra, $ra, 0
.LBB6_130:                              # %_ZNSt6vectorIiSaIiEE11_S_relocateEPiS2_S2_RS0_.exit.i.i.i352
                                        #   in Loop: Header=BB6_101 Depth=2
	ld.d	$s5, $sp, 176                   # 8-byte Folded Reload
	beqz	$s2, .LBB6_132
# %bb.131:                              #   in Loop: Header=BB6_101 Depth=2
	move	$a0, $s2
	move	$a1, $s1
	pcaddu18i	$ra, %call36(_ZdlPvm)
	jirl	$ra, $ra, 0
.LBB6_132:                              # %_ZNSt6vectorIiSaIiEE17_M_realloc_appendIJiEEEvDpOT_.exit.i.i354
                                        #   in Loop: Header=BB6_101 Depth=2
	add.d	$a0, $fp, $s1
	addi.d	$a0, $a0, 4
	ld.d	$s1, $sp, 136                   # 8-byte Folded Reload
	st.d	$fp, $s1, 0
	st.d	$a0, $s1, 8
	alsl.d	$a0, $s0, $fp, 2
	st.d	$a0, $s1, 16
	ld.d	$s0, $sp, 144                   # 8-byte Folded Reload
	ld.d	$s2, $sp, 128                   # 8-byte Folded Reload
.LBB6_133:                              # %_ZNSt6vectorIiSaIiEE9push_backEOi.exit357
                                        #   in Loop: Header=BB6_101 Depth=2
	ld.d	$a1, $s0, 8
.Ltmp79:                                # EH_LABEL
	move	$a0, $s0
	move	$a2, $s4
	move	$a3, $s8
	move	$a4, $zero
	pcaddu18i	$ra, %call36(_ZNSt6vectorIiSaIiEE15_M_range_insertIN9__gnu_cxx17__normal_iteratorIPiS1_EEEEvS6_T_S7_St20forward_iterator_tag)
	jirl	$ra, $ra, 0
.Ltmp80:                                # EH_LABEL
# %bb.134:                              # %_ZNSt6vectorIiSaIiEED2Ev.exit
                                        #   in Loop: Header=BB6_101 Depth=2
	ori	$a1, $zero, 24
	move	$a0, $s4
	pcaddu18i	$ra, %call36(_ZdlPvm)
	jirl	$ra, $ra, 0
	ld.w	$a0, $s5, 72
	addi.w	$s7, $s7, 1
	addi.d	$s3, $s3, 2
	addi.d	$s6, $s6, 2
	blt	$s7, $a0, .LBB6_101
	b	.LBB6_95
.LBB6_135:                              #   in Loop: Header=BB6_101 Depth=2
	ori	$a1, $zero, 4
	bne	$a2, $a1, .LBB6_137
# %bb.136:                              #   in Loop: Header=BB6_101 Depth=2
	st.w	$a3, $a0, 0
.LBB6_137:                              #   in Loop: Header=BB6_101 Depth=2
	addi.d	$s8, $s8, -4
	b	.LBB6_115
.LBB6_138:                              # %._crit_edge982
	pcalau12i	$a0, %got_pc_hi20(_ZN8Parallel5numpeE)
	ld.d	$a0, $a0, %got_pc_lo12(_ZN8Parallel5numpeE)
	ld.w	$a0, $a0, 0
	ori	$a1, $zero, 1
	beq	$a0, $a1, .LBB6_432
# %bb.139:
	ld.w	$fp, $s5, 68
	ld.w	$s0, $s5, 64
	sltu	$a0, $zero, $fp
	ld.d	$a1, $sp, 48                    # 8-byte Folded Reload
	mul.d	$a0, $a0, $a1
	sltu	$a1, $zero, $s0
	ld.d	$a2, $sp, 96                    # 8-byte Folded Reload
	mul.d	$a1, $a1, $a2
	slli.d	$a1, $a1, 1
	alsl.w	$s3, $a0, $a1, 1
	bltz	$s3, .LBB6_492
# %bb.140:
	ld.d	$a1, $sp, 88                    # 8-byte Folded Reload
	ld.d	$a0, $a1, 16
	ld.d	$s2, $a1, 0
	sub.d	$s4, $a0, $s2
	srai.d	$a0, $s4, 2
	bgeu	$a0, $s3, .LBB6_147
# %bb.141:                              # %_ZNSt12_Vector_baseIiSaIiEE11_M_allocateEm.exit.i361
	ld.d	$s5, $a1, 8
	slli.d	$a0, $s3, 2
.Ltmp82:                                # EH_LABEL
	pcaddu18i	$ra, %call36(_Znwm)
	jirl	$ra, $ra, 0
.Ltmp83:                                # EH_LABEL
# %bb.142:                              # %.noexc366
	move	$s1, $a0
	sub.d	$s5, $s5, $s2
	blez	$s5, .LBB6_144
# %bb.143:
	move	$a0, $s1
	move	$a1, $s2
	move	$a2, $s5
	pcaddu18i	$ra, %call36(memcpy)
	jirl	$ra, $ra, 0
.LBB6_144:                              # %_ZNSt6vectorIiSaIiEE11_S_relocateEPiS2_S2_RS0_.exit.i362
	beqz	$s2, .LBB6_146
# %bb.145:
	move	$a0, $s2
	move	$a1, $s4
	pcaddu18i	$ra, %call36(_ZdlPvm)
	jirl	$ra, $ra, 0
	ld.d	$a0, $sp, 176                   # 8-byte Folded Reload
	ld.w	$fp, $a0, 68
	ld.w	$s0, $a0, 64
.LBB6_146:                              # %_ZNSt12_Vector_baseIiSaIiEE13_M_deallocateEPim.exit.i364
	ld.d	$a1, $sp, 88                    # 8-byte Folded Reload
	st.d	$s1, $a1, 0
	add.d	$a0, $s1, $s5
	st.d	$a0, $a1, 8
	alsl.d	$a0, $s3, $s1, 2
	st.d	$a0, $a1, 16
	ld.d	$s5, $sp, 176                   # 8-byte Folded Reload
.LBB6_147:                              # %_ZNSt6vectorIiSaIiEE7reserveEm.exit367
	ld.w	$a0, $s5, 60
	addi.w	$a0, $a0, -1
	ld.w	$a1, $s5, 56
	xor	$a0, $fp, $a0
	sltu	$a0, $zero, $a0
	ld.d	$a2, $sp, 48                    # 8-byte Folded Reload
	mul.d	$a0, $a0, $a2
	addi.w	$a1, $a1, -1
	xor	$a1, $s0, $a1
	sltu	$a1, $zero, $a1
	ld.d	$a2, $sp, 96                    # 8-byte Folded Reload
	mul.d	$a1, $a1, $a2
	slli.d	$a1, $a1, 1
	alsl.w	$a2, $a0, $a1, 1
	addi.w	$a3, $zero, -3
	bge	$a3, $a2, .LBB6_492
# %bb.148:
	ld.d	$a3, $sp, 80                    # 8-byte Folded Reload
	ld.d	$a2, $a3, 16
	ld.d	$s1, $a3, 0
	alsl.d	$a0, $a0, $a1, 1
	addi.w	$s3, $a0, 2
	sub.d	$s2, $a2, $s1
	srai.d	$a0, $s2, 2
	bgeu	$a0, $s3, .LBB6_155
# %bb.149:                              # %_ZNSt12_Vector_baseIiSaIiEE11_M_allocateEm.exit.i368
	ld.d	$fp, $a3, 8
	slli.d	$a0, $s3, 2
.Ltmp84:                                # EH_LABEL
	pcaddu18i	$ra, %call36(_Znwm)
	jirl	$ra, $ra, 0
.Ltmp85:                                # EH_LABEL
# %bb.150:                              # %.noexc373
	move	$s4, $a0
	sub.d	$fp, $fp, $s1
	blez	$fp, .LBB6_152
# %bb.151:
	move	$a0, $s4
	move	$a1, $s1
	move	$a2, $fp
	pcaddu18i	$ra, %call36(memcpy)
	jirl	$ra, $ra, 0
.LBB6_152:                              # %_ZNSt6vectorIiSaIiEE11_S_relocateEPiS2_S2_RS0_.exit.i369
	ld.d	$s5, $sp, 176                   # 8-byte Folded Reload
	beqz	$s1, .LBB6_154
# %bb.153:
	move	$a0, $s1
	move	$a1, $s2
	pcaddu18i	$ra, %call36(_ZdlPvm)
	jirl	$ra, $ra, 0
	ld.w	$s0, $s5, 64
.LBB6_154:                              # %_ZNSt12_Vector_baseIiSaIiEE13_M_deallocateEPim.exit.i371
	ld.d	$a3, $sp, 80                    # 8-byte Folded Reload
	st.d	$s4, $a3, 0
	add.d	$a0, $s4, $fp
	st.d	$a0, $a3, 8
	alsl.d	$a0, $s3, $s4, 2
	st.d	$a0, $a3, 16
	ld.w	$fp, $s5, 68
.LBB6_155:                              # %_ZNSt6vectorIiSaIiEE7reserveEm.exit374
	move	$s3, $s7
	beqz	$s0, .LBB6_192
# %bb.156:                              # %_ZNSt6vectorIiSaIiEE7reserveEm.exit374
	beqz	$fp, .LBB6_192
# %bb.157:
	pcalau12i	$a0, %got_pc_hi20(_ZN8Parallel4mypeE)
	ld.d	$a0, $a0, %got_pc_lo12(_ZN8Parallel4mypeE)
	ld.w	$s0, $a0, 0
	ld.d	$a2, $sp, 88                    # 8-byte Folded Reload
	ld.d	$a1, $a2, 8
	ld.d	$a0, $a2, 16
	ld.w	$s2, $s5, 56
	beq	$a1, $a0, .LBB6_160
# %bb.158:
	st.w	$zero, $a1, 0
	addi.d	$a1, $a1, 4
	st.d	$a1, $a2, 8
	ld.d	$a4, $sp, 64                    # 8-byte Folded Reload
	ld.d	$a5, $sp, 56                    # 8-byte Folded Reload
	beq	$a1, $a0, .LBB6_167
.LBB6_159:
	ori	$a0, $zero, 1
	st.w	$a0, $a1, 0
	addi.d	$a0, $a1, 4
	ld.d	$a1, $sp, 88                    # 8-byte Folded Reload
	st.d	$a0, $a1, 8
	b	.LBB6_174
.LBB6_160:
	ld.d	$s1, $a2, 0
	sub.d	$s4, $a1, $s1
	addi.w	$a0, $zero, -4
	lu52i.d	$a0, $a0, 2047
	beq	$s4, $a0, .LBB6_528
# %bb.161:                              # %_ZNSt12_Vector_baseIiSaIiEE11_M_allocateEm.exit.i.i.i376
	srai.d	$a0, $s4, 2
	ori	$a1, $zero, 1
	sltu	$a2, $a1, $a0
	masknez	$a1, $a1, $a2
	maskeqz	$a2, $a0, $a2
	or	$a1, $a2, $a1
	add.d	$a0, $a1, $a0
	sltu	$a1, $a0, $a1
	addi.w	$a2, $zero, -1
	lu52i.d	$a2, $a2, 511
	sltu	$a3, $a0, $a2
	maskeqz	$a0, $a0, $a3
	masknez	$a3, $a2, $a3
	or	$a0, $a0, $a3
	masknez	$a0, $a0, $a1
	maskeqz	$a1, $a2, $a1
	or	$s3, $a1, $a0
	slli.d	$a0, $s3, 2
.Ltmp86:                                # EH_LABEL
	pcaddu18i	$ra, %call36(_Znwm)
	jirl	$ra, $ra, 0
.Ltmp87:                                # EH_LABEL
# %bb.162:                              # %.noexc382
	move	$fp, $a0
	stx.w	$zero, $a0, $s4
	blez	$s4, .LBB6_164
# %bb.163:
	move	$a0, $fp
	move	$a1, $s1
	move	$a2, $s4
	pcaddu18i	$ra, %call36(memcpy)
	jirl	$ra, $ra, 0
.LBB6_164:                              # %_ZNSt6vectorIiSaIiEE11_S_relocateEPiS2_S2_RS0_.exit.i.i.i378
	add.d	$s5, $fp, $s4
	beqz	$s1, .LBB6_166
# %bb.165:
	move	$a0, $s1
	move	$a1, $s4
	pcaddu18i	$ra, %call36(_ZdlPvm)
	jirl	$ra, $ra, 0
.LBB6_166:                              # %_ZNSt6vectorIiSaIiEE17_M_realloc_appendIJiEEEvDpOT_.exit.i.i380
	addi.d	$a1, $s5, 4
	ld.d	$a2, $sp, 88                    # 8-byte Folded Reload
	st.d	$fp, $a2, 0
	st.d	$a1, $a2, 8
	alsl.d	$a0, $s3, $fp, 2
	st.d	$a0, $a2, 16
	ld.d	$a3, $sp, 80                    # 8-byte Folded Reload
	ld.d	$s5, $sp, 176                   # 8-byte Folded Reload
	ld.d	$a4, $sp, 64                    # 8-byte Folded Reload
	ld.d	$a5, $sp, 56                    # 8-byte Folded Reload
	move	$s3, $s7
	bne	$a1, $a0, .LBB6_159
.LBB6_167:
	ld.d	$a1, $sp, 88                    # 8-byte Folded Reload
	ld.d	$s1, $a1, 0
	sub.d	$s4, $a0, $s1
	addi.w	$a0, $zero, -4
	lu52i.d	$a0, $a0, 2047
	beq	$s4, $a0, .LBB6_530
# %bb.168:                              # %_ZNSt12_Vector_baseIiSaIiEE11_M_allocateEm.exit.i.i.i385
	srai.d	$a0, $s4, 2
	ori	$s5, $zero, 1
	sltu	$a1, $s5, $a0
	masknez	$a2, $s5, $a1
	maskeqz	$a1, $a0, $a1
	or	$a1, $a1, $a2
	add.d	$a0, $a1, $a0
	sltu	$a1, $a0, $a1
	addi.w	$a2, $zero, -1
	lu52i.d	$a2, $a2, 511
	sltu	$a3, $a0, $a2
	maskeqz	$a0, $a0, $a3
	masknez	$a3, $a2, $a3
	or	$a0, $a0, $a3
	masknez	$a0, $a0, $a1
	maskeqz	$a1, $a2, $a1
	or	$s3, $a1, $a0
	slli.d	$a0, $s3, 2
.Ltmp88:                                # EH_LABEL
	pcaddu18i	$ra, %call36(_Znwm)
	jirl	$ra, $ra, 0
.Ltmp89:                                # EH_LABEL
# %bb.169:                              # %.noexc391
	move	$fp, $a0
	stx.w	$s5, $a0, $s4
	blez	$s4, .LBB6_171
# %bb.170:
	move	$a0, $fp
	move	$a1, $s1
	move	$a2, $s4
	pcaddu18i	$ra, %call36(memcpy)
	jirl	$ra, $ra, 0
.LBB6_171:                              # %_ZNSt6vectorIiSaIiEE11_S_relocateEPiS2_S2_RS0_.exit.i.i.i387
	add.d	$s5, $fp, $s4
	beqz	$s1, .LBB6_173
# %bb.172:
	move	$a0, $s1
	move	$a1, $s4
	pcaddu18i	$ra, %call36(_ZdlPvm)
	jirl	$ra, $ra, 0
.LBB6_173:                              # %_ZNSt6vectorIiSaIiEE17_M_realloc_appendIJiEEEvDpOT_.exit.i.i389
	addi.d	$a0, $s5, 4
	ld.d	$a1, $sp, 88                    # 8-byte Folded Reload
	st.d	$fp, $a1, 0
	st.d	$a0, $a1, 8
	alsl.d	$a0, $s3, $fp, 2
	st.d	$a0, $a1, 16
	ld.d	$a3, $sp, 80                    # 8-byte Folded Reload
	ld.d	$s5, $sp, 176                   # 8-byte Folded Reload
	ld.d	$a4, $sp, 64                    # 8-byte Folded Reload
	ld.d	$a5, $sp, 56                    # 8-byte Folded Reload
	move	$s3, $s7
.LBB6_174:                              # %_ZNSt6vectorIiSaIiEE9push_backEOi.exit392
	ld.d	$a0, $a5, 8
	ld.d	$a1, $a5, 16
	nor	$a2, $s2, $zero
	add.d	$s0, $s0, $a2
	beq	$a0, $a1, .LBB6_177
# %bb.175:
	st.w	$s0, $a0, 0
	addi.d	$a0, $a0, 4
	st.d	$a0, $a5, 8
	ld.d	$a0, $a4, 8
	ld.d	$a1, $a4, 16
	beq	$a0, $a1, .LBB6_184
.LBB6_176:
	ori	$a1, $zero, 2
	st.w	$a1, $a0, 0
	addi.d	$a0, $a0, 4
	st.d	$a0, $a4, 8
	b	.LBB6_191
.LBB6_177:
	ld.d	$s1, $a5, 0
	sub.d	$s4, $a0, $s1
	addi.w	$a0, $zero, -4
	lu52i.d	$a0, $a0, 2047
	beq	$s4, $a0, .LBB6_532
# %bb.178:                              # %_ZNSt12_Vector_baseIiSaIiEE11_M_allocateEm.exit.i.i
	srai.d	$a0, $s4, 2
	ori	$a1, $zero, 1
	sltu	$a2, $a1, $a0
	masknez	$a1, $a1, $a2
	maskeqz	$a2, $a0, $a2
	or	$a1, $a2, $a1
	add.d	$a0, $a1, $a0
	sltu	$a1, $a0, $a1
	addi.w	$a2, $zero, -1
	lu52i.d	$a2, $a2, 511
	sltu	$a3, $a0, $a2
	maskeqz	$a0, $a0, $a3
	masknez	$a3, $a2, $a3
	or	$a0, $a0, $a3
	masknez	$a0, $a0, $a1
	maskeqz	$a1, $a2, $a1
	or	$s2, $a1, $a0
	slli.d	$a0, $s2, 2
.Ltmp90:                                # EH_LABEL
