	.file	"EarlyExit.cpp"
	.section	.text._ZSt11make_uniqueIN9benchmark8internal17FunctionBenchmarkEJRA43_KcPFvRNS0_5StateEEEENSt8__detail9_MakeUniqIT_E15__single_objectEDpOT0_,"axG",@progbits,_ZSt11make_uniqueIN9benchmark8internal17FunctionBenchmarkEJRA43_KcPFvRNS0_5StateEEEENSt8__detail9_MakeUniqIT_E15__single_objectEDpOT0_,comdat
	.weak	_ZSt11make_uniqueIN9benchmark8internal17FunctionBenchmarkEJRA43_KcPFvRNS0_5StateEEEENSt8__detail9_MakeUniqIT_E15__single_objectEDpOT0_ # -- Begin function _ZSt11make_uniqueIN9benchmark8internal17FunctionBenchmarkEJRA43_KcPFvRNS0_5StateEEEENSt8__detail9_MakeUniqIT_E15__single_objectEDpOT0_
	.p2align	2
	.prefalign	5, .Lfunc_end0, nop
	.type	_ZSt11make_uniqueIN9benchmark8internal17FunctionBenchmarkEJRA43_KcPFvRNS0_5StateEEEENSt8__detail9_MakeUniqIT_E15__single_objectEDpOT0_,@function
_ZSt11make_uniqueIN9benchmark8internal17FunctionBenchmarkEJRA43_KcPFvRNS0_5StateEEEENSt8__detail9_MakeUniqIT_E15__single_objectEDpOT0_: # @_ZSt11make_uniqueIN9benchmark8internal17FunctionBenchmarkEJRA43_KcPFvRNS0_5StateEEEENSt8__detail9_MakeUniqIT_E15__single_objectEDpOT0_
.Lfunc_begin0:
	.cfi_startproc
	.cfi_personality 155, DW.ref.__gxx_personality_v0
	.cfi_lsda 27, .Lexception0
# %bb.0:
	addi.d	$sp, $sp, -112
	.cfi_def_cfa_offset 112
	st.d	$ra, $sp, 104                   # 8-byte Folded Spill
	st.d	$fp, $sp, 96                    # 8-byte Folded Spill
	st.d	$s0, $sp, 88                    # 8-byte Folded Spill
	st.d	$s1, $sp, 80                    # 8-byte Folded Spill
	st.d	$s2, $sp, 72                    # 8-byte Folded Spill
	st.d	$s3, $sp, 64                    # 8-byte Folded Spill
	st.d	$s4, $sp, 56                    # 8-byte Folded Spill
	.cfi_offset 1, -8
	.cfi_offset 22, -16
	.cfi_offset 23, -24
	.cfi_offset 24, -32
	.cfi_offset 25, -40
	.cfi_offset 26, -48
	.cfi_offset 27, -56
	move	$s1, $a2
	move	$s2, $a1
	move	$s0, $a0
	ori	$a0, $zero, 312
	pcaddu18i	$ra, %call36(_Znwm)
	jirl	$ra, $ra, 0
	move	$fp, $a0
	addi.d	$s4, $sp, 32
	st.d	$s4, $sp, 16
	move	$a0, $s2
	pcaddu18i	$ra, %call36(strlen)
	jirl	$ra, $ra, 0
	move	$s3, $a0
	ori	$a1, $zero, 16
	st.d	$a0, $sp, 48
	move	$a0, $s4
	bltu	$s3, $a1, .LBB0_3
# %bb.1:                                # %.noexc.i
.Ltmp0:                                 # EH_LABEL
	addi.d	$a0, $sp, 16
	addi.d	$a1, $sp, 48
	move	$a2, $zero
	pcaddu18i	$ra, %call36(_ZNSt7__cxx1112basic_stringIcSt11char_traitsIcESaIcEE9_M_createERmm)
	jirl	$ra, $ra, 0
.Ltmp1:                                 # EH_LABEL
# %bb.2:                                # %.noexc
	ld.d	$a1, $sp, 48
	st.d	$a0, $sp, 16
	st.d	$a1, $sp, 32
.LBB0_3:                                # %._crit_edge.i.i
	beqz	$s3, .LBB0_7
# %bb.4:                                # %._crit_edge.i.i
	ori	$a1, $zero, 1
	bne	$s3, $a1, .LBB0_6
# %bb.5:
	ld.b	$a1, $s2, 0
	st.b	$a1, $a0, 0
	b	.LBB0_7
.LBB0_6:
	move	$a1, $s2
	move	$a2, $s3
	pcaddu18i	$ra, %call36(memcpy)
	jirl	$ra, $ra, 0
.LBB0_7:
	ld.d	$a0, $sp, 48
	ld.d	$a1, $sp, 16
	st.d	$a0, $sp, 24
	stx.b	$zero, $a1, $a0
	ld.d	$s1, $s1, 0
.Ltmp3:                                 # EH_LABEL
	addi.d	$a1, $sp, 16
	move	$a0, $fp
	pcaddu18i	$ra, %call36(_ZN9benchmark9BenchmarkC2ERKNSt7__cxx1112basic_stringIcSt11char_traitsIcESaIcEEE)
	jirl	$ra, $ra, 0
.Ltmp4:                                 # EH_LABEL
# %bb.8:
	pcalau12i	$a0, %got_pc_hi20(_ZTVN9benchmark8internal17FunctionBenchmarkE)
	ld.d	$a1, $a0, %got_pc_lo12(_ZTVN9benchmark8internal17FunctionBenchmarkE)
	ld.d	$a0, $sp, 16
	addi.d	$a1, $a1, 16
	st.d	$a1, $fp, 0
	st.d	$s1, $fp, 304
	st.d	$fp, $s0, 0
	beq	$a0, $s4, .LBB0_10
# %bb.9:                                # %_ZNKSt7__cxx1112basic_stringIcSt11char_traitsIcESaIcEE11_M_is_localEv.exit.i.i
	ld.d	$a1, $sp, 32
	addi.d	$a1, $a1, 1
	pcaddu18i	$ra, %call36(_ZdlPvm)
	jirl	$ra, $ra, 0
.LBB0_10:                               # %_ZNSt7__cxx1112basic_stringIcSt11char_traitsIcESaIcEED2Ev.exit
	ld.d	$s4, $sp, 56                    # 8-byte Folded Reload
	ld.d	$s3, $sp, 64                    # 8-byte Folded Reload
	ld.d	$s2, $sp, 72                    # 8-byte Folded Reload
	ld.d	$s1, $sp, 80                    # 8-byte Folded Reload
	ld.d	$s0, $sp, 88                    # 8-byte Folded Reload
	ld.d	$fp, $sp, 96                    # 8-byte Folded Reload
	ld.d	$ra, $sp, 104                   # 8-byte Folded Reload
	addi.d	$sp, $sp, 112
	ret
.LBB0_11:
.Ltmp2:                                 # EH_LABEL
	move	$s0, $a0
	b	.LBB0_14
.LBB0_12:
.Ltmp5:                                 # EH_LABEL
	ld.d	$a2, $sp, 16
	move	$s0, $a0
	beq	$a2, $s4, .LBB0_14
# %bb.13:                               # %_ZNKSt7__cxx1112basic_stringIcSt11char_traitsIcESaIcEE11_M_is_localEv.exit.i.i7
	ld.d	$a0, $sp, 32
	addi.d	$a1, $a0, 1
	move	$a0, $a2
	pcaddu18i	$ra, %call36(_ZdlPvm)
	jirl	$ra, $ra, 0
.LBB0_14:                               # %_ZNSt7__cxx1112basic_stringIcSt11char_traitsIcESaIcEED2Ev.exit9
	ori	$a1, $zero, 312
	move	$a0, $fp
	pcaddu18i	$ra, %call36(_ZdlPvm)
	jirl	$ra, $ra, 0
	move	$a0, $s0
	pcaddu18i	$ra, %call36(_Unwind_Resume)
	jirl	$ra, $ra, 0
.Lfunc_end0:
	.size	_ZSt11make_uniqueIN9benchmark8internal17FunctionBenchmarkEJRA43_KcPFvRNS0_5StateEEEENSt8__detail9_MakeUniqIT_E15__single_objectEDpOT0_, .Lfunc_end0-_ZSt11make_uniqueIN9benchmark8internal17FunctionBenchmarkEJRA43_KcPFvRNS0_5StateEEEENSt8__detail9_MakeUniqIT_E15__single_objectEDpOT0_
	.cfi_endproc
	.section	.gcc_except_table._ZSt11make_uniqueIN9benchmark8internal17FunctionBenchmarkEJRA43_KcPFvRNS0_5StateEEEENSt8__detail9_MakeUniqIT_E15__single_objectEDpOT0_,"aG",@progbits,_ZSt11make_uniqueIN9benchmark8internal17FunctionBenchmarkEJRA43_KcPFvRNS0_5StateEEEENSt8__detail9_MakeUniqIT_E15__single_objectEDpOT0_,comdat
	.p2align	2, 0x0
GCC_except_table0:
.Lexception0:
	.byte	255                             # @LPStart Encoding = omit
	.byte	255                             # @TType Encoding = omit
	.byte	1                               # Call site Encoding = uleb128
	.uleb128 .Lcst_end0-.Lcst_begin0
.Lcst_begin0:
	.uleb128 .Lfunc_begin0-.Lfunc_begin0    # >> Call Site 1 <<
	.uleb128 .Ltmp0-.Lfunc_begin0           #   Call between .Lfunc_begin0 and .Ltmp0
	.byte	0                               #     has no landing pad
	.byte	0                               #   On action: cleanup
	.uleb128 .Ltmp0-.Lfunc_begin0           # >> Call Site 2 <<
	.uleb128 .Ltmp1-.Ltmp0                  #   Call between .Ltmp0 and .Ltmp1
	.uleb128 .Ltmp2-.Lfunc_begin0           #     jumps to .Ltmp2
	.byte	0                               #   On action: cleanup
	.uleb128 .Ltmp1-.Lfunc_begin0           # >> Call Site 3 <<
	.uleb128 .Ltmp3-.Ltmp1                  #   Call between .Ltmp1 and .Ltmp3
	.byte	0                               #     has no landing pad
	.byte	0                               #   On action: cleanup
	.uleb128 .Ltmp3-.Lfunc_begin0           # >> Call Site 4 <<
	.uleb128 .Ltmp4-.Ltmp3                  #   Call between .Ltmp3 and .Ltmp4
	.uleb128 .Ltmp5-.Lfunc_begin0           #     jumps to .Ltmp5
	.byte	0                               #   On action: cleanup
	.uleb128 .Ltmp4-.Lfunc_begin0           # >> Call Site 5 <<
	.uleb128 .Lfunc_end0-.Ltmp4             #   Call between .Ltmp4 and .Lfunc_end0
	.byte	0                               #     has no landing pad
	.byte	0                               #   On action: cleanup
.Lcst_end0:
	.p2align	2, 0x0
                                        # -- End function
	.section	.text._Z33autovec_no_early_exit_single_loadIhEvRN9benchmark5StateE,"axG",@progbits,_Z33autovec_no_early_exit_single_loadIhEvRN9benchmark5StateE,comdat
	.weak	_Z33autovec_no_early_exit_single_loadIhEvRN9benchmark5StateE # -- Begin function _Z33autovec_no_early_exit_single_loadIhEvRN9benchmark5StateE
	.p2align	2
	.prefalign	5, .Lfunc_end1, nop
	.type	_Z33autovec_no_early_exit_single_loadIhEvRN9benchmark5StateE,@function
_Z33autovec_no_early_exit_single_loadIhEvRN9benchmark5StateE: # @_Z33autovec_no_early_exit_single_loadIhEvRN9benchmark5StateE
.Lfunc_begin1:
	.cfi_startproc
	.cfi_personality 155, DW.ref.__gxx_personality_v0
	.cfi_lsda 27, .Lexception1
# %bb.0:
	addi.d	$sp, $sp, -144
	.cfi_def_cfa_offset 144
	st.d	$ra, $sp, 136                   # 8-byte Folded Spill
	st.d	$fp, $sp, 128                   # 8-byte Folded Spill
	st.d	$s0, $sp, 120                   # 8-byte Folded Spill
	st.d	$s1, $sp, 112                   # 8-byte Folded Spill
	st.d	$s2, $sp, 104                   # 8-byte Folded Spill
	st.d	$s3, $sp, 96                    # 8-byte Folded Spill
	st.d	$s4, $sp, 88                    # 8-byte Folded Spill
	.cfi_offset 1, -8
	.cfi_offset 22, -16
	.cfi_offset 23, -24
	.cfi_offset 24, -32
	.cfi_offset 25, -40
	.cfi_offset 26, -48
	.cfi_offset 27, -56
	move	$fp, $a0
	pcalau12i	$a0, %pc_hi20(_ZL29singleEarlyExitWithSingleLoadIhEmPT_S1_S1_i)
	addi.d	$a0, $a0, %pc_lo12(_ZL29singleEarlyExitWithSingleLoadIhEmPT_S1_S1_i)
	ld.d	$a1, $fp, 32
	ld.d	$s2, $a1, 0
	st.d	$a0, $sp, 80
	st.d	$s2, $sp, 72
	move	$a0, $s2
	pcaddu18i	$ra, %call36(_Znam)
	jirl	$ra, $ra, 0
	move	$s0, $a0
	st.d	$a0, $sp, 64
.Ltmp6:                                 # EH_LABEL
	move	$a0, $s2
	pcaddu18i	$ra, %call36(_Znam)
	jirl	$ra, $ra, 0
.Ltmp7:                                 # EH_LABEL
# %bb.1:
	move	$s1, $a0
	st.d	$a0, $sp, 56
.Ltmp9:                                 # EH_LABEL
	move	$a0, $s2
	pcaddu18i	$ra, %call36(_Znam)
	jirl	$ra, $ra, 0
.Ltmp10:                                # EH_LABEL
# %bb.2:
	move	$s3, $a0
	bstrpick.d	$s2, $s2, 31, 0
	st.d	$a0, $sp, 48
	beqz	$s2, .LBB1_4
# %bb.3:
	ori	$a1, $zero, 1
	move	$a0, $s0
	move	$a2, $s2
	pcaddu18i	$ra, %call36(memset)
	jirl	$ra, $ra, 0
	ori	$a1, $zero, 1
	move	$a0, $s1
	move	$a2, $s2
	pcaddu18i	$ra, %call36(memset)
	jirl	$ra, $ra, 0
	ori	$a1, $zero, 1
	move	$a0, $s3
	move	$a2, $s2
	pcaddu18i	$ra, %call36(memset)
	jirl	$ra, $ra, 0
.LBB1_4:                                # %_ZL9init_dataIhEvRKSt10unique_ptrIA_T_St14default_deleteIS2_EEj.exit10
	ld.w	$s1, $fp, 28
	ld.d	$s0, $fp, 16
	st.d	$zero, $sp, 40
.Ltmp12:                                # EH_LABEL
	move	$a0, $fp
	pcaddu18i	$ra, %call36(_ZN9benchmark5State16StartKeepRunningEv)
	jirl	$ra, $ra, 0
.Ltmp13:                                # EH_LABEL
# %bb.5:                                # %_ZN9benchmark5State3endEv.exit.preheader
	bnez	$s1, .LBB1_10
# %bb.6:                                # %_ZN9benchmark5State3endEv.exit.preheader
	beqz	$s0, .LBB1_10
# %bb.7:
	addi.d	$s1, $sp, 64
	addi.d	$s2, $sp, 56
	addi.d	$s3, $sp, 48
	addi.d	$s4, $sp, 40
	.p2align	4, , 16
.LBB1_8:                                # %.lr.ph
                                        # =>This Inner Loop Header: Depth=1
	#APP
	#NO_APP
	#APP
	#NO_APP
	#APP
	#NO_APP
	#APP
	#NO_APP
	#MEMBARRIER
	ld.d	$a0, $sp, 64
	ld.d	$a1, $sp, 56
	ld.d	$a2, $sp, 48
	st.d	$a0, $sp, 32
	st.d	$a1, $sp, 24
	st.d	$a2, $sp, 16
.Ltmp14:                                # EH_LABEL
	addi.d	$a0, $sp, 80
	addi.d	$a1, $sp, 32
	addi.d	$a2, $sp, 24
	addi.d	$a3, $sp, 16
	addi.d	$a4, $sp, 72
	pcaddu18i	$ra, %call36(_ZL18callThroughOptnoneIRPFmPhS0_S0_iEJS0_S0_S0_RlEEmOT_DpOT0_)
	jirl	$ra, $ra, 0
.Ltmp15:                                # EH_LABEL
# %bb.9:                                # %_ZN9benchmark5State3endEv.exit
                                        #   in Loop: Header=BB1_8 Depth=1
	ld.d	$a1, $sp, 40
	add.d	$a0, $a1, $a0
	addi.d	$s0, $s0, -1
	st.d	$a0, $sp, 40
	bnez	$s0, .LBB1_8
.LBB1_10:                               # %_ZN9benchmark5State3endEv.exit._crit_edge
.Ltmp17:                                # EH_LABEL
	move	$a0, $fp
	pcaddu18i	$ra, %call36(_ZN9benchmark5State17FinishKeepRunningEv)
	jirl	$ra, $ra, 0
.Ltmp18:                                # EH_LABEL
# %bb.11:                               # %_ZL21runEarlyExitBenchmarkIhEvRN9benchmark5StateEPFmPT_S4_S4_iE17EarlyExitPosition.exit
	ld.d	$a0, $sp, 48
	beqz	$a0, .LBB1_13
# %bb.12:                               # %_ZNKSt14default_deleteIA_hEclIhEENSt9enable_ifIXsr14is_convertibleIPA_T_PS0_EE5valueEvE4typeEPS4_.exit.i19
	pcaddu18i	$ra, %call36(_ZdaPv)
	jirl	$ra, $ra, 0
.LBB1_13:                               # %_ZNSt10unique_ptrIA_hSt14default_deleteIS0_EED2Ev.exit20
	ld.d	$a0, $sp, 56
	beqz	$a0, .LBB1_15
# %bb.14:                               # %_ZNKSt14default_deleteIA_hEclIhEENSt9enable_ifIXsr14is_convertibleIPA_T_PS0_EE5valueEvE4typeEPS4_.exit.i22
	pcaddu18i	$ra, %call36(_ZdaPv)
	jirl	$ra, $ra, 0
.LBB1_15:                               # %_ZNSt10unique_ptrIA_hSt14default_deleteIS0_EED2Ev.exit23
	ld.d	$a0, $sp, 64
	beqz	$a0, .LBB1_17
# %bb.16:                               # %_ZNKSt14default_deleteIA_hEclIhEENSt9enable_ifIXsr14is_convertibleIPA_T_PS0_EE5valueEvE4typeEPS4_.exit.i25
	pcaddu18i	$ra, %call36(_ZdaPv)
	jirl	$ra, $ra, 0
.LBB1_17:                               # %_ZNSt10unique_ptrIA_hSt14default_deleteIS0_EED2Ev.exit26
	ld.d	$s4, $sp, 88                    # 8-byte Folded Reload
	ld.d	$s3, $sp, 96                    # 8-byte Folded Reload
	ld.d	$s2, $sp, 104                   # 8-byte Folded Reload
	ld.d	$s1, $sp, 112                   # 8-byte Folded Reload
	ld.d	$s0, $sp, 120                   # 8-byte Folded Reload
	ld.d	$fp, $sp, 128                   # 8-byte Folded Reload
	ld.d	$ra, $sp, 136                   # 8-byte Folded Reload
	addi.d	$sp, $sp, 144
	ret
.LBB1_18:                               # %_ZNSt10unique_ptrIA_hSt14default_deleteIS0_EED2Ev.exit.thread
.Ltmp11:                                # EH_LABEL
	move	$fp, $a0
	b	.LBB1_27
.LBB1_19:                               # %_ZNSt10unique_ptrIA_hSt14default_deleteIS0_EED2Ev.exit14.thread
.Ltmp8:                                 # EH_LABEL
	move	$fp, $a0
	move	$a0, $s0
	pcaddu18i	$ra, %call36(_ZdaPv)
	jirl	$ra, $ra, 0
	move	$a0, $fp
	pcaddu18i	$ra, %call36(_Unwind_Resume)
	jirl	$ra, $ra, 0
.LBB1_20:
.Ltmp19:                                # EH_LABEL
	b	.LBB1_22
.LBB1_21:
.Ltmp16:                                # EH_LABEL
.LBB1_22:
	move	$fp, $a0
	ld.d	$a0, $sp, 48
	bnez	$a0, .LBB1_26
# %bb.23:                               # %_ZNSt10unique_ptrIA_hSt14default_deleteIS0_EED2Ev.exit
	ld.d	$s1, $sp, 56
	bnez	$s1, .LBB1_27
.LBB1_24:                               # %_ZNSt10unique_ptrIA_hSt14default_deleteIS0_EED2Ev.exit14
	ld.d	$s0, $sp, 64
	bnez	$s0, .LBB1_28
.LBB1_25:                               # %_ZNSt10unique_ptrIA_hSt14default_deleteIS0_EED2Ev.exit17
	move	$a0, $fp
	pcaddu18i	$ra, %call36(_Unwind_Resume)
	jirl	$ra, $ra, 0
.LBB1_26:                               # %_ZNKSt14default_deleteIA_hEclIhEENSt9enable_ifIXsr14is_convertibleIPA_T_PS0_EE5valueEvE4typeEPS4_.exit.i
	pcaddu18i	$ra, %call36(_ZdaPv)
	jirl	$ra, $ra, 0
	ld.d	$s1, $sp, 56
	beqz	$s1, .LBB1_24
.LBB1_27:                               # %_ZNKSt14default_deleteIA_hEclIhEENSt9enable_ifIXsr14is_convertibleIPA_T_PS0_EE5valueEvE4typeEPS4_.exit.i13
	move	$a0, $s1
	pcaddu18i	$ra, %call36(_ZdaPv)
	jirl	$ra, $ra, 0
	ld.d	$s0, $sp, 64
	beqz	$s0, .LBB1_25
.LBB1_28:                               # %_ZNKSt14default_deleteIA_hEclIhEENSt9enable_ifIXsr14is_convertibleIPA_T_PS0_EE5valueEvE4typeEPS4_.exit.i16
	move	$a0, $s0
	pcaddu18i	$ra, %call36(_ZdaPv)
	jirl	$ra, $ra, 0
	move	$a0, $fp
	pcaddu18i	$ra, %call36(_Unwind_Resume)
	jirl	$ra, $ra, 0
.Lfunc_end1:
	.size	_Z33autovec_no_early_exit_single_loadIhEvRN9benchmark5StateE, .Lfunc_end1-_Z33autovec_no_early_exit_single_loadIhEvRN9benchmark5StateE
	.cfi_endproc
	.section	.gcc_except_table._Z33autovec_no_early_exit_single_loadIhEvRN9benchmark5StateE,"aG",@progbits,_Z33autovec_no_early_exit_single_loadIhEvRN9benchmark5StateE,comdat
	.p2align	2, 0x0
GCC_except_table1:
.Lexception1:
	.byte	255                             # @LPStart Encoding = omit
	.byte	255                             # @TType Encoding = omit
	.byte	1                               # Call site Encoding = uleb128
	.uleb128 .Lcst_end1-.Lcst_begin1
.Lcst_begin1:
	.uleb128 .Lfunc_begin1-.Lfunc_begin1    # >> Call Site 1 <<
	.uleb128 .Ltmp6-.Lfunc_begin1           #   Call between .Lfunc_begin1 and .Ltmp6
	.byte	0                               #     has no landing pad
	.byte	0                               #   On action: cleanup
	.uleb128 .Ltmp6-.Lfunc_begin1           # >> Call Site 2 <<
	.uleb128 .Ltmp7-.Ltmp6                  #   Call between .Ltmp6 and .Ltmp7
	.uleb128 .Ltmp8-.Lfunc_begin1           #     jumps to .Ltmp8
	.byte	0                               #   On action: cleanup
	.uleb128 .Ltmp9-.Lfunc_begin1           # >> Call Site 3 <<
	.uleb128 .Ltmp10-.Ltmp9                 #   Call between .Ltmp9 and .Ltmp10
	.uleb128 .Ltmp11-.Lfunc_begin1          #     jumps to .Ltmp11
	.byte	0                               #   On action: cleanup
	.uleb128 .Ltmp10-.Lfunc_begin1          # >> Call Site 4 <<
	.uleb128 .Ltmp12-.Ltmp10                #   Call between .Ltmp10 and .Ltmp12
	.byte	0                               #     has no landing pad
	.byte	0                               #   On action: cleanup
	.uleb128 .Ltmp12-.Lfunc_begin1          # >> Call Site 5 <<
	.uleb128 .Ltmp13-.Ltmp12                #   Call between .Ltmp12 and .Ltmp13
	.uleb128 .Ltmp19-.Lfunc_begin1          #     jumps to .Ltmp19
	.byte	0                               #   On action: cleanup
	.uleb128 .Ltmp14-.Lfunc_begin1          # >> Call Site 6 <<
	.uleb128 .Ltmp15-.Ltmp14                #   Call between .Ltmp14 and .Ltmp15
	.uleb128 .Ltmp16-.Lfunc_begin1          #     jumps to .Ltmp16
	.byte	0                               #   On action: cleanup
	.uleb128 .Ltmp17-.Lfunc_begin1          # >> Call Site 7 <<
	.uleb128 .Ltmp18-.Ltmp17                #   Call between .Ltmp17 and .Ltmp18
	.uleb128 .Ltmp19-.Lfunc_begin1          #     jumps to .Ltmp19
	.byte	0                               #   On action: cleanup
	.uleb128 .Ltmp18-.Lfunc_begin1          # >> Call Site 8 <<
	.uleb128 .Lfunc_end1-.Ltmp18            #   Call between .Ltmp18 and .Lfunc_end1
	.byte	0                               #     has no landing pad
	.byte	0                               #   On action: cleanup
.Lcst_end1:
	.p2align	2, 0x0
                                        # -- End function
	.section	.text._ZSt11make_uniqueIN9benchmark8internal17FunctionBenchmarkEJRA44_KcPFvRNS0_5StateEEEENSt8__detail9_MakeUniqIT_E15__single_objectEDpOT0_,"axG",@progbits,_ZSt11make_uniqueIN9benchmark8internal17FunctionBenchmarkEJRA44_KcPFvRNS0_5StateEEEENSt8__detail9_MakeUniqIT_E15__single_objectEDpOT0_,comdat
	.weak	_ZSt11make_uniqueIN9benchmark8internal17FunctionBenchmarkEJRA44_KcPFvRNS0_5StateEEEENSt8__detail9_MakeUniqIT_E15__single_objectEDpOT0_ # -- Begin function _ZSt11make_uniqueIN9benchmark8internal17FunctionBenchmarkEJRA44_KcPFvRNS0_5StateEEEENSt8__detail9_MakeUniqIT_E15__single_objectEDpOT0_
	.p2align	2
	.prefalign	5, .Lfunc_end2, nop
	.type	_ZSt11make_uniqueIN9benchmark8internal17FunctionBenchmarkEJRA44_KcPFvRNS0_5StateEEEENSt8__detail9_MakeUniqIT_E15__single_objectEDpOT0_,@function
_ZSt11make_uniqueIN9benchmark8internal17FunctionBenchmarkEJRA44_KcPFvRNS0_5StateEEEENSt8__detail9_MakeUniqIT_E15__single_objectEDpOT0_: # @_ZSt11make_uniqueIN9benchmark8internal17FunctionBenchmarkEJRA44_KcPFvRNS0_5StateEEEENSt8__detail9_MakeUniqIT_E15__single_objectEDpOT0_
.Lfunc_begin2:
	.cfi_startproc
	.cfi_personality 155, DW.ref.__gxx_personality_v0
	.cfi_lsda 27, .Lexception2
# %bb.0:
	addi.d	$sp, $sp, -112
	.cfi_def_cfa_offset 112
	st.d	$ra, $sp, 104                   # 8-byte Folded Spill
	st.d	$fp, $sp, 96                    # 8-byte Folded Spill
	st.d	$s0, $sp, 88                    # 8-byte Folded Spill
	st.d	$s1, $sp, 80                    # 8-byte Folded Spill
	st.d	$s2, $sp, 72                    # 8-byte Folded Spill
	st.d	$s3, $sp, 64                    # 8-byte Folded Spill
	st.d	$s4, $sp, 56                    # 8-byte Folded Spill
	.cfi_offset 1, -8
	.cfi_offset 22, -16
	.cfi_offset 23, -24
	.cfi_offset 24, -32
	.cfi_offset 25, -40
	.cfi_offset 26, -48
	.cfi_offset 27, -56
	move	$s1, $a2
	move	$s2, $a1
	move	$s0, $a0
	ori	$a0, $zero, 312
	pcaddu18i	$ra, %call36(_Znwm)
	jirl	$ra, $ra, 0
	move	$fp, $a0
	addi.d	$s4, $sp, 32
	st.d	$s4, $sp, 16
	move	$a0, $s2
	pcaddu18i	$ra, %call36(strlen)
	jirl	$ra, $ra, 0
	move	$s3, $a0
	ori	$a1, $zero, 16
	st.d	$a0, $sp, 48
	move	$a0, $s4
	bltu	$s3, $a1, .LBB2_3
# %bb.1:                                # %.noexc.i
.Ltmp20:                                # EH_LABEL
	addi.d	$a0, $sp, 16
	addi.d	$a1, $sp, 48
	move	$a2, $zero
	pcaddu18i	$ra, %call36(_ZNSt7__cxx1112basic_stringIcSt11char_traitsIcESaIcEE9_M_createERmm)
	jirl	$ra, $ra, 0
.Ltmp21:                                # EH_LABEL
# %bb.2:                                # %.noexc
	ld.d	$a1, $sp, 48
	st.d	$a0, $sp, 16
	st.d	$a1, $sp, 32
.LBB2_3:                                # %._crit_edge.i.i
	beqz	$s3, .LBB2_7
# %bb.4:                                # %._crit_edge.i.i
	ori	$a1, $zero, 1
	bne	$s3, $a1, .LBB2_6
# %bb.5:
	ld.b	$a1, $s2, 0
	st.b	$a1, $a0, 0
	b	.LBB2_7
.LBB2_6:
	move	$a1, $s2
	move	$a2, $s3
	pcaddu18i	$ra, %call36(memcpy)
	jirl	$ra, $ra, 0
.LBB2_7:
	ld.d	$a0, $sp, 48
	ld.d	$a1, $sp, 16
	st.d	$a0, $sp, 24
	stx.b	$zero, $a1, $a0
	ld.d	$s1, $s1, 0
.Ltmp23:                                # EH_LABEL
	addi.d	$a1, $sp, 16
	move	$a0, $fp
	pcaddu18i	$ra, %call36(_ZN9benchmark9BenchmarkC2ERKNSt7__cxx1112basic_stringIcSt11char_traitsIcESaIcEEE)
	jirl	$ra, $ra, 0
.Ltmp24:                                # EH_LABEL
# %bb.8:
	pcalau12i	$a0, %got_pc_hi20(_ZTVN9benchmark8internal17FunctionBenchmarkE)
	ld.d	$a1, $a0, %got_pc_lo12(_ZTVN9benchmark8internal17FunctionBenchmarkE)
	ld.d	$a0, $sp, 16
	addi.d	$a1, $a1, 16
	st.d	$a1, $fp, 0
	st.d	$s1, $fp, 304
	st.d	$fp, $s0, 0
	beq	$a0, $s4, .LBB2_10
# %bb.9:                                # %_ZNKSt7__cxx1112basic_stringIcSt11char_traitsIcESaIcEE11_M_is_localEv.exit.i.i
	ld.d	$a1, $sp, 32
	addi.d	$a1, $a1, 1
	pcaddu18i	$ra, %call36(_ZdlPvm)
	jirl	$ra, $ra, 0
.LBB2_10:                               # %_ZNSt7__cxx1112basic_stringIcSt11char_traitsIcESaIcEED2Ev.exit
	ld.d	$s4, $sp, 56                    # 8-byte Folded Reload
	ld.d	$s3, $sp, 64                    # 8-byte Folded Reload
	ld.d	$s2, $sp, 72                    # 8-byte Folded Reload
	ld.d	$s1, $sp, 80                    # 8-byte Folded Reload
	ld.d	$s0, $sp, 88                    # 8-byte Folded Reload
	ld.d	$fp, $sp, 96                    # 8-byte Folded Reload
	ld.d	$ra, $sp, 104                   # 8-byte Folded Reload
	addi.d	$sp, $sp, 112
	ret
.LBB2_11:
.Ltmp22:                                # EH_LABEL
	move	$s0, $a0
	b	.LBB2_14
.LBB2_12:
.Ltmp25:                                # EH_LABEL
	ld.d	$a2, $sp, 16
	move	$s0, $a0
	beq	$a2, $s4, .LBB2_14
# %bb.13:                               # %_ZNKSt7__cxx1112basic_stringIcSt11char_traitsIcESaIcEE11_M_is_localEv.exit.i.i7
	ld.d	$a0, $sp, 32
	addi.d	$a1, $a0, 1
	move	$a0, $a2
	pcaddu18i	$ra, %call36(_ZdlPvm)
	jirl	$ra, $ra, 0
.LBB2_14:                               # %_ZNSt7__cxx1112basic_stringIcSt11char_traitsIcESaIcEED2Ev.exit9
	ori	$a1, $zero, 312
	move	$a0, $fp
	pcaddu18i	$ra, %call36(_ZdlPvm)
	jirl	$ra, $ra, 0
	move	$a0, $s0
	pcaddu18i	$ra, %call36(_Unwind_Resume)
	jirl	$ra, $ra, 0
.Lfunc_end2:
	.size	_ZSt11make_uniqueIN9benchmark8internal17FunctionBenchmarkEJRA44_KcPFvRNS0_5StateEEEENSt8__detail9_MakeUniqIT_E15__single_objectEDpOT0_, .Lfunc_end2-_ZSt11make_uniqueIN9benchmark8internal17FunctionBenchmarkEJRA44_KcPFvRNS0_5StateEEEENSt8__detail9_MakeUniqIT_E15__single_objectEDpOT0_
	.cfi_endproc
	.section	.gcc_except_table._ZSt11make_uniqueIN9benchmark8internal17FunctionBenchmarkEJRA44_KcPFvRNS0_5StateEEEENSt8__detail9_MakeUniqIT_E15__single_objectEDpOT0_,"aG",@progbits,_ZSt11make_uniqueIN9benchmark8internal17FunctionBenchmarkEJRA44_KcPFvRNS0_5StateEEEENSt8__detail9_MakeUniqIT_E15__single_objectEDpOT0_,comdat
	.p2align	2, 0x0
GCC_except_table2:
.Lexception2:
	.byte	255                             # @LPStart Encoding = omit
	.byte	255                             # @TType Encoding = omit
	.byte	1                               # Call site Encoding = uleb128
	.uleb128 .Lcst_end2-.Lcst_begin2
.Lcst_begin2:
	.uleb128 .Lfunc_begin2-.Lfunc_begin2    # >> Call Site 1 <<
	.uleb128 .Ltmp20-.Lfunc_begin2          #   Call between .Lfunc_begin2 and .Ltmp20
	.byte	0                               #     has no landing pad
	.byte	0                               #   On action: cleanup
	.uleb128 .Ltmp20-.Lfunc_begin2          # >> Call Site 2 <<
	.uleb128 .Ltmp21-.Ltmp20                #   Call between .Ltmp20 and .Ltmp21
	.uleb128 .Ltmp22-.Lfunc_begin2          #     jumps to .Ltmp22
	.byte	0                               #   On action: cleanup
	.uleb128 .Ltmp21-.Lfunc_begin2          # >> Call Site 3 <<
	.uleb128 .Ltmp23-.Ltmp21                #   Call between .Ltmp21 and .Ltmp23
	.byte	0                               #     has no landing pad
	.byte	0                               #   On action: cleanup
	.uleb128 .Ltmp23-.Lfunc_begin2          # >> Call Site 4 <<
	.uleb128 .Ltmp24-.Ltmp23                #   Call between .Ltmp23 and .Ltmp24
	.uleb128 .Ltmp25-.Lfunc_begin2          #     jumps to .Ltmp25
	.byte	0                               #   On action: cleanup
	.uleb128 .Ltmp24-.Lfunc_begin2          # >> Call Site 5 <<
	.uleb128 .Lfunc_end2-.Ltmp24            #   Call between .Ltmp24 and .Lfunc_end2
	.byte	0                               #     has no landing pad
	.byte	0                               #   On action: cleanup
.Lcst_end2:
	.p2align	2, 0x0
                                        # -- End function
	.section	.text._Z33autovec_no_early_exit_single_loadItEvRN9benchmark5StateE,"axG",@progbits,_Z33autovec_no_early_exit_single_loadItEvRN9benchmark5StateE,comdat
	.weak	_Z33autovec_no_early_exit_single_loadItEvRN9benchmark5StateE # -- Begin function _Z33autovec_no_early_exit_single_loadItEvRN9benchmark5StateE
	.p2align	2
	.prefalign	5, .Lfunc_end3, nop
	.type	_Z33autovec_no_early_exit_single_loadItEvRN9benchmark5StateE,@function
_Z33autovec_no_early_exit_single_loadItEvRN9benchmark5StateE: # @_Z33autovec_no_early_exit_single_loadItEvRN9benchmark5StateE
.Lfunc_begin3:
	.cfi_startproc
	.cfi_personality 155, DW.ref.__gxx_personality_v0
	.cfi_lsda 27, .Lexception3
# %bb.0:
	addi.d	$sp, $sp, -160
	.cfi_def_cfa_offset 160
	st.d	$ra, $sp, 152                   # 8-byte Folded Spill
	st.d	$fp, $sp, 144                   # 8-byte Folded Spill
	st.d	$s0, $sp, 136                   # 8-byte Folded Spill
	st.d	$s1, $sp, 128                   # 8-byte Folded Spill
	st.d	$s2, $sp, 120                   # 8-byte Folded Spill
	st.d	$s3, $sp, 112                   # 8-byte Folded Spill
	st.d	$s4, $sp, 104                   # 8-byte Folded Spill
	st.d	$s5, $sp, 96                    # 8-byte Folded Spill
	st.d	$s6, $sp, 88                    # 8-byte Folded Spill
	.cfi_offset 1, -8
	.cfi_offset 22, -16
	.cfi_offset 23, -24
	.cfi_offset 24, -32
	.cfi_offset 25, -40
	.cfi_offset 26, -48
	.cfi_offset 27, -56
	.cfi_offset 28, -64
	.cfi_offset 29, -72
	move	$fp, $a0
	pcalau12i	$a0, %pc_hi20(_ZL29singleEarlyExitWithSingleLoadItEmPT_S1_S1_i)
	addi.d	$a0, $a0, %pc_lo12(_ZL29singleEarlyExitWithSingleLoadItEmPT_S1_S1_i)
	ld.d	$a1, $fp, 32
	ld.d	$s6, $a1, 0
	st.d	$a0, $sp, 80
	st.d	$s6, $sp, 72
	slli.d	$s5, $s6, 1
	addi.w	$a0, $zero, -1
	slt	$a1, $a0, $s6
	masknez	$a0, $a0, $a1
	maskeqz	$a1, $s5, $a1
	or	$s4, $a1, $a0
	move	$a0, $s4
	pcaddu18i	$ra, %call36(_Znam)
	jirl	$ra, $ra, 0
	move	$s3, $a0
	move	$s2, $a0
	st.d	$a0, $sp, 64
.Ltmp26:                                # EH_LABEL
	move	$a0, $s4
	pcaddu18i	$ra, %call36(_Znam)
	jirl	$ra, $ra, 0
.Ltmp27:                                # EH_LABEL
# %bb.1:
	move	$s1, $a0
	move	$s0, $a0
	st.d	$s1, $sp, 56
.Ltmp29:                                # EH_LABEL
	move	$a0, $s4
	pcaddu18i	$ra, %call36(_Znam)
	jirl	$ra, $ra, 0
.Ltmp30:                                # EH_LABEL
# %bb.2:
	slli.d	$a2, $s6, 32
	st.d	$a0, $sp, 48
	beqz	$a2, .LBB3_39
# %bb.3:                                # %iter.check
	move	$a1, $a0
	bstrpick.d	$a5, $s5, 32, 1
	slli.d	$a2, $a5, 1
	addi.d	$a4, $a2, -2
	srli.d	$a3, $a4, 1
	ori	$a6, $zero, 14
	addi.d	$a3, $a3, 1
	bltu	$a4, $a6, .LBB3_13
# %bb.4:                                # %vector.main.loop.iter.check
	ori	$a6, $zero, 62
	bgeu	$a4, $a6, .LBB3_6
# %bb.5:
	move	$a6, $zero
	b	.LBB3_10
.LBB3_6:                                # %vector.ph
	andi	$a7, $a3, 24
	move	$a6, $a3
	bstrins.d	$a6, $zero, 4, 0
	alsl.d	$s2, $a6, $s3, 1
	addi.d	$t0, $s3, 32
	xvrepli.h	$xr0, 1
	move	$t1, $a6
	.p2align	4, , 16
.LBB3_7:                                # %vector.body
                                        # =>This Inner Loop Header: Depth=1
	xvst	$xr0, $t0, -32
	xvst	$xr0, $t0, 0
	addi.d	$t1, $t1, -32
	addi.d	$t0, $t0, 64
	bnez	$t1, .LBB3_7
# %bb.8:                                # %middle.block
	beq	$a3, $a6, .LBB3_15
# %bb.9:                                # %vec.epilog.iter.check
	beqz	$a7, .LBB3_13
.LBB3_10:                               # %vec.epilog.ph
	move	$a7, $a3
	bstrins.d	$a7, $zero, 2, 0
	alsl.d	$s2, $a7, $s3, 1
	alsl.d	$t0, $a6, $s3, 1
	sub.d	$a6, $a6, $a7
	vrepli.h	$vr0, 1
	.p2align	4, , 16
.LBB3_11:                               # %vec.epilog.vector.body
                                        # =>This Inner Loop Header: Depth=1
	vst	$vr0, $t0, 0
	addi.d	$a6, $a6, 8
	addi.d	$t0, $t0, 16
	bnez	$a6, .LBB3_11
# %bb.12:                               # %vec.epilog.middle.block
	beq	$a3, $a7, .LBB3_15
.LBB3_13:                               # %.lr.ph.i.i.i.i.i.preheader
	alsl.d	$a5, $a5, $s3, 1
	ori	$a6, $zero, 1
	.p2align	4, , 16
.LBB3_14:                               # %.lr.ph.i.i.i.i.i
                                        # =>This Inner Loop Header: Depth=1
	st.h	$a6, $s2, 0
	addi.d	$s2, $s2, 2
	bne	$s2, $a5, .LBB3_14
.LBB3_15:                               # %iter.check73
	ori	$a5, $zero, 14
	bltu	$a4, $a5, .LBB3_25
# %bb.16:                               # %vector.main.loop.iter.check60
	ori	$a5, $zero, 62
	bgeu	$a4, $a5, .LBB3_18
# %bb.17:
	move	$a5, $zero
	b	.LBB3_22
.LBB3_18:                               # %vector.ph62
	andi	$a6, $a3, 24
	move	$a5, $a3
	bstrins.d	$a5, $zero, 4, 0
	alsl.d	$s0, $a5, $s1, 1
	addi.d	$a7, $s1, 32
	xvrepli.h	$xr0, 1
	move	$t0, $a5
	.p2align	4, , 16
.LBB3_19:                               # %vector.body65
                                        # =>This Inner Loop Header: Depth=1
	xvst	$xr0, $a7, -32
	xvst	$xr0, $a7, 0
	addi.d	$t0, $t0, -32
	addi.d	$a7, $a7, 64
	bnez	$t0, .LBB3_19
# %bb.20:                               # %middle.block70
	beq	$a3, $a5, .LBB3_27
# %bb.21:                               # %vec.epilog.iter.check75
	beqz	$a6, .LBB3_25
.LBB3_22:                               # %vec.epilog.ph77
	move	$a6, $a3
	bstrins.d	$a6, $zero, 2, 0
	alsl.d	$s0, $a6, $s1, 1
	alsl.d	$a7, $a5, $s1, 1
	sub.d	$a5, $a5, $a6
	vrepli.h	$vr0, 1
	.p2align	4, , 16
.LBB3_23:                               # %vec.epilog.vector.body80
                                        # =>This Inner Loop Header: Depth=1
	vst	$vr0, $a7, 0
	addi.d	$a5, $a5, 8
	addi.d	$a7, $a7, 16
	bnez	$a5, .LBB3_23
# %bb.24:                               # %vec.epilog.middle.block84
	beq	$a3, $a6, .LBB3_27
.LBB3_25:                               # %.lr.ph.i.i.i.i.i4.preheader
	add.d	$a5, $s1, $a2
	ori	$a6, $zero, 1
	.p2align	4, , 16
.LBB3_26:                               # %.lr.ph.i.i.i.i.i4
                                        # =>This Inner Loop Header: Depth=1
	st.h	$a6, $s0, 0
	addi.d	$s0, $s0, 2
	bne	$s0, $a5, .LBB3_26
.LBB3_27:                               # %iter.check101
	ori	$a5, $zero, 14
	bltu	$a4, $a5, .LBB3_37
# %bb.28:                               # %vector.main.loop.iter.check88
	ori	$a1, $zero, 62
	bgeu	$a4, $a1, .LBB3_30
# %bb.29:
	move	$a4, $zero
	b	.LBB3_34
.LBB3_30:                               # %vector.ph90
	andi	$a5, $a3, 24
	move	$a4, $a3
	bstrins.d	$a4, $zero, 4, 0
	alsl.d	$a1, $a4, $a0, 1
	addi.d	$a6, $a0, 32
	xvrepli.h	$xr0, 1
	move	$a7, $a4
	.p2align	4, , 16
.LBB3_31:                               # %vector.body93
                                        # =>This Inner Loop Header: Depth=1
	xvst	$xr0, $a6, -32
	xvst	$xr0, $a6, 0
	addi.d	$a7, $a7, -32
	addi.d	$a6, $a6, 64
	bnez	$a7, .LBB3_31
# %bb.32:                               # %middle.block98
	beq	$a3, $a4, .LBB3_39
# %bb.33:                               # %vec.epilog.iter.check103
	beqz	$a5, .LBB3_37
.LBB3_34:                               # %vec.epilog.ph105
	move	$a5, $a3
	bstrins.d	$a5, $zero, 2, 0
	alsl.d	$a1, $a5, $a0, 1
	alsl.d	$a6, $a4, $a0, 1
	sub.d	$a4, $a4, $a5
	vrepli.h	$vr0, 1
	.p2align	4, , 16
.LBB3_35:                               # %vec.epilog.vector.body108
                                        # =>This Inner Loop Header: Depth=1
	vst	$vr0, $a6, 0
	addi.d	$a4, $a4, 8
	addi.d	$a6, $a6, 16
	bnez	$a4, .LBB3_35
# %bb.36:                               # %vec.epilog.middle.block112
	beq	$a3, $a5, .LBB3_39
.LBB3_37:                               # %.lr.ph.i.i.i.i.i9.preheader
	add.d	$a0, $a0, $a2
	ori	$a2, $zero, 1
	.p2align	4, , 16
.LBB3_38:                               # %.lr.ph.i.i.i.i.i9
                                        # =>This Inner Loop Header: Depth=1
	st.h	$a2, $a1, 0
	addi.d	$a1, $a1, 2
	bne	$a1, $a0, .LBB3_38
.LBB3_39:                               # %_ZL9init_dataItEvRKSt10unique_ptrIA_T_St14default_deleteIS2_EEj.exit12
	ld.w	$s1, $fp, 28
	ld.d	$s0, $fp, 16
	st.d	$zero, $sp, 40
.Ltmp32:                                # EH_LABEL
	move	$a0, $fp
	pcaddu18i	$ra, %call36(_ZN9benchmark5State16StartKeepRunningEv)
	jirl	$ra, $ra, 0
.Ltmp33:                                # EH_LABEL
# %bb.40:                               # %_ZN9benchmark5State3endEv.exit.i.preheader
	bnez	$s1, .LBB3_45
# %bb.41:                               # %_ZN9benchmark5State3endEv.exit.i.preheader
	beqz	$s0, .LBB3_45
# %bb.42:
	addi.d	$s1, $sp, 64
	addi.d	$s2, $sp, 56
	addi.d	$s3, $sp, 48
	addi.d	$s4, $sp, 40
	.p2align	4, , 16
.LBB3_43:                               # %.lr.ph
                                        # =>This Inner Loop Header: Depth=1
	#APP
	#NO_APP
	#APP
	#NO_APP
	#APP
	#NO_APP
	#APP
	#NO_APP
	#MEMBARRIER
	ld.d	$a0, $sp, 64
	ld.d	$a1, $sp, 56
	ld.d	$a2, $sp, 48
	st.d	$a0, $sp, 32
	st.d	$a1, $sp, 24
	st.d	$a2, $sp, 16
.Ltmp34:                                # EH_LABEL
	addi.d	$a0, $sp, 80
	addi.d	$a1, $sp, 32
	addi.d	$a2, $sp, 24
	addi.d	$a3, $sp, 16
	addi.d	$a4, $sp, 72
	pcaddu18i	$ra, %call36(_ZL18callThroughOptnoneIRPFmPtS0_S0_iEJS0_S0_S0_RlEEmOT_DpOT0_)
	jirl	$ra, $ra, 0
.Ltmp35:                                # EH_LABEL
# %bb.44:                               # %_ZN9benchmark5State3endEv.exit.i
                                        #   in Loop: Header=BB3_43 Depth=1
	ld.d	$a1, $sp, 40
	add.d	$a0, $a1, $a0
	addi.d	$s0, $s0, -1
	st.d	$a0, $sp, 40
	bnez	$s0, .LBB3_43
.LBB3_45:                               # %_ZN9benchmark5State3endEv.exit.i._crit_edge
.Ltmp37:                                # EH_LABEL
	move	$a0, $fp
	pcaddu18i	$ra, %call36(_ZN9benchmark5State17FinishKeepRunningEv)
	jirl	$ra, $ra, 0
.Ltmp38:                                # EH_LABEL
# %bb.46:                               # %_ZL21runEarlyExitBenchmarkItEvRN9benchmark5StateEPFmPT_S4_S4_iE17EarlyExitPosition.exit
	ld.d	$a0, $sp, 48
	beqz	$a0, .LBB3_48
# %bb.47:                               # %_ZNKSt14default_deleteIA_tEclItEENSt9enable_ifIXsr14is_convertibleIPA_T_PS0_EE5valueEvE4typeEPS4_.exit.i20
	pcaddu18i	$ra, %call36(_ZdaPv)
	jirl	$ra, $ra, 0
.LBB3_48:                               # %_ZNSt10unique_ptrIA_tSt14default_deleteIS0_EED2Ev.exit21
	ld.d	$a0, $sp, 56
	beqz	$a0, .LBB3_50
# %bb.49:                               # %_ZNKSt14default_deleteIA_tEclItEENSt9enable_ifIXsr14is_convertibleIPA_T_PS0_EE5valueEvE4typeEPS4_.exit.i23
	pcaddu18i	$ra, %call36(_ZdaPv)
	jirl	$ra, $ra, 0
.LBB3_50:                               # %_ZNSt10unique_ptrIA_tSt14default_deleteIS0_EED2Ev.exit24
	ld.d	$a0, $sp, 64
	beqz	$a0, .LBB3_52
# %bb.51:                               # %_ZNKSt14default_deleteIA_tEclItEENSt9enable_ifIXsr14is_convertibleIPA_T_PS0_EE5valueEvE4typeEPS4_.exit.i26
	pcaddu18i	$ra, %call36(_ZdaPv)
	jirl	$ra, $ra, 0
.LBB3_52:                               # %_ZNSt10unique_ptrIA_tSt14default_deleteIS0_EED2Ev.exit27
	ld.d	$s6, $sp, 88                    # 8-byte Folded Reload
	ld.d	$s5, $sp, 96                    # 8-byte Folded Reload
	ld.d	$s4, $sp, 104                   # 8-byte Folded Reload
	ld.d	$s3, $sp, 112                   # 8-byte Folded Reload
	ld.d	$s2, $sp, 120                   # 8-byte Folded Reload
	ld.d	$s1, $sp, 128                   # 8-byte Folded Reload
	ld.d	$s0, $sp, 136                   # 8-byte Folded Reload
	ld.d	$fp, $sp, 144                   # 8-byte Folded Reload
	ld.d	$ra, $sp, 152                   # 8-byte Folded Reload
	addi.d	$sp, $sp, 160
	ret
.LBB3_53:                               # %_ZNSt10unique_ptrIA_tSt14default_deleteIS0_EED2Ev.exit.thread
.Ltmp31:                                # EH_LABEL
	move	$fp, $a0
	b	.LBB3_62
.LBB3_54:                               # %_ZNSt10unique_ptrIA_tSt14default_deleteIS0_EED2Ev.exit15.thread
.Ltmp28:                                # EH_LABEL
	move	$fp, $a0
	move	$a0, $s2
	pcaddu18i	$ra, %call36(_ZdaPv)
	jirl	$ra, $ra, 0
	move	$a0, $fp
	pcaddu18i	$ra, %call36(_Unwind_Resume)
	jirl	$ra, $ra, 0
.LBB3_55:
.Ltmp39:                                # EH_LABEL
	b	.LBB3_57
.LBB3_56:
.Ltmp36:                                # EH_LABEL
.LBB3_57:
	move	$fp, $a0
	ld.d	$a0, $sp, 48
	bnez	$a0, .LBB3_61
# %bb.58:                               # %_ZNSt10unique_ptrIA_tSt14default_deleteIS0_EED2Ev.exit
	ld.d	$s0, $sp, 56
	bnez	$s0, .LBB3_62
.LBB3_59:                               # %_ZNSt10unique_ptrIA_tSt14default_deleteIS0_EED2Ev.exit15
	ld.d	$s2, $sp, 64
	bnez	$s2, .LBB3_63
.LBB3_60:                               # %_ZNSt10unique_ptrIA_tSt14default_deleteIS0_EED2Ev.exit18
	move	$a0, $fp
	pcaddu18i	$ra, %call36(_Unwind_Resume)
	jirl	$ra, $ra, 0
.LBB3_61:                               # %_ZNKSt14default_deleteIA_tEclItEENSt9enable_ifIXsr14is_convertibleIPA_T_PS0_EE5valueEvE4typeEPS4_.exit.i
	pcaddu18i	$ra, %call36(_ZdaPv)
	jirl	$ra, $ra, 0
	ld.d	$s0, $sp, 56
	beqz	$s0, .LBB3_59
.LBB3_62:                               # %_ZNKSt14default_deleteIA_tEclItEENSt9enable_ifIXsr14is_convertibleIPA_T_PS0_EE5valueEvE4typeEPS4_.exit.i14
	move	$a0, $s0
	pcaddu18i	$ra, %call36(_ZdaPv)
	jirl	$ra, $ra, 0
	ld.d	$s2, $sp, 64
	beqz	$s2, .LBB3_60
.LBB3_63:                               # %_ZNKSt14default_deleteIA_tEclItEENSt9enable_ifIXsr14is_convertibleIPA_T_PS0_EE5valueEvE4typeEPS4_.exit.i17
	move	$a0, $s2
	pcaddu18i	$ra, %call36(_ZdaPv)
	jirl	$ra, $ra, 0
	move	$a0, $fp
	pcaddu18i	$ra, %call36(_Unwind_Resume)
	jirl	$ra, $ra, 0
.Lfunc_end3:
	.size	_Z33autovec_no_early_exit_single_loadItEvRN9benchmark5StateE, .Lfunc_end3-_Z33autovec_no_early_exit_single_loadItEvRN9benchmark5StateE
	.cfi_endproc
	.section	.gcc_except_table._Z33autovec_no_early_exit_single_loadItEvRN9benchmark5StateE,"aG",@progbits,_Z33autovec_no_early_exit_single_loadItEvRN9benchmark5StateE,comdat
	.p2align	2, 0x0
GCC_except_table3:
.Lexception3:
	.byte	255                             # @LPStart Encoding = omit
	.byte	255                             # @TType Encoding = omit
	.byte	1                               # Call site Encoding = uleb128
	.uleb128 .Lcst_end3-.Lcst_begin3
.Lcst_begin3:
	.uleb128 .Lfunc_begin3-.Lfunc_begin3    # >> Call Site 1 <<
	.uleb128 .Ltmp26-.Lfunc_begin3          #   Call between .Lfunc_begin3 and .Ltmp26
	.byte	0                               #     has no landing pad
	.byte	0                               #   On action: cleanup
	.uleb128 .Ltmp26-.Lfunc_begin3          # >> Call Site 2 <<
	.uleb128 .Ltmp27-.Ltmp26                #   Call between .Ltmp26 and .Ltmp27
	.uleb128 .Ltmp28-.Lfunc_begin3          #     jumps to .Ltmp28
	.byte	0                               #   On action: cleanup
	.uleb128 .Ltmp29-.Lfunc_begin3          # >> Call Site 3 <<
	.uleb128 .Ltmp30-.Ltmp29                #   Call between .Ltmp29 and .Ltmp30
	.uleb128 .Ltmp31-.Lfunc_begin3          #     jumps to .Ltmp31
	.byte	0                               #   On action: cleanup
	.uleb128 .Ltmp32-.Lfunc_begin3          # >> Call Site 4 <<
	.uleb128 .Ltmp33-.Ltmp32                #   Call between .Ltmp32 and .Ltmp33
	.uleb128 .Ltmp39-.Lfunc_begin3          #     jumps to .Ltmp39
	.byte	0                               #   On action: cleanup
	.uleb128 .Ltmp34-.Lfunc_begin3          # >> Call Site 5 <<
	.uleb128 .Ltmp35-.Ltmp34                #   Call between .Ltmp34 and .Ltmp35
	.uleb128 .Ltmp36-.Lfunc_begin3          #     jumps to .Ltmp36
	.byte	0                               #   On action: cleanup
	.uleb128 .Ltmp37-.Lfunc_begin3          # >> Call Site 6 <<
	.uleb128 .Ltmp38-.Ltmp37                #   Call between .Ltmp37 and .Ltmp38
	.uleb128 .Ltmp39-.Lfunc_begin3          #     jumps to .Ltmp39
	.byte	0                               #   On action: cleanup
	.uleb128 .Ltmp38-.Lfunc_begin3          # >> Call Site 7 <<
	.uleb128 .Lfunc_end3-.Ltmp38            #   Call between .Ltmp38 and .Lfunc_end3
	.byte	0                               #     has no landing pad
	.byte	0                               #   On action: cleanup
.Lcst_end3:
	.p2align	2, 0x0
                                        # -- End function
	.section	.text._Z33autovec_no_early_exit_single_loadIjEvRN9benchmark5StateE,"axG",@progbits,_Z33autovec_no_early_exit_single_loadIjEvRN9benchmark5StateE,comdat
	.weak	_Z33autovec_no_early_exit_single_loadIjEvRN9benchmark5StateE # -- Begin function _Z33autovec_no_early_exit_single_loadIjEvRN9benchmark5StateE
	.p2align	2
	.prefalign	5, .Lfunc_end4, nop
	.type	_Z33autovec_no_early_exit_single_loadIjEvRN9benchmark5StateE,@function
_Z33autovec_no_early_exit_single_loadIjEvRN9benchmark5StateE: # @_Z33autovec_no_early_exit_single_loadIjEvRN9benchmark5StateE
.Lfunc_begin4:
	.cfi_startproc
	.cfi_personality 155, DW.ref.__gxx_personality_v0
	.cfi_lsda 27, .Lexception4
# %bb.0:
	addi.d	$sp, $sp, -160
	.cfi_def_cfa_offset 160
	st.d	$ra, $sp, 152                   # 8-byte Folded Spill
	st.d	$fp, $sp, 144                   # 8-byte Folded Spill
	st.d	$s0, $sp, 136                   # 8-byte Folded Spill
	st.d	$s1, $sp, 128                   # 8-byte Folded Spill
	st.d	$s2, $sp, 120                   # 8-byte Folded Spill
	st.d	$s3, $sp, 112                   # 8-byte Folded Spill
	st.d	$s4, $sp, 104                   # 8-byte Folded Spill
	st.d	$s5, $sp, 96                    # 8-byte Folded Spill
	st.d	$s6, $sp, 88                    # 8-byte Folded Spill
	.cfi_offset 1, -8
	.cfi_offset 22, -16
	.cfi_offset 23, -24
	.cfi_offset 24, -32
	.cfi_offset 25, -40
	.cfi_offset 26, -48
	.cfi_offset 27, -56
	.cfi_offset 28, -64
	.cfi_offset 29, -72
	move	$fp, $a0
	pcalau12i	$a0, %pc_hi20(_ZL29singleEarlyExitWithSingleLoadIjEmPT_S1_S1_i)
	addi.d	$a0, $a0, %pc_lo12(_ZL29singleEarlyExitWithSingleLoadIjEmPT_S1_S1_i)
	ld.d	$a1, $fp, 32
	ld.d	$s5, $a1, 0
	st.d	$a0, $sp, 80
	st.d	$s5, $sp, 72
	srli.d	$a0, $s5, 62
	sltu	$a0, $zero, $a0
	slli.d	$s6, $s5, 2
	masknez	$a1, $s6, $a0
	addi.w	$a2, $zero, -1
	maskeqz	$a0, $a2, $a0
	or	$s4, $a0, $a1
	move	$a0, $s4
	pcaddu18i	$ra, %call36(_Znam)
	jirl	$ra, $ra, 0
	move	$s3, $a0
	move	$s2, $a0
	st.d	$a0, $sp, 64
.Ltmp40:                                # EH_LABEL
	move	$a0, $s4
	pcaddu18i	$ra, %call36(_Znam)
	jirl	$ra, $ra, 0
.Ltmp41:                                # EH_LABEL
# %bb.1:
	move	$s1, $a0
	move	$s0, $a0
	st.d	$s1, $sp, 56
.Ltmp43:                                # EH_LABEL
	move	$a0, $s4
	pcaddu18i	$ra, %call36(_Znam)
	jirl	$ra, $ra, 0
.Ltmp44:                                # EH_LABEL
# %bb.2:
	slli.d	$a2, $s5, 32
	st.d	$a0, $sp, 48
	beqz	$a2, .LBB4_39
# %bb.3:                                # %iter.check
	move	$a1, $a0
	bstrpick.d	$a5, $s6, 33, 2
	slli.d	$a2, $a5, 2
	addi.d	$a4, $a2, -4
	srli.d	$a3, $a4, 2
	ori	$a6, $zero, 12
	addi.d	$a3, $a3, 1
	bltu	$a4, $a6, .LBB4_13
# %bb.4:                                # %vector.main.loop.iter.check
	ori	$a6, $zero, 60
	bgeu	$a4, $a6, .LBB4_6
# %bb.5:
	move	$a6, $zero
	b	.LBB4_10
.LBB4_6:                                # %vector.ph
	andi	$a7, $a3, 12
	bstrpick.d	$t0, $a3, 62, 4
	slli.d	$a6, $t0, 4
	slli.d	$t0, $t0, 6
	add.d	$s2, $s3, $t0
	addi.d	$t0, $s3, 32
	xvrepli.w	$xr0, 1
	move	$t1, $a6
	.p2align	4, , 16
.LBB4_7:                                # %vector.body
                                        # =>This Inner Loop Header: Depth=1
	xvst	$xr0, $t0, -32
	xvst	$xr0, $t0, 0
	addi.d	$t1, $t1, -16
	addi.d	$t0, $t0, 64
	bnez	$t1, .LBB4_7
# %bb.8:                                # %middle.block
	beq	$a3, $a6, .LBB4_15
# %bb.9:                                # %vec.epilog.iter.check
	beqz	$a7, .LBB4_13
.LBB4_10:                               # %vec.epilog.ph
	bstrpick.d	$t0, $a3, 62, 2
	slli.d	$a7, $t0, 2
	alsl.d	$s2, $t0, $s3, 4
	alsl.d	$t0, $a6, $s3, 2
	sub.d	$a6, $a6, $a7
	vrepli.w	$vr0, 1
	.p2align	4, , 16
.LBB4_11:                               # %vec.epilog.vector.body
                                        # =>This Inner Loop Header: Depth=1
	vst	$vr0, $t0, 0
	addi.d	$a6, $a6, 4
	addi.d	$t0, $t0, 16
	bnez	$a6, .LBB4_11
# %bb.12:                               # %vec.epilog.middle.block
	beq	$a3, $a7, .LBB4_15
.LBB4_13:                               # %.lr.ph.i.i.i.i.i.preheader
	alsl.d	$a5, $a5, $s3, 2
	ori	$a6, $zero, 1
	.p2align	4, , 16
.LBB4_14:                               # %.lr.ph.i.i.i.i.i
                                        # =>This Inner Loop Header: Depth=1
	st.w	$a6, $s2, 0
	addi.d	$s2, $s2, 4
	bne	$s2, $a5, .LBB4_14
.LBB4_15:                               # %iter.check73
	ori	$a5, $zero, 12
	bltu	$a4, $a5, .LBB4_25
# %bb.16:                               # %vector.main.loop.iter.check60
	ori	$a5, $zero, 60
	bgeu	$a4, $a5, .LBB4_18
# %bb.17:
	move	$a5, $zero
	b	.LBB4_22
.LBB4_18:                               # %vector.ph62
	andi	$a6, $a3, 12
	bstrpick.d	$a7, $a3, 62, 4
	slli.d	$a5, $a7, 4
	slli.d	$a7, $a7, 6
	add.d	$s0, $s1, $a7
	addi.d	$a7, $s1, 32
	xvrepli.w	$xr0, 1
	move	$t0, $a5
	.p2align	4, , 16
.LBB4_19:                               # %vector.body65
                                        # =>This Inner Loop Header: Depth=1
	xvst	$xr0, $a7, -32
	xvst	$xr0, $a7, 0
	addi.d	$t0, $t0, -16
	addi.d	$a7, $a7, 64
	bnez	$t0, .LBB4_19
# %bb.20:                               # %middle.block70
	beq	$a3, $a5, .LBB4_27
# %bb.21:                               # %vec.epilog.iter.check75
	beqz	$a6, .LBB4_25
.LBB4_22:                               # %vec.epilog.ph77
	bstrpick.d	$a7, $a3, 62, 2
	slli.d	$a6, $a7, 2
	alsl.d	$s0, $a7, $s1, 4
	alsl.d	$a7, $a5, $s1, 2
	sub.d	$a5, $a5, $a6
	vrepli.w	$vr0, 1
	.p2align	4, , 16
.LBB4_23:                               # %vec.epilog.vector.body80
                                        # =>This Inner Loop Header: Depth=1
	vst	$vr0, $a7, 0
	addi.d	$a5, $a5, 4
	addi.d	$a7, $a7, 16
	bnez	$a5, .LBB4_23
# %bb.24:                               # %vec.epilog.middle.block84
	beq	$a3, $a6, .LBB4_27
.LBB4_25:                               # %.lr.ph.i.i.i.i.i4.preheader
	add.d	$a5, $s1, $a2
	ori	$a6, $zero, 1
	.p2align	4, , 16
.LBB4_26:                               # %.lr.ph.i.i.i.i.i4
                                        # =>This Inner Loop Header: Depth=1
	st.w	$a6, $s0, 0
	addi.d	$s0, $s0, 4
	bne	$s0, $a5, .LBB4_26
.LBB4_27:                               # %iter.check101
	ori	$a5, $zero, 12
	bltu	$a4, $a5, .LBB4_37
# %bb.28:                               # %vector.main.loop.iter.check88
	ori	$a1, $zero, 60
	bgeu	$a4, $a1, .LBB4_30
# %bb.29:
	move	$a4, $zero
	b	.LBB4_34
.LBB4_30:                               # %vector.ph90
	andi	$a5, $a3, 12
	bstrpick.d	$a1, $a3, 62, 4
	slli.d	$a4, $a1, 4
	slli.d	$a1, $a1, 6
	add.d	$a1, $a0, $a1
	addi.d	$a6, $a0, 32
	xvrepli.w	$xr0, 1
	move	$a7, $a4
	.p2align	4, , 16
.LBB4_31:                               # %vector.body93
                                        # =>This Inner Loop Header: Depth=1
	xvst	$xr0, $a6, -32
	xvst	$xr0, $a6, 0
	addi.d	$a7, $a7, -16
	addi.d	$a6, $a6, 64
	bnez	$a7, .LBB4_31
# %bb.32:                               # %middle.block98
	beq	$a3, $a4, .LBB4_39
# %bb.33:                               # %vec.epilog.iter.check103
	beqz	$a5, .LBB4_37
.LBB4_34:                               # %vec.epilog.ph105
	bstrpick.d	$a1, $a3, 62, 2
	slli.d	$a5, $a1, 2
	alsl.d	$a1, $a1, $a0, 4
	alsl.d	$a6, $a4, $a0, 2
	sub.d	$a4, $a4, $a5
	vrepli.w	$vr0, 1
	.p2align	4, , 16
.LBB4_35:                               # %vec.epilog.vector.body108
                                        # =>This Inner Loop Header: Depth=1
	vst	$vr0, $a6, 0
	addi.d	$a4, $a4, 4
	addi.d	$a6, $a6, 16
	bnez	$a4, .LBB4_35
# %bb.36:                               # %vec.epilog.middle.block112
	beq	$a3, $a5, .LBB4_39
.LBB4_37:                               # %.lr.ph.i.i.i.i.i9.preheader
	add.d	$a0, $a0, $a2
	ori	$a2, $zero, 1
	.p2align	4, , 16
.LBB4_38:                               # %.lr.ph.i.i.i.i.i9
                                        # =>This Inner Loop Header: Depth=1
	st.w	$a2, $a1, 0
	addi.d	$a1, $a1, 4
	bne	$a1, $a0, .LBB4_38
.LBB4_39:                               # %_ZL9init_dataIjEvRKSt10unique_ptrIA_T_St14default_deleteIS2_EEj.exit12
	ld.w	$s1, $fp, 28
	ld.d	$s0, $fp, 16
	st.d	$zero, $sp, 40
.Ltmp46:                                # EH_LABEL
	move	$a0, $fp
	pcaddu18i	$ra, %call36(_ZN9benchmark5State16StartKeepRunningEv)
	jirl	$ra, $ra, 0
.Ltmp47:                                # EH_LABEL
# %bb.40:                               # %_ZN9benchmark5State3endEv.exit.i.preheader
	bnez	$s1, .LBB4_45
# %bb.41:                               # %_ZN9benchmark5State3endEv.exit.i.preheader
	beqz	$s0, .LBB4_45
# %bb.42:
	addi.d	$s1, $sp, 64
	addi.d	$s2, $sp, 56
	addi.d	$s3, $sp, 48
	addi.d	$s4, $sp, 40
	.p2align	4, , 16
.LBB4_43:                               # %.lr.ph
                                        # =>This Inner Loop Header: Depth=1
	#APP
	#NO_APP
	#APP
	#NO_APP
	#APP
	#NO_APP
	#APP
	#NO_APP
	#MEMBARRIER
	ld.d	$a0, $sp, 64
	ld.d	$a1, $sp, 56
	ld.d	$a2, $sp, 48
	st.d	$a0, $sp, 32
	st.d	$a1, $sp, 24
	st.d	$a2, $sp, 16
.Ltmp48:                                # EH_LABEL
	addi.d	$a0, $sp, 80
	addi.d	$a1, $sp, 32
	addi.d	$a2, $sp, 24
	addi.d	$a3, $sp, 16
	addi.d	$a4, $sp, 72
	pcaddu18i	$ra, %call36(_ZL18callThroughOptnoneIRPFmPjS0_S0_iEJS0_S0_S0_RlEEmOT_DpOT0_)
	jirl	$ra, $ra, 0
.Ltmp49:                                # EH_LABEL
# %bb.44:                               # %_ZN9benchmark5State3endEv.exit.i
                                        #   in Loop: Header=BB4_43 Depth=1
	ld.d	$a1, $sp, 40
	add.d	$a0, $a1, $a0
	addi.d	$s0, $s0, -1
	st.d	$a0, $sp, 40
	bnez	$s0, .LBB4_43
.LBB4_45:                               # %_ZN9benchmark5State3endEv.exit.i._crit_edge
.Ltmp51:                                # EH_LABEL
	move	$a0, $fp
	pcaddu18i	$ra, %call36(_ZN9benchmark5State17FinishKeepRunningEv)
	jirl	$ra, $ra, 0
.Ltmp52:                                # EH_LABEL
# %bb.46:                               # %_ZL21runEarlyExitBenchmarkIjEvRN9benchmark5StateEPFmPT_S4_S4_iE17EarlyExitPosition.exit
	ld.d	$a0, $sp, 48
	beqz	$a0, .LBB4_48
# %bb.47:                               # %_ZNKSt14default_deleteIA_jEclIjEENSt9enable_ifIXsr14is_convertibleIPA_T_PS0_EE5valueEvE4typeEPS4_.exit.i20
	pcaddu18i	$ra, %call36(_ZdaPv)
	jirl	$ra, $ra, 0
.LBB4_48:                               # %_ZNSt10unique_ptrIA_jSt14default_deleteIS0_EED2Ev.exit21
	ld.d	$a0, $sp, 56
	beqz	$a0, .LBB4_50
# %bb.49:                               # %_ZNKSt14default_deleteIA_jEclIjEENSt9enable_ifIXsr14is_convertibleIPA_T_PS0_EE5valueEvE4typeEPS4_.exit.i23
	pcaddu18i	$ra, %call36(_ZdaPv)
	jirl	$ra, $ra, 0
.LBB4_50:                               # %_ZNSt10unique_ptrIA_jSt14default_deleteIS0_EED2Ev.exit24
	ld.d	$a0, $sp, 64
	beqz	$a0, .LBB4_52
# %bb.51:                               # %_ZNKSt14default_deleteIA_jEclIjEENSt9enable_ifIXsr14is_convertibleIPA_T_PS0_EE5valueEvE4typeEPS4_.exit.i26
	pcaddu18i	$ra, %call36(_ZdaPv)
	jirl	$ra, $ra, 0
.LBB4_52:                               # %_ZNSt10unique_ptrIA_jSt14default_deleteIS0_EED2Ev.exit27
	ld.d	$s6, $sp, 88                    # 8-byte Folded Reload
	ld.d	$s5, $sp, 96                    # 8-byte Folded Reload
	ld.d	$s4, $sp, 104                   # 8-byte Folded Reload
	ld.d	$s3, $sp, 112                   # 8-byte Folded Reload
	ld.d	$s2, $sp, 120                   # 8-byte Folded Reload
	ld.d	$s1, $sp, 128                   # 8-byte Folded Reload
	ld.d	$s0, $sp, 136                   # 8-byte Folded Reload
	ld.d	$fp, $sp, 144                   # 8-byte Folded Reload
	ld.d	$ra, $sp, 152                   # 8-byte Folded Reload
	addi.d	$sp, $sp, 160
	ret
.LBB4_53:                               # %_ZNSt10unique_ptrIA_jSt14default_deleteIS0_EED2Ev.exit.thread
.Ltmp45:                                # EH_LABEL
	move	$fp, $a0
	b	.LBB4_62
.LBB4_54:                               # %_ZNSt10unique_ptrIA_jSt14default_deleteIS0_EED2Ev.exit15.thread
.Ltmp42:                                # EH_LABEL
	move	$fp, $a0
	move	$a0, $s2
	pcaddu18i	$ra, %call36(_ZdaPv)
	jirl	$ra, $ra, 0
	move	$a0, $fp
	pcaddu18i	$ra, %call36(_Unwind_Resume)
	jirl	$ra, $ra, 0
.LBB4_55:
.Ltmp53:                                # EH_LABEL
	b	.LBB4_57
.LBB4_56:
.Ltmp50:                                # EH_LABEL
.LBB4_57:
	move	$fp, $a0
	ld.d	$a0, $sp, 48
	bnez	$a0, .LBB4_61
# %bb.58:                               # %_ZNSt10unique_ptrIA_jSt14default_deleteIS0_EED2Ev.exit
	ld.d	$s0, $sp, 56
	bnez	$s0, .LBB4_62
.LBB4_59:                               # %_ZNSt10unique_ptrIA_jSt14default_deleteIS0_EED2Ev.exit15
	ld.d	$s2, $sp, 64
	bnez	$s2, .LBB4_63
.LBB4_60:                               # %_ZNSt10unique_ptrIA_jSt14default_deleteIS0_EED2Ev.exit18
	move	$a0, $fp
	pcaddu18i	$ra, %call36(_Unwind_Resume)
	jirl	$ra, $ra, 0
.LBB4_61:                               # %_ZNKSt14default_deleteIA_jEclIjEENSt9enable_ifIXsr14is_convertibleIPA_T_PS0_EE5valueEvE4typeEPS4_.exit.i
	pcaddu18i	$ra, %call36(_ZdaPv)
	jirl	$ra, $ra, 0
	ld.d	$s0, $sp, 56
	beqz	$s0, .LBB4_59
.LBB4_62:                               # %_ZNKSt14default_deleteIA_jEclIjEENSt9enable_ifIXsr14is_convertibleIPA_T_PS0_EE5valueEvE4typeEPS4_.exit.i14
	move	$a0, $s0
	pcaddu18i	$ra, %call36(_ZdaPv)
	jirl	$ra, $ra, 0
	ld.d	$s2, $sp, 64
	beqz	$s2, .LBB4_60
.LBB4_63:                               # %_ZNKSt14default_deleteIA_jEclIjEENSt9enable_ifIXsr14is_convertibleIPA_T_PS0_EE5valueEvE4typeEPS4_.exit.i17
	move	$a0, $s2
	pcaddu18i	$ra, %call36(_ZdaPv)
	jirl	$ra, $ra, 0
	move	$a0, $fp
	pcaddu18i	$ra, %call36(_Unwind_Resume)
	jirl	$ra, $ra, 0
.Lfunc_end4:
	.size	_Z33autovec_no_early_exit_single_loadIjEvRN9benchmark5StateE, .Lfunc_end4-_Z33autovec_no_early_exit_single_loadIjEvRN9benchmark5StateE
	.cfi_endproc
	.section	.gcc_except_table._Z33autovec_no_early_exit_single_loadIjEvRN9benchmark5StateE,"aG",@progbits,_Z33autovec_no_early_exit_single_loadIjEvRN9benchmark5StateE,comdat
	.p2align	2, 0x0
GCC_except_table4:
.Lexception4:
	.byte	255                             # @LPStart Encoding = omit
	.byte	255                             # @TType Encoding = omit
	.byte	1                               # Call site Encoding = uleb128
	.uleb128 .Lcst_end4-.Lcst_begin4
.Lcst_begin4:
	.uleb128 .Lfunc_begin4-.Lfunc_begin4    # >> Call Site 1 <<
	.uleb128 .Ltmp40-.Lfunc_begin4          #   Call between .Lfunc_begin4 and .Ltmp40
	.byte	0                               #     has no landing pad
	.byte	0                               #   On action: cleanup
	.uleb128 .Ltmp40-.Lfunc_begin4          # >> Call Site 2 <<
	.uleb128 .Ltmp41-.Ltmp40                #   Call between .Ltmp40 and .Ltmp41
	.uleb128 .Ltmp42-.Lfunc_begin4          #     jumps to .Ltmp42
	.byte	0                               #   On action: cleanup
	.uleb128 .Ltmp43-.Lfunc_begin4          # >> Call Site 3 <<
	.uleb128 .Ltmp44-.Ltmp43                #   Call between .Ltmp43 and .Ltmp44
	.uleb128 .Ltmp45-.Lfunc_begin4          #     jumps to .Ltmp45
	.byte	0                               #   On action: cleanup
	.uleb128 .Ltmp46-.Lfunc_begin4          # >> Call Site 4 <<
	.uleb128 .Ltmp47-.Ltmp46                #   Call between .Ltmp46 and .Ltmp47
	.uleb128 .Ltmp53-.Lfunc_begin4          #     jumps to .Ltmp53
	.byte	0                               #   On action: cleanup
	.uleb128 .Ltmp48-.Lfunc_begin4          # >> Call Site 5 <<
	.uleb128 .Ltmp49-.Ltmp48                #   Call between .Ltmp48 and .Ltmp49
	.uleb128 .Ltmp50-.Lfunc_begin4          #     jumps to .Ltmp50
	.byte	0                               #   On action: cleanup
	.uleb128 .Ltmp51-.Lfunc_begin4          # >> Call Site 6 <<
	.uleb128 .Ltmp52-.Ltmp51                #   Call between .Ltmp51 and .Ltmp52
	.uleb128 .Ltmp53-.Lfunc_begin4          #     jumps to .Ltmp53
	.byte	0                               #   On action: cleanup
	.uleb128 .Ltmp52-.Lfunc_begin4          # >> Call Site 7 <<
	.uleb128 .Lfunc_end4-.Ltmp52            #   Call between .Ltmp52 and .Lfunc_end4
	.byte	0                               #     has no landing pad
	.byte	0                               #   On action: cleanup
.Lcst_end4:
	.p2align	2, 0x0
                                        # -- End function
	.section	.text._Z33autovec_no_early_exit_single_loadImEvRN9benchmark5StateE,"axG",@progbits,_Z33autovec_no_early_exit_single_loadImEvRN9benchmark5StateE,comdat
	.weak	_Z33autovec_no_early_exit_single_loadImEvRN9benchmark5StateE # -- Begin function _Z33autovec_no_early_exit_single_loadImEvRN9benchmark5StateE
	.p2align	2
	.prefalign	5, .Lfunc_end5, nop
	.type	_Z33autovec_no_early_exit_single_loadImEvRN9benchmark5StateE,@function
_Z33autovec_no_early_exit_single_loadImEvRN9benchmark5StateE: # @_Z33autovec_no_early_exit_single_loadImEvRN9benchmark5StateE
.Lfunc_begin5:
	.cfi_startproc
	.cfi_personality 155, DW.ref.__gxx_personality_v0
	.cfi_lsda 27, .Lexception5
# %bb.0:
	addi.d	$sp, $sp, -160
	.cfi_def_cfa_offset 160
	st.d	$ra, $sp, 152                   # 8-byte Folded Spill
	st.d	$fp, $sp, 144                   # 8-byte Folded Spill
	st.d	$s0, $sp, 136                   # 8-byte Folded Spill
	st.d	$s1, $sp, 128                   # 8-byte Folded Spill
	st.d	$s2, $sp, 120                   # 8-byte Folded Spill
	st.d	$s3, $sp, 112                   # 8-byte Folded Spill
	st.d	$s4, $sp, 104                   # 8-byte Folded Spill
	st.d	$s5, $sp, 96                    # 8-byte Folded Spill
	st.d	$s6, $sp, 88                    # 8-byte Folded Spill
	.cfi_offset 1, -8
	.cfi_offset 22, -16
	.cfi_offset 23, -24
	.cfi_offset 24, -32
	.cfi_offset 25, -40
	.cfi_offset 26, -48
	.cfi_offset 27, -56
	.cfi_offset 28, -64
	.cfi_offset 29, -72
	move	$fp, $a0
	pcalau12i	$a0, %pc_hi20(_ZL29singleEarlyExitWithSingleLoadImEmPT_S1_S1_i)
	addi.d	$a0, $a0, %pc_lo12(_ZL29singleEarlyExitWithSingleLoadImEmPT_S1_S1_i)
	ld.d	$a1, $fp, 32
	ld.d	$s5, $a1, 0
	st.d	$a0, $sp, 80
	st.d	$s5, $sp, 72
	srli.d	$a0, $s5, 61
	sltu	$a0, $zero, $a0
	slli.d	$s6, $s5, 3
	masknez	$a1, $s6, $a0
	addi.w	$a2, $zero, -1
	maskeqz	$a0, $a2, $a0
	or	$s4, $a0, $a1
	move	$a0, $s4
	pcaddu18i	$ra, %call36(_Znam)
	jirl	$ra, $ra, 0
	move	$s3, $a0
	move	$s2, $a0
	st.d	$a0, $sp, 64
.Ltmp54:                                # EH_LABEL
	move	$a0, $s4
	pcaddu18i	$ra, %call36(_Znam)
	jirl	$ra, $ra, 0
.Ltmp55:                                # EH_LABEL
# %bb.1:
	move	$s1, $a0
	move	$s0, $a0
	st.d	$s1, $sp, 56
.Ltmp57:                                # EH_LABEL
	move	$a0, $s4
	pcaddu18i	$ra, %call36(_Znam)
	jirl	$ra, $ra, 0
.Ltmp58:                                # EH_LABEL
# %bb.2:
	slli.d	$a2, $s5, 32
	st.d	$a0, $sp, 48
	beqz	$a2, .LBB5_21
# %bb.3:
	move	$a1, $a0
	bstrpick.d	$a5, $s6, 34, 3
	slli.d	$a2, $a5, 3
	addi.d	$a4, $a2, -8
	srli.d	$a3, $a4, 3
	addi.d	$a3, $a3, 1
	ori	$a6, $zero, 56
	xvrepli.d	$xr0, 1
	bltu	$a4, $a6, .LBB5_7
# %bb.4:                                # %vector.ph
	bstrpick.d	$a7, $a3, 61, 3
	slli.d	$a6, $a7, 3
	slli.d	$a7, $a7, 6
	add.d	$s2, $s3, $a7
	addi.d	$a7, $s3, 32
	move	$t0, $a6
	.p2align	4, , 16
.LBB5_5:                                # %vector.body
                                        # =>This Inner Loop Header: Depth=1
	xvst	$xr0, $a7, -32
	xvst	$xr0, $a7, 0
	addi.d	$t0, $t0, -8
	addi.d	$a7, $a7, 64
	bnez	$t0, .LBB5_5
# %bb.6:                                # %middle.block
	beq	$a3, $a6, .LBB5_9
.LBB5_7:                                # %.lr.ph.i.i.i.i.i.preheader
	alsl.d	$a5, $a5, $s3, 3
	ori	$a6, $zero, 1
	.p2align	4, , 16
.LBB5_8:                                # %.lr.ph.i.i.i.i.i
                                        # =>This Inner Loop Header: Depth=1
	st.d	$a6, $s2, 0
	addi.d	$s2, $s2, 8
	bne	$s2, $a5, .LBB5_8
.LBB5_9:                                # %_ZL9init_dataImEvRKSt10unique_ptrIA_T_St14default_deleteIS2_EEj.exit
	ori	$a5, $zero, 56
	bltu	$a4, $a5, .LBB5_13
# %bb.10:                               # %vector.ph53
	bstrpick.d	$a6, $a3, 61, 3
	slli.d	$a5, $a6, 3
	slli.d	$a6, $a6, 6
	add.d	$s0, $s1, $a6
	addi.d	$a6, $s1, 32
	move	$a7, $a5
	.p2align	4, , 16
.LBB5_11:                               # %vector.body56
                                        # =>This Inner Loop Header: Depth=1
	xvst	$xr0, $a6, -32
	xvst	$xr0, $a6, 0
	addi.d	$a7, $a7, -8
	addi.d	$a6, $a6, 64
	bnez	$a7, .LBB5_11
# %bb.12:                               # %middle.block61
	beq	$a3, $a5, .LBB5_15
.LBB5_13:                               # %.lr.ph.i.i.i.i.i4.preheader
	add.d	$a5, $s1, $a2
	ori	$a6, $zero, 1
	.p2align	4, , 16
.LBB5_14:                               # %.lr.ph.i.i.i.i.i4
                                        # =>This Inner Loop Header: Depth=1
	st.d	$a6, $s0, 0
	addi.d	$s0, $s0, 8
	bne	$s0, $a5, .LBB5_14
.LBB5_15:                               # %_ZL9init_dataImEvRKSt10unique_ptrIA_T_St14default_deleteIS2_EEj.exit7
	ori	$a5, $zero, 56
	bltu	$a4, $a5, .LBB5_19
# %bb.16:                               # %vector.ph66
	bstrpick.d	$a1, $a3, 61, 3
	slli.d	$a4, $a1, 3
	slli.d	$a1, $a1, 6
	add.d	$a1, $a0, $a1
	addi.d	$a5, $a0, 32
	move	$a6, $a4
	.p2align	4, , 16
.LBB5_17:                               # %vector.body69
                                        # =>This Inner Loop Header: Depth=1
	xvst	$xr0, $a5, -32
	xvst	$xr0, $a5, 0
	addi.d	$a6, $a6, -8
	addi.d	$a5, $a5, 64
	bnez	$a6, .LBB5_17
# %bb.18:                               # %middle.block74
	beq	$a3, $a4, .LBB5_21
.LBB5_19:                               # %.lr.ph.i.i.i.i.i9.preheader
	add.d	$a0, $a0, $a2
	ori	$a2, $zero, 1
	.p2align	4, , 16
.LBB5_20:                               # %.lr.ph.i.i.i.i.i9
                                        # =>This Inner Loop Header: Depth=1
	st.d	$a2, $a1, 0
	addi.d	$a1, $a1, 8
	bne	$a1, $a0, .LBB5_20
.LBB5_21:                               # %_ZL9init_dataImEvRKSt10unique_ptrIA_T_St14default_deleteIS2_EEj.exit12
	ld.w	$s1, $fp, 28
	ld.d	$s0, $fp, 16
	st.d	$zero, $sp, 40
.Ltmp60:                                # EH_LABEL
	move	$a0, $fp
	pcaddu18i	$ra, %call36(_ZN9benchmark5State16StartKeepRunningEv)
	jirl	$ra, $ra, 0
.Ltmp61:                                # EH_LABEL
# %bb.22:                               # %_ZN9benchmark5State3endEv.exit.i.preheader
	bnez	$s1, .LBB5_27
# %bb.23:                               # %_ZN9benchmark5State3endEv.exit.i.preheader
	beqz	$s0, .LBB5_27
# %bb.24:
	addi.d	$s1, $sp, 64
	addi.d	$s2, $sp, 56
	addi.d	$s3, $sp, 48
	addi.d	$s4, $sp, 40
	.p2align	4, , 16
.LBB5_25:                               # %.lr.ph
                                        # =>This Inner Loop Header: Depth=1
	#APP
	#NO_APP
	#APP
	#NO_APP
	#APP
	#NO_APP
	#APP
	#NO_APP
	#MEMBARRIER
	ld.d	$a0, $sp, 64
	ld.d	$a1, $sp, 56
	ld.d	$a2, $sp, 48
	st.d	$a0, $sp, 32
	st.d	$a1, $sp, 24
	st.d	$a2, $sp, 16
.Ltmp62:                                # EH_LABEL
	addi.d	$a0, $sp, 80
	addi.d	$a1, $sp, 32
	addi.d	$a2, $sp, 24
	addi.d	$a3, $sp, 16
	addi.d	$a4, $sp, 72
	pcaddu18i	$ra, %call36(_ZL18callThroughOptnoneIRPFmPmS0_S0_iEJS0_S0_S0_RlEEmOT_DpOT0_)
	jirl	$ra, $ra, 0
.Ltmp63:                                # EH_LABEL
# %bb.26:                               # %_ZN9benchmark5State3endEv.exit.i
                                        #   in Loop: Header=BB5_25 Depth=1
	ld.d	$a1, $sp, 40
	add.d	$a0, $a1, $a0
	addi.d	$s0, $s0, -1
	st.d	$a0, $sp, 40
	bnez	$s0, .LBB5_25
.LBB5_27:                               # %_ZN9benchmark5State3endEv.exit.i._crit_edge
.Ltmp65:                                # EH_LABEL
	move	$a0, $fp
	pcaddu18i	$ra, %call36(_ZN9benchmark5State17FinishKeepRunningEv)
	jirl	$ra, $ra, 0
.Ltmp66:                                # EH_LABEL
# %bb.28:                               # %_ZL21runEarlyExitBenchmarkImEvRN9benchmark5StateEPFmPT_S4_S4_iE17EarlyExitPosition.exit
	ld.d	$a0, $sp, 48
	beqz	$a0, .LBB5_30
# %bb.29:                               # %_ZNKSt14default_deleteIA_mEclImEENSt9enable_ifIXsr14is_convertibleIPA_T_PS0_EE5valueEvE4typeEPS4_.exit.i20
	pcaddu18i	$ra, %call36(_ZdaPv)
	jirl	$ra, $ra, 0
.LBB5_30:                               # %_ZNSt10unique_ptrIA_mSt14default_deleteIS0_EED2Ev.exit21
	ld.d	$a0, $sp, 56
	beqz	$a0, .LBB5_32
# %bb.31:                               # %_ZNKSt14default_deleteIA_mEclImEENSt9enable_ifIXsr14is_convertibleIPA_T_PS0_EE5valueEvE4typeEPS4_.exit.i23
	pcaddu18i	$ra, %call36(_ZdaPv)
	jirl	$ra, $ra, 0
.LBB5_32:                               # %_ZNSt10unique_ptrIA_mSt14default_deleteIS0_EED2Ev.exit24
	ld.d	$a0, $sp, 64
	beqz	$a0, .LBB5_34
# %bb.33:                               # %_ZNKSt14default_deleteIA_mEclImEENSt9enable_ifIXsr14is_convertibleIPA_T_PS0_EE5valueEvE4typeEPS4_.exit.i26
	pcaddu18i	$ra, %call36(_ZdaPv)
	jirl	$ra, $ra, 0
.LBB5_34:                               # %_ZNSt10unique_ptrIA_mSt14default_deleteIS0_EED2Ev.exit27
	ld.d	$s6, $sp, 88                    # 8-byte Folded Reload
	ld.d	$s5, $sp, 96                    # 8-byte Folded Reload
	ld.d	$s4, $sp, 104                   # 8-byte Folded Reload
	ld.d	$s3, $sp, 112                   # 8-byte Folded Reload
	ld.d	$s2, $sp, 120                   # 8-byte Folded Reload
	ld.d	$s1, $sp, 128                   # 8-byte Folded Reload
	ld.d	$s0, $sp, 136                   # 8-byte Folded Reload
	ld.d	$fp, $sp, 144                   # 8-byte Folded Reload
	ld.d	$ra, $sp, 152                   # 8-byte Folded Reload
	addi.d	$sp, $sp, 160
	ret
.LBB5_35:                               # %_ZNSt10unique_ptrIA_mSt14default_deleteIS0_EED2Ev.exit.thread
.Ltmp59:                                # EH_LABEL
	move	$fp, $a0
	b	.LBB5_44
.LBB5_36:                               # %_ZNSt10unique_ptrIA_mSt14default_deleteIS0_EED2Ev.exit15.thread
.Ltmp56:                                # EH_LABEL
	move	$fp, $a0
	move	$a0, $s2
	pcaddu18i	$ra, %call36(_ZdaPv)
	jirl	$ra, $ra, 0
	move	$a0, $fp
	pcaddu18i	$ra, %call36(_Unwind_Resume)
	jirl	$ra, $ra, 0
.LBB5_37:
.Ltmp67:                                # EH_LABEL
	b	.LBB5_39
.LBB5_38:
.Ltmp64:                                # EH_LABEL
.LBB5_39:
	move	$fp, $a0
	ld.d	$a0, $sp, 48
	bnez	$a0, .LBB5_43
# %bb.40:                               # %_ZNSt10unique_ptrIA_mSt14default_deleteIS0_EED2Ev.exit
	ld.d	$s0, $sp, 56
	bnez	$s0, .LBB5_44
.LBB5_41:                               # %_ZNSt10unique_ptrIA_mSt14default_deleteIS0_EED2Ev.exit15
	ld.d	$s2, $sp, 64
	bnez	$s2, .LBB5_45
.LBB5_42:                               # %_ZNSt10unique_ptrIA_mSt14default_deleteIS0_EED2Ev.exit18
	move	$a0, $fp
	pcaddu18i	$ra, %call36(_Unwind_Resume)
	jirl	$ra, $ra, 0
.LBB5_43:                               # %_ZNKSt14default_deleteIA_mEclImEENSt9enable_ifIXsr14is_convertibleIPA_T_PS0_EE5valueEvE4typeEPS4_.exit.i
	pcaddu18i	$ra, %call36(_ZdaPv)
	jirl	$ra, $ra, 0
	ld.d	$s0, $sp, 56
	beqz	$s0, .LBB5_41
.LBB5_44:                               # %_ZNKSt14default_deleteIA_mEclImEENSt9enable_ifIXsr14is_convertibleIPA_T_PS0_EE5valueEvE4typeEPS4_.exit.i14
	move	$a0, $s0
	pcaddu18i	$ra, %call36(_ZdaPv)
	jirl	$ra, $ra, 0
	ld.d	$s2, $sp, 64
	beqz	$s2, .LBB5_42
.LBB5_45:                               # %_ZNKSt14default_deleteIA_mEclImEENSt9enable_ifIXsr14is_convertibleIPA_T_PS0_EE5valueEvE4typeEPS4_.exit.i17
	move	$a0, $s2
	pcaddu18i	$ra, %call36(_ZdaPv)
	jirl	$ra, $ra, 0
	move	$a0, $fp
	pcaddu18i	$ra, %call36(_Unwind_Resume)
	jirl	$ra, $ra, 0
.Lfunc_end5:
	.size	_Z33autovec_no_early_exit_single_loadImEvRN9benchmark5StateE, .Lfunc_end5-_Z33autovec_no_early_exit_single_loadImEvRN9benchmark5StateE
	.cfi_endproc
	.section	.gcc_except_table._Z33autovec_no_early_exit_single_loadImEvRN9benchmark5StateE,"aG",@progbits,_Z33autovec_no_early_exit_single_loadImEvRN9benchmark5StateE,comdat
	.p2align	2, 0x0
GCC_except_table5:
.Lexception5:
	.byte	255                             # @LPStart Encoding = omit
	.byte	255                             # @TType Encoding = omit
	.byte	1                               # Call site Encoding = uleb128
	.uleb128 .Lcst_end5-.Lcst_begin5
.Lcst_begin5:
	.uleb128 .Lfunc_begin5-.Lfunc_begin5    # >> Call Site 1 <<
	.uleb128 .Ltmp54-.Lfunc_begin5          #   Call between .Lfunc_begin5 and .Ltmp54
	.byte	0                               #     has no landing pad
	.byte	0                               #   On action: cleanup
	.uleb128 .Ltmp54-.Lfunc_begin5          # >> Call Site 2 <<
	.uleb128 .Ltmp55-.Ltmp54                #   Call between .Ltmp54 and .Ltmp55
	.uleb128 .Ltmp56-.Lfunc_begin5          #     jumps to .Ltmp56
	.byte	0                               #   On action: cleanup
	.uleb128 .Ltmp57-.Lfunc_begin5          # >> Call Site 3 <<
	.uleb128 .Ltmp58-.Ltmp57                #   Call between .Ltmp57 and .Ltmp58
	.uleb128 .Ltmp59-.Lfunc_begin5          #     jumps to .Ltmp59
	.byte	0                               #   On action: cleanup
	.uleb128 .Ltmp60-.Lfunc_begin5          # >> Call Site 4 <<
	.uleb128 .Ltmp61-.Ltmp60                #   Call between .Ltmp60 and .Ltmp61
	.uleb128 .Ltmp67-.Lfunc_begin5          #     jumps to .Ltmp67
	.byte	0                               #   On action: cleanup
	.uleb128 .Ltmp62-.Lfunc_begin5          # >> Call Site 5 <<
	.uleb128 .Ltmp63-.Ltmp62                #   Call between .Ltmp62 and .Ltmp63
	.uleb128 .Ltmp64-.Lfunc_begin5          #     jumps to .Ltmp64
	.byte	0                               #   On action: cleanup
	.uleb128 .Ltmp65-.Lfunc_begin5          # >> Call Site 6 <<
	.uleb128 .Ltmp66-.Ltmp65                #   Call between .Ltmp65 and .Ltmp66
	.uleb128 .Ltmp67-.Lfunc_begin5          #     jumps to .Ltmp67
	.byte	0                               #   On action: cleanup
	.uleb128 .Ltmp66-.Lfunc_begin5          # >> Call Site 7 <<
	.uleb128 .Lfunc_end5-.Ltmp66            #   Call between .Ltmp66 and .Lfunc_end5
	.byte	0                               #     has no landing pad
	.byte	0                               #   On action: cleanup
.Lcst_end5:
	.p2align	2, 0x0
                                        # -- End function
	.section	.text._ZSt11make_uniqueIN9benchmark8internal17FunctionBenchmarkEJRA52_KcPFvRNS0_5StateEEEENSt8__detail9_MakeUniqIT_E15__single_objectEDpOT0_,"axG",@progbits,_ZSt11make_uniqueIN9benchmark8internal17FunctionBenchmarkEJRA52_KcPFvRNS0_5StateEEEENSt8__detail9_MakeUniqIT_E15__single_objectEDpOT0_,comdat
	.weak	_ZSt11make_uniqueIN9benchmark8internal17FunctionBenchmarkEJRA52_KcPFvRNS0_5StateEEEENSt8__detail9_MakeUniqIT_E15__single_objectEDpOT0_ # -- Begin function _ZSt11make_uniqueIN9benchmark8internal17FunctionBenchmarkEJRA52_KcPFvRNS0_5StateEEEENSt8__detail9_MakeUniqIT_E15__single_objectEDpOT0_
	.p2align	2
	.prefalign	5, .Lfunc_end6, nop
	.type	_ZSt11make_uniqueIN9benchmark8internal17FunctionBenchmarkEJRA52_KcPFvRNS0_5StateEEEENSt8__detail9_MakeUniqIT_E15__single_objectEDpOT0_,@function
_ZSt11make_uniqueIN9benchmark8internal17FunctionBenchmarkEJRA52_KcPFvRNS0_5StateEEEENSt8__detail9_MakeUniqIT_E15__single_objectEDpOT0_: # @_ZSt11make_uniqueIN9benchmark8internal17FunctionBenchmarkEJRA52_KcPFvRNS0_5StateEEEENSt8__detail9_MakeUniqIT_E15__single_objectEDpOT0_
.Lfunc_begin6:
	.cfi_startproc
	.cfi_personality 155, DW.ref.__gxx_personality_v0
	.cfi_lsda 27, .Lexception6
# %bb.0:
	addi.d	$sp, $sp, -112
	.cfi_def_cfa_offset 112
	st.d	$ra, $sp, 104                   # 8-byte Folded Spill
	st.d	$fp, $sp, 96                    # 8-byte Folded Spill
	st.d	$s0, $sp, 88                    # 8-byte Folded Spill
	st.d	$s1, $sp, 80                    # 8-byte Folded Spill
	st.d	$s2, $sp, 72                    # 8-byte Folded Spill
	st.d	$s3, $sp, 64                    # 8-byte Folded Spill
	st.d	$s4, $sp, 56                    # 8-byte Folded Spill
	.cfi_offset 1, -8
	.cfi_offset 22, -16
	.cfi_offset 23, -24
	.cfi_offset 24, -32
	.cfi_offset 25, -40
	.cfi_offset 26, -48
	.cfi_offset 27, -56
	move	$s1, $a2
	move	$s2, $a1
	move	$s0, $a0
	ori	$a0, $zero, 312
	pcaddu18i	$ra, %call36(_Znwm)
	jirl	$ra, $ra, 0
	move	$fp, $a0
	addi.d	$s4, $sp, 32
	st.d	$s4, $sp, 16
	move	$a0, $s2
	pcaddu18i	$ra, %call36(strlen)
	jirl	$ra, $ra, 0
	move	$s3, $a0
	ori	$a1, $zero, 16
	st.d	$a0, $sp, 48
	move	$a0, $s4
	bltu	$s3, $a1, .LBB6_3
# %bb.1:                                # %.noexc.i
.Ltmp68:                                # EH_LABEL
	addi.d	$a0, $sp, 16
	addi.d	$a1, $sp, 48
	move	$a2, $zero
	pcaddu18i	$ra, %call36(_ZNSt7__cxx1112basic_stringIcSt11char_traitsIcESaIcEE9_M_createERmm)
	jirl	$ra, $ra, 0
.Ltmp69:                                # EH_LABEL
# %bb.2:                                # %.noexc
	ld.d	$a1, $sp, 48
	st.d	$a0, $sp, 16
	st.d	$a1, $sp, 32
.LBB6_3:                                # %._crit_edge.i.i
	beqz	$s3, .LBB6_7
# %bb.4:                                # %._crit_edge.i.i
	ori	$a1, $zero, 1
	bne	$s3, $a1, .LBB6_6
# %bb.5:
	ld.b	$a1, $s2, 0
	st.b	$a1, $a0, 0
	b	.LBB6_7
.LBB6_6:
	move	$a1, $s2
	move	$a2, $s3
	pcaddu18i	$ra, %call36(memcpy)
	jirl	$ra, $ra, 0
.LBB6_7:
	ld.d	$a0, $sp, 48
	ld.d	$a1, $sp, 16
	st.d	$a0, $sp, 24
	stx.b	$zero, $a1, $a0
	ld.d	$s1, $s1, 0
.Ltmp71:                                # EH_LABEL
	addi.d	$a1, $sp, 16
	move	$a0, $fp
	pcaddu18i	$ra, %call36(_ZN9benchmark9BenchmarkC2ERKNSt7__cxx1112basic_stringIcSt11char_traitsIcESaIcEEE)
	jirl	$ra, $ra, 0
.Ltmp72:                                # EH_LABEL
# %bb.8:
	pcalau12i	$a0, %got_pc_hi20(_ZTVN9benchmark8internal17FunctionBenchmarkE)
	ld.d	$a1, $a0, %got_pc_lo12(_ZTVN9benchmark8internal17FunctionBenchmarkE)
	ld.d	$a0, $sp, 16
	addi.d	$a1, $a1, 16
	st.d	$a1, $fp, 0
	st.d	$s1, $fp, 304
	st.d	$fp, $s0, 0
	beq	$a0, $s4, .LBB6_10
# %bb.9:                                # %_ZNKSt7__cxx1112basic_stringIcSt11char_traitsIcESaIcEE11_M_is_localEv.exit.i.i
	ld.d	$a1, $sp, 32
	addi.d	$a1, $a1, 1
	pcaddu18i	$ra, %call36(_ZdlPvm)
	jirl	$ra, $ra, 0
.LBB6_10:                               # %_ZNSt7__cxx1112basic_stringIcSt11char_traitsIcESaIcEED2Ev.exit
	ld.d	$s4, $sp, 56                    # 8-byte Folded Reload
	ld.d	$s3, $sp, 64                    # 8-byte Folded Reload
	ld.d	$s2, $sp, 72                    # 8-byte Folded Reload
	ld.d	$s1, $sp, 80                    # 8-byte Folded Reload
	ld.d	$s0, $sp, 88                    # 8-byte Folded Reload
	ld.d	$fp, $sp, 96                    # 8-byte Folded Reload
	ld.d	$ra, $sp, 104                   # 8-byte Folded Reload
	addi.d	$sp, $sp, 112
	ret
.LBB6_11:
.Ltmp70:                                # EH_LABEL
	move	$s0, $a0
	b	.LBB6_14
.LBB6_12:
.Ltmp73:                                # EH_LABEL
	ld.d	$a2, $sp, 16
	move	$s0, $a0
	beq	$a2, $s4, .LBB6_14
# %bb.13:                               # %_ZNKSt7__cxx1112basic_stringIcSt11char_traitsIcESaIcEE11_M_is_localEv.exit.i.i7
	ld.d	$a0, $sp, 32
	addi.d	$a1, $a0, 1
	move	$a0, $a2
	pcaddu18i	$ra, %call36(_ZdlPvm)
	jirl	$ra, $ra, 0
.LBB6_14:                               # %_ZNSt7__cxx1112basic_stringIcSt11char_traitsIcESaIcEED2Ev.exit9
	ori	$a1, $zero, 312
	move	$a0, $fp
	pcaddu18i	$ra, %call36(_ZdlPvm)
	jirl	$ra, $ra, 0
	move	$a0, $s0
	pcaddu18i	$ra, %call36(_Unwind_Resume)
	jirl	$ra, $ra, 0
.Lfunc_end6:
	.size	_ZSt11make_uniqueIN9benchmark8internal17FunctionBenchmarkEJRA52_KcPFvRNS0_5StateEEEENSt8__detail9_MakeUniqIT_E15__single_objectEDpOT0_, .Lfunc_end6-_ZSt11make_uniqueIN9benchmark8internal17FunctionBenchmarkEJRA52_KcPFvRNS0_5StateEEEENSt8__detail9_MakeUniqIT_E15__single_objectEDpOT0_
	.cfi_endproc
	.section	.gcc_except_table._ZSt11make_uniqueIN9benchmark8internal17FunctionBenchmarkEJRA52_KcPFvRNS0_5StateEEEENSt8__detail9_MakeUniqIT_E15__single_objectEDpOT0_,"aG",@progbits,_ZSt11make_uniqueIN9benchmark8internal17FunctionBenchmarkEJRA52_KcPFvRNS0_5StateEEEENSt8__detail9_MakeUniqIT_E15__single_objectEDpOT0_,comdat
	.p2align	2, 0x0
GCC_except_table6:
.Lexception6:
	.byte	255                             # @LPStart Encoding = omit
	.byte	255                             # @TType Encoding = omit
	.byte	1                               # Call site Encoding = uleb128
	.uleb128 .Lcst_end6-.Lcst_begin6
.Lcst_begin6:
	.uleb128 .Lfunc_begin6-.Lfunc_begin6    # >> Call Site 1 <<
	.uleb128 .Ltmp68-.Lfunc_begin6          #   Call between .Lfunc_begin6 and .Ltmp68
	.byte	0                               #     has no landing pad
	.byte	0                               #   On action: cleanup
	.uleb128 .Ltmp68-.Lfunc_begin6          # >> Call Site 2 <<
	.uleb128 .Ltmp69-.Ltmp68                #   Call between .Ltmp68 and .Ltmp69
	.uleb128 .Ltmp70-.Lfunc_begin6          #     jumps to .Ltmp70
	.byte	0                               #   On action: cleanup
	.uleb128 .Ltmp69-.Lfunc_begin6          # >> Call Site 3 <<
	.uleb128 .Ltmp71-.Ltmp69                #   Call between .Ltmp69 and .Ltmp71
	.byte	0                               #     has no landing pad
	.byte	0                               #   On action: cleanup
	.uleb128 .Ltmp71-.Lfunc_begin6          # >> Call Site 4 <<
	.uleb128 .Ltmp72-.Ltmp71                #   Call between .Ltmp71 and .Ltmp72
	.uleb128 .Ltmp73-.Lfunc_begin6          #     jumps to .Ltmp73
	.byte	0                               #   On action: cleanup
	.uleb128 .Ltmp72-.Lfunc_begin6          # >> Call Site 5 <<
	.uleb128 .Lfunc_end6-.Ltmp72            #   Call between .Ltmp72 and .Lfunc_end6
	.byte	0                               #     has no landing pad
	.byte	0                               #   On action: cleanup
.Lcst_end6:
	.p2align	2, 0x0
                                        # -- End function
	.section	.text._Z42autovec_early_exit_taken_first_single_loadIhEvRN9benchmark5StateE,"axG",@progbits,_Z42autovec_early_exit_taken_first_single_loadIhEvRN9benchmark5StateE,comdat
	.weak	_Z42autovec_early_exit_taken_first_single_loadIhEvRN9benchmark5StateE # -- Begin function _Z42autovec_early_exit_taken_first_single_loadIhEvRN9benchmark5StateE
	.p2align	2
	.prefalign	5, .Lfunc_end7, nop
	.type	_Z42autovec_early_exit_taken_first_single_loadIhEvRN9benchmark5StateE,@function
_Z42autovec_early_exit_taken_first_single_loadIhEvRN9benchmark5StateE: # @_Z42autovec_early_exit_taken_first_single_loadIhEvRN9benchmark5StateE
.Lfunc_begin7:
	.cfi_startproc
	.cfi_personality 155, DW.ref.__gxx_personality_v0
	.cfi_lsda 27, .Lexception7
# %bb.0:
	addi.d	$sp, $sp, -144
	.cfi_def_cfa_offset 144
	st.d	$ra, $sp, 136                   # 8-byte Folded Spill
	st.d	$fp, $sp, 128                   # 8-byte Folded Spill
	st.d	$s0, $sp, 120                   # 8-byte Folded Spill
	st.d	$s1, $sp, 112                   # 8-byte Folded Spill
	st.d	$s2, $sp, 104                   # 8-byte Folded Spill
	st.d	$s3, $sp, 96                    # 8-byte Folded Spill
	st.d	$s4, $sp, 88                    # 8-byte Folded Spill
	.cfi_offset 1, -8
	.cfi_offset 22, -16
	.cfi_offset 23, -24
	.cfi_offset 24, -32
	.cfi_offset 25, -40
	.cfi_offset 26, -48
	.cfi_offset 27, -56
	move	$fp, $a0
	pcalau12i	$a0, %pc_hi20(_ZL29singleEarlyExitWithSingleLoadIhEmPT_S1_S1_i)
	addi.d	$a0, $a0, %pc_lo12(_ZL29singleEarlyExitWithSingleLoadIhEmPT_S1_S1_i)
	ld.d	$a1, $fp, 32
	ld.d	$s2, $a1, 0
	st.d	$a0, $sp, 80
	st.d	$s2, $sp, 72
	move	$a0, $s2
	pcaddu18i	$ra, %call36(_Znam)
	jirl	$ra, $ra, 0
	move	$s0, $a0
	st.d	$a0, $sp, 64
.Ltmp74:                                # EH_LABEL
	move	$a0, $s2
	pcaddu18i	$ra, %call36(_Znam)
	jirl	$ra, $ra, 0
.Ltmp75:                                # EH_LABEL
# %bb.1:
	move	$s1, $a0
	st.d	$a0, $sp, 56
.Ltmp77:                                # EH_LABEL
	move	$a0, $s2
	pcaddu18i	$ra, %call36(_Znam)
	jirl	$ra, $ra, 0
.Ltmp78:                                # EH_LABEL
# %bb.2:
	move	$s3, $a0
	bstrpick.d	$s2, $s2, 31, 0
	st.d	$a0, $sp, 48
	beqz	$s2, .LBB7_4
# %bb.3:
	ori	$a1, $zero, 1
	move	$a0, $s0
	move	$a2, $s2
	pcaddu18i	$ra, %call36(memset)
	jirl	$ra, $ra, 0
	ori	$a1, $zero, 1
	move	$a0, $s1
	move	$a2, $s2
	pcaddu18i	$ra, %call36(memset)
	jirl	$ra, $ra, 0
	ori	$a1, $zero, 1
	move	$a0, $s3
	move	$a2, $s2
	pcaddu18i	$ra, %call36(memset)
	jirl	$ra, $ra, 0
.LBB7_4:                                # %_ZL9init_dataIhEvRKSt10unique_ptrIA_T_St14default_deleteIS2_EEj.exit10
	ld.w	$s2, $fp, 28
	ld.d	$s1, $fp, 16
	st.b	$zero, $s0, 0
	st.d	$zero, $sp, 40
.Ltmp80:                                # EH_LABEL
	move	$a0, $fp
	pcaddu18i	$ra, %call36(_ZN9benchmark5State16StartKeepRunningEv)
	jirl	$ra, $ra, 0
.Ltmp81:                                # EH_LABEL
# %bb.5:                                # %_ZN9benchmark5State3endEv.exit.preheader
	bnez	$s2, .LBB7_10
# %bb.6:                                # %_ZN9benchmark5State3endEv.exit.preheader
	beqz	$s1, .LBB7_10
# %bb.7:
	addi.d	$s0, $sp, 64
	addi.d	$s2, $sp, 56
	addi.d	$s3, $sp, 48
	addi.d	$s4, $sp, 40
	.p2align	4, , 16
.LBB7_8:                                # %.lr.ph
                                        # =>This Inner Loop Header: Depth=1
	#APP
	#NO_APP
	#APP
	#NO_APP
	#APP
	#NO_APP
	#APP
	#NO_APP
	#MEMBARRIER
	ld.d	$a0, $sp, 64
	ld.d	$a1, $sp, 56
	ld.d	$a2, $sp, 48
	st.d	$a0, $sp, 32
	st.d	$a1, $sp, 24
	st.d	$a2, $sp, 16
.Ltmp82:                                # EH_LABEL
	addi.d	$a0, $sp, 80
	addi.d	$a1, $sp, 32
	addi.d	$a2, $sp, 24
	addi.d	$a3, $sp, 16
	addi.d	$a4, $sp, 72
	pcaddu18i	$ra, %call36(_ZL18callThroughOptnoneIRPFmPhS0_S0_iEJS0_S0_S0_RlEEmOT_DpOT0_)
	jirl	$ra, $ra, 0
.Ltmp83:                                # EH_LABEL
# %bb.9:                                # %_ZN9benchmark5State3endEv.exit
                                        #   in Loop: Header=BB7_8 Depth=1
	ld.d	$a1, $sp, 40
	add.d	$a0, $a1, $a0
	addi.d	$s1, $s1, -1
	st.d	$a0, $sp, 40
	bnez	$s1, .LBB7_8
.LBB7_10:                               # %_ZN9benchmark5State3endEv.exit._crit_edge
.Ltmp85:                                # EH_LABEL
	move	$a0, $fp
	pcaddu18i	$ra, %call36(_ZN9benchmark5State17FinishKeepRunningEv)
	jirl	$ra, $ra, 0
.Ltmp86:                                # EH_LABEL
# %bb.11:                               # %_ZL21runEarlyExitBenchmarkIhEvRN9benchmark5StateEPFmPT_S4_S4_iE17EarlyExitPosition.exit
	ld.d	$a0, $sp, 48
	beqz	$a0, .LBB7_13
# %bb.12:                               # %_ZNKSt14default_deleteIA_hEclIhEENSt9enable_ifIXsr14is_convertibleIPA_T_PS0_EE5valueEvE4typeEPS4_.exit.i19
	pcaddu18i	$ra, %call36(_ZdaPv)
	jirl	$ra, $ra, 0
.LBB7_13:                               # %_ZNSt10unique_ptrIA_hSt14default_deleteIS0_EED2Ev.exit20
	ld.d	$a0, $sp, 56
	beqz	$a0, .LBB7_15
# %bb.14:                               # %_ZNKSt14default_deleteIA_hEclIhEENSt9enable_ifIXsr14is_convertibleIPA_T_PS0_EE5valueEvE4typeEPS4_.exit.i22
	pcaddu18i	$ra, %call36(_ZdaPv)
	jirl	$ra, $ra, 0
.LBB7_15:                               # %_ZNSt10unique_ptrIA_hSt14default_deleteIS0_EED2Ev.exit23
	ld.d	$a0, $sp, 64
	beqz	$a0, .LBB7_17
# %bb.16:                               # %_ZNKSt14default_deleteIA_hEclIhEENSt9enable_ifIXsr14is_convertibleIPA_T_PS0_EE5valueEvE4typeEPS4_.exit.i25
	pcaddu18i	$ra, %call36(_ZdaPv)
	jirl	$ra, $ra, 0
.LBB7_17:                               # %_ZNSt10unique_ptrIA_hSt14default_deleteIS0_EED2Ev.exit26
	ld.d	$s4, $sp, 88                    # 8-byte Folded Reload
	ld.d	$s3, $sp, 96                    # 8-byte Folded Reload
	ld.d	$s2, $sp, 104                   # 8-byte Folded Reload
	ld.d	$s1, $sp, 112                   # 8-byte Folded Reload
	ld.d	$s0, $sp, 120                   # 8-byte Folded Reload
	ld.d	$fp, $sp, 128                   # 8-byte Folded Reload
	ld.d	$ra, $sp, 136                   # 8-byte Folded Reload
	addi.d	$sp, $sp, 144
	ret
.LBB7_18:                               # %_ZNSt10unique_ptrIA_hSt14default_deleteIS0_EED2Ev.exit.thread
.Ltmp79:                                # EH_LABEL
	move	$fp, $a0
	b	.LBB7_27
.LBB7_19:                               # %_ZNSt10unique_ptrIA_hSt14default_deleteIS0_EED2Ev.exit14.thread
.Ltmp76:                                # EH_LABEL
	move	$fp, $a0
	move	$a0, $s0
	pcaddu18i	$ra, %call36(_ZdaPv)
	jirl	$ra, $ra, 0
	move	$a0, $fp
	pcaddu18i	$ra, %call36(_Unwind_Resume)
	jirl	$ra, $ra, 0
.LBB7_20:
.Ltmp87:                                # EH_LABEL
	b	.LBB7_22
.LBB7_21:
.Ltmp84:                                # EH_LABEL
.LBB7_22:
	move	$fp, $a0
	ld.d	$a0, $sp, 48
	bnez	$a0, .LBB7_26
# %bb.23:                               # %_ZNSt10unique_ptrIA_hSt14default_deleteIS0_EED2Ev.exit
	ld.d	$s1, $sp, 56
	bnez	$s1, .LBB7_27
.LBB7_24:                               # %_ZNSt10unique_ptrIA_hSt14default_deleteIS0_EED2Ev.exit14
	ld.d	$s0, $sp, 64
	bnez	$s0, .LBB7_28
.LBB7_25:                               # %_ZNSt10unique_ptrIA_hSt14default_deleteIS0_EED2Ev.exit17
	move	$a0, $fp
	pcaddu18i	$ra, %call36(_Unwind_Resume)
	jirl	$ra, $ra, 0
.LBB7_26:                               # %_ZNKSt14default_deleteIA_hEclIhEENSt9enable_ifIXsr14is_convertibleIPA_T_PS0_EE5valueEvE4typeEPS4_.exit.i
	pcaddu18i	$ra, %call36(_ZdaPv)
	jirl	$ra, $ra, 0
	ld.d	$s1, $sp, 56
	beqz	$s1, .LBB7_24
.LBB7_27:                               # %_ZNKSt14default_deleteIA_hEclIhEENSt9enable_ifIXsr14is_convertibleIPA_T_PS0_EE5valueEvE4typeEPS4_.exit.i13
	move	$a0, $s1
	pcaddu18i	$ra, %call36(_ZdaPv)
	jirl	$ra, $ra, 0
	ld.d	$s0, $sp, 64
	beqz	$s0, .LBB7_25
.LBB7_28:                               # %_ZNKSt14default_deleteIA_hEclIhEENSt9enable_ifIXsr14is_convertibleIPA_T_PS0_EE5valueEvE4typeEPS4_.exit.i16
	move	$a0, $s0
	pcaddu18i	$ra, %call36(_ZdaPv)
	jirl	$ra, $ra, 0
	move	$a0, $fp
	pcaddu18i	$ra, %call36(_Unwind_Resume)
	jirl	$ra, $ra, 0
.Lfunc_end7:
	.size	_Z42autovec_early_exit_taken_first_single_loadIhEvRN9benchmark5StateE, .Lfunc_end7-_Z42autovec_early_exit_taken_first_single_loadIhEvRN9benchmark5StateE
	.cfi_endproc
	.section	.gcc_except_table._Z42autovec_early_exit_taken_first_single_loadIhEvRN9benchmark5StateE,"aG",@progbits,_Z42autovec_early_exit_taken_first_single_loadIhEvRN9benchmark5StateE,comdat
	.p2align	2, 0x0
GCC_except_table7:
.Lexception7:
	.byte	255                             # @LPStart Encoding = omit
	.byte	255                             # @TType Encoding = omit
	.byte	1                               # Call site Encoding = uleb128
	.uleb128 .Lcst_end7-.Lcst_begin7
.Lcst_begin7:
	.uleb128 .Lfunc_begin7-.Lfunc_begin7    # >> Call Site 1 <<
	.uleb128 .Ltmp74-.Lfunc_begin7          #   Call between .Lfunc_begin7 and .Ltmp74
	.byte	0                               #     has no landing pad
	.byte	0                               #   On action: cleanup
	.uleb128 .Ltmp74-.Lfunc_begin7          # >> Call Site 2 <<
	.uleb128 .Ltmp75-.Ltmp74                #   Call between .Ltmp74 and .Ltmp75
	.uleb128 .Ltmp76-.Lfunc_begin7          #     jumps to .Ltmp76
	.byte	0                               #   On action: cleanup
	.uleb128 .Ltmp77-.Lfunc_begin7          # >> Call Site 3 <<
	.uleb128 .Ltmp78-.Ltmp77                #   Call between .Ltmp77 and .Ltmp78
	.uleb128 .Ltmp79-.Lfunc_begin7          #     jumps to .Ltmp79
	.byte	0                               #   On action: cleanup
	.uleb128 .Ltmp78-.Lfunc_begin7          # >> Call Site 4 <<
	.uleb128 .Ltmp80-.Ltmp78                #   Call between .Ltmp78 and .Ltmp80
	.byte	0                               #     has no landing pad
	.byte	0                               #   On action: cleanup
	.uleb128 .Ltmp80-.Lfunc_begin7          # >> Call Site 5 <<
	.uleb128 .Ltmp81-.Ltmp80                #   Call between .Ltmp80 and .Ltmp81
	.uleb128 .Ltmp87-.Lfunc_begin7          #     jumps to .Ltmp87
	.byte	0                               #   On action: cleanup
	.uleb128 .Ltmp82-.Lfunc_begin7          # >> Call Site 6 <<
	.uleb128 .Ltmp83-.Ltmp82                #   Call between .Ltmp82 and .Ltmp83
	.uleb128 .Ltmp84-.Lfunc_begin7          #     jumps to .Ltmp84
	.byte	0                               #   On action: cleanup
	.uleb128 .Ltmp85-.Lfunc_begin7          # >> Call Site 7 <<
	.uleb128 .Ltmp86-.Ltmp85                #   Call between .Ltmp85 and .Ltmp86
	.uleb128 .Ltmp87-.Lfunc_begin7          #     jumps to .Ltmp87
	.byte	0                               #   On action: cleanup
	.uleb128 .Ltmp86-.Lfunc_begin7          # >> Call Site 8 <<
	.uleb128 .Lfunc_end7-.Ltmp86            #   Call between .Ltmp86 and .Lfunc_end7
	.byte	0                               #     has no landing pad
	.byte	0                               #   On action: cleanup
.Lcst_end7:
	.p2align	2, 0x0
                                        # -- End function
	.section	.text._ZSt11make_uniqueIN9benchmark8internal17FunctionBenchmarkEJRA53_KcPFvRNS0_5StateEEEENSt8__detail9_MakeUniqIT_E15__single_objectEDpOT0_,"axG",@progbits,_ZSt11make_uniqueIN9benchmark8internal17FunctionBenchmarkEJRA53_KcPFvRNS0_5StateEEEENSt8__detail9_MakeUniqIT_E15__single_objectEDpOT0_,comdat
	.weak	_ZSt11make_uniqueIN9benchmark8internal17FunctionBenchmarkEJRA53_KcPFvRNS0_5StateEEEENSt8__detail9_MakeUniqIT_E15__single_objectEDpOT0_ # -- Begin function _ZSt11make_uniqueIN9benchmark8internal17FunctionBenchmarkEJRA53_KcPFvRNS0_5StateEEEENSt8__detail9_MakeUniqIT_E15__single_objectEDpOT0_
	.p2align	2
	.prefalign	5, .Lfunc_end8, nop
	.type	_ZSt11make_uniqueIN9benchmark8internal17FunctionBenchmarkEJRA53_KcPFvRNS0_5StateEEEENSt8__detail9_MakeUniqIT_E15__single_objectEDpOT0_,@function
_ZSt11make_uniqueIN9benchmark8internal17FunctionBenchmarkEJRA53_KcPFvRNS0_5StateEEEENSt8__detail9_MakeUniqIT_E15__single_objectEDpOT0_: # @_ZSt11make_uniqueIN9benchmark8internal17FunctionBenchmarkEJRA53_KcPFvRNS0_5StateEEEENSt8__detail9_MakeUniqIT_E15__single_objectEDpOT0_
.Lfunc_begin8:
	.cfi_startproc
	.cfi_personality 155, DW.ref.__gxx_personality_v0
	.cfi_lsda 27, .Lexception8
# %bb.0:
	addi.d	$sp, $sp, -112
	.cfi_def_cfa_offset 112
	st.d	$ra, $sp, 104                   # 8-byte Folded Spill
	st.d	$fp, $sp, 96                    # 8-byte Folded Spill
	st.d	$s0, $sp, 88                    # 8-byte Folded Spill
	st.d	$s1, $sp, 80                    # 8-byte Folded Spill
	st.d	$s2, $sp, 72                    # 8-byte Folded Spill
	st.d	$s3, $sp, 64                    # 8-byte Folded Spill
	st.d	$s4, $sp, 56                    # 8-byte Folded Spill
	.cfi_offset 1, -8
	.cfi_offset 22, -16
	.cfi_offset 23, -24
	.cfi_offset 24, -32
	.cfi_offset 25, -40
	.cfi_offset 26, -48
	.cfi_offset 27, -56
	move	$s1, $a2
	move	$s2, $a1
	move	$s0, $a0
	ori	$a0, $zero, 312
	pcaddu18i	$ra, %call36(_Znwm)
	jirl	$ra, $ra, 0
	move	$fp, $a0
	addi.d	$s4, $sp, 32
	st.d	$s4, $sp, 16
	move	$a0, $s2
	pcaddu18i	$ra, %call36(strlen)
	jirl	$ra, $ra, 0
	move	$s3, $a0
	ori	$a1, $zero, 16
	st.d	$a0, $sp, 48
	move	$a0, $s4
	bltu	$s3, $a1, .LBB8_3
# %bb.1:                                # %.noexc.i
.Ltmp88:                                # EH_LABEL
	addi.d	$a0, $sp, 16
	addi.d	$a1, $sp, 48
	move	$a2, $zero
	pcaddu18i	$ra, %call36(_ZNSt7__cxx1112basic_stringIcSt11char_traitsIcESaIcEE9_M_createERmm)
	jirl	$ra, $ra, 0
.Ltmp89:                                # EH_LABEL
# %bb.2:                                # %.noexc
	ld.d	$a1, $sp, 48
	st.d	$a0, $sp, 16
	st.d	$a1, $sp, 32
.LBB8_3:                                # %._crit_edge.i.i
	beqz	$s3, .LBB8_7
# %bb.4:                                # %._crit_edge.i.i
	ori	$a1, $zero, 1
	bne	$s3, $a1, .LBB8_6
# %bb.5:
	ld.b	$a1, $s2, 0
	st.b	$a1, $a0, 0
	b	.LBB8_7
.LBB8_6:
	move	$a1, $s2
	move	$a2, $s3
	pcaddu18i	$ra, %call36(memcpy)
	jirl	$ra, $ra, 0
.LBB8_7:
	ld.d	$a0, $sp, 48
	ld.d	$a1, $sp, 16
	st.d	$a0, $sp, 24
	stx.b	$zero, $a1, $a0
	ld.d	$s1, $s1, 0
.Ltmp91:                                # EH_LABEL
	addi.d	$a1, $sp, 16
	move	$a0, $fp
	pcaddu18i	$ra, %call36(_ZN9benchmark9BenchmarkC2ERKNSt7__cxx1112basic_stringIcSt11char_traitsIcESaIcEEE)
	jirl	$ra, $ra, 0
.Ltmp92:                                # EH_LABEL
# %bb.8:
	pcalau12i	$a0, %got_pc_hi20(_ZTVN9benchmark8internal17FunctionBenchmarkE)
	ld.d	$a1, $a0, %got_pc_lo12(_ZTVN9benchmark8internal17FunctionBenchmarkE)
	ld.d	$a0, $sp, 16
	addi.d	$a1, $a1, 16
	st.d	$a1, $fp, 0
	st.d	$s1, $fp, 304
	st.d	$fp, $s0, 0
	beq	$a0, $s4, .LBB8_10
# %bb.9:                                # %_ZNKSt7__cxx1112basic_stringIcSt11char_traitsIcESaIcEE11_M_is_localEv.exit.i.i
	ld.d	$a1, $sp, 32
	addi.d	$a1, $a1, 1
	pcaddu18i	$ra, %call36(_ZdlPvm)
	jirl	$ra, $ra, 0
.LBB8_10:                               # %_ZNSt7__cxx1112basic_stringIcSt11char_traitsIcESaIcEED2Ev.exit
	ld.d	$s4, $sp, 56                    # 8-byte Folded Reload
	ld.d	$s3, $sp, 64                    # 8-byte Folded Reload
	ld.d	$s2, $sp, 72                    # 8-byte Folded Reload
	ld.d	$s1, $sp, 80                    # 8-byte Folded Reload
	ld.d	$s0, $sp, 88                    # 8-byte Folded Reload
	ld.d	$fp, $sp, 96                    # 8-byte Folded Reload
	ld.d	$ra, $sp, 104                   # 8-byte Folded Reload
	addi.d	$sp, $sp, 112
	ret
.LBB8_11:
.Ltmp90:                                # EH_LABEL
	move	$s0, $a0
	b	.LBB8_14
.LBB8_12:
.Ltmp93:                                # EH_LABEL
	ld.d	$a2, $sp, 16
	move	$s0, $a0
	beq	$a2, $s4, .LBB8_14
# %bb.13:                               # %_ZNKSt7__cxx1112basic_stringIcSt11char_traitsIcESaIcEE11_M_is_localEv.exit.i.i7
	ld.d	$a0, $sp, 32
	addi.d	$a1, $a0, 1
	move	$a0, $a2
	pcaddu18i	$ra, %call36(_ZdlPvm)
	jirl	$ra, $ra, 0
.LBB8_14:                               # %_ZNSt7__cxx1112basic_stringIcSt11char_traitsIcESaIcEED2Ev.exit9
	ori	$a1, $zero, 312
	move	$a0, $fp
	pcaddu18i	$ra, %call36(_ZdlPvm)
	jirl	$ra, $ra, 0
	move	$a0, $s0
	pcaddu18i	$ra, %call36(_Unwind_Resume)
	jirl	$ra, $ra, 0
.Lfunc_end8:
	.size	_ZSt11make_uniqueIN9benchmark8internal17FunctionBenchmarkEJRA53_KcPFvRNS0_5StateEEEENSt8__detail9_MakeUniqIT_E15__single_objectEDpOT0_, .Lfunc_end8-_ZSt11make_uniqueIN9benchmark8internal17FunctionBenchmarkEJRA53_KcPFvRNS0_5StateEEEENSt8__detail9_MakeUniqIT_E15__single_objectEDpOT0_
	.cfi_endproc
	.section	.gcc_except_table._ZSt11make_uniqueIN9benchmark8internal17FunctionBenchmarkEJRA53_KcPFvRNS0_5StateEEEENSt8__detail9_MakeUniqIT_E15__single_objectEDpOT0_,"aG",@progbits,_ZSt11make_uniqueIN9benchmark8internal17FunctionBenchmarkEJRA53_KcPFvRNS0_5StateEEEENSt8__detail9_MakeUniqIT_E15__single_objectEDpOT0_,comdat
	.p2align	2, 0x0
GCC_except_table8:
.Lexception8:
	.byte	255                             # @LPStart Encoding = omit
	.byte	255                             # @TType Encoding = omit
	.byte	1                               # Call site Encoding = uleb128
	.uleb128 .Lcst_end8-.Lcst_begin8
.Lcst_begin8:
	.uleb128 .Lfunc_begin8-.Lfunc_begin8    # >> Call Site 1 <<
	.uleb128 .Ltmp88-.Lfunc_begin8          #   Call between .Lfunc_begin8 and .Ltmp88
	.byte	0                               #     has no landing pad
	.byte	0                               #   On action: cleanup
	.uleb128 .Ltmp88-.Lfunc_begin8          # >> Call Site 2 <<
	.uleb128 .Ltmp89-.Ltmp88                #   Call between .Ltmp88 and .Ltmp89
	.uleb128 .Ltmp90-.Lfunc_begin8          #     jumps to .Ltmp90
	.byte	0                               #   On action: cleanup
	.uleb128 .Ltmp89-.Lfunc_begin8          # >> Call Site 3 <<
	.uleb128 .Ltmp91-.Ltmp89                #   Call between .Ltmp89 and .Ltmp91
	.byte	0                               #     has no landing pad
	.byte	0                               #   On action: cleanup
	.uleb128 .Ltmp91-.Lfunc_begin8          # >> Call Site 4 <<
	.uleb128 .Ltmp92-.Ltmp91                #   Call between .Ltmp91 and .Ltmp92
	.uleb128 .Ltmp93-.Lfunc_begin8          #     jumps to .Ltmp93
	.byte	0                               #   On action: cleanup
	.uleb128 .Ltmp92-.Lfunc_begin8          # >> Call Site 5 <<
	.uleb128 .Lfunc_end8-.Ltmp92            #   Call between .Ltmp92 and .Lfunc_end8
	.byte	0                               #     has no landing pad
	.byte	0                               #   On action: cleanup
.Lcst_end8:
	.p2align	2, 0x0
                                        # -- End function
	.section	.text._Z42autovec_early_exit_taken_first_single_loadItEvRN9benchmark5StateE,"axG",@progbits,_Z42autovec_early_exit_taken_first_single_loadItEvRN9benchmark5StateE,comdat
	.weak	_Z42autovec_early_exit_taken_first_single_loadItEvRN9benchmark5StateE # -- Begin function _Z42autovec_early_exit_taken_first_single_loadItEvRN9benchmark5StateE
	.p2align	2
	.prefalign	5, .Lfunc_end9, nop
	.type	_Z42autovec_early_exit_taken_first_single_loadItEvRN9benchmark5StateE,@function
_Z42autovec_early_exit_taken_first_single_loadItEvRN9benchmark5StateE: # @_Z42autovec_early_exit_taken_first_single_loadItEvRN9benchmark5StateE
.Lfunc_begin9:
	.cfi_startproc
	.cfi_personality 155, DW.ref.__gxx_personality_v0
	.cfi_lsda 27, .Lexception9
# %bb.0:
	addi.d	$sp, $sp, -144
	.cfi_def_cfa_offset 144
	st.d	$ra, $sp, 136                   # 8-byte Folded Spill
	st.d	$fp, $sp, 128                   # 8-byte Folded Spill
	st.d	$s0, $sp, 120                   # 8-byte Folded Spill
	st.d	$s1, $sp, 112                   # 8-byte Folded Spill
	st.d	$s2, $sp, 104                   # 8-byte Folded Spill
	st.d	$s3, $sp, 96                    # 8-byte Folded Spill
	st.d	$s4, $sp, 88                    # 8-byte Folded Spill
	st.d	$s5, $sp, 80                    # 8-byte Folded Spill
	.cfi_offset 1, -8
	.cfi_offset 22, -16
	.cfi_offset 23, -24
	.cfi_offset 24, -32
	.cfi_offset 25, -40
	.cfi_offset 26, -48
	.cfi_offset 27, -56
	.cfi_offset 28, -64
	move	$fp, $a0
	pcalau12i	$a0, %pc_hi20(_ZL29singleEarlyExitWithSingleLoadItEmPT_S1_S1_i)
	addi.d	$a0, $a0, %pc_lo12(_ZL29singleEarlyExitWithSingleLoadItEmPT_S1_S1_i)
	ld.d	$a1, $fp, 32
	ld.d	$s5, $a1, 0
	st.d	$a0, $sp, 72
	st.d	$s5, $sp, 64
	slli.d	$s4, $s5, 1
	addi.w	$a0, $zero, -1
	slt	$a1, $a0, $s5
	masknez	$a0, $a0, $a1
	maskeqz	$a1, $s4, $a1
	or	$s3, $a1, $a0
	move	$a0, $s3
	pcaddu18i	$ra, %call36(_Znam)
	jirl	$ra, $ra, 0
	move	$s0, $a0
	st.d	$a0, $sp, 56
.Ltmp94:                                # EH_LABEL
	move	$a0, $s3
	pcaddu18i	$ra, %call36(_Znam)
	jirl	$ra, $ra, 0
.Ltmp95:                                # EH_LABEL
# %bb.1:
	move	$s2, $a0
	move	$s1, $a0
	st.d	$s2, $sp, 48
.Ltmp97:                                # EH_LABEL
	move	$a0, $s3
	pcaddu18i	$ra, %call36(_Znam)
	jirl	$ra, $ra, 0
.Ltmp98:                                # EH_LABEL
# %bb.2:
	slli.d	$a2, $s5, 32
	st.d	$a0, $sp, 40
	beqz	$a2, .LBB9_39
# %bb.3:                                # %iter.check
	move	$a1, $a0
	bstrpick.d	$a5, $s4, 32, 1
	slli.d	$a2, $a5, 1
	addi.d	$a4, $a2, -2
	srli.d	$a3, $a4, 1
	ori	$a7, $zero, 14
	addi.d	$a3, $a3, 1
	move	$a6, $s0
	bltu	$a4, $a7, .LBB9_13
# %bb.4:                                # %vector.main.loop.iter.check
	ori	$a6, $zero, 62
	bgeu	$a4, $a6, .LBB9_6
# %bb.5:
	move	$a7, $zero
	b	.LBB9_10
.LBB9_6:                                # %vector.ph
	andi	$t0, $a3, 24
	move	$a7, $a3
	bstrins.d	$a7, $zero, 4, 0
	alsl.d	$a6, $a7, $s0, 1
	addi.d	$t1, $s0, 32
	xvrepli.h	$xr0, 1
	move	$t2, $a7
	.p2align	4, , 16
.LBB9_7:                                # %vector.body
                                        # =>This Inner Loop Header: Depth=1
	xvst	$xr0, $t1, -32
	xvst	$xr0, $t1, 0
	addi.d	$t2, $t2, -32
	addi.d	$t1, $t1, 64
	bnez	$t2, .LBB9_7
# %bb.8:                                # %middle.block
	beq	$a3, $a7, .LBB9_15
# %bb.9:                                # %vec.epilog.iter.check
	beqz	$t0, .LBB9_13
.LBB9_10:                               # %vec.epilog.ph
	move	$t0, $a3
	bstrins.d	$t0, $zero, 2, 0
	alsl.d	$a6, $t0, $s0, 1
	alsl.d	$t1, $a7, $s0, 1
	sub.d	$a7, $a7, $t0
	vrepli.h	$vr0, 1
	.p2align	4, , 16
.LBB9_11:                               # %vec.epilog.vector.body
                                        # =>This Inner Loop Header: Depth=1
	vst	$vr0, $t1, 0
	addi.d	$a7, $a7, 8
	addi.d	$t1, $t1, 16
	bnez	$a7, .LBB9_11
# %bb.12:                               # %vec.epilog.middle.block
	beq	$a3, $t0, .LBB9_15
.LBB9_13:                               # %.lr.ph.i.i.i.i.i.preheader
	alsl.d	$a5, $a5, $s0, 1
	ori	$a7, $zero, 1
	.p2align	4, , 16
.LBB9_14:                               # %.lr.ph.i.i.i.i.i
                                        # =>This Inner Loop Header: Depth=1
	st.h	$a7, $a6, 0
	addi.d	$a6, $a6, 2
	bne	$a6, $a5, .LBB9_14
.LBB9_15:                               # %iter.check73
	ori	$a5, $zero, 14
	bltu	$a4, $a5, .LBB9_25
# %bb.16:                               # %vector.main.loop.iter.check60
	ori	$a5, $zero, 62
	bgeu	$a4, $a5, .LBB9_18
# %bb.17:
	move	$a5, $zero
	b	.LBB9_22
.LBB9_18:                               # %vector.ph62
	andi	$a6, $a3, 24
	move	$a5, $a3
	bstrins.d	$a5, $zero, 4, 0
	alsl.d	$s1, $a5, $s2, 1
	addi.d	$a7, $s2, 32
	xvrepli.h	$xr0, 1
	move	$t0, $a5
	.p2align	4, , 16
.LBB9_19:                               # %vector.body65
                                        # =>This Inner Loop Header: Depth=1
	xvst	$xr0, $a7, -32
	xvst	$xr0, $a7, 0
	addi.d	$t0, $t0, -32
	addi.d	$a7, $a7, 64
	bnez	$t0, .LBB9_19
# %bb.20:                               # %middle.block70
	beq	$a3, $a5, .LBB9_27
# %bb.21:                               # %vec.epilog.iter.check75
	beqz	$a6, .LBB9_25
.LBB9_22:                               # %vec.epilog.ph77
	move	$a6, $a3
	bstrins.d	$a6, $zero, 2, 0
	alsl.d	$s1, $a6, $s2, 1
	alsl.d	$a7, $a5, $s2, 1
	sub.d	$a5, $a5, $a6
	vrepli.h	$vr0, 1
	.p2align	4, , 16
.LBB9_23:                               # %vec.epilog.vector.body80
                                        # =>This Inner Loop Header: Depth=1
	vst	$vr0, $a7, 0
	addi.d	$a5, $a5, 8
	addi.d	$a7, $a7, 16
	bnez	$a5, .LBB9_23
# %bb.24:                               # %vec.epilog.middle.block84
	beq	$a3, $a6, .LBB9_27
.LBB9_25:                               # %.lr.ph.i.i.i.i.i4.preheader
	add.d	$a5, $s2, $a2
	ori	$a6, $zero, 1
	.p2align	4, , 16
.LBB9_26:                               # %.lr.ph.i.i.i.i.i4
                                        # =>This Inner Loop Header: Depth=1
	st.h	$a6, $s1, 0
	addi.d	$s1, $s1, 2
	bne	$s1, $a5, .LBB9_26
.LBB9_27:                               # %iter.check101
	ori	$a5, $zero, 14
	bltu	$a4, $a5, .LBB9_37
# %bb.28:                               # %vector.main.loop.iter.check88
	ori	$a1, $zero, 62
	bgeu	$a4, $a1, .LBB9_30
# %bb.29:
	move	$a4, $zero
	b	.LBB9_34
.LBB9_30:                               # %vector.ph90
	andi	$a5, $a3, 24
	move	$a4, $a3
	bstrins.d	$a4, $zero, 4, 0
	alsl.d	$a1, $a4, $a0, 1
	addi.d	$a6, $a0, 32
	xvrepli.h	$xr0, 1
	move	$a7, $a4
	.p2align	4, , 16
.LBB9_31:                               # %vector.body93
                                        # =>This Inner Loop Header: Depth=1
	xvst	$xr0, $a6, -32
	xvst	$xr0, $a6, 0
	addi.d	$a7, $a7, -32
	addi.d	$a6, $a6, 64
	bnez	$a7, .LBB9_31
# %bb.32:                               # %middle.block98
	beq	$a3, $a4, .LBB9_39
# %bb.33:                               # %vec.epilog.iter.check103
	beqz	$a5, .LBB9_37
.LBB9_34:                               # %vec.epilog.ph105
	move	$a5, $a3
	bstrins.d	$a5, $zero, 2, 0
	alsl.d	$a1, $a5, $a0, 1
	alsl.d	$a6, $a4, $a0, 1
	sub.d	$a4, $a4, $a5
	vrepli.h	$vr0, 1
	.p2align	4, , 16
.LBB9_35:                               # %vec.epilog.vector.body108
                                        # =>This Inner Loop Header: Depth=1
	vst	$vr0, $a6, 0
	addi.d	$a4, $a4, 8
	addi.d	$a6, $a6, 16
	bnez	$a4, .LBB9_35
# %bb.36:                               # %vec.epilog.middle.block112
	beq	$a3, $a5, .LBB9_39
.LBB9_37:                               # %.lr.ph.i.i.i.i.i9.preheader
	add.d	$a0, $a0, $a2
	ori	$a2, $zero, 1
	.p2align	4, , 16
.LBB9_38:                               # %.lr.ph.i.i.i.i.i9
                                        # =>This Inner Loop Header: Depth=1
	st.h	$a2, $a1, 0
	addi.d	$a1, $a1, 2
	bne	$a1, $a0, .LBB9_38
.LBB9_39:                               # %_ZL9init_dataItEvRKSt10unique_ptrIA_T_St14default_deleteIS2_EEj.exit12
	ld.w	$s2, $fp, 28
	ld.d	$s1, $fp, 16
	st.h	$zero, $s0, 0
	st.d	$zero, $sp, 32
.Ltmp100:                               # EH_LABEL
	move	$a0, $fp
	pcaddu18i	$ra, %call36(_ZN9benchmark5State16StartKeepRunningEv)
	jirl	$ra, $ra, 0
.Ltmp101:                               # EH_LABEL
# %bb.40:                               # %_ZN9benchmark5State3endEv.exit.i.preheader
	bnez	$s2, .LBB9_45
# %bb.41:                               # %_ZN9benchmark5State3endEv.exit.i.preheader
	beqz	$s1, .LBB9_45
# %bb.42:
	addi.d	$s0, $sp, 56
	addi.d	$s2, $sp, 48
	addi.d	$s3, $sp, 40
	addi.d	$s4, $sp, 32
	.p2align	4, , 16
.LBB9_43:                               # %.lr.ph
                                        # =>This Inner Loop Header: Depth=1
	#APP
	#NO_APP
	#APP
	#NO_APP
	#APP
	#NO_APP
	#APP
	#NO_APP
	#MEMBARRIER
	ld.d	$a0, $sp, 56
	ld.d	$a1, $sp, 48
	ld.d	$a2, $sp, 40
	st.d	$a0, $sp, 24
	st.d	$a1, $sp, 16
	st.d	$a2, $sp, 8
.Ltmp102:                               # EH_LABEL
	addi.d	$a0, $sp, 72
	addi.d	$a1, $sp, 24
	addi.d	$a2, $sp, 16
	addi.d	$a3, $sp, 8
	addi.d	$a4, $sp, 64
	pcaddu18i	$ra, %call36(_ZL18callThroughOptnoneIRPFmPtS0_S0_iEJS0_S0_S0_RlEEmOT_DpOT0_)
	jirl	$ra, $ra, 0
.Ltmp103:                               # EH_LABEL
# %bb.44:                               # %_ZN9benchmark5State3endEv.exit.i
                                        #   in Loop: Header=BB9_43 Depth=1
	ld.d	$a1, $sp, 32
	add.d	$a0, $a1, $a0
	addi.d	$s1, $s1, -1
	st.d	$a0, $sp, 32
	bnez	$s1, .LBB9_43
.LBB9_45:                               # %_ZN9benchmark5State3endEv.exit.i._crit_edge
.Ltmp105:                               # EH_LABEL
	move	$a0, $fp
	pcaddu18i	$ra, %call36(_ZN9benchmark5State17FinishKeepRunningEv)
	jirl	$ra, $ra, 0
.Ltmp106:                               # EH_LABEL
# %bb.46:                               # %_ZL21runEarlyExitBenchmarkItEvRN9benchmark5StateEPFmPT_S4_S4_iE17EarlyExitPosition.exit
	ld.d	$a0, $sp, 40
	beqz	$a0, .LBB9_48
# %bb.47:                               # %_ZNKSt14default_deleteIA_tEclItEENSt9enable_ifIXsr14is_convertibleIPA_T_PS0_EE5valueEvE4typeEPS4_.exit.i20
	pcaddu18i	$ra, %call36(_ZdaPv)
	jirl	$ra, $ra, 0
.LBB9_48:                               # %_ZNSt10unique_ptrIA_tSt14default_deleteIS0_EED2Ev.exit21
	ld.d	$a0, $sp, 48
	beqz	$a0, .LBB9_50
# %bb.49:                               # %_ZNKSt14default_deleteIA_tEclItEENSt9enable_ifIXsr14is_convertibleIPA_T_PS0_EE5valueEvE4typeEPS4_.exit.i23
	pcaddu18i	$ra, %call36(_ZdaPv)
	jirl	$ra, $ra, 0
.LBB9_50:                               # %_ZNSt10unique_ptrIA_tSt14default_deleteIS0_EED2Ev.exit24
	ld.d	$a0, $sp, 56
	beqz	$a0, .LBB9_52
# %bb.51:                               # %_ZNKSt14default_deleteIA_tEclItEENSt9enable_ifIXsr14is_convertibleIPA_T_PS0_EE5valueEvE4typeEPS4_.exit.i26
	pcaddu18i	$ra, %call36(_ZdaPv)
	jirl	$ra, $ra, 0
.LBB9_52:                               # %_ZNSt10unique_ptrIA_tSt14default_deleteIS0_EED2Ev.exit27
	ld.d	$s5, $sp, 80                    # 8-byte Folded Reload
	ld.d	$s4, $sp, 88                    # 8-byte Folded Reload
	ld.d	$s3, $sp, 96                    # 8-byte Folded Reload
	ld.d	$s2, $sp, 104                   # 8-byte Folded Reload
	ld.d	$s1, $sp, 112                   # 8-byte Folded Reload
	ld.d	$s0, $sp, 120                   # 8-byte Folded Reload
	ld.d	$fp, $sp, 128                   # 8-byte Folded Reload
	ld.d	$ra, $sp, 136                   # 8-byte Folded Reload
	addi.d	$sp, $sp, 144
	ret
.LBB9_53:                               # %_ZNSt10unique_ptrIA_tSt14default_deleteIS0_EED2Ev.exit.thread
.Ltmp99:                                # EH_LABEL
	move	$fp, $a0
	b	.LBB9_62
.LBB9_54:                               # %_ZNSt10unique_ptrIA_tSt14default_deleteIS0_EED2Ev.exit15.thread
.Ltmp96:                                # EH_LABEL
	move	$fp, $a0
	move	$a0, $s0
	pcaddu18i	$ra, %call36(_ZdaPv)
	jirl	$ra, $ra, 0
	move	$a0, $fp
	pcaddu18i	$ra, %call36(_Unwind_Resume)
	jirl	$ra, $ra, 0
.LBB9_55:
.Ltmp107:                               # EH_LABEL
	b	.LBB9_57
.LBB9_56:
.Ltmp104:                               # EH_LABEL
.LBB9_57:
	move	$fp, $a0
	ld.d	$a0, $sp, 40
	bnez	$a0, .LBB9_61
# %bb.58:                               # %_ZNSt10unique_ptrIA_tSt14default_deleteIS0_EED2Ev.exit
	ld.d	$s1, $sp, 48
	bnez	$s1, .LBB9_62
.LBB9_59:                               # %_ZNSt10unique_ptrIA_tSt14default_deleteIS0_EED2Ev.exit15
	ld.d	$s0, $sp, 56
	bnez	$s0, .LBB9_63
.LBB9_60:                               # %_ZNSt10unique_ptrIA_tSt14default_deleteIS0_EED2Ev.exit18
	move	$a0, $fp
	pcaddu18i	$ra, %call36(_Unwind_Resume)
	jirl	$ra, $ra, 0
.LBB9_61:                               # %_ZNKSt14default_deleteIA_tEclItEENSt9enable_ifIXsr14is_convertibleIPA_T_PS0_EE5valueEvE4typeEPS4_.exit.i
	pcaddu18i	$ra, %call36(_ZdaPv)
	jirl	$ra, $ra, 0
	ld.d	$s1, $sp, 48
	beqz	$s1, .LBB9_59
.LBB9_62:                               # %_ZNKSt14default_deleteIA_tEclItEENSt9enable_ifIXsr14is_convertibleIPA_T_PS0_EE5valueEvE4typeEPS4_.exit.i14
	move	$a0, $s1
	pcaddu18i	$ra, %call36(_ZdaPv)
	jirl	$ra, $ra, 0
	ld.d	$s0, $sp, 56
	beqz	$s0, .LBB9_60
.LBB9_63:                               # %_ZNKSt14default_deleteIA_tEclItEENSt9enable_ifIXsr14is_convertibleIPA_T_PS0_EE5valueEvE4typeEPS4_.exit.i17
	move	$a0, $s0
	pcaddu18i	$ra, %call36(_ZdaPv)
	jirl	$ra, $ra, 0
	move	$a0, $fp
	pcaddu18i	$ra, %call36(_Unwind_Resume)
	jirl	$ra, $ra, 0
.Lfunc_end9:
	.size	_Z42autovec_early_exit_taken_first_single_loadItEvRN9benchmark5StateE, .Lfunc_end9-_Z42autovec_early_exit_taken_first_single_loadItEvRN9benchmark5StateE
	.cfi_endproc
	.section	.gcc_except_table._Z42autovec_early_exit_taken_first_single_loadItEvRN9benchmark5StateE,"aG",@progbits,_Z42autovec_early_exit_taken_first_single_loadItEvRN9benchmark5StateE,comdat
	.p2align	2, 0x0
GCC_except_table9:
.Lexception9:
	.byte	255                             # @LPStart Encoding = omit
	.byte	255                             # @TType Encoding = omit
	.byte	1                               # Call site Encoding = uleb128
	.uleb128 .Lcst_end9-.Lcst_begin9
.Lcst_begin9:
	.uleb128 .Lfunc_begin9-.Lfunc_begin9    # >> Call Site 1 <<
	.uleb128 .Ltmp94-.Lfunc_begin9          #   Call between .Lfunc_begin9 and .Ltmp94
	.byte	0                               #     has no landing pad
	.byte	0                               #   On action: cleanup
	.uleb128 .Ltmp94-.Lfunc_begin9          # >> Call Site 2 <<
	.uleb128 .Ltmp95-.Ltmp94                #   Call between .Ltmp94 and .Ltmp95
	.uleb128 .Ltmp96-.Lfunc_begin9          #     jumps to .Ltmp96
	.byte	0                               #   On action: cleanup
	.uleb128 .Ltmp97-.Lfunc_begin9          # >> Call Site 3 <<
	.uleb128 .Ltmp98-.Ltmp97                #   Call between .Ltmp97 and .Ltmp98
	.uleb128 .Ltmp99-.Lfunc_begin9          #     jumps to .Ltmp99
	.byte	0                               #   On action: cleanup
	.uleb128 .Ltmp100-.Lfunc_begin9         # >> Call Site 4 <<
	.uleb128 .Ltmp101-.Ltmp100              #   Call between .Ltmp100 and .Ltmp101
	.uleb128 .Ltmp107-.Lfunc_begin9         #     jumps to .Ltmp107
	.byte	0                               #   On action: cleanup
	.uleb128 .Ltmp102-.Lfunc_begin9         # >> Call Site 5 <<
	.uleb128 .Ltmp103-.Ltmp102              #   Call between .Ltmp102 and .Ltmp103
	.uleb128 .Ltmp104-.Lfunc_begin9         #     jumps to .Ltmp104
	.byte	0                               #   On action: cleanup
	.uleb128 .Ltmp105-.Lfunc_begin9         # >> Call Site 6 <<
	.uleb128 .Ltmp106-.Ltmp105              #   Call between .Ltmp105 and .Ltmp106
	.uleb128 .Ltmp107-.Lfunc_begin9         #     jumps to .Ltmp107
	.byte	0                               #   On action: cleanup
	.uleb128 .Ltmp106-.Lfunc_begin9         # >> Call Site 7 <<
	.uleb128 .Lfunc_end9-.Ltmp106           #   Call between .Ltmp106 and .Lfunc_end9
	.byte	0                               #     has no landing pad
	.byte	0                               #   On action: cleanup
.Lcst_end9:
	.p2align	2, 0x0
                                        # -- End function
	.section	.text._Z42autovec_early_exit_taken_first_single_loadIjEvRN9benchmark5StateE,"axG",@progbits,_Z42autovec_early_exit_taken_first_single_loadIjEvRN9benchmark5StateE,comdat
	.weak	_Z42autovec_early_exit_taken_first_single_loadIjEvRN9benchmark5StateE # -- Begin function _Z42autovec_early_exit_taken_first_single_loadIjEvRN9benchmark5StateE
	.p2align	2
	.prefalign	5, .Lfunc_end10, nop
	.type	_Z42autovec_early_exit_taken_first_single_loadIjEvRN9benchmark5StateE,@function
_Z42autovec_early_exit_taken_first_single_loadIjEvRN9benchmark5StateE: # @_Z42autovec_early_exit_taken_first_single_loadIjEvRN9benchmark5StateE
.Lfunc_begin10:
	.cfi_startproc
	.cfi_personality 155, DW.ref.__gxx_personality_v0
	.cfi_lsda 27, .Lexception10
# %bb.0:
	addi.d	$sp, $sp, -144
	.cfi_def_cfa_offset 144
	st.d	$ra, $sp, 136                   # 8-byte Folded Spill
	st.d	$fp, $sp, 128                   # 8-byte Folded Spill
	st.d	$s0, $sp, 120                   # 8-byte Folded Spill
	st.d	$s1, $sp, 112                   # 8-byte Folded Spill
	st.d	$s2, $sp, 104                   # 8-byte Folded Spill
	st.d	$s3, $sp, 96                    # 8-byte Folded Spill
	st.d	$s4, $sp, 88                    # 8-byte Folded Spill
	st.d	$s5, $sp, 80                    # 8-byte Folded Spill
	.cfi_offset 1, -8
	.cfi_offset 22, -16
	.cfi_offset 23, -24
	.cfi_offset 24, -32
	.cfi_offset 25, -40
	.cfi_offset 26, -48
	.cfi_offset 27, -56
	.cfi_offset 28, -64
	move	$fp, $a0
	pcalau12i	$a0, %pc_hi20(_ZL29singleEarlyExitWithSingleLoadIjEmPT_S1_S1_i)
	addi.d	$a0, $a0, %pc_lo12(_ZL29singleEarlyExitWithSingleLoadIjEmPT_S1_S1_i)
	ld.d	$a1, $fp, 32
	ld.d	$s4, $a1, 0
	st.d	$a0, $sp, 72
	st.d	$s4, $sp, 64
	srli.d	$a0, $s4, 62
	sltu	$a0, $zero, $a0
	slli.d	$s5, $s4, 2
	masknez	$a1, $s5, $a0
	addi.w	$a2, $zero, -1
	maskeqz	$a0, $a2, $a0
	or	$s3, $a0, $a1
	move	$a0, $s3
	pcaddu18i	$ra, %call36(_Znam)
	jirl	$ra, $ra, 0
	move	$s0, $a0
	st.d	$a0, $sp, 56
.Ltmp108:                               # EH_LABEL
	move	$a0, $s3
	pcaddu18i	$ra, %call36(_Znam)
	jirl	$ra, $ra, 0
.Ltmp109:                               # EH_LABEL
# %bb.1:
	move	$s2, $a0
	move	$s1, $a0
	st.d	$s2, $sp, 48
.Ltmp111:                               # EH_LABEL
	move	$a0, $s3
	pcaddu18i	$ra, %call36(_Znam)
	jirl	$ra, $ra, 0
.Ltmp112:                               # EH_LABEL
# %bb.2:
	slli.d	$a2, $s4, 32
	st.d	$a0, $sp, 40
	beqz	$a2, .LBB10_39
# %bb.3:                                # %iter.check
	move	$a1, $a0
	bstrpick.d	$a5, $s5, 33, 2
	slli.d	$a2, $a5, 2
	addi.d	$a4, $a2, -4
	srli.d	$a3, $a4, 2
	ori	$a7, $zero, 12
	addi.d	$a3, $a3, 1
	move	$a6, $s0
	bltu	$a4, $a7, .LBB10_13
# %bb.4:                                # %vector.main.loop.iter.check
	ori	$a6, $zero, 60
	bgeu	$a4, $a6, .LBB10_6
# %bb.5:
	move	$a7, $zero
	b	.LBB10_10
.LBB10_6:                               # %vector.ph
	andi	$t0, $a3, 12
	bstrpick.d	$a6, $a3, 62, 4
	slli.d	$a7, $a6, 4
	slli.d	$a6, $a6, 6
	add.d	$a6, $s0, $a6
	addi.d	$t1, $s0, 32
	xvrepli.w	$xr0, 1
	move	$t2, $a7
	.p2align	4, , 16
.LBB10_7:                               # %vector.body
                                        # =>This Inner Loop Header: Depth=1
	xvst	$xr0, $t1, -32
	xvst	$xr0, $t1, 0
	addi.d	$t2, $t2, -16
	addi.d	$t1, $t1, 64
	bnez	$t2, .LBB10_7
# %bb.8:                                # %middle.block
	beq	$a3, $a7, .LBB10_15
# %bb.9:                                # %vec.epilog.iter.check
	beqz	$t0, .LBB10_13
.LBB10_10:                              # %vec.epilog.ph
	bstrpick.d	$a6, $a3, 62, 2
	slli.d	$t0, $a6, 2
	alsl.d	$a6, $a6, $s0, 4
	alsl.d	$t1, $a7, $s0, 2
	sub.d	$a7, $a7, $t0
	vrepli.w	$vr0, 1
	.p2align	4, , 16
.LBB10_11:                              # %vec.epilog.vector.body
                                        # =>This Inner Loop Header: Depth=1
	vst	$vr0, $t1, 0
	addi.d	$a7, $a7, 4
	addi.d	$t1, $t1, 16
	bnez	$a7, .LBB10_11
# %bb.12:                               # %vec.epilog.middle.block
	beq	$a3, $t0, .LBB10_15
.LBB10_13:                              # %.lr.ph.i.i.i.i.i.preheader
	alsl.d	$a5, $a5, $s0, 2
	ori	$a7, $zero, 1
	.p2align	4, , 16
.LBB10_14:                              # %.lr.ph.i.i.i.i.i
                                        # =>This Inner Loop Header: Depth=1
	st.w	$a7, $a6, 0
	addi.d	$a6, $a6, 4
	bne	$a6, $a5, .LBB10_14
.LBB10_15:                              # %iter.check73
	ori	$a5, $zero, 12
	bltu	$a4, $a5, .LBB10_25
# %bb.16:                               # %vector.main.loop.iter.check60
	ori	$a5, $zero, 60
	bgeu	$a4, $a5, .LBB10_18
# %bb.17:
	move	$a5, $zero
	b	.LBB10_22
.LBB10_18:                              # %vector.ph62
	andi	$a6, $a3, 12
	bstrpick.d	$a7, $a3, 62, 4
	slli.d	$a5, $a7, 4
	slli.d	$a7, $a7, 6
	add.d	$s1, $s2, $a7
	addi.d	$a7, $s2, 32
	xvrepli.w	$xr0, 1
	move	$t0, $a5
	.p2align	4, , 16
.LBB10_19:                              # %vector.body65
                                        # =>This Inner Loop Header: Depth=1
	xvst	$xr0, $a7, -32
	xvst	$xr0, $a7, 0
	addi.d	$t0, $t0, -16
	addi.d	$a7, $a7, 64
	bnez	$t0, .LBB10_19
# %bb.20:                               # %middle.block70
	beq	$a3, $a5, .LBB10_27
# %bb.21:                               # %vec.epilog.iter.check75
	beqz	$a6, .LBB10_25
.LBB10_22:                              # %vec.epilog.ph77
	bstrpick.d	$a7, $a3, 62, 2
	slli.d	$a6, $a7, 2
	alsl.d	$s1, $a7, $s2, 4
	alsl.d	$a7, $a5, $s2, 2
	sub.d	$a5, $a5, $a6
	vrepli.w	$vr0, 1
	.p2align	4, , 16
.LBB10_23:                              # %vec.epilog.vector.body80
                                        # =>This Inner Loop Header: Depth=1
	vst	$vr0, $a7, 0
	addi.d	$a5, $a5, 4
	addi.d	$a7, $a7, 16
	bnez	$a5, .LBB10_23
# %bb.24:                               # %vec.epilog.middle.block84
	beq	$a3, $a6, .LBB10_27
.LBB10_25:                              # %.lr.ph.i.i.i.i.i4.preheader
	add.d	$a5, $s2, $a2
	ori	$a6, $zero, 1
	.p2align	4, , 16
.LBB10_26:                              # %.lr.ph.i.i.i.i.i4
                                        # =>This Inner Loop Header: Depth=1
	st.w	$a6, $s1, 0
	addi.d	$s1, $s1, 4
	bne	$s1, $a5, .LBB10_26
.LBB10_27:                              # %iter.check101
	ori	$a5, $zero, 12
	bltu	$a4, $a5, .LBB10_37
# %bb.28:                               # %vector.main.loop.iter.check88
	ori	$a1, $zero, 60
	bgeu	$a4, $a1, .LBB10_30
# %bb.29:
	move	$a4, $zero
	b	.LBB10_34
.LBB10_30:                              # %vector.ph90
	andi	$a5, $a3, 12
	bstrpick.d	$a1, $a3, 62, 4
	slli.d	$a4, $a1, 4
	slli.d	$a1, $a1, 6
	add.d	$a1, $a0, $a1
	addi.d	$a6, $a0, 32
	xvrepli.w	$xr0, 1
	move	$a7, $a4
	.p2align	4, , 16
.LBB10_31:                              # %vector.body93
                                        # =>This Inner Loop Header: Depth=1
	xvst	$xr0, $a6, -32
	xvst	$xr0, $a6, 0
	addi.d	$a7, $a7, -16
	addi.d	$a6, $a6, 64
	bnez	$a7, .LBB10_31
# %bb.32:                               # %middle.block98
	beq	$a3, $a4, .LBB10_39
# %bb.33:                               # %vec.epilog.iter.check103
	beqz	$a5, .LBB10_37
.LBB10_34:                              # %vec.epilog.ph105
	bstrpick.d	$a1, $a3, 62, 2
	slli.d	$a5, $a1, 2
	alsl.d	$a1, $a1, $a0, 4
	alsl.d	$a6, $a4, $a0, 2
	sub.d	$a4, $a4, $a5
	vrepli.w	$vr0, 1
	.p2align	4, , 16
.LBB10_35:                              # %vec.epilog.vector.body108
                                        # =>This Inner Loop Header: Depth=1
	vst	$vr0, $a6, 0
	addi.d	$a4, $a4, 4
	addi.d	$a6, $a6, 16
	bnez	$a4, .LBB10_35
# %bb.36:                               # %vec.epilog.middle.block112
	beq	$a3, $a5, .LBB10_39
.LBB10_37:                              # %.lr.ph.i.i.i.i.i9.preheader
	add.d	$a0, $a0, $a2
	ori	$a2, $zero, 1
	.p2align	4, , 16
.LBB10_38:                              # %.lr.ph.i.i.i.i.i9
                                        # =>This Inner Loop Header: Depth=1
	st.w	$a2, $a1, 0
	addi.d	$a1, $a1, 4
	bne	$a1, $a0, .LBB10_38
.LBB10_39:                              # %_ZL9init_dataIjEvRKSt10unique_ptrIA_T_St14default_deleteIS2_EEj.exit12
	ld.w	$s2, $fp, 28
	ld.d	$s1, $fp, 16
	st.w	$zero, $s0, 0
	st.d	$zero, $sp, 32
.Ltmp114:                               # EH_LABEL
	move	$a0, $fp
	pcaddu18i	$ra, %call36(_ZN9benchmark5State16StartKeepRunningEv)
	jirl	$ra, $ra, 0
.Ltmp115:                               # EH_LABEL
# %bb.40:                               # %_ZN9benchmark5State3endEv.exit.i.preheader
	bnez	$s2, .LBB10_45
# %bb.41:                               # %_ZN9benchmark5State3endEv.exit.i.preheader
	beqz	$s1, .LBB10_45
# %bb.42:
	addi.d	$s0, $sp, 56
	addi.d	$s2, $sp, 48
	addi.d	$s3, $sp, 40
	addi.d	$s4, $sp, 32
	.p2align	4, , 16
.LBB10_43:                              # %.lr.ph
                                        # =>This Inner Loop Header: Depth=1
	#APP
	#NO_APP
	#APP
	#NO_APP
	#APP
	#NO_APP
	#APP
	#NO_APP
	#MEMBARRIER
	ld.d	$a0, $sp, 56
	ld.d	$a1, $sp, 48
	ld.d	$a2, $sp, 40
	st.d	$a0, $sp, 24
	st.d	$a1, $sp, 16
	st.d	$a2, $sp, 8
.Ltmp116:                               # EH_LABEL
	addi.d	$a0, $sp, 72
	addi.d	$a1, $sp, 24
	addi.d	$a2, $sp, 16
	addi.d	$a3, $sp, 8
	addi.d	$a4, $sp, 64
	pcaddu18i	$ra, %call36(_ZL18callThroughOptnoneIRPFmPjS0_S0_iEJS0_S0_S0_RlEEmOT_DpOT0_)
	jirl	$ra, $ra, 0
.Ltmp117:                               # EH_LABEL
# %bb.44:                               # %_ZN9benchmark5State3endEv.exit.i
                                        #   in Loop: Header=BB10_43 Depth=1
	ld.d	$a1, $sp, 32
	add.d	$a0, $a1, $a0
	addi.d	$s1, $s1, -1
	st.d	$a0, $sp, 32
	bnez	$s1, .LBB10_43
.LBB10_45:                              # %_ZN9benchmark5State3endEv.exit.i._crit_edge
.Ltmp119:                               # EH_LABEL
	move	$a0, $fp
	pcaddu18i	$ra, %call36(_ZN9benchmark5State17FinishKeepRunningEv)
	jirl	$ra, $ra, 0
.Ltmp120:                               # EH_LABEL
# %bb.46:                               # %_ZL21runEarlyExitBenchmarkIjEvRN9benchmark5StateEPFmPT_S4_S4_iE17EarlyExitPosition.exit
	ld.d	$a0, $sp, 40
	beqz	$a0, .LBB10_48
# %bb.47:                               # %_ZNKSt14default_deleteIA_jEclIjEENSt9enable_ifIXsr14is_convertibleIPA_T_PS0_EE5valueEvE4typeEPS4_.exit.i20
	pcaddu18i	$ra, %call36(_ZdaPv)
	jirl	$ra, $ra, 0
.LBB10_48:                              # %_ZNSt10unique_ptrIA_jSt14default_deleteIS0_EED2Ev.exit21
	ld.d	$a0, $sp, 48
	beqz	$a0, .LBB10_50
# %bb.49:                               # %_ZNKSt14default_deleteIA_jEclIjEENSt9enable_ifIXsr14is_convertibleIPA_T_PS0_EE5valueEvE4typeEPS4_.exit.i23
	pcaddu18i	$ra, %call36(_ZdaPv)
	jirl	$ra, $ra, 0
.LBB10_50:                              # %_ZNSt10unique_ptrIA_jSt14default_deleteIS0_EED2Ev.exit24
	ld.d	$a0, $sp, 56
	beqz	$a0, .LBB10_52
# %bb.51:                               # %_ZNKSt14default_deleteIA_jEclIjEENSt9enable_ifIXsr14is_convertibleIPA_T_PS0_EE5valueEvE4typeEPS4_.exit.i26
	pcaddu18i	$ra, %call36(_ZdaPv)
	jirl	$ra, $ra, 0
.LBB10_52:                              # %_ZNSt10unique_ptrIA_jSt14default_deleteIS0_EED2Ev.exit27
	ld.d	$s5, $sp, 80                    # 8-byte Folded Reload
	ld.d	$s4, $sp, 88                    # 8-byte Folded Reload
	ld.d	$s3, $sp, 96                    # 8-byte Folded Reload
	ld.d	$s2, $sp, 104                   # 8-byte Folded Reload
	ld.d	$s1, $sp, 112                   # 8-byte Folded Reload
	ld.d	$s0, $sp, 120                   # 8-byte Folded Reload
	ld.d	$fp, $sp, 128                   # 8-byte Folded Reload
	ld.d	$ra, $sp, 136                   # 8-byte Folded Reload
	addi.d	$sp, $sp, 144
	ret
.LBB10_53:                              # %_ZNSt10unique_ptrIA_jSt14default_deleteIS0_EED2Ev.exit.thread
.Ltmp113:                               # EH_LABEL
	move	$fp, $a0
	b	.LBB10_62
.LBB10_54:                              # %_ZNSt10unique_ptrIA_jSt14default_deleteIS0_EED2Ev.exit15.thread
.Ltmp110:                               # EH_LABEL
	move	$fp, $a0
	move	$a0, $s0
	pcaddu18i	$ra, %call36(_ZdaPv)
	jirl	$ra, $ra, 0
	move	$a0, $fp
	pcaddu18i	$ra, %call36(_Unwind_Resume)
	jirl	$ra, $ra, 0
.LBB10_55:
.Ltmp121:                               # EH_LABEL
	b	.LBB10_57
.LBB10_56:
.Ltmp118:                               # EH_LABEL
.LBB10_57:
	move	$fp, $a0
	ld.d	$a0, $sp, 40
	bnez	$a0, .LBB10_61
# %bb.58:                               # %_ZNSt10unique_ptrIA_jSt14default_deleteIS0_EED2Ev.exit
	ld.d	$s1, $sp, 48
	bnez	$s1, .LBB10_62
.LBB10_59:                              # %_ZNSt10unique_ptrIA_jSt14default_deleteIS0_EED2Ev.exit15
	ld.d	$s0, $sp, 56
	bnez	$s0, .LBB10_63
.LBB10_60:                              # %_ZNSt10unique_ptrIA_jSt14default_deleteIS0_EED2Ev.exit18
	move	$a0, $fp
	pcaddu18i	$ra, %call36(_Unwind_Resume)
	jirl	$ra, $ra, 0
.LBB10_61:                              # %_ZNKSt14default_deleteIA_jEclIjEENSt9enable_ifIXsr14is_convertibleIPA_T_PS0_EE5valueEvE4typeEPS4_.exit.i
	pcaddu18i	$ra, %call36(_ZdaPv)
	jirl	$ra, $ra, 0
	ld.d	$s1, $sp, 48
	beqz	$s1, .LBB10_59
.LBB10_62:                              # %_ZNKSt14default_deleteIA_jEclIjEENSt9enable_ifIXsr14is_convertibleIPA_T_PS0_EE5valueEvE4typeEPS4_.exit.i14
	move	$a0, $s1
	pcaddu18i	$ra, %call36(_ZdaPv)
	jirl	$ra, $ra, 0
	ld.d	$s0, $sp, 56
	beqz	$s0, .LBB10_60
.LBB10_63:                              # %_ZNKSt14default_deleteIA_jEclIjEENSt9enable_ifIXsr14is_convertibleIPA_T_PS0_EE5valueEvE4typeEPS4_.exit.i17
	move	$a0, $s0
	pcaddu18i	$ra, %call36(_ZdaPv)
	jirl	$ra, $ra, 0
	move	$a0, $fp
	pcaddu18i	$ra, %call36(_Unwind_Resume)
	jirl	$ra, $ra, 0
.Lfunc_end10:
	.size	_Z42autovec_early_exit_taken_first_single_loadIjEvRN9benchmark5StateE, .Lfunc_end10-_Z42autovec_early_exit_taken_first_single_loadIjEvRN9benchmark5StateE
	.cfi_endproc
	.section	.gcc_except_table._Z42autovec_early_exit_taken_first_single_loadIjEvRN9benchmark5StateE,"aG",@progbits,_Z42autovec_early_exit_taken_first_single_loadIjEvRN9benchmark5StateE,comdat
	.p2align	2, 0x0
GCC_except_table10:
.Lexception10:
	.byte	255                             # @LPStart Encoding = omit
	.byte	255                             # @TType Encoding = omit
	.byte	1                               # Call site Encoding = uleb128
	.uleb128 .Lcst_end10-.Lcst_begin10
.Lcst_begin10:
	.uleb128 .Lfunc_begin10-.Lfunc_begin10  # >> Call Site 1 <<
	.uleb128 .Ltmp108-.Lfunc_begin10        #   Call between .Lfunc_begin10 and .Ltmp108
	.byte	0                               #     has no landing pad
	.byte	0                               #   On action: cleanup
	.uleb128 .Ltmp108-.Lfunc_begin10        # >> Call Site 2 <<
	.uleb128 .Ltmp109-.Ltmp108              #   Call between .Ltmp108 and .Ltmp109
	.uleb128 .Ltmp110-.Lfunc_begin10        #     jumps to .Ltmp110
	.byte	0                               #   On action: cleanup
	.uleb128 .Ltmp111-.Lfunc_begin10        # >> Call Site 3 <<
	.uleb128 .Ltmp112-.Ltmp111              #   Call between .Ltmp111 and .Ltmp112
	.uleb128 .Ltmp113-.Lfunc_begin10        #     jumps to .Ltmp113
	.byte	0                               #   On action: cleanup
	.uleb128 .Ltmp114-.Lfunc_begin10        # >> Call Site 4 <<
	.uleb128 .Ltmp115-.Ltmp114              #   Call between .Ltmp114 and .Ltmp115
	.uleb128 .Ltmp121-.Lfunc_begin10        #     jumps to .Ltmp121
	.byte	0                               #   On action: cleanup
	.uleb128 .Ltmp116-.Lfunc_begin10        # >> Call Site 5 <<
	.uleb128 .Ltmp117-.Ltmp116              #   Call between .Ltmp116 and .Ltmp117
	.uleb128 .Ltmp118-.Lfunc_begin10        #     jumps to .Ltmp118
	.byte	0                               #   On action: cleanup
	.uleb128 .Ltmp119-.Lfunc_begin10        # >> Call Site 6 <<
	.uleb128 .Ltmp120-.Ltmp119              #   Call between .Ltmp119 and .Ltmp120
	.uleb128 .Ltmp121-.Lfunc_begin10        #     jumps to .Ltmp121
	.byte	0                               #   On action: cleanup
	.uleb128 .Ltmp120-.Lfunc_begin10        # >> Call Site 7 <<
	.uleb128 .Lfunc_end10-.Ltmp120          #   Call between .Ltmp120 and .Lfunc_end10
	.byte	0                               #     has no landing pad
	.byte	0                               #   On action: cleanup
.Lcst_end10:
	.p2align	2, 0x0
                                        # -- End function
	.section	.text._Z42autovec_early_exit_taken_first_single_loadImEvRN9benchmark5StateE,"axG",@progbits,_Z42autovec_early_exit_taken_first_single_loadImEvRN9benchmark5StateE,comdat
	.weak	_Z42autovec_early_exit_taken_first_single_loadImEvRN9benchmark5StateE # -- Begin function _Z42autovec_early_exit_taken_first_single_loadImEvRN9benchmark5StateE
	.p2align	2
	.prefalign	5, .Lfunc_end11, nop
	.type	_Z42autovec_early_exit_taken_first_single_loadImEvRN9benchmark5StateE,@function
_Z42autovec_early_exit_taken_first_single_loadImEvRN9benchmark5StateE: # @_Z42autovec_early_exit_taken_first_single_loadImEvRN9benchmark5StateE
.Lfunc_begin11:
	.cfi_startproc
	.cfi_personality 155, DW.ref.__gxx_personality_v0
	.cfi_lsda 27, .Lexception11
# %bb.0:
	addi.d	$sp, $sp, -144
	.cfi_def_cfa_offset 144
	st.d	$ra, $sp, 136                   # 8-byte Folded Spill
	st.d	$fp, $sp, 128                   # 8-byte Folded Spill
	st.d	$s0, $sp, 120                   # 8-byte Folded Spill
	st.d	$s1, $sp, 112                   # 8-byte Folded Spill
	st.d	$s2, $sp, 104                   # 8-byte Folded Spill
	st.d	$s3, $sp, 96                    # 8-byte Folded Spill
	st.d	$s4, $sp, 88                    # 8-byte Folded Spill
	st.d	$s5, $sp, 80                    # 8-byte Folded Spill
	.cfi_offset 1, -8
	.cfi_offset 22, -16
	.cfi_offset 23, -24
	.cfi_offset 24, -32
	.cfi_offset 25, -40
	.cfi_offset 26, -48
	.cfi_offset 27, -56
	.cfi_offset 28, -64
	move	$fp, $a0
	pcalau12i	$a0, %pc_hi20(_ZL29singleEarlyExitWithSingleLoadImEmPT_S1_S1_i)
	addi.d	$a0, $a0, %pc_lo12(_ZL29singleEarlyExitWithSingleLoadImEmPT_S1_S1_i)
	ld.d	$a1, $fp, 32
	ld.d	$s4, $a1, 0
	st.d	$a0, $sp, 72
	st.d	$s4, $sp, 64
	srli.d	$a0, $s4, 61
	sltu	$a0, $zero, $a0
	slli.d	$s5, $s4, 3
	masknez	$a1, $s5, $a0
	addi.w	$a2, $zero, -1
	maskeqz	$a0, $a2, $a0
	or	$s3, $a0, $a1
	move	$a0, $s3
	pcaddu18i	$ra, %call36(_Znam)
	jirl	$ra, $ra, 0
	move	$s0, $a0
	st.d	$a0, $sp, 56
.Ltmp122:                               # EH_LABEL
	move	$a0, $s3
	pcaddu18i	$ra, %call36(_Znam)
	jirl	$ra, $ra, 0
.Ltmp123:                               # EH_LABEL
# %bb.1:
	move	$s2, $a0
	move	$s1, $a0
	st.d	$s2, $sp, 48
.Ltmp125:                               # EH_LABEL
	move	$a0, $s3
	pcaddu18i	$ra, %call36(_Znam)
	jirl	$ra, $ra, 0
.Ltmp126:                               # EH_LABEL
# %bb.2:
	slli.d	$a2, $s4, 32
	st.d	$a0, $sp, 40
	beqz	$a2, .LBB11_21
# %bb.3:
	move	$a1, $a0
	bstrpick.d	$a5, $s5, 34, 3
	slli.d	$a2, $a5, 3
	addi.d	$a4, $a2, -8
	srli.d	$a3, $a4, 3
	addi.d	$a3, $a3, 1
	ori	$a7, $zero, 56
	xvrepli.d	$xr0, 1
	move	$a6, $s0
	bltu	$a4, $a7, .LBB11_7
# %bb.4:                                # %vector.ph
	bstrpick.d	$a6, $a3, 61, 3
	slli.d	$a7, $a6, 3
	slli.d	$a6, $a6, 6
	add.d	$a6, $s0, $a6
	addi.d	$t0, $s0, 32
	move	$t1, $a7
	.p2align	4, , 16
.LBB11_5:                               # %vector.body
                                        # =>This Inner Loop Header: Depth=1
	xvst	$xr0, $t0, -32
	xvst	$xr0, $t0, 0
	addi.d	$t1, $t1, -8
	addi.d	$t0, $t0, 64
	bnez	$t1, .LBB11_5
# %bb.6:                                # %middle.block
	beq	$a3, $a7, .LBB11_9
.LBB11_7:                               # %.lr.ph.i.i.i.i.i.preheader
	alsl.d	$a5, $a5, $s0, 3
	ori	$a7, $zero, 1
	.p2align	4, , 16
.LBB11_8:                               # %.lr.ph.i.i.i.i.i
                                        # =>This Inner Loop Header: Depth=1
	st.d	$a7, $a6, 0
	addi.d	$a6, $a6, 8
	bne	$a6, $a5, .LBB11_8
.LBB11_9:                               # %_ZL9init_dataImEvRKSt10unique_ptrIA_T_St14default_deleteIS2_EEj.exit
	ori	$a5, $zero, 56
	bltu	$a4, $a5, .LBB11_13
# %bb.10:                               # %vector.ph53
	bstrpick.d	$a6, $a3, 61, 3
	slli.d	$a5, $a6, 3
	slli.d	$a6, $a6, 6
	add.d	$s1, $s2, $a6
	addi.d	$a6, $s2, 32
	move	$a7, $a5
	.p2align	4, , 16
.LBB11_11:                              # %vector.body56
                                        # =>This Inner Loop Header: Depth=1
	xvst	$xr0, $a6, -32
	xvst	$xr0, $a6, 0
	addi.d	$a7, $a7, -8
	addi.d	$a6, $a6, 64
	bnez	$a7, .LBB11_11
# %bb.12:                               # %middle.block61
	beq	$a3, $a5, .LBB11_15
.LBB11_13:                              # %.lr.ph.i.i.i.i.i4.preheader
	add.d	$a5, $s2, $a2
	ori	$a6, $zero, 1
	.p2align	4, , 16
.LBB11_14:                              # %.lr.ph.i.i.i.i.i4
                                        # =>This Inner Loop Header: Depth=1
	st.d	$a6, $s1, 0
	addi.d	$s1, $s1, 8
	bne	$s1, $a5, .LBB11_14
.LBB11_15:                              # %_ZL9init_dataImEvRKSt10unique_ptrIA_T_St14default_deleteIS2_EEj.exit7
	ori	$a5, $zero, 56
	bltu	$a4, $a5, .LBB11_19
# %bb.16:                               # %vector.ph66
	bstrpick.d	$a1, $a3, 61, 3
	slli.d	$a4, $a1, 3
	slli.d	$a1, $a1, 6
	add.d	$a1, $a0, $a1
	addi.d	$a5, $a0, 32
	move	$a6, $a4
	.p2align	4, , 16
.LBB11_17:                              # %vector.body69
                                        # =>This Inner Loop Header: Depth=1
	xvst	$xr0, $a5, -32
	xvst	$xr0, $a5, 0
	addi.d	$a6, $a6, -8
	addi.d	$a5, $a5, 64
	bnez	$a6, .LBB11_17
# %bb.18:                               # %middle.block74
	beq	$a3, $a4, .LBB11_21
.LBB11_19:                              # %.lr.ph.i.i.i.i.i9.preheader
	add.d	$a0, $a0, $a2
	ori	$a2, $zero, 1
	.p2align	4, , 16
.LBB11_20:                              # %.lr.ph.i.i.i.i.i9
                                        # =>This Inner Loop Header: Depth=1
	st.d	$a2, $a1, 0
	addi.d	$a1, $a1, 8
	bne	$a1, $a0, .LBB11_20
.LBB11_21:                              # %_ZL9init_dataImEvRKSt10unique_ptrIA_T_St14default_deleteIS2_EEj.exit12
	ld.w	$s2, $fp, 28
	ld.d	$s1, $fp, 16
	st.d	$zero, $s0, 0
	st.d	$zero, $sp, 32
.Ltmp128:                               # EH_LABEL
	move	$a0, $fp
	pcaddu18i	$ra, %call36(_ZN9benchmark5State16StartKeepRunningEv)
	jirl	$ra, $ra, 0
.Ltmp129:                               # EH_LABEL
# %bb.22:                               # %_ZN9benchmark5State3endEv.exit.i.preheader
	bnez	$s2, .LBB11_27
# %bb.23:                               # %_ZN9benchmark5State3endEv.exit.i.preheader
	beqz	$s1, .LBB11_27
# %bb.24:
	addi.d	$s0, $sp, 56
	addi.d	$s2, $sp, 48
	addi.d	$s3, $sp, 40
	addi.d	$s4, $sp, 32
	.p2align	4, , 16
.LBB11_25:                              # %.lr.ph
                                        # =>This Inner Loop Header: Depth=1
	#APP
	#NO_APP
	#APP
	#NO_APP
	#APP
	#NO_APP
	#APP
	#NO_APP
	#MEMBARRIER
	ld.d	$a0, $sp, 56
	ld.d	$a1, $sp, 48
	ld.d	$a2, $sp, 40
	st.d	$a0, $sp, 24
	st.d	$a1, $sp, 16
	st.d	$a2, $sp, 8
.Ltmp130:                               # EH_LABEL
	addi.d	$a0, $sp, 72
	addi.d	$a1, $sp, 24
	addi.d	$a2, $sp, 16
	addi.d	$a3, $sp, 8
	addi.d	$a4, $sp, 64
	pcaddu18i	$ra, %call36(_ZL18callThroughOptnoneIRPFmPmS0_S0_iEJS0_S0_S0_RlEEmOT_DpOT0_)
	jirl	$ra, $ra, 0
.Ltmp131:                               # EH_LABEL
# %bb.26:                               # %_ZN9benchmark5State3endEv.exit.i
                                        #   in Loop: Header=BB11_25 Depth=1
	ld.d	$a1, $sp, 32
	add.d	$a0, $a1, $a0
	addi.d	$s1, $s1, -1
	st.d	$a0, $sp, 32
	bnez	$s1, .LBB11_25
.LBB11_27:                              # %_ZN9benchmark5State3endEv.exit.i._crit_edge
.Ltmp133:                               # EH_LABEL
	move	$a0, $fp
	pcaddu18i	$ra, %call36(_ZN9benchmark5State17FinishKeepRunningEv)
	jirl	$ra, $ra, 0
.Ltmp134:                               # EH_LABEL
# %bb.28:                               # %_ZL21runEarlyExitBenchmarkImEvRN9benchmark5StateEPFmPT_S4_S4_iE17EarlyExitPosition.exit
	ld.d	$a0, $sp, 40
	beqz	$a0, .LBB11_30
# %bb.29:                               # %_ZNKSt14default_deleteIA_mEclImEENSt9enable_ifIXsr14is_convertibleIPA_T_PS0_EE5valueEvE4typeEPS4_.exit.i20
	pcaddu18i	$ra, %call36(_ZdaPv)
	jirl	$ra, $ra, 0
.LBB11_30:                              # %_ZNSt10unique_ptrIA_mSt14default_deleteIS0_EED2Ev.exit21
	ld.d	$a0, $sp, 48
	beqz	$a0, .LBB11_32
# %bb.31:                               # %_ZNKSt14default_deleteIA_mEclImEENSt9enable_ifIXsr14is_convertibleIPA_T_PS0_EE5valueEvE4typeEPS4_.exit.i23
	pcaddu18i	$ra, %call36(_ZdaPv)
	jirl	$ra, $ra, 0
.LBB11_32:                              # %_ZNSt10unique_ptrIA_mSt14default_deleteIS0_EED2Ev.exit24
	ld.d	$a0, $sp, 56
	beqz	$a0, .LBB11_34
# %bb.33:                               # %_ZNKSt14default_deleteIA_mEclImEENSt9enable_ifIXsr14is_convertibleIPA_T_PS0_EE5valueEvE4typeEPS4_.exit.i26
	pcaddu18i	$ra, %call36(_ZdaPv)
	jirl	$ra, $ra, 0
.LBB11_34:                              # %_ZNSt10unique_ptrIA_mSt14default_deleteIS0_EED2Ev.exit27
	ld.d	$s5, $sp, 80                    # 8-byte Folded Reload
	ld.d	$s4, $sp, 88                    # 8-byte Folded Reload
	ld.d	$s3, $sp, 96                    # 8-byte Folded Reload
	ld.d	$s2, $sp, 104                   # 8-byte Folded Reload
	ld.d	$s1, $sp, 112                   # 8-byte Folded Reload
	ld.d	$s0, $sp, 120                   # 8-byte Folded Reload
	ld.d	$fp, $sp, 128                   # 8-byte Folded Reload
	ld.d	$ra, $sp, 136                   # 8-byte Folded Reload
	addi.d	$sp, $sp, 144
	ret
.LBB11_35:                              # %_ZNSt10unique_ptrIA_mSt14default_deleteIS0_EED2Ev.exit.thread
.Ltmp127:                               # EH_LABEL
	move	$fp, $a0
	b	.LBB11_44
.LBB11_36:                              # %_ZNSt10unique_ptrIA_mSt14default_deleteIS0_EED2Ev.exit15.thread
.Ltmp124:                               # EH_LABEL
	move	$fp, $a0
	move	$a0, $s0
	pcaddu18i	$ra, %call36(_ZdaPv)
	jirl	$ra, $ra, 0
	move	$a0, $fp
	pcaddu18i	$ra, %call36(_Unwind_Resume)
	jirl	$ra, $ra, 0
.LBB11_37:
.Ltmp135:                               # EH_LABEL
	b	.LBB11_39
.LBB11_38:
.Ltmp132:                               # EH_LABEL
.LBB11_39:
	move	$fp, $a0
	ld.d	$a0, $sp, 40
	bnez	$a0, .LBB11_43
# %bb.40:                               # %_ZNSt10unique_ptrIA_mSt14default_deleteIS0_EED2Ev.exit
	ld.d	$s1, $sp, 48
	bnez	$s1, .LBB11_44
.LBB11_41:                              # %_ZNSt10unique_ptrIA_mSt14default_deleteIS0_EED2Ev.exit15
	ld.d	$s0, $sp, 56
	bnez	$s0, .LBB11_45
.LBB11_42:                              # %_ZNSt10unique_ptrIA_mSt14default_deleteIS0_EED2Ev.exit18
	move	$a0, $fp
	pcaddu18i	$ra, %call36(_Unwind_Resume)
	jirl	$ra, $ra, 0
.LBB11_43:                              # %_ZNKSt14default_deleteIA_mEclImEENSt9enable_ifIXsr14is_convertibleIPA_T_PS0_EE5valueEvE4typeEPS4_.exit.i
	pcaddu18i	$ra, %call36(_ZdaPv)
	jirl	$ra, $ra, 0
	ld.d	$s1, $sp, 48
	beqz	$s1, .LBB11_41
.LBB11_44:                              # %_ZNKSt14default_deleteIA_mEclImEENSt9enable_ifIXsr14is_convertibleIPA_T_PS0_EE5valueEvE4typeEPS4_.exit.i14
	move	$a0, $s1
	pcaddu18i	$ra, %call36(_ZdaPv)
	jirl	$ra, $ra, 0
	ld.d	$s0, $sp, 56
	beqz	$s0, .LBB11_42
.LBB11_45:                              # %_ZNKSt14default_deleteIA_mEclImEENSt9enable_ifIXsr14is_convertibleIPA_T_PS0_EE5valueEvE4typeEPS4_.exit.i17
	move	$a0, $s0
	pcaddu18i	$ra, %call36(_ZdaPv)
	jirl	$ra, $ra, 0
	move	$a0, $fp
	pcaddu18i	$ra, %call36(_Unwind_Resume)
	jirl	$ra, $ra, 0
.Lfunc_end11:
	.size	_Z42autovec_early_exit_taken_first_single_loadImEvRN9benchmark5StateE, .Lfunc_end11-_Z42autovec_early_exit_taken_first_single_loadImEvRN9benchmark5StateE
	.cfi_endproc
	.section	.gcc_except_table._Z42autovec_early_exit_taken_first_single_loadImEvRN9benchmark5StateE,"aG",@progbits,_Z42autovec_early_exit_taken_first_single_loadImEvRN9benchmark5StateE,comdat
	.p2align	2, 0x0
GCC_except_table11:
.Lexception11:
	.byte	255                             # @LPStart Encoding = omit
	.byte	255                             # @TType Encoding = omit
	.byte	1                               # Call site Encoding = uleb128
	.uleb128 .Lcst_end11-.Lcst_begin11
.Lcst_begin11:
	.uleb128 .Lfunc_begin11-.Lfunc_begin11  # >> Call Site 1 <<
	.uleb128 .Ltmp122-.Lfunc_begin11        #   Call between .Lfunc_begin11 and .Ltmp122
	.byte	0                               #     has no landing pad
	.byte	0                               #   On action: cleanup
	.uleb128 .Ltmp122-.Lfunc_begin11        # >> Call Site 2 <<
	.uleb128 .Ltmp123-.Ltmp122              #   Call between .Ltmp122 and .Ltmp123
	.uleb128 .Ltmp124-.Lfunc_begin11        #     jumps to .Ltmp124
	.byte	0                               #   On action: cleanup
	.uleb128 .Ltmp125-.Lfunc_begin11        # >> Call Site 3 <<
	.uleb128 .Ltmp126-.Ltmp125              #   Call between .Ltmp125 and .Ltmp126
	.uleb128 .Ltmp127-.Lfunc_begin11        #     jumps to .Ltmp127
	.byte	0                               #   On action: cleanup
	.uleb128 .Ltmp128-.Lfunc_begin11        # >> Call Site 4 <<
	.uleb128 .Ltmp129-.Ltmp128              #   Call between .Ltmp128 and .Ltmp129
	.uleb128 .Ltmp135-.Lfunc_begin11        #     jumps to .Ltmp135
	.byte	0                               #   On action: cleanup
	.uleb128 .Ltmp130-.Lfunc_begin11        # >> Call Site 5 <<
	.uleb128 .Ltmp131-.Ltmp130              #   Call between .Ltmp130 and .Ltmp131
	.uleb128 .Ltmp132-.Lfunc_begin11        #     jumps to .Ltmp132
	.byte	0                               #   On action: cleanup
	.uleb128 .Ltmp133-.Lfunc_begin11        # >> Call Site 6 <<
	.uleb128 .Ltmp134-.Ltmp133              #   Call between .Ltmp133 and .Ltmp134
	.uleb128 .Ltmp135-.Lfunc_begin11        #     jumps to .Ltmp135
	.byte	0                               #   On action: cleanup
	.uleb128 .Ltmp134-.Lfunc_begin11        # >> Call Site 7 <<
	.uleb128 .Lfunc_end11-.Ltmp134          #   Call between .Ltmp134 and .Lfunc_end11
	.byte	0                               #     has no landing pad
	.byte	0                               #   On action: cleanup
.Lcst_end11:
	.p2align	2, 0x0
                                        # -- End function
	.section	.text._ZSt11make_uniqueIN9benchmark8internal17FunctionBenchmarkEJRA50_KcPFvRNS0_5StateEEEENSt8__detail9_MakeUniqIT_E15__single_objectEDpOT0_,"axG",@progbits,_ZSt11make_uniqueIN9benchmark8internal17FunctionBenchmarkEJRA50_KcPFvRNS0_5StateEEEENSt8__detail9_MakeUniqIT_E15__single_objectEDpOT0_,comdat
	.weak	_ZSt11make_uniqueIN9benchmark8internal17FunctionBenchmarkEJRA50_KcPFvRNS0_5StateEEEENSt8__detail9_MakeUniqIT_E15__single_objectEDpOT0_ # -- Begin function _ZSt11make_uniqueIN9benchmark8internal17FunctionBenchmarkEJRA50_KcPFvRNS0_5StateEEEENSt8__detail9_MakeUniqIT_E15__single_objectEDpOT0_
	.p2align	2
	.prefalign	5, .Lfunc_end12, nop
	.type	_ZSt11make_uniqueIN9benchmark8internal17FunctionBenchmarkEJRA50_KcPFvRNS0_5StateEEEENSt8__detail9_MakeUniqIT_E15__single_objectEDpOT0_,@function
_ZSt11make_uniqueIN9benchmark8internal17FunctionBenchmarkEJRA50_KcPFvRNS0_5StateEEEENSt8__detail9_MakeUniqIT_E15__single_objectEDpOT0_: # @_ZSt11make_uniqueIN9benchmark8internal17FunctionBenchmarkEJRA50_KcPFvRNS0_5StateEEEENSt8__detail9_MakeUniqIT_E15__single_objectEDpOT0_
.Lfunc_begin12:
	.cfi_startproc
	.cfi_personality 155, DW.ref.__gxx_personality_v0
	.cfi_lsda 27, .Lexception12
# %bb.0:
	addi.d	$sp, $sp, -112
	.cfi_def_cfa_offset 112
	st.d	$ra, $sp, 104                   # 8-byte Folded Spill
	st.d	$fp, $sp, 96                    # 8-byte Folded Spill
	st.d	$s0, $sp, 88                    # 8-byte Folded Spill
	st.d	$s1, $sp, 80                    # 8-byte Folded Spill
	st.d	$s2, $sp, 72                    # 8-byte Folded Spill
	st.d	$s3, $sp, 64                    # 8-byte Folded Spill
	st.d	$s4, $sp, 56                    # 8-byte Folded Spill
	.cfi_offset 1, -8
	.cfi_offset 22, -16
	.cfi_offset 23, -24
	.cfi_offset 24, -32
	.cfi_offset 25, -40
	.cfi_offset 26, -48
	.cfi_offset 27, -56
	move	$s1, $a2
	move	$s2, $a1
	move	$s0, $a0
	ori	$a0, $zero, 312
	pcaddu18i	$ra, %call36(_Znwm)
	jirl	$ra, $ra, 0
	move	$fp, $a0
	addi.d	$s4, $sp, 32
	st.d	$s4, $sp, 16
	move	$a0, $s2
	pcaddu18i	$ra, %call36(strlen)
	jirl	$ra, $ra, 0
	move	$s3, $a0
	ori	$a1, $zero, 16
	st.d	$a0, $sp, 48
	move	$a0, $s4
	bltu	$s3, $a1, .LBB12_3
# %bb.1:                                # %.noexc.i
.Ltmp136:                               # EH_LABEL
	addi.d	$a0, $sp, 16
	addi.d	$a1, $sp, 48
	move	$a2, $zero
	pcaddu18i	$ra, %call36(_ZNSt7__cxx1112basic_stringIcSt11char_traitsIcESaIcEE9_M_createERmm)
	jirl	$ra, $ra, 0
.Ltmp137:                               # EH_LABEL
# %bb.2:                                # %.noexc
	ld.d	$a1, $sp, 48
	st.d	$a0, $sp, 16
	st.d	$a1, $sp, 32
.LBB12_3:                               # %._crit_edge.i.i
	beqz	$s3, .LBB12_7
# %bb.4:                                # %._crit_edge.i.i
	ori	$a1, $zero, 1
	bne	$s3, $a1, .LBB12_6
# %bb.5:
	ld.b	$a1, $s2, 0
	st.b	$a1, $a0, 0
	b	.LBB12_7
.LBB12_6:
	move	$a1, $s2
	move	$a2, $s3
	pcaddu18i	$ra, %call36(memcpy)
	jirl	$ra, $ra, 0
.LBB12_7:
	ld.d	$a0, $sp, 48
	ld.d	$a1, $sp, 16
	st.d	$a0, $sp, 24
	stx.b	$zero, $a1, $a0
	ld.d	$s1, $s1, 0
.Ltmp139:                               # EH_LABEL
	addi.d	$a1, $sp, 16
	move	$a0, $fp
	pcaddu18i	$ra, %call36(_ZN9benchmark9BenchmarkC2ERKNSt7__cxx1112basic_stringIcSt11char_traitsIcESaIcEEE)
	jirl	$ra, $ra, 0
.Ltmp140:                               # EH_LABEL
# %bb.8:
	pcalau12i	$a0, %got_pc_hi20(_ZTVN9benchmark8internal17FunctionBenchmarkE)
	ld.d	$a1, $a0, %got_pc_lo12(_ZTVN9benchmark8internal17FunctionBenchmarkE)
	ld.d	$a0, $sp, 16
	addi.d	$a1, $a1, 16
	st.d	$a1, $fp, 0
	st.d	$s1, $fp, 304
	st.d	$fp, $s0, 0
	beq	$a0, $s4, .LBB12_10
# %bb.9:                                # %_ZNKSt7__cxx1112basic_stringIcSt11char_traitsIcESaIcEE11_M_is_localEv.exit.i.i
	ld.d	$a1, $sp, 32
	addi.d	$a1, $a1, 1
	pcaddu18i	$ra, %call36(_ZdlPvm)
	jirl	$ra, $ra, 0
.LBB12_10:                              # %_ZNSt7__cxx1112basic_stringIcSt11char_traitsIcESaIcEED2Ev.exit
	ld.d	$s4, $sp, 56                    # 8-byte Folded Reload
	ld.d	$s3, $sp, 64                    # 8-byte Folded Reload
	ld.d	$s2, $sp, 72                    # 8-byte Folded Reload
	ld.d	$s1, $sp, 80                    # 8-byte Folded Reload
	ld.d	$s0, $sp, 88                    # 8-byte Folded Reload
	ld.d	$fp, $sp, 96                    # 8-byte Folded Reload
	ld.d	$ra, $sp, 104                   # 8-byte Folded Reload
	addi.d	$sp, $sp, 112
	ret
.LBB12_11:
.Ltmp138:                               # EH_LABEL
	move	$s0, $a0
	b	.LBB12_14
.LBB12_12:
.Ltmp141:                               # EH_LABEL
	ld.d	$a2, $sp, 16
	move	$s0, $a0
	beq	$a2, $s4, .LBB12_14
# %bb.13:                               # %_ZNKSt7__cxx1112basic_stringIcSt11char_traitsIcESaIcEE11_M_is_localEv.exit.i.i7
	ld.d	$a0, $sp, 32
	addi.d	$a1, $a0, 1
	move	$a0, $a2
	pcaddu18i	$ra, %call36(_ZdlPvm)
	jirl	$ra, $ra, 0
.LBB12_14:                              # %_ZNSt7__cxx1112basic_stringIcSt11char_traitsIcESaIcEED2Ev.exit9
	ori	$a1, $zero, 312
	move	$a0, $fp
	pcaddu18i	$ra, %call36(_ZdlPvm)
	jirl	$ra, $ra, 0
	move	$a0, $s0
	pcaddu18i	$ra, %call36(_Unwind_Resume)
	jirl	$ra, $ra, 0
.Lfunc_end12:
	.size	_ZSt11make_uniqueIN9benchmark8internal17FunctionBenchmarkEJRA50_KcPFvRNS0_5StateEEEENSt8__detail9_MakeUniqIT_E15__single_objectEDpOT0_, .Lfunc_end12-_ZSt11make_uniqueIN9benchmark8internal17FunctionBenchmarkEJRA50_KcPFvRNS0_5StateEEEENSt8__detail9_MakeUniqIT_E15__single_objectEDpOT0_
	.cfi_endproc
	.section	.gcc_except_table._ZSt11make_uniqueIN9benchmark8internal17FunctionBenchmarkEJRA50_KcPFvRNS0_5StateEEEENSt8__detail9_MakeUniqIT_E15__single_objectEDpOT0_,"aG",@progbits,_ZSt11make_uniqueIN9benchmark8internal17FunctionBenchmarkEJRA50_KcPFvRNS0_5StateEEEENSt8__detail9_MakeUniqIT_E15__single_objectEDpOT0_,comdat
	.p2align	2, 0x0
GCC_except_table12:
.Lexception12:
	.byte	255                             # @LPStart Encoding = omit
	.byte	255                             # @TType Encoding = omit
	.byte	1                               # Call site Encoding = uleb128
	.uleb128 .Lcst_end12-.Lcst_begin12
.Lcst_begin12:
	.uleb128 .Lfunc_begin12-.Lfunc_begin12  # >> Call Site 1 <<
	.uleb128 .Ltmp136-.Lfunc_begin12        #   Call between .Lfunc_begin12 and .Ltmp136
	.byte	0                               #     has no landing pad
	.byte	0                               #   On action: cleanup
	.uleb128 .Ltmp136-.Lfunc_begin12        # >> Call Site 2 <<
	.uleb128 .Ltmp137-.Ltmp136              #   Call between .Ltmp136 and .Ltmp137
	.uleb128 .Ltmp138-.Lfunc_begin12        #     jumps to .Ltmp138
	.byte	0                               #   On action: cleanup
	.uleb128 .Ltmp137-.Lfunc_begin12        # >> Call Site 3 <<
	.uleb128 .Ltmp139-.Ltmp137              #   Call between .Ltmp137 and .Ltmp139
	.byte	0                               #     has no landing pad
	.byte	0                               #   On action: cleanup
	.uleb128 .Ltmp139-.Lfunc_begin12        # >> Call Site 4 <<
	.uleb128 .Ltmp140-.Ltmp139              #   Call between .Ltmp139 and .Ltmp140
	.uleb128 .Ltmp141-.Lfunc_begin12        #     jumps to .Ltmp141
	.byte	0                               #   On action: cleanup
	.uleb128 .Ltmp140-.Lfunc_begin12        # >> Call Site 5 <<
	.uleb128 .Lfunc_end12-.Ltmp140          #   Call between .Ltmp140 and .Lfunc_end12
	.byte	0                               #     has no landing pad
	.byte	0                               #   On action: cleanup
.Lcst_end12:
	.p2align	2, 0x0
                                        # -- End function
	.section	.text._Z40autovec_early_exit_taken_mid_single_loadIhEvRN9benchmark5StateE,"axG",@progbits,_Z40autovec_early_exit_taken_mid_single_loadIhEvRN9benchmark5StateE,comdat
	.weak	_Z40autovec_early_exit_taken_mid_single_loadIhEvRN9benchmark5StateE # -- Begin function _Z40autovec_early_exit_taken_mid_single_loadIhEvRN9benchmark5StateE
	.p2align	2
	.prefalign	5, .Lfunc_end13, nop
	.type	_Z40autovec_early_exit_taken_mid_single_loadIhEvRN9benchmark5StateE,@function
_Z40autovec_early_exit_taken_mid_single_loadIhEvRN9benchmark5StateE: # @_Z40autovec_early_exit_taken_mid_single_loadIhEvRN9benchmark5StateE
.Lfunc_begin13:
	.cfi_startproc
	.cfi_personality 155, DW.ref.__gxx_personality_v0
	.cfi_lsda 27, .Lexception13
# %bb.0:
	addi.d	$sp, $sp, -144
	.cfi_def_cfa_offset 144
	st.d	$ra, $sp, 136                   # 8-byte Folded Spill
	st.d	$fp, $sp, 128                   # 8-byte Folded Spill
	st.d	$s0, $sp, 120                   # 8-byte Folded Spill
	st.d	$s1, $sp, 112                   # 8-byte Folded Spill
	st.d	$s2, $sp, 104                   # 8-byte Folded Spill
	st.d	$s3, $sp, 96                    # 8-byte Folded Spill
	st.d	$s4, $sp, 88                    # 8-byte Folded Spill
	.cfi_offset 1, -8
	.cfi_offset 22, -16
	.cfi_offset 23, -24
	.cfi_offset 24, -32
	.cfi_offset 25, -40
	.cfi_offset 26, -48
	.cfi_offset 27, -56
	move	$fp, $a0
	pcalau12i	$a0, %pc_hi20(_ZL29singleEarlyExitWithSingleLoadIhEmPT_S1_S1_i)
	addi.d	$a0, $a0, %pc_lo12(_ZL29singleEarlyExitWithSingleLoadIhEmPT_S1_S1_i)
	ld.d	$a1, $fp, 32
	ld.d	$s1, $a1, 0
	st.d	$a0, $sp, 80
	st.d	$s1, $sp, 72
	move	$a0, $s1
	pcaddu18i	$ra, %call36(_Znam)
	jirl	$ra, $ra, 0
	move	$s0, $a0
	st.d	$a0, $sp, 64
.Ltmp142:                               # EH_LABEL
	move	$a0, $s1
	pcaddu18i	$ra, %call36(_Znam)
	jirl	$ra, $ra, 0
.Ltmp143:                               # EH_LABEL
# %bb.1:
	move	$s2, $a0
	st.d	$a0, $sp, 56
.Ltmp145:                               # EH_LABEL
	move	$a0, $s1
	pcaddu18i	$ra, %call36(_Znam)
	jirl	$ra, $ra, 0
.Ltmp146:                               # EH_LABEL
# %bb.2:
	move	$s3, $a0
	bstrpick.d	$s4, $s1, 31, 0
	st.d	$a0, $sp, 48
	beqz	$s4, .LBB13_4
# %bb.3:
	ori	$a1, $zero, 1
	move	$a0, $s0
	move	$a2, $s4
	pcaddu18i	$ra, %call36(memset)
	jirl	$ra, $ra, 0
	ori	$a1, $zero, 1
	move	$a0, $s2
	move	$a2, $s4
	pcaddu18i	$ra, %call36(memset)
	jirl	$ra, $ra, 0
	ori	$a1, $zero, 1
	move	$a0, $s3
	move	$a2, $s4
	pcaddu18i	$ra, %call36(memset)
	jirl	$ra, $ra, 0
.LBB13_4:                               # %_ZL9init_dataIhEvRKSt10unique_ptrIA_T_St14default_deleteIS2_EEj.exit10
	srli.d	$a0, $s1, 63
	add.d	$a0, $s1, $a0
	ld.w	$s2, $fp, 28
	ld.d	$s1, $fp, 16
	srai.d	$a0, $a0, 1
	stx.b	$zero, $s0, $a0
	st.d	$zero, $sp, 40
.Ltmp148:                               # EH_LABEL
	move	$a0, $fp
	pcaddu18i	$ra, %call36(_ZN9benchmark5State16StartKeepRunningEv)
	jirl	$ra, $ra, 0
.Ltmp149:                               # EH_LABEL
# %bb.5:                                # %_ZN9benchmark5State3endEv.exit.preheader
	bnez	$s2, .LBB13_10
# %bb.6:                                # %_ZN9benchmark5State3endEv.exit.preheader
	beqz	$s1, .LBB13_10
# %bb.7:
	addi.d	$s0, $sp, 64
	addi.d	$s2, $sp, 56
	addi.d	$s3, $sp, 48
	addi.d	$s4, $sp, 40
	.p2align	4, , 16
.LBB13_8:                               # %.lr.ph
                                        # =>This Inner Loop Header: Depth=1
	#APP
	#NO_APP
	#APP
	#NO_APP
	#APP
	#NO_APP
	#APP
	#NO_APP
	#MEMBARRIER
	ld.d	$a0, $sp, 64
	ld.d	$a1, $sp, 56
	ld.d	$a2, $sp, 48
	st.d	$a0, $sp, 32
	st.d	$a1, $sp, 24
	st.d	$a2, $sp, 16
.Ltmp150:                               # EH_LABEL
	addi.d	$a0, $sp, 80
	addi.d	$a1, $sp, 32
	addi.d	$a2, $sp, 24
	addi.d	$a3, $sp, 16
	addi.d	$a4, $sp, 72
	pcaddu18i	$ra, %call36(_ZL18callThroughOptnoneIRPFmPhS0_S0_iEJS0_S0_S0_RlEEmOT_DpOT0_)
	jirl	$ra, $ra, 0
.Ltmp151:                               # EH_LABEL
# %bb.9:                                # %_ZN9benchmark5State3endEv.exit
                                        #   in Loop: Header=BB13_8 Depth=1
	ld.d	$a1, $sp, 40
	add.d	$a0, $a1, $a0
	addi.d	$s1, $s1, -1
	st.d	$a0, $sp, 40
	bnez	$s1, .LBB13_8
.LBB13_10:                              # %_ZN9benchmark5State3endEv.exit._crit_edge
.Ltmp153:                               # EH_LABEL
	move	$a0, $fp
	pcaddu18i	$ra, %call36(_ZN9benchmark5State17FinishKeepRunningEv)
	jirl	$ra, $ra, 0
.Ltmp154:                               # EH_LABEL
# %bb.11:                               # %_ZL21runEarlyExitBenchmarkIhEvRN9benchmark5StateEPFmPT_S4_S4_iE17EarlyExitPosition.exit
	ld.d	$a0, $sp, 48
	beqz	$a0, .LBB13_13
# %bb.12:                               # %_ZNKSt14default_deleteIA_hEclIhEENSt9enable_ifIXsr14is_convertibleIPA_T_PS0_EE5valueEvE4typeEPS4_.exit.i19
	pcaddu18i	$ra, %call36(_ZdaPv)
	jirl	$ra, $ra, 0
.LBB13_13:                              # %_ZNSt10unique_ptrIA_hSt14default_deleteIS0_EED2Ev.exit20
	ld.d	$a0, $sp, 56
	beqz	$a0, .LBB13_15
# %bb.14:                               # %_ZNKSt14default_deleteIA_hEclIhEENSt9enable_ifIXsr14is_convertibleIPA_T_PS0_EE5valueEvE4typeEPS4_.exit.i22
	pcaddu18i	$ra, %call36(_ZdaPv)
	jirl	$ra, $ra, 0
.LBB13_15:                              # %_ZNSt10unique_ptrIA_hSt14default_deleteIS0_EED2Ev.exit23
	ld.d	$a0, $sp, 64
	beqz	$a0, .LBB13_17
# %bb.16:                               # %_ZNKSt14default_deleteIA_hEclIhEENSt9enable_ifIXsr14is_convertibleIPA_T_PS0_EE5valueEvE4typeEPS4_.exit.i25
	pcaddu18i	$ra, %call36(_ZdaPv)
	jirl	$ra, $ra, 0
.LBB13_17:                              # %_ZNSt10unique_ptrIA_hSt14default_deleteIS0_EED2Ev.exit26
	ld.d	$s4, $sp, 88                    # 8-byte Folded Reload
	ld.d	$s3, $sp, 96                    # 8-byte Folded Reload
	ld.d	$s2, $sp, 104                   # 8-byte Folded Reload
	ld.d	$s1, $sp, 112                   # 8-byte Folded Reload
	ld.d	$s0, $sp, 120                   # 8-byte Folded Reload
	ld.d	$fp, $sp, 128                   # 8-byte Folded Reload
	ld.d	$ra, $sp, 136                   # 8-byte Folded Reload
	addi.d	$sp, $sp, 144
	ret
.LBB13_18:                              # %_ZNSt10unique_ptrIA_hSt14default_deleteIS0_EED2Ev.exit.thread
.Ltmp147:                               # EH_LABEL
	move	$fp, $a0
	b	.LBB13_27
.LBB13_19:                              # %_ZNSt10unique_ptrIA_hSt14default_deleteIS0_EED2Ev.exit14.thread
.Ltmp144:                               # EH_LABEL
	move	$fp, $a0
	move	$a0, $s0
	pcaddu18i	$ra, %call36(_ZdaPv)
	jirl	$ra, $ra, 0
	move	$a0, $fp
	pcaddu18i	$ra, %call36(_Unwind_Resume)
	jirl	$ra, $ra, 0
.LBB13_20:
.Ltmp155:                               # EH_LABEL
	b	.LBB13_22
.LBB13_21:
.Ltmp152:                               # EH_LABEL
.LBB13_22:
	move	$fp, $a0
	ld.d	$a0, $sp, 48
	bnez	$a0, .LBB13_26
# %bb.23:                               # %_ZNSt10unique_ptrIA_hSt14default_deleteIS0_EED2Ev.exit
	ld.d	$s2, $sp, 56
	bnez	$s2, .LBB13_27
.LBB13_24:                              # %_ZNSt10unique_ptrIA_hSt14default_deleteIS0_EED2Ev.exit14
	ld.d	$s0, $sp, 64
	bnez	$s0, .LBB13_28
.LBB13_25:                              # %_ZNSt10unique_ptrIA_hSt14default_deleteIS0_EED2Ev.exit17
	move	$a0, $fp
	pcaddu18i	$ra, %call36(_Unwind_Resume)
	jirl	$ra, $ra, 0
.LBB13_26:                              # %_ZNKSt14default_deleteIA_hEclIhEENSt9enable_ifIXsr14is_convertibleIPA_T_PS0_EE5valueEvE4typeEPS4_.exit.i
	pcaddu18i	$ra, %call36(_ZdaPv)
	jirl	$ra, $ra, 0
	ld.d	$s2, $sp, 56
	beqz	$s2, .LBB13_24
.LBB13_27:                              # %_ZNKSt14default_deleteIA_hEclIhEENSt9enable_ifIXsr14is_convertibleIPA_T_PS0_EE5valueEvE4typeEPS4_.exit.i13
	move	$a0, $s2
	pcaddu18i	$ra, %call36(_ZdaPv)
	jirl	$ra, $ra, 0
	ld.d	$s0, $sp, 64
	beqz	$s0, .LBB13_25
.LBB13_28:                              # %_ZNKSt14default_deleteIA_hEclIhEENSt9enable_ifIXsr14is_convertibleIPA_T_PS0_EE5valueEvE4typeEPS4_.exit.i16
	move	$a0, $s0
	pcaddu18i	$ra, %call36(_ZdaPv)
	jirl	$ra, $ra, 0
	move	$a0, $fp
	pcaddu18i	$ra, %call36(_Unwind_Resume)
	jirl	$ra, $ra, 0
.Lfunc_end13:
	.size	_Z40autovec_early_exit_taken_mid_single_loadIhEvRN9benchmark5StateE, .Lfunc_end13-_Z40autovec_early_exit_taken_mid_single_loadIhEvRN9benchmark5StateE
	.cfi_endproc
	.section	.gcc_except_table._Z40autovec_early_exit_taken_mid_single_loadIhEvRN9benchmark5StateE,"aG",@progbits,_Z40autovec_early_exit_taken_mid_single_loadIhEvRN9benchmark5StateE,comdat
	.p2align	2, 0x0
GCC_except_table13:
.Lexception13:
	.byte	255                             # @LPStart Encoding = omit
	.byte	255                             # @TType Encoding = omit
	.byte	1                               # Call site Encoding = uleb128
	.uleb128 .Lcst_end13-.Lcst_begin13
.Lcst_begin13:
	.uleb128 .Lfunc_begin13-.Lfunc_begin13  # >> Call Site 1 <<
	.uleb128 .Ltmp142-.Lfunc_begin13        #   Call between .Lfunc_begin13 and .Ltmp142
	.byte	0                               #     has no landing pad
	.byte	0                               #   On action: cleanup
	.uleb128 .Ltmp142-.Lfunc_begin13        # >> Call Site 2 <<
	.uleb128 .Ltmp143-.Ltmp142              #   Call between .Ltmp142 and .Ltmp143
	.uleb128 .Ltmp144-.Lfunc_begin13        #     jumps to .Ltmp144
	.byte	0                               #   On action: cleanup
	.uleb128 .Ltmp145-.Lfunc_begin13        # >> Call Site 3 <<
	.uleb128 .Ltmp146-.Ltmp145              #   Call between .Ltmp145 and .Ltmp146
	.uleb128 .Ltmp147-.Lfunc_begin13        #     jumps to .Ltmp147
	.byte	0                               #   On action: cleanup
	.uleb128 .Ltmp146-.Lfunc_begin13        # >> Call Site 4 <<
	.uleb128 .Ltmp148-.Ltmp146              #   Call between .Ltmp146 and .Ltmp148
	.byte	0                               #     has no landing pad
	.byte	0                               #   On action: cleanup
	.uleb128 .Ltmp148-.Lfunc_begin13        # >> Call Site 5 <<
	.uleb128 .Ltmp149-.Ltmp148              #   Call between .Ltmp148 and .Ltmp149
	.uleb128 .Ltmp155-.Lfunc_begin13        #     jumps to .Ltmp155
	.byte	0                               #   On action: cleanup
	.uleb128 .Ltmp150-.Lfunc_begin13        # >> Call Site 6 <<
	.uleb128 .Ltmp151-.Ltmp150              #   Call between .Ltmp150 and .Ltmp151
	.uleb128 .Ltmp152-.Lfunc_begin13        #     jumps to .Ltmp152
	.byte	0                               #   On action: cleanup
	.uleb128 .Ltmp153-.Lfunc_begin13        # >> Call Site 7 <<
	.uleb128 .Ltmp154-.Ltmp153              #   Call between .Ltmp153 and .Ltmp154
	.uleb128 .Ltmp155-.Lfunc_begin13        #     jumps to .Ltmp155
	.byte	0                               #   On action: cleanup
	.uleb128 .Ltmp154-.Lfunc_begin13        # >> Call Site 8 <<
	.uleb128 .Lfunc_end13-.Ltmp154          #   Call between .Ltmp154 and .Lfunc_end13
	.byte	0                               #     has no landing pad
	.byte	0                               #   On action: cleanup
.Lcst_end13:
	.p2align	2, 0x0
                                        # -- End function
	.section	.text._ZSt11make_uniqueIN9benchmark8internal17FunctionBenchmarkEJRA51_KcPFvRNS0_5StateEEEENSt8__detail9_MakeUniqIT_E15__single_objectEDpOT0_,"axG",@progbits,_ZSt11make_uniqueIN9benchmark8internal17FunctionBenchmarkEJRA51_KcPFvRNS0_5StateEEEENSt8__detail9_MakeUniqIT_E15__single_objectEDpOT0_,comdat
	.weak	_ZSt11make_uniqueIN9benchmark8internal17FunctionBenchmarkEJRA51_KcPFvRNS0_5StateEEEENSt8__detail9_MakeUniqIT_E15__single_objectEDpOT0_ # -- Begin function _ZSt11make_uniqueIN9benchmark8internal17FunctionBenchmarkEJRA51_KcPFvRNS0_5StateEEEENSt8__detail9_MakeUniqIT_E15__single_objectEDpOT0_
	.p2align	2
	.prefalign	5, .Lfunc_end14, nop
	.type	_ZSt11make_uniqueIN9benchmark8internal17FunctionBenchmarkEJRA51_KcPFvRNS0_5StateEEEENSt8__detail9_MakeUniqIT_E15__single_objectEDpOT0_,@function
_ZSt11make_uniqueIN9benchmark8internal17FunctionBenchmarkEJRA51_KcPFvRNS0_5StateEEEENSt8__detail9_MakeUniqIT_E15__single_objectEDpOT0_: # @_ZSt11make_uniqueIN9benchmark8internal17FunctionBenchmarkEJRA51_KcPFvRNS0_5StateEEEENSt8__detail9_MakeUniqIT_E15__single_objectEDpOT0_
.Lfunc_begin14:
	.cfi_startproc
	.cfi_personality 155, DW.ref.__gxx_personality_v0
	.cfi_lsda 27, .Lexception14
# %bb.0:
	addi.d	$sp, $sp, -112
	.cfi_def_cfa_offset 112
	st.d	$ra, $sp, 104                   # 8-byte Folded Spill
	st.d	$fp, $sp, 96                    # 8-byte Folded Spill
	st.d	$s0, $sp, 88                    # 8-byte Folded Spill
	st.d	$s1, $sp, 80                    # 8-byte Folded Spill
	st.d	$s2, $sp, 72                    # 8-byte Folded Spill
	st.d	$s3, $sp, 64                    # 8-byte Folded Spill
	st.d	$s4, $sp, 56                    # 8-byte Folded Spill
	.cfi_offset 1, -8
	.cfi_offset 22, -16
	.cfi_offset 23, -24
	.cfi_offset 24, -32
	.cfi_offset 25, -40
	.cfi_offset 26, -48
	.cfi_offset 27, -56
	move	$s1, $a2
	move	$s2, $a1
	move	$s0, $a0
	ori	$a0, $zero, 312
	pcaddu18i	$ra, %call36(_Znwm)
	jirl	$ra, $ra, 0
	move	$fp, $a0
	addi.d	$s4, $sp, 32
	st.d	$s4, $sp, 16
	move	$a0, $s2
	pcaddu18i	$ra, %call36(strlen)
	jirl	$ra, $ra, 0
	move	$s3, $a0
	ori	$a1, $zero, 16
	st.d	$a0, $sp, 48
	move	$a0, $s4
	bltu	$s3, $a1, .LBB14_3
# %bb.1:                                # %.noexc.i
.Ltmp156:                               # EH_LABEL
	addi.d	$a0, $sp, 16
	addi.d	$a1, $sp, 48
	move	$a2, $zero
	pcaddu18i	$ra, %call36(_ZNSt7__cxx1112basic_stringIcSt11char_traitsIcESaIcEE9_M_createERmm)
	jirl	$ra, $ra, 0
.Ltmp157:                               # EH_LABEL
# %bb.2:                                # %.noexc
	ld.d	$a1, $sp, 48
	st.d	$a0, $sp, 16
	st.d	$a1, $sp, 32
.LBB14_3:                               # %._crit_edge.i.i
	beqz	$s3, .LBB14_7
# %bb.4:                                # %._crit_edge.i.i
	ori	$a1, $zero, 1
	bne	$s3, $a1, .LBB14_6
# %bb.5:
	ld.b	$a1, $s2, 0
	st.b	$a1, $a0, 0
	b	.LBB14_7
.LBB14_6:
	move	$a1, $s2
	move	$a2, $s3
	pcaddu18i	$ra, %call36(memcpy)
	jirl	$ra, $ra, 0
.LBB14_7:
	ld.d	$a0, $sp, 48
	ld.d	$a1, $sp, 16
	st.d	$a0, $sp, 24
	stx.b	$zero, $a1, $a0
	ld.d	$s1, $s1, 0
.Ltmp159:                               # EH_LABEL
	addi.d	$a1, $sp, 16
	move	$a0, $fp
	pcaddu18i	$ra, %call36(_ZN9benchmark9BenchmarkC2ERKNSt7__cxx1112basic_stringIcSt11char_traitsIcESaIcEEE)
	jirl	$ra, $ra, 0
.Ltmp160:                               # EH_LABEL
# %bb.8:
	pcalau12i	$a0, %got_pc_hi20(_ZTVN9benchmark8internal17FunctionBenchmarkE)
	ld.d	$a1, $a0, %got_pc_lo12(_ZTVN9benchmark8internal17FunctionBenchmarkE)
	ld.d	$a0, $sp, 16
	addi.d	$a1, $a1, 16
	st.d	$a1, $fp, 0
	st.d	$s1, $fp, 304
	st.d	$fp, $s0, 0
	beq	$a0, $s4, .LBB14_10
# %bb.9:                                # %_ZNKSt7__cxx1112basic_stringIcSt11char_traitsIcESaIcEE11_M_is_localEv.exit.i.i
	ld.d	$a1, $sp, 32
	addi.d	$a1, $a1, 1
	pcaddu18i	$ra, %call36(_ZdlPvm)
	jirl	$ra, $ra, 0
.LBB14_10:                              # %_ZNSt7__cxx1112basic_stringIcSt11char_traitsIcESaIcEED2Ev.exit
	ld.d	$s4, $sp, 56                    # 8-byte Folded Reload
	ld.d	$s3, $sp, 64                    # 8-byte Folded Reload
	ld.d	$s2, $sp, 72                    # 8-byte Folded Reload
	ld.d	$s1, $sp, 80                    # 8-byte Folded Reload
	ld.d	$s0, $sp, 88                    # 8-byte Folded Reload
	ld.d	$fp, $sp, 96                    # 8-byte Folded Reload
	ld.d	$ra, $sp, 104                   # 8-byte Folded Reload
	addi.d	$sp, $sp, 112
	ret
.LBB14_11:
.Ltmp158:                               # EH_LABEL
	move	$s0, $a0
	b	.LBB14_14
.LBB14_12:
.Ltmp161:                               # EH_LABEL
	ld.d	$a2, $sp, 16
	move	$s0, $a0
	beq	$a2, $s4, .LBB14_14
# %bb.13:                               # %_ZNKSt7__cxx1112basic_stringIcSt11char_traitsIcESaIcEE11_M_is_localEv.exit.i.i7
	ld.d	$a0, $sp, 32
	addi.d	$a1, $a0, 1
	move	$a0, $a2
	pcaddu18i	$ra, %call36(_ZdlPvm)
	jirl	$ra, $ra, 0
.LBB14_14:                              # %_ZNSt7__cxx1112basic_stringIcSt11char_traitsIcESaIcEED2Ev.exit9
	ori	$a1, $zero, 312
	move	$a0, $fp
	pcaddu18i	$ra, %call36(_ZdlPvm)
	jirl	$ra, $ra, 0
	move	$a0, $s0
	pcaddu18i	$ra, %call36(_Unwind_Resume)
	jirl	$ra, $ra, 0
.Lfunc_end14:
	.size	_ZSt11make_uniqueIN9benchmark8internal17FunctionBenchmarkEJRA51_KcPFvRNS0_5StateEEEENSt8__detail9_MakeUniqIT_E15__single_objectEDpOT0_, .Lfunc_end14-_ZSt11make_uniqueIN9benchmark8internal17FunctionBenchmarkEJRA51_KcPFvRNS0_5StateEEEENSt8__detail9_MakeUniqIT_E15__single_objectEDpOT0_
	.cfi_endproc
	.section	.gcc_except_table._ZSt11make_uniqueIN9benchmark8internal17FunctionBenchmarkEJRA51_KcPFvRNS0_5StateEEEENSt8__detail9_MakeUniqIT_E15__single_objectEDpOT0_,"aG",@progbits,_ZSt11make_uniqueIN9benchmark8internal17FunctionBenchmarkEJRA51_KcPFvRNS0_5StateEEEENSt8__detail9_MakeUniqIT_E15__single_objectEDpOT0_,comdat
	.p2align	2, 0x0
GCC_except_table14:
.Lexception14:
	.byte	255                             # @LPStart Encoding = omit
	.byte	255                             # @TType Encoding = omit
	.byte	1                               # Call site Encoding = uleb128
	.uleb128 .Lcst_end14-.Lcst_begin14
.Lcst_begin14:
	.uleb128 .Lfunc_begin14-.Lfunc_begin14  # >> Call Site 1 <<
	.uleb128 .Ltmp156-.Lfunc_begin14        #   Call between .Lfunc_begin14 and .Ltmp156
	.byte	0                               #     has no landing pad
	.byte	0                               #   On action: cleanup
	.uleb128 .Ltmp156-.Lfunc_begin14        # >> Call Site 2 <<
	.uleb128 .Ltmp157-.Ltmp156              #   Call between .Ltmp156 and .Ltmp157
	.uleb128 .Ltmp158-.Lfunc_begin14        #     jumps to .Ltmp158
	.byte	0                               #   On action: cleanup
	.uleb128 .Ltmp157-.Lfunc_begin14        # >> Call Site 3 <<
	.uleb128 .Ltmp159-.Ltmp157              #   Call between .Ltmp157 and .Ltmp159
	.byte	0                               #     has no landing pad
	.byte	0                               #   On action: cleanup
	.uleb128 .Ltmp159-.Lfunc_begin14        # >> Call Site 4 <<
	.uleb128 .Ltmp160-.Ltmp159              #   Call between .Ltmp159 and .Ltmp160
	.uleb128 .Ltmp161-.Lfunc_begin14        #     jumps to .Ltmp161
	.byte	0                               #   On action: cleanup
	.uleb128 .Ltmp160-.Lfunc_begin14        # >> Call Site 5 <<
	.uleb128 .Lfunc_end14-.Ltmp160          #   Call between .Ltmp160 and .Lfunc_end14
	.byte	0                               #     has no landing pad
	.byte	0                               #   On action: cleanup
.Lcst_end14:
	.p2align	2, 0x0
                                        # -- End function
	.section	.text._Z40autovec_early_exit_taken_mid_single_loadItEvRN9benchmark5StateE,"axG",@progbits,_Z40autovec_early_exit_taken_mid_single_loadItEvRN9benchmark5StateE,comdat
	.weak	_Z40autovec_early_exit_taken_mid_single_loadItEvRN9benchmark5StateE # -- Begin function _Z40autovec_early_exit_taken_mid_single_loadItEvRN9benchmark5StateE
	.p2align	2
	.prefalign	5, .Lfunc_end15, nop
	.type	_Z40autovec_early_exit_taken_mid_single_loadItEvRN9benchmark5StateE,@function
_Z40autovec_early_exit_taken_mid_single_loadItEvRN9benchmark5StateE: # @_Z40autovec_early_exit_taken_mid_single_loadItEvRN9benchmark5StateE
.Lfunc_begin15:
	.cfi_startproc
	.cfi_personality 155, DW.ref.__gxx_personality_v0
	.cfi_lsda 27, .Lexception15
# %bb.0:
	addi.d	$sp, $sp, -144
	.cfi_def_cfa_offset 144
	st.d	$ra, $sp, 136                   # 8-byte Folded Spill
	st.d	$fp, $sp, 128                   # 8-byte Folded Spill
	st.d	$s0, $sp, 120                   # 8-byte Folded Spill
	st.d	$s1, $sp, 112                   # 8-byte Folded Spill
	st.d	$s2, $sp, 104                   # 8-byte Folded Spill
	st.d	$s3, $sp, 96                    # 8-byte Folded Spill
	st.d	$s4, $sp, 88                    # 8-byte Folded Spill
	st.d	$s5, $sp, 80                    # 8-byte Folded Spill
	.cfi_offset 1, -8
	.cfi_offset 22, -16
	.cfi_offset 23, -24
	.cfi_offset 24, -32
	.cfi_offset 25, -40
	.cfi_offset 26, -48
	.cfi_offset 27, -56
	.cfi_offset 28, -64
	move	$fp, $a0
	pcalau12i	$a0, %pc_hi20(_ZL29singleEarlyExitWithSingleLoadItEmPT_S1_S1_i)
	addi.d	$a0, $a0, %pc_lo12(_ZL29singleEarlyExitWithSingleLoadItEmPT_S1_S1_i)
	ld.d	$a1, $fp, 32
	ld.d	$s4, $a1, 0
	st.d	$a0, $sp, 72
	st.d	$s4, $sp, 64
	slli.d	$s5, $s4, 1
	addi.w	$a0, $zero, -1
	slt	$a1, $a0, $s4
	masknez	$a0, $a0, $a1
	maskeqz	$a1, $s5, $a1
	or	$s3, $a1, $a0
	move	$a0, $s3
	pcaddu18i	$ra, %call36(_Znam)
	jirl	$ra, $ra, 0
	move	$s0, $a0
	st.d	$a0, $sp, 56
.Ltmp162:                               # EH_LABEL
	move	$a0, $s3
	pcaddu18i	$ra, %call36(_Znam)
	jirl	$ra, $ra, 0
.Ltmp163:                               # EH_LABEL
# %bb.1:
	move	$s2, $a0
	move	$s1, $a0
	st.d	$s2, $sp, 48
.Ltmp165:                               # EH_LABEL
	move	$a0, $s3
	pcaddu18i	$ra, %call36(_Znam)
	jirl	$ra, $ra, 0
.Ltmp166:                               # EH_LABEL
# %bb.2:
	slli.d	$a2, $s4, 32
	st.d	$a0, $sp, 40
	beqz	$a2, .LBB15_39
# %bb.3:                                # %iter.check
	move	$a1, $a0
	bstrpick.d	$a5, $s5, 32, 1
	slli.d	$a2, $a5, 1
	addi.d	$a4, $a2, -2
	srli.d	$a3, $a4, 1
	ori	$a7, $zero, 14
	addi.d	$a3, $a3, 1
	move	$a6, $s0
	bltu	$a4, $a7, .LBB15_13
# %bb.4:                                # %vector.main.loop.iter.check
	ori	$a6, $zero, 62
	bgeu	$a4, $a6, .LBB15_6
# %bb.5:
	move	$a7, $zero
	b	.LBB15_10
.LBB15_6:                               # %vector.ph
	andi	$t0, $a3, 24
	move	$a7, $a3
	bstrins.d	$a7, $zero, 4, 0
	alsl.d	$a6, $a7, $s0, 1
	addi.d	$t1, $s0, 32
	xvrepli.h	$xr0, 1
	move	$t2, $a7
	.p2align	4, , 16
.LBB15_7:                               # %vector.body
                                        # =>This Inner Loop Header: Depth=1
	xvst	$xr0, $t1, -32
	xvst	$xr0, $t1, 0
	addi.d	$t2, $t2, -32
	addi.d	$t1, $t1, 64
	bnez	$t2, .LBB15_7
# %bb.8:                                # %middle.block
	beq	$a3, $a7, .LBB15_15
# %bb.9:                                # %vec.epilog.iter.check
	beqz	$t0, .LBB15_13
.LBB15_10:                              # %vec.epilog.ph
	move	$t0, $a3
	bstrins.d	$t0, $zero, 2, 0
	alsl.d	$a6, $t0, $s0, 1
	alsl.d	$t1, $a7, $s0, 1
	sub.d	$a7, $a7, $t0
	vrepli.h	$vr0, 1
	.p2align	4, , 16
.LBB15_11:                              # %vec.epilog.vector.body
                                        # =>This Inner Loop Header: Depth=1
	vst	$vr0, $t1, 0
	addi.d	$a7, $a7, 8
	addi.d	$t1, $t1, 16
	bnez	$a7, .LBB15_11
# %bb.12:                               # %vec.epilog.middle.block
	beq	$a3, $t0, .LBB15_15
.LBB15_13:                              # %.lr.ph.i.i.i.i.i.preheader
	alsl.d	$a5, $a5, $s0, 1
	ori	$a7, $zero, 1
	.p2align	4, , 16
.LBB15_14:                              # %.lr.ph.i.i.i.i.i
                                        # =>This Inner Loop Header: Depth=1
	st.h	$a7, $a6, 0
	addi.d	$a6, $a6, 2
	bne	$a6, $a5, .LBB15_14
.LBB15_15:                              # %iter.check73
	ori	$a5, $zero, 14
	bltu	$a4, $a5, .LBB15_25
# %bb.16:                               # %vector.main.loop.iter.check60
	ori	$a5, $zero, 62
	bgeu	$a4, $a5, .LBB15_18
# %bb.17:
	move	$a5, $zero
	b	.LBB15_22
.LBB15_18:                              # %vector.ph62
	andi	$a6, $a3, 24
	move	$a5, $a3
	bstrins.d	$a5, $zero, 4, 0
	alsl.d	$s1, $a5, $s2, 1
	addi.d	$a7, $s2, 32
	xvrepli.h	$xr0, 1
	move	$t0, $a5
	.p2align	4, , 16
.LBB15_19:                              # %vector.body65
                                        # =>This Inner Loop Header: Depth=1
	xvst	$xr0, $a7, -32
	xvst	$xr0, $a7, 0
	addi.d	$t0, $t0, -32
	addi.d	$a7, $a7, 64
	bnez	$t0, .LBB15_19
# %bb.20:                               # %middle.block70
	beq	$a3, $a5, .LBB15_27
# %bb.21:                               # %vec.epilog.iter.check75
	beqz	$a6, .LBB15_25
.LBB15_22:                              # %vec.epilog.ph77
	move	$a6, $a3
	bstrins.d	$a6, $zero, 2, 0
	alsl.d	$s1, $a6, $s2, 1
	alsl.d	$a7, $a5, $s2, 1
	sub.d	$a5, $a5, $a6
	vrepli.h	$vr0, 1
	.p2align	4, , 16
.LBB15_23:                              # %vec.epilog.vector.body80
                                        # =>This Inner Loop Header: Depth=1
	vst	$vr0, $a7, 0
	addi.d	$a5, $a5, 8
	addi.d	$a7, $a7, 16
	bnez	$a5, .LBB15_23
# %bb.24:                               # %vec.epilog.middle.block84
	beq	$a3, $a6, .LBB15_27
.LBB15_25:                              # %.lr.ph.i.i.i.i.i4.preheader
	add.d	$a5, $s2, $a2
	ori	$a6, $zero, 1
	.p2align	4, , 16
.LBB15_26:                              # %.lr.ph.i.i.i.i.i4
                                        # =>This Inner Loop Header: Depth=1
	st.h	$a6, $s1, 0
	addi.d	$s1, $s1, 2
	bne	$s1, $a5, .LBB15_26
.LBB15_27:                              # %iter.check101
	ori	$a5, $zero, 14
	bltu	$a4, $a5, .LBB15_37
# %bb.28:                               # %vector.main.loop.iter.check88
	ori	$a1, $zero, 62
	bgeu	$a4, $a1, .LBB15_30
# %bb.29:
	move	$a4, $zero
	b	.LBB15_34
.LBB15_30:                              # %vector.ph90
	andi	$a5, $a3, 24
	move	$a4, $a3
	bstrins.d	$a4, $zero, 4, 0
	alsl.d	$a1, $a4, $a0, 1
	addi.d	$a6, $a0, 32
	xvrepli.h	$xr0, 1
	move	$a7, $a4
	.p2align	4, , 16
.LBB15_31:                              # %vector.body93
                                        # =>This Inner Loop Header: Depth=1
	xvst	$xr0, $a6, -32
	xvst	$xr0, $a6, 0
	addi.d	$a7, $a7, -32
	addi.d	$a6, $a6, 64
	bnez	$a7, .LBB15_31
# %bb.32:                               # %middle.block98
	beq	$a3, $a4, .LBB15_39
# %bb.33:                               # %vec.epilog.iter.check103
	beqz	$a5, .LBB15_37
.LBB15_34:                              # %vec.epilog.ph105
	move	$a5, $a3
	bstrins.d	$a5, $zero, 2, 0
	alsl.d	$a1, $a5, $a0, 1
	alsl.d	$a6, $a4, $a0, 1
	sub.d	$a4, $a4, $a5
	vrepli.h	$vr0, 1
	.p2align	4, , 16
.LBB15_35:                              # %vec.epilog.vector.body108
                                        # =>This Inner Loop Header: Depth=1
	vst	$vr0, $a6, 0
	addi.d	$a4, $a4, 8
	addi.d	$a6, $a6, 16
	bnez	$a4, .LBB15_35
# %bb.36:                               # %vec.epilog.middle.block112
	beq	$a3, $a5, .LBB15_39
.LBB15_37:                              # %.lr.ph.i.i.i.i.i9.preheader
	add.d	$a0, $a0, $a2
	ori	$a2, $zero, 1
	.p2align	4, , 16
.LBB15_38:                              # %.lr.ph.i.i.i.i.i9
                                        # =>This Inner Loop Header: Depth=1
	st.h	$a2, $a1, 0
	addi.d	$a1, $a1, 2
	bne	$a1, $a0, .LBB15_38
.LBB15_39:                              # %_ZL9init_dataItEvRKSt10unique_ptrIA_T_St14default_deleteIS2_EEj.exit12
	srli.d	$a0, $s4, 63
	add.d	$a0, $s4, $a0
	ld.w	$s2, $fp, 28
	ld.d	$s1, $fp, 16
	bstrins.d	$a0, $zero, 0, 0
	stx.h	$zero, $s0, $a0
	st.d	$zero, $sp, 32
.Ltmp168:                               # EH_LABEL
	move	$a0, $fp
	pcaddu18i	$ra, %call36(_ZN9benchmark5State16StartKeepRunningEv)
	jirl	$ra, $ra, 0
.Ltmp169:                               # EH_LABEL
# %bb.40:                               # %_ZN9benchmark5State3endEv.exit.i.preheader
	bnez	$s2, .LBB15_45
# %bb.41:                               # %_ZN9benchmark5State3endEv.exit.i.preheader
	beqz	$s1, .LBB15_45
# %bb.42:
	addi.d	$s0, $sp, 56
	addi.d	$s2, $sp, 48
	addi.d	$s3, $sp, 40
	addi.d	$s4, $sp, 32
	.p2align	4, , 16
.LBB15_43:                              # %.lr.ph
                                        # =>This Inner Loop Header: Depth=1
	#APP
	#NO_APP
	#APP
	#NO_APP
	#APP
	#NO_APP
	#APP
	#NO_APP
	#MEMBARRIER
	ld.d	$a0, $sp, 56
	ld.d	$a1, $sp, 48
	ld.d	$a2, $sp, 40
	st.d	$a0, $sp, 24
	st.d	$a1, $sp, 16
	st.d	$a2, $sp, 8
.Ltmp170:                               # EH_LABEL
	addi.d	$a0, $sp, 72
	addi.d	$a1, $sp, 24
	addi.d	$a2, $sp, 16
	addi.d	$a3, $sp, 8
	addi.d	$a4, $sp, 64
	pcaddu18i	$ra, %call36(_ZL18callThroughOptnoneIRPFmPtS0_S0_iEJS0_S0_S0_RlEEmOT_DpOT0_)
	jirl	$ra, $ra, 0
.Ltmp171:                               # EH_LABEL
# %bb.44:                               # %_ZN9benchmark5State3endEv.exit.i
                                        #   in Loop: Header=BB15_43 Depth=1
	ld.d	$a1, $sp, 32
	add.d	$a0, $a1, $a0
	addi.d	$s1, $s1, -1
	st.d	$a0, $sp, 32
	bnez	$s1, .LBB15_43
.LBB15_45:                              # %_ZN9benchmark5State3endEv.exit.i._crit_edge
.Ltmp173:                               # EH_LABEL
	move	$a0, $fp
	pcaddu18i	$ra, %call36(_ZN9benchmark5State17FinishKeepRunningEv)
	jirl	$ra, $ra, 0
.Ltmp174:                               # EH_LABEL
# %bb.46:                               # %_ZL21runEarlyExitBenchmarkItEvRN9benchmark5StateEPFmPT_S4_S4_iE17EarlyExitPosition.exit
	ld.d	$a0, $sp, 40
	beqz	$a0, .LBB15_48
# %bb.47:                               # %_ZNKSt14default_deleteIA_tEclItEENSt9enable_ifIXsr14is_convertibleIPA_T_PS0_EE5valueEvE4typeEPS4_.exit.i20
	pcaddu18i	$ra, %call36(_ZdaPv)
	jirl	$ra, $ra, 0
.LBB15_48:                              # %_ZNSt10unique_ptrIA_tSt14default_deleteIS0_EED2Ev.exit21
	ld.d	$a0, $sp, 48
	beqz	$a0, .LBB15_50
# %bb.49:                               # %_ZNKSt14default_deleteIA_tEclItEENSt9enable_ifIXsr14is_convertibleIPA_T_PS0_EE5valueEvE4typeEPS4_.exit.i23
	pcaddu18i	$ra, %call36(_ZdaPv)
	jirl	$ra, $ra, 0
.LBB15_50:                              # %_ZNSt10unique_ptrIA_tSt14default_deleteIS0_EED2Ev.exit24
	ld.d	$a0, $sp, 56
	beqz	$a0, .LBB15_52
# %bb.51:                               # %_ZNKSt14default_deleteIA_tEclItEENSt9enable_ifIXsr14is_convertibleIPA_T_PS0_EE5valueEvE4typeEPS4_.exit.i26
	pcaddu18i	$ra, %call36(_ZdaPv)
	jirl	$ra, $ra, 0
.LBB15_52:                              # %_ZNSt10unique_ptrIA_tSt14default_deleteIS0_EED2Ev.exit27
	ld.d	$s5, $sp, 80                    # 8-byte Folded Reload
	ld.d	$s4, $sp, 88                    # 8-byte Folded Reload
	ld.d	$s3, $sp, 96                    # 8-byte Folded Reload
	ld.d	$s2, $sp, 104                   # 8-byte Folded Reload
	ld.d	$s1, $sp, 112                   # 8-byte Folded Reload
	ld.d	$s0, $sp, 120                   # 8-byte Folded Reload
	ld.d	$fp, $sp, 128                   # 8-byte Folded Reload
	ld.d	$ra, $sp, 136                   # 8-byte Folded Reload
	addi.d	$sp, $sp, 144
	ret
.LBB15_53:                              # %_ZNSt10unique_ptrIA_tSt14default_deleteIS0_EED2Ev.exit.thread
.Ltmp167:                               # EH_LABEL
	move	$fp, $a0
	b	.LBB15_62
.LBB15_54:                              # %_ZNSt10unique_ptrIA_tSt14default_deleteIS0_EED2Ev.exit15.thread
.Ltmp164:                               # EH_LABEL
	move	$fp, $a0
	move	$a0, $s0
	pcaddu18i	$ra, %call36(_ZdaPv)
	jirl	$ra, $ra, 0
	move	$a0, $fp
	pcaddu18i	$ra, %call36(_Unwind_Resume)
	jirl	$ra, $ra, 0
.LBB15_55:
.Ltmp175:                               # EH_LABEL
	b	.LBB15_57
.LBB15_56:
.Ltmp172:                               # EH_LABEL
.LBB15_57:
	move	$fp, $a0
	ld.d	$a0, $sp, 40
	bnez	$a0, .LBB15_61
# %bb.58:                               # %_ZNSt10unique_ptrIA_tSt14default_deleteIS0_EED2Ev.exit
	ld.d	$s1, $sp, 48
	bnez	$s1, .LBB15_62
.LBB15_59:                              # %_ZNSt10unique_ptrIA_tSt14default_deleteIS0_EED2Ev.exit15
	ld.d	$s0, $sp, 56
	bnez	$s0, .LBB15_63
.LBB15_60:                              # %_ZNSt10unique_ptrIA_tSt14default_deleteIS0_EED2Ev.exit18
	move	$a0, $fp
	pcaddu18i	$ra, %call36(_Unwind_Resume)
	jirl	$ra, $ra, 0
.LBB15_61:                              # %_ZNKSt14default_deleteIA_tEclItEENSt9enable_ifIXsr14is_convertibleIPA_T_PS0_EE5valueEvE4typeEPS4_.exit.i
	pcaddu18i	$ra, %call36(_ZdaPv)
	jirl	$ra, $ra, 0
	ld.d	$s1, $sp, 48
	beqz	$s1, .LBB15_59
.LBB15_62:                              # %_ZNKSt14default_deleteIA_tEclItEENSt9enable_ifIXsr14is_convertibleIPA_T_PS0_EE5valueEvE4typeEPS4_.exit.i14
	move	$a0, $s1
	pcaddu18i	$ra, %call36(_ZdaPv)
	jirl	$ra, $ra, 0
	ld.d	$s0, $sp, 56
	beqz	$s0, .LBB15_60
.LBB15_63:                              # %_ZNKSt14default_deleteIA_tEclItEENSt9enable_ifIXsr14is_convertibleIPA_T_PS0_EE5valueEvE4typeEPS4_.exit.i17
	move	$a0, $s0
	pcaddu18i	$ra, %call36(_ZdaPv)
	jirl	$ra, $ra, 0
	move	$a0, $fp
	pcaddu18i	$ra, %call36(_Unwind_Resume)
	jirl	$ra, $ra, 0
.Lfunc_end15:
	.size	_Z40autovec_early_exit_taken_mid_single_loadItEvRN9benchmark5StateE, .Lfunc_end15-_Z40autovec_early_exit_taken_mid_single_loadItEvRN9benchmark5StateE
	.cfi_endproc
	.section	.gcc_except_table._Z40autovec_early_exit_taken_mid_single_loadItEvRN9benchmark5StateE,"aG",@progbits,_Z40autovec_early_exit_taken_mid_single_loadItEvRN9benchmark5StateE,comdat
	.p2align	2, 0x0
GCC_except_table15:
.Lexception15:
	.byte	255                             # @LPStart Encoding = omit
	.byte	255                             # @TType Encoding = omit
	.byte	1                               # Call site Encoding = uleb128
	.uleb128 .Lcst_end15-.Lcst_begin15
.Lcst_begin15:
	.uleb128 .Lfunc_begin15-.Lfunc_begin15  # >> Call Site 1 <<
	.uleb128 .Ltmp162-.Lfunc_begin15        #   Call between .Lfunc_begin15 and .Ltmp162
	.byte	0                               #     has no landing pad
	.byte	0                               #   On action: cleanup
	.uleb128 .Ltmp162-.Lfunc_begin15        # >> Call Site 2 <<
	.uleb128 .Ltmp163-.Ltmp162              #   Call between .Ltmp162 and .Ltmp163
	.uleb128 .Ltmp164-.Lfunc_begin15        #     jumps to .Ltmp164
	.byte	0                               #   On action: cleanup
	.uleb128 .Ltmp165-.Lfunc_begin15        # >> Call Site 3 <<
	.uleb128 .Ltmp166-.Ltmp165              #   Call between .Ltmp165 and .Ltmp166
	.uleb128 .Ltmp167-.Lfunc_begin15        #     jumps to .Ltmp167
	.byte	0                               #   On action: cleanup
	.uleb128 .Ltmp168-.Lfunc_begin15        # >> Call Site 4 <<
	.uleb128 .Ltmp169-.Ltmp168              #   Call between .Ltmp168 and .Ltmp169
	.uleb128 .Ltmp175-.Lfunc_begin15        #     jumps to .Ltmp175
	.byte	0                               #   On action: cleanup
	.uleb128 .Ltmp170-.Lfunc_begin15        # >> Call Site 5 <<
	.uleb128 .Ltmp171-.Ltmp170              #   Call between .Ltmp170 and .Ltmp171
	.uleb128 .Ltmp172-.Lfunc_begin15        #     jumps to .Ltmp172
	.byte	0                               #   On action: cleanup
	.uleb128 .Ltmp173-.Lfunc_begin15        # >> Call Site 6 <<
	.uleb128 .Ltmp174-.Ltmp173              #   Call between .Ltmp173 and .Ltmp174
	.uleb128 .Ltmp175-.Lfunc_begin15        #     jumps to .Ltmp175
	.byte	0                               #   On action: cleanup
	.uleb128 .Ltmp174-.Lfunc_begin15        # >> Call Site 7 <<
	.uleb128 .Lfunc_end15-.Ltmp174          #   Call between .Ltmp174 and .Lfunc_end15
	.byte	0                               #     has no landing pad
	.byte	0                               #   On action: cleanup
.Lcst_end15:
	.p2align	2, 0x0
                                        # -- End function
	.section	.text._Z40autovec_early_exit_taken_mid_single_loadIjEvRN9benchmark5StateE,"axG",@progbits,_Z40autovec_early_exit_taken_mid_single_loadIjEvRN9benchmark5StateE,comdat
	.weak	_Z40autovec_early_exit_taken_mid_single_loadIjEvRN9benchmark5StateE # -- Begin function _Z40autovec_early_exit_taken_mid_single_loadIjEvRN9benchmark5StateE
	.p2align	2
	.prefalign	5, .Lfunc_end16, nop
	.type	_Z40autovec_early_exit_taken_mid_single_loadIjEvRN9benchmark5StateE,@function
_Z40autovec_early_exit_taken_mid_single_loadIjEvRN9benchmark5StateE: # @_Z40autovec_early_exit_taken_mid_single_loadIjEvRN9benchmark5StateE
.Lfunc_begin16:
	.cfi_startproc
	.cfi_personality 155, DW.ref.__gxx_personality_v0
	.cfi_lsda 27, .Lexception16
# %bb.0:
	addi.d	$sp, $sp, -144
	.cfi_def_cfa_offset 144
	st.d	$ra, $sp, 136                   # 8-byte Folded Spill
	st.d	$fp, $sp, 128                   # 8-byte Folded Spill
	st.d	$s0, $sp, 120                   # 8-byte Folded Spill
	st.d	$s1, $sp, 112                   # 8-byte Folded Spill
	st.d	$s2, $sp, 104                   # 8-byte Folded Spill
	st.d	$s3, $sp, 96                    # 8-byte Folded Spill
	st.d	$s4, $sp, 88                    # 8-byte Folded Spill
	st.d	$s5, $sp, 80                    # 8-byte Folded Spill
	.cfi_offset 1, -8
	.cfi_offset 22, -16
	.cfi_offset 23, -24
	.cfi_offset 24, -32
	.cfi_offset 25, -40
	.cfi_offset 26, -48
	.cfi_offset 27, -56
	.cfi_offset 28, -64
	move	$fp, $a0
	pcalau12i	$a0, %pc_hi20(_ZL29singleEarlyExitWithSingleLoadIjEmPT_S1_S1_i)
	addi.d	$a0, $a0, %pc_lo12(_ZL29singleEarlyExitWithSingleLoadIjEmPT_S1_S1_i)
	ld.d	$a1, $fp, 32
	ld.d	$s4, $a1, 0
	st.d	$a0, $sp, 72
	st.d	$s4, $sp, 64
	srli.d	$a0, $s4, 62
	sltu	$a0, $zero, $a0
	slli.d	$s5, $s4, 2
	masknez	$a1, $s5, $a0
	addi.w	$a2, $zero, -1
	maskeqz	$a0, $a2, $a0
	or	$s3, $a0, $a1
	move	$a0, $s3
	pcaddu18i	$ra, %call36(_Znam)
	jirl	$ra, $ra, 0
	move	$s0, $a0
	st.d	$a0, $sp, 56
.Ltmp176:                               # EH_LABEL
	move	$a0, $s3
	pcaddu18i	$ra, %call36(_Znam)
	jirl	$ra, $ra, 0
.Ltmp177:                               # EH_LABEL
# %bb.1:
	move	$s2, $a0
	move	$s1, $a0
	st.d	$s2, $sp, 48
.Ltmp179:                               # EH_LABEL
	move	$a0, $s3
	pcaddu18i	$ra, %call36(_Znam)
	jirl	$ra, $ra, 0
.Ltmp180:                               # EH_LABEL
# %bb.2:
	slli.d	$a2, $s4, 32
	st.d	$a0, $sp, 40
	beqz	$a2, .LBB16_39
# %bb.3:                                # %iter.check
	move	$a1, $a0
	bstrpick.d	$a5, $s5, 33, 2
	slli.d	$a2, $a5, 2
	addi.d	$a4, $a2, -4
	srli.d	$a3, $a4, 2
	ori	$a7, $zero, 12
	addi.d	$a3, $a3, 1
	move	$a6, $s0
	bltu	$a4, $a7, .LBB16_13
# %bb.4:                                # %vector.main.loop.iter.check
	ori	$a6, $zero, 60
	bgeu	$a4, $a6, .LBB16_6
# %bb.5:
	move	$a7, $zero
	b	.LBB16_10
.LBB16_6:                               # %vector.ph
	andi	$t0, $a3, 12
	bstrpick.d	$a6, $a3, 62, 4
	slli.d	$a7, $a6, 4
	slli.d	$a6, $a6, 6
	add.d	$a6, $s0, $a6
	addi.d	$t1, $s0, 32
	xvrepli.w	$xr0, 1
	move	$t2, $a7
	.p2align	4, , 16
.LBB16_7:                               # %vector.body
                                        # =>This Inner Loop Header: Depth=1
	xvst	$xr0, $t1, -32
	xvst	$xr0, $t1, 0
	addi.d	$t2, $t2, -16
	addi.d	$t1, $t1, 64
	bnez	$t2, .LBB16_7
# %bb.8:                                # %middle.block
	beq	$a3, $a7, .LBB16_15
# %bb.9:                                # %vec.epilog.iter.check
	beqz	$t0, .LBB16_13
.LBB16_10:                              # %vec.epilog.ph
	bstrpick.d	$a6, $a3, 62, 2
	slli.d	$t0, $a6, 2
	alsl.d	$a6, $a6, $s0, 4
	alsl.d	$t1, $a7, $s0, 2
	sub.d	$a7, $a7, $t0
	vrepli.w	$vr0, 1
	.p2align	4, , 16
.LBB16_11:                              # %vec.epilog.vector.body
                                        # =>This Inner Loop Header: Depth=1
	vst	$vr0, $t1, 0
	addi.d	$a7, $a7, 4
	addi.d	$t1, $t1, 16
	bnez	$a7, .LBB16_11
# %bb.12:                               # %vec.epilog.middle.block
	beq	$a3, $t0, .LBB16_15
.LBB16_13:                              # %.lr.ph.i.i.i.i.i.preheader
	alsl.d	$a5, $a5, $s0, 2
	ori	$a7, $zero, 1
	.p2align	4, , 16
.LBB16_14:                              # %.lr.ph.i.i.i.i.i
                                        # =>This Inner Loop Header: Depth=1
	st.w	$a7, $a6, 0
	addi.d	$a6, $a6, 4
	bne	$a6, $a5, .LBB16_14
.LBB16_15:                              # %iter.check73
	ori	$a5, $zero, 12
	bltu	$a4, $a5, .LBB16_25
# %bb.16:                               # %vector.main.loop.iter.check60
	ori	$a5, $zero, 60
	bgeu	$a4, $a5, .LBB16_18
# %bb.17:
	move	$a5, $zero
	b	.LBB16_22
.LBB16_18:                              # %vector.ph62
	andi	$a6, $a3, 12
	bstrpick.d	$a7, $a3, 62, 4
	slli.d	$a5, $a7, 4
	slli.d	$a7, $a7, 6
	add.d	$s1, $s2, $a7
	addi.d	$a7, $s2, 32
	xvrepli.w	$xr0, 1
	move	$t0, $a5
	.p2align	4, , 16
.LBB16_19:                              # %vector.body65
                                        # =>This Inner Loop Header: Depth=1
	xvst	$xr0, $a7, -32
	xvst	$xr0, $a7, 0
	addi.d	$t0, $t0, -16
	addi.d	$a7, $a7, 64
	bnez	$t0, .LBB16_19
# %bb.20:                               # %middle.block70
	beq	$a3, $a5, .LBB16_27
# %bb.21:                               # %vec.epilog.iter.check75
	beqz	$a6, .LBB16_25
.LBB16_22:                              # %vec.epilog.ph77
	bstrpick.d	$a7, $a3, 62, 2
	slli.d	$a6, $a7, 2
	alsl.d	$s1, $a7, $s2, 4
	alsl.d	$a7, $a5, $s2, 2
	sub.d	$a5, $a5, $a6
	vrepli.w	$vr0, 1
	.p2align	4, , 16
.LBB16_23:                              # %vec.epilog.vector.body80
                                        # =>This Inner Loop Header: Depth=1
	vst	$vr0, $a7, 0
	addi.d	$a5, $a5, 4
	addi.d	$a7, $a7, 16
	bnez	$a5, .LBB16_23
# %bb.24:                               # %vec.epilog.middle.block84
	beq	$a3, $a6, .LBB16_27
.LBB16_25:                              # %.lr.ph.i.i.i.i.i4.preheader
	add.d	$a5, $s2, $a2
	ori	$a6, $zero, 1
	.p2align	4, , 16
.LBB16_26:                              # %.lr.ph.i.i.i.i.i4
                                        # =>This Inner Loop Header: Depth=1
	st.w	$a6, $s1, 0
	addi.d	$s1, $s1, 4
	bne	$s1, $a5, .LBB16_26
.LBB16_27:                              # %iter.check101
	ori	$a5, $zero, 12
	bltu	$a4, $a5, .LBB16_37
# %bb.28:                               # %vector.main.loop.iter.check88
	ori	$a1, $zero, 60
	bgeu	$a4, $a1, .LBB16_30
# %bb.29:
	move	$a4, $zero
	b	.LBB16_34
.LBB16_30:                              # %vector.ph90
	andi	$a5, $a3, 12
	bstrpick.d	$a1, $a3, 62, 4
	slli.d	$a4, $a1, 4
	slli.d	$a1, $a1, 6
	add.d	$a1, $a0, $a1
	addi.d	$a6, $a0, 32
	xvrepli.w	$xr0, 1
	move	$a7, $a4
	.p2align	4, , 16
.LBB16_31:                              # %vector.body93
                                        # =>This Inner Loop Header: Depth=1
	xvst	$xr0, $a6, -32
	xvst	$xr0, $a6, 0
	addi.d	$a7, $a7, -16
	addi.d	$a6, $a6, 64
	bnez	$a7, .LBB16_31
# %bb.32:                               # %middle.block98
	beq	$a3, $a4, .LBB16_39
# %bb.33:                               # %vec.epilog.iter.check103
	beqz	$a5, .LBB16_37
.LBB16_34:                              # %vec.epilog.ph105
	bstrpick.d	$a1, $a3, 62, 2
	slli.d	$a5, $a1, 2
	alsl.d	$a1, $a1, $a0, 4
	alsl.d	$a6, $a4, $a0, 2
	sub.d	$a4, $a4, $a5
	vrepli.w	$vr0, 1
	.p2align	4, , 16
.LBB16_35:                              # %vec.epilog.vector.body108
                                        # =>This Inner Loop Header: Depth=1
	vst	$vr0, $a6, 0
	addi.d	$a4, $a4, 4
	addi.d	$a6, $a6, 16
	bnez	$a4, .LBB16_35
# %bb.36:                               # %vec.epilog.middle.block112
	beq	$a3, $a5, .LBB16_39
.LBB16_37:                              # %.lr.ph.i.i.i.i.i9.preheader
	add.d	$a0, $a0, $a2
	ori	$a2, $zero, 1
	.p2align	4, , 16
.LBB16_38:                              # %.lr.ph.i.i.i.i.i9
                                        # =>This Inner Loop Header: Depth=1
	st.w	$a2, $a1, 0
	addi.d	$a1, $a1, 4
	bne	$a1, $a0, .LBB16_38
.LBB16_39:                              # %_ZL9init_dataIjEvRKSt10unique_ptrIA_T_St14default_deleteIS2_EEj.exit12
	srli.d	$a0, $s4, 63
	add.d	$a0, $s4, $a0
	slli.d	$a0, $a0, 1
	ld.w	$s2, $fp, 28
	ld.d	$s1, $fp, 16
	bstrins.d	$a0, $zero, 1, 0
	stx.w	$zero, $s0, $a0
	st.d	$zero, $sp, 32
.Ltmp182:                               # EH_LABEL
	move	$a0, $fp
	pcaddu18i	$ra, %call36(_ZN9benchmark5State16StartKeepRunningEv)
	jirl	$ra, $ra, 0
.Ltmp183:                               # EH_LABEL
# %bb.40:                               # %_ZN9benchmark5State3endEv.exit.i.preheader
	bnez	$s2, .LBB16_45
# %bb.41:                               # %_ZN9benchmark5State3endEv.exit.i.preheader
	beqz	$s1, .LBB16_45
# %bb.42:
	addi.d	$s0, $sp, 56
	addi.d	$s2, $sp, 48
	addi.d	$s3, $sp, 40
	addi.d	$s4, $sp, 32
	.p2align	4, , 16
.LBB16_43:                              # %.lr.ph
                                        # =>This Inner Loop Header: Depth=1
	#APP
	#NO_APP
	#APP
	#NO_APP
	#APP
	#NO_APP
	#APP
	#NO_APP
	#MEMBARRIER
	ld.d	$a0, $sp, 56
	ld.d	$a1, $sp, 48
	ld.d	$a2, $sp, 40
	st.d	$a0, $sp, 24
	st.d	$a1, $sp, 16
	st.d	$a2, $sp, 8
.Ltmp184:                               # EH_LABEL
	addi.d	$a0, $sp, 72
	addi.d	$a1, $sp, 24
	addi.d	$a2, $sp, 16
	addi.d	$a3, $sp, 8
	addi.d	$a4, $sp, 64
	pcaddu18i	$ra, %call36(_ZL18callThroughOptnoneIRPFmPjS0_S0_iEJS0_S0_S0_RlEEmOT_DpOT0_)
	jirl	$ra, $ra, 0
.Ltmp185:                               # EH_LABEL
# %bb.44:                               # %_ZN9benchmark5State3endEv.exit.i
                                        #   in Loop: Header=BB16_43 Depth=1
	ld.d	$a1, $sp, 32
	add.d	$a0, $a1, $a0
	addi.d	$s1, $s1, -1
	st.d	$a0, $sp, 32
	bnez	$s1, .LBB16_43
.LBB16_45:                              # %_ZN9benchmark5State3endEv.exit.i._crit_edge
.Ltmp187:                               # EH_LABEL
	move	$a0, $fp
	pcaddu18i	$ra, %call36(_ZN9benchmark5State17FinishKeepRunningEv)
	jirl	$ra, $ra, 0
.Ltmp188:                               # EH_LABEL
# %bb.46:                               # %_ZL21runEarlyExitBenchmarkIjEvRN9benchmark5StateEPFmPT_S4_S4_iE17EarlyExitPosition.exit
	ld.d	$a0, $sp, 40
	beqz	$a0, .LBB16_48
# %bb.47:                               # %_ZNKSt14default_deleteIA_jEclIjEENSt9enable_ifIXsr14is_convertibleIPA_T_PS0_EE5valueEvE4typeEPS4_.exit.i20
	pcaddu18i	$ra, %call36(_ZdaPv)
	jirl	$ra, $ra, 0
.LBB16_48:                              # %_ZNSt10unique_ptrIA_jSt14default_deleteIS0_EED2Ev.exit21
	ld.d	$a0, $sp, 48
	beqz	$a0, .LBB16_50
# %bb.49:                               # %_ZNKSt14default_deleteIA_jEclIjEENSt9enable_ifIXsr14is_convertibleIPA_T_PS0_EE5valueEvE4typeEPS4_.exit.i23
	pcaddu18i	$ra, %call36(_ZdaPv)
	jirl	$ra, $ra, 0
.LBB16_50:                              # %_ZNSt10unique_ptrIA_jSt14default_deleteIS0_EED2Ev.exit24
	ld.d	$a0, $sp, 56
	beqz	$a0, .LBB16_52
# %bb.51:                               # %_ZNKSt14default_deleteIA_jEclIjEENSt9enable_ifIXsr14is_convertibleIPA_T_PS0_EE5valueEvE4typeEPS4_.exit.i26
	pcaddu18i	$ra, %call36(_ZdaPv)
	jirl	$ra, $ra, 0
.LBB16_52:                              # %_ZNSt10unique_ptrIA_jSt14default_deleteIS0_EED2Ev.exit27
	ld.d	$s5, $sp, 80                    # 8-byte Folded Reload
	ld.d	$s4, $sp, 88                    # 8-byte Folded Reload
	ld.d	$s3, $sp, 96                    # 8-byte Folded Reload
	ld.d	$s2, $sp, 104                   # 8-byte Folded Reload
	ld.d	$s1, $sp, 112                   # 8-byte Folded Reload
	ld.d	$s0, $sp, 120                   # 8-byte Folded Reload
	ld.d	$fp, $sp, 128                   # 8-byte Folded Reload
	ld.d	$ra, $sp, 136                   # 8-byte Folded Reload
	addi.d	$sp, $sp, 144
	ret
.LBB16_53:                              # %_ZNSt10unique_ptrIA_jSt14default_deleteIS0_EED2Ev.exit.thread
.Ltmp181:                               # EH_LABEL
	move	$fp, $a0
	b	.LBB16_62
.LBB16_54:                              # %_ZNSt10unique_ptrIA_jSt14default_deleteIS0_EED2Ev.exit15.thread
.Ltmp178:                               # EH_LABEL
	move	$fp, $a0
	move	$a0, $s0
	pcaddu18i	$ra, %call36(_ZdaPv)
	jirl	$ra, $ra, 0
	move	$a0, $fp
	pcaddu18i	$ra, %call36(_Unwind_Resume)
	jirl	$ra, $ra, 0
.LBB16_55:
.Ltmp189:                               # EH_LABEL
	b	.LBB16_57
.LBB16_56:
.Ltmp186:                               # EH_LABEL
.LBB16_57:
	move	$fp, $a0
	ld.d	$a0, $sp, 40
	bnez	$a0, .LBB16_61
# %bb.58:                               # %_ZNSt10unique_ptrIA_jSt14default_deleteIS0_EED2Ev.exit
	ld.d	$s1, $sp, 48
	bnez	$s1, .LBB16_62
.LBB16_59:                              # %_ZNSt10unique_ptrIA_jSt14default_deleteIS0_EED2Ev.exit15
	ld.d	$s0, $sp, 56
	bnez	$s0, .LBB16_63
.LBB16_60:                              # %_ZNSt10unique_ptrIA_jSt14default_deleteIS0_EED2Ev.exit18
	move	$a0, $fp
	pcaddu18i	$ra, %call36(_Unwind_Resume)
	jirl	$ra, $ra, 0
.LBB16_61:                              # %_ZNKSt14default_deleteIA_jEclIjEENSt9enable_ifIXsr14is_convertibleIPA_T_PS0_EE5valueEvE4typeEPS4_.exit.i
	pcaddu18i	$ra, %call36(_ZdaPv)
	jirl	$ra, $ra, 0
	ld.d	$s1, $sp, 48
	beqz	$s1, .LBB16_59
.LBB16_62:                              # %_ZNKSt14default_deleteIA_jEclIjEENSt9enable_ifIXsr14is_convertibleIPA_T_PS0_EE5valueEvE4typeEPS4_.exit.i14
	move	$a0, $s1
	pcaddu18i	$ra, %call36(_ZdaPv)
	jirl	$ra, $ra, 0
	ld.d	$s0, $sp, 56
	beqz	$s0, .LBB16_60
.LBB16_63:                              # %_ZNKSt14default_deleteIA_jEclIjEENSt9enable_ifIXsr14is_convertibleIPA_T_PS0_EE5valueEvE4typeEPS4_.exit.i17
	move	$a0, $s0
	pcaddu18i	$ra, %call36(_ZdaPv)
	jirl	$ra, $ra, 0
	move	$a0, $fp
	pcaddu18i	$ra, %call36(_Unwind_Resume)
	jirl	$ra, $ra, 0
.Lfunc_end16:
	.size	_Z40autovec_early_exit_taken_mid_single_loadIjEvRN9benchmark5StateE, .Lfunc_end16-_Z40autovec_early_exit_taken_mid_single_loadIjEvRN9benchmark5StateE
	.cfi_endproc
	.section	.gcc_except_table._Z40autovec_early_exit_taken_mid_single_loadIjEvRN9benchmark5StateE,"aG",@progbits,_Z40autovec_early_exit_taken_mid_single_loadIjEvRN9benchmark5StateE,comdat
	.p2align	2, 0x0
GCC_except_table16:
.Lexception16:
	.byte	255                             # @LPStart Encoding = omit
	.byte	255                             # @TType Encoding = omit
	.byte	1                               # Call site Encoding = uleb128
	.uleb128 .Lcst_end16-.Lcst_begin16
.Lcst_begin16:
	.uleb128 .Lfunc_begin16-.Lfunc_begin16  # >> Call Site 1 <<
	.uleb128 .Ltmp176-.Lfunc_begin16        #   Call between .Lfunc_begin16 and .Ltmp176
	.byte	0                               #     has no landing pad
	.byte	0                               #   On action: cleanup
	.uleb128 .Ltmp176-.Lfunc_begin16        # >> Call Site 2 <<
	.uleb128 .Ltmp177-.Ltmp176              #   Call between .Ltmp176 and .Ltmp177
	.uleb128 .Ltmp178-.Lfunc_begin16        #     jumps to .Ltmp178
	.byte	0                               #   On action: cleanup
	.uleb128 .Ltmp179-.Lfunc_begin16        # >> Call Site 3 <<
	.uleb128 .Ltmp180-.Ltmp179              #   Call between .Ltmp179 and .Ltmp180
	.uleb128 .Ltmp181-.Lfunc_begin16        #     jumps to .Ltmp181
	.byte	0                               #   On action: cleanup
	.uleb128 .Ltmp182-.Lfunc_begin16        # >> Call Site 4 <<
	.uleb128 .Ltmp183-.Ltmp182              #   Call between .Ltmp182 and .Ltmp183
	.uleb128 .Ltmp189-.Lfunc_begin16        #     jumps to .Ltmp189
	.byte	0                               #   On action: cleanup
	.uleb128 .Ltmp184-.Lfunc_begin16        # >> Call Site 5 <<
	.uleb128 .Ltmp185-.Ltmp184              #   Call between .Ltmp184 and .Ltmp185
	.uleb128 .Ltmp186-.Lfunc_begin16        #     jumps to .Ltmp186
	.byte	0                               #   On action: cleanup
	.uleb128 .Ltmp187-.Lfunc_begin16        # >> Call Site 6 <<
	.uleb128 .Ltmp188-.Ltmp187              #   Call between .Ltmp187 and .Ltmp188
	.uleb128 .Ltmp189-.Lfunc_begin16        #     jumps to .Ltmp189
	.byte	0                               #   On action: cleanup
	.uleb128 .Ltmp188-.Lfunc_begin16        # >> Call Site 7 <<
	.uleb128 .Lfunc_end16-.Ltmp188          #   Call between .Ltmp188 and .Lfunc_end16
	.byte	0                               #     has no landing pad
	.byte	0                               #   On action: cleanup
.Lcst_end16:
	.p2align	2, 0x0
                                        # -- End function
	.section	.text._Z40autovec_early_exit_taken_mid_single_loadImEvRN9benchmark5StateE,"axG",@progbits,_Z40autovec_early_exit_taken_mid_single_loadImEvRN9benchmark5StateE,comdat
	.weak	_Z40autovec_early_exit_taken_mid_single_loadImEvRN9benchmark5StateE # -- Begin function _Z40autovec_early_exit_taken_mid_single_loadImEvRN9benchmark5StateE
	.p2align	2
	.prefalign	5, .Lfunc_end17, nop
	.type	_Z40autovec_early_exit_taken_mid_single_loadImEvRN9benchmark5StateE,@function
_Z40autovec_early_exit_taken_mid_single_loadImEvRN9benchmark5StateE: # @_Z40autovec_early_exit_taken_mid_single_loadImEvRN9benchmark5StateE
.Lfunc_begin17:
	.cfi_startproc
	.cfi_personality 155, DW.ref.__gxx_personality_v0
	.cfi_lsda 27, .Lexception17
# %bb.0:
	addi.d	$sp, $sp, -144
	.cfi_def_cfa_offset 144
	st.d	$ra, $sp, 136                   # 8-byte Folded Spill
	st.d	$fp, $sp, 128                   # 8-byte Folded Spill
	st.d	$s0, $sp, 120                   # 8-byte Folded Spill
	st.d	$s1, $sp, 112                   # 8-byte Folded Spill
	st.d	$s2, $sp, 104                   # 8-byte Folded Spill
	st.d	$s3, $sp, 96                    # 8-byte Folded Spill
	st.d	$s4, $sp, 88                    # 8-byte Folded Spill
	st.d	$s5, $sp, 80                    # 8-byte Folded Spill
	.cfi_offset 1, -8
	.cfi_offset 22, -16
	.cfi_offset 23, -24
	.cfi_offset 24, -32
	.cfi_offset 25, -40
	.cfi_offset 26, -48
	.cfi_offset 27, -56
	.cfi_offset 28, -64
	move	$fp, $a0
	pcalau12i	$a0, %pc_hi20(_ZL29singleEarlyExitWithSingleLoadImEmPT_S1_S1_i)
	addi.d	$a0, $a0, %pc_lo12(_ZL29singleEarlyExitWithSingleLoadImEmPT_S1_S1_i)
	ld.d	$a1, $fp, 32
	ld.d	$s4, $a1, 0
	st.d	$a0, $sp, 72
	st.d	$s4, $sp, 64
	srli.d	$a0, $s4, 61
	sltu	$a0, $zero, $a0
	slli.d	$s5, $s4, 3
	masknez	$a1, $s5, $a0
	addi.w	$a2, $zero, -1
	maskeqz	$a0, $a2, $a0
	or	$s3, $a0, $a1
	move	$a0, $s3
	pcaddu18i	$ra, %call36(_Znam)
	jirl	$ra, $ra, 0
	move	$s0, $a0
	st.d	$a0, $sp, 56
.Ltmp190:                               # EH_LABEL
	move	$a0, $s3
	pcaddu18i	$ra, %call36(_Znam)
	jirl	$ra, $ra, 0
.Ltmp191:                               # EH_LABEL
# %bb.1:
	move	$s2, $a0
	move	$s1, $a0
	st.d	$s2, $sp, 48
.Ltmp193:                               # EH_LABEL
	move	$a0, $s3
	pcaddu18i	$ra, %call36(_Znam)
	jirl	$ra, $ra, 0
.Ltmp194:                               # EH_LABEL
# %bb.2:
	slli.d	$a2, $s4, 32
	st.d	$a0, $sp, 40
	beqz	$a2, .LBB17_21
# %bb.3:
	move	$a1, $a0
	bstrpick.d	$a5, $s5, 34, 3
	slli.d	$a2, $a5, 3
	addi.d	$a4, $a2, -8
	srli.d	$a3, $a4, 3
	addi.d	$a3, $a3, 1
	ori	$a7, $zero, 56
	xvrepli.d	$xr0, 1
	move	$a6, $s0
	bltu	$a4, $a7, .LBB17_7
# %bb.4:                                # %vector.ph
	bstrpick.d	$a6, $a3, 61, 3
	slli.d	$a7, $a6, 3
	slli.d	$a6, $a6, 6
	add.d	$a6, $s0, $a6
	addi.d	$t0, $s0, 32
	move	$t1, $a7
	.p2align	4, , 16
.LBB17_5:                               # %vector.body
                                        # =>This Inner Loop Header: Depth=1
	xvst	$xr0, $t0, -32
	xvst	$xr0, $t0, 0
	addi.d	$t1, $t1, -8
	addi.d	$t0, $t0, 64
	bnez	$t1, .LBB17_5
# %bb.6:                                # %middle.block
	beq	$a3, $a7, .LBB17_9
.LBB17_7:                               # %.lr.ph.i.i.i.i.i.preheader
	alsl.d	$a5, $a5, $s0, 3
	ori	$a7, $zero, 1
	.p2align	4, , 16
.LBB17_8:                               # %.lr.ph.i.i.i.i.i
                                        # =>This Inner Loop Header: Depth=1
	st.d	$a7, $a6, 0
	addi.d	$a6, $a6, 8
	bne	$a6, $a5, .LBB17_8
.LBB17_9:                               # %_ZL9init_dataImEvRKSt10unique_ptrIA_T_St14default_deleteIS2_EEj.exit
	ori	$a5, $zero, 56
	bltu	$a4, $a5, .LBB17_13
# %bb.10:                               # %vector.ph53
	bstrpick.d	$a6, $a3, 61, 3
	slli.d	$a5, $a6, 3
	slli.d	$a6, $a6, 6
	add.d	$s1, $s2, $a6
	addi.d	$a6, $s2, 32
	move	$a7, $a5
	.p2align	4, , 16
.LBB17_11:                              # %vector.body56
                                        # =>This Inner Loop Header: Depth=1
	xvst	$xr0, $a6, -32
	xvst	$xr0, $a6, 0
	addi.d	$a7, $a7, -8
	addi.d	$a6, $a6, 64
	bnez	$a7, .LBB17_11
# %bb.12:                               # %middle.block61
	beq	$a3, $a5, .LBB17_15
.LBB17_13:                              # %.lr.ph.i.i.i.i.i4.preheader
	add.d	$a5, $s2, $a2
	ori	$a6, $zero, 1
	.p2align	4, , 16
.LBB17_14:                              # %.lr.ph.i.i.i.i.i4
                                        # =>This Inner Loop Header: Depth=1
	st.d	$a6, $s1, 0
	addi.d	$s1, $s1, 8
	bne	$s1, $a5, .LBB17_14
.LBB17_15:                              # %_ZL9init_dataImEvRKSt10unique_ptrIA_T_St14default_deleteIS2_EEj.exit7
	ori	$a5, $zero, 56
	bltu	$a4, $a5, .LBB17_19
# %bb.16:                               # %vector.ph66
	bstrpick.d	$a1, $a3, 61, 3
	slli.d	$a4, $a1, 3
	slli.d	$a1, $a1, 6
	add.d	$a1, $a0, $a1
	addi.d	$a5, $a0, 32
	move	$a6, $a4
	.p2align	4, , 16
.LBB17_17:                              # %vector.body69
                                        # =>This Inner Loop Header: Depth=1
	xvst	$xr0, $a5, -32
	xvst	$xr0, $a5, 0
	addi.d	$a6, $a6, -8
	addi.d	$a5, $a5, 64
	bnez	$a6, .LBB17_17
# %bb.18:                               # %middle.block74
	beq	$a3, $a4, .LBB17_21
.LBB17_19:                              # %.lr.ph.i.i.i.i.i9.preheader
	add.d	$a0, $a0, $a2
	ori	$a2, $zero, 1
	.p2align	4, , 16
.LBB17_20:                              # %.lr.ph.i.i.i.i.i9
                                        # =>This Inner Loop Header: Depth=1
	st.d	$a2, $a1, 0
	addi.d	$a1, $a1, 8
	bne	$a1, $a0, .LBB17_20
.LBB17_21:                              # %_ZL9init_dataImEvRKSt10unique_ptrIA_T_St14default_deleteIS2_EEj.exit12
	srli.d	$a0, $s4, 63
	add.d	$a0, $s4, $a0
	slli.d	$a0, $a0, 2
	ld.w	$s2, $fp, 28
	ld.d	$s1, $fp, 16
	bstrins.d	$a0, $zero, 2, 0
	stx.d	$zero, $s0, $a0
	st.d	$zero, $sp, 32
.Ltmp196:                               # EH_LABEL
	move	$a0, $fp
	pcaddu18i	$ra, %call36(_ZN9benchmark5State16StartKeepRunningEv)
	jirl	$ra, $ra, 0
.Ltmp197:                               # EH_LABEL
# %bb.22:                               # %_ZN9benchmark5State3endEv.exit.i.preheader
	bnez	$s2, .LBB17_27
# %bb.23:                               # %_ZN9benchmark5State3endEv.exit.i.preheader
	beqz	$s1, .LBB17_27
# %bb.24:
	addi.d	$s0, $sp, 56
	addi.d	$s2, $sp, 48
	addi.d	$s3, $sp, 40
	addi.d	$s4, $sp, 32
	.p2align	4, , 16
.LBB17_25:                              # %.lr.ph
                                        # =>This Inner Loop Header: Depth=1
	#APP
	#NO_APP
	#APP
	#NO_APP
	#APP
	#NO_APP
	#APP
	#NO_APP
	#MEMBARRIER
	ld.d	$a0, $sp, 56
	ld.d	$a1, $sp, 48
	ld.d	$a2, $sp, 40
	st.d	$a0, $sp, 24
	st.d	$a1, $sp, 16
	st.d	$a2, $sp, 8
.Ltmp198:                               # EH_LABEL
	addi.d	$a0, $sp, 72
	addi.d	$a1, $sp, 24
	addi.d	$a2, $sp, 16
	addi.d	$a3, $sp, 8
	addi.d	$a4, $sp, 64
	pcaddu18i	$ra, %call36(_ZL18callThroughOptnoneIRPFmPmS0_S0_iEJS0_S0_S0_RlEEmOT_DpOT0_)
	jirl	$ra, $ra, 0
.Ltmp199:                               # EH_LABEL
# %bb.26:                               # %_ZN9benchmark5State3endEv.exit.i
                                        #   in Loop: Header=BB17_25 Depth=1
	ld.d	$a1, $sp, 32
	add.d	$a0, $a1, $a0
	addi.d	$s1, $s1, -1
	st.d	$a0, $sp, 32
	bnez	$s1, .LBB17_25
.LBB17_27:                              # %_ZN9benchmark5State3endEv.exit.i._crit_edge
.Ltmp201:                               # EH_LABEL
	move	$a0, $fp
	pcaddu18i	$ra, %call36(_ZN9benchmark5State17FinishKeepRunningEv)
	jirl	$ra, $ra, 0
.Ltmp202:                               # EH_LABEL
# %bb.28:                               # %_ZL21runEarlyExitBenchmarkImEvRN9benchmark5StateEPFmPT_S4_S4_iE17EarlyExitPosition.exit
	ld.d	$a0, $sp, 40
	beqz	$a0, .LBB17_30
# %bb.29:                               # %_ZNKSt14default_deleteIA_mEclImEENSt9enable_ifIXsr14is_convertibleIPA_T_PS0_EE5valueEvE4typeEPS4_.exit.i20
	pcaddu18i	$ra, %call36(_ZdaPv)
	jirl	$ra, $ra, 0
.LBB17_30:                              # %_ZNSt10unique_ptrIA_mSt14default_deleteIS0_EED2Ev.exit21
	ld.d	$a0, $sp, 48
	beqz	$a0, .LBB17_32
# %bb.31:                               # %_ZNKSt14default_deleteIA_mEclImEENSt9enable_ifIXsr14is_convertibleIPA_T_PS0_EE5valueEvE4typeEPS4_.exit.i23
	pcaddu18i	$ra, %call36(_ZdaPv)
	jirl	$ra, $ra, 0
.LBB17_32:                              # %_ZNSt10unique_ptrIA_mSt14default_deleteIS0_EED2Ev.exit24
	ld.d	$a0, $sp, 56
	beqz	$a0, .LBB17_34
# %bb.33:                               # %_ZNKSt14default_deleteIA_mEclImEENSt9enable_ifIXsr14is_convertibleIPA_T_PS0_EE5valueEvE4typeEPS4_.exit.i26
	pcaddu18i	$ra, %call36(_ZdaPv)
	jirl	$ra, $ra, 0
.LBB17_34:                              # %_ZNSt10unique_ptrIA_mSt14default_deleteIS0_EED2Ev.exit27
	ld.d	$s5, $sp, 80                    # 8-byte Folded Reload
	ld.d	$s4, $sp, 88                    # 8-byte Folded Reload
	ld.d	$s3, $sp, 96                    # 8-byte Folded Reload
	ld.d	$s2, $sp, 104                   # 8-byte Folded Reload
	ld.d	$s1, $sp, 112                   # 8-byte Folded Reload
	ld.d	$s0, $sp, 120                   # 8-byte Folded Reload
	ld.d	$fp, $sp, 128                   # 8-byte Folded Reload
	ld.d	$ra, $sp, 136                   # 8-byte Folded Reload
	addi.d	$sp, $sp, 144
	ret
.LBB17_35:                              # %_ZNSt10unique_ptrIA_mSt14default_deleteIS0_EED2Ev.exit.thread
.Ltmp195:                               # EH_LABEL
	move	$fp, $a0
	b	.LBB17_44
.LBB17_36:                              # %_ZNSt10unique_ptrIA_mSt14default_deleteIS0_EED2Ev.exit15.thread
.Ltmp192:                               # EH_LABEL
	move	$fp, $a0
	move	$a0, $s0
	pcaddu18i	$ra, %call36(_ZdaPv)
	jirl	$ra, $ra, 0
	move	$a0, $fp
	pcaddu18i	$ra, %call36(_Unwind_Resume)
	jirl	$ra, $ra, 0
.LBB17_37:
.Ltmp203:                               # EH_LABEL
	b	.LBB17_39
.LBB17_38:
.Ltmp200:                               # EH_LABEL
.LBB17_39:
	move	$fp, $a0
	ld.d	$a0, $sp, 40
	bnez	$a0, .LBB17_43
# %bb.40:                               # %_ZNSt10unique_ptrIA_mSt14default_deleteIS0_EED2Ev.exit
	ld.d	$s1, $sp, 48
	bnez	$s1, .LBB17_44
.LBB17_41:                              # %_ZNSt10unique_ptrIA_mSt14default_deleteIS0_EED2Ev.exit15
	ld.d	$s0, $sp, 56
	bnez	$s0, .LBB17_45
.LBB17_42:                              # %_ZNSt10unique_ptrIA_mSt14default_deleteIS0_EED2Ev.exit18
	move	$a0, $fp
	pcaddu18i	$ra, %call36(_Unwind_Resume)
	jirl	$ra, $ra, 0
.LBB17_43:                              # %_ZNKSt14default_deleteIA_mEclImEENSt9enable_ifIXsr14is_convertibleIPA_T_PS0_EE5valueEvE4typeEPS4_.exit.i
	pcaddu18i	$ra, %call36(_ZdaPv)
	jirl	$ra, $ra, 0
	ld.d	$s1, $sp, 48
	beqz	$s1, .LBB17_41
.LBB17_44:                              # %_ZNKSt14default_deleteIA_mEclImEENSt9enable_ifIXsr14is_convertibleIPA_T_PS0_EE5valueEvE4typeEPS4_.exit.i14
	move	$a0, $s1
	pcaddu18i	$ra, %call36(_ZdaPv)
	jirl	$ra, $ra, 0
	ld.d	$s0, $sp, 56
	beqz	$s0, .LBB17_42
.LBB17_45:                              # %_ZNKSt14default_deleteIA_mEclImEENSt9enable_ifIXsr14is_convertibleIPA_T_PS0_EE5valueEvE4typeEPS4_.exit.i17
	move	$a0, $s0
	pcaddu18i	$ra, %call36(_ZdaPv)
	jirl	$ra, $ra, 0
	move	$a0, $fp
	pcaddu18i	$ra, %call36(_Unwind_Resume)
	jirl	$ra, $ra, 0
.Lfunc_end17:
	.size	_Z40autovec_early_exit_taken_mid_single_loadImEvRN9benchmark5StateE, .Lfunc_end17-_Z40autovec_early_exit_taken_mid_single_loadImEvRN9benchmark5StateE
	.cfi_endproc
	.section	.gcc_except_table._Z40autovec_early_exit_taken_mid_single_loadImEvRN9benchmark5StateE,"aG",@progbits,_Z40autovec_early_exit_taken_mid_single_loadImEvRN9benchmark5StateE,comdat
	.p2align	2, 0x0
GCC_except_table17:
.Lexception17:
	.byte	255                             # @LPStart Encoding = omit
	.byte	255                             # @TType Encoding = omit
	.byte	1                               # Call site Encoding = uleb128
	.uleb128 .Lcst_end17-.Lcst_begin17
.Lcst_begin17:
	.uleb128 .Lfunc_begin17-.Lfunc_begin17  # >> Call Site 1 <<
	.uleb128 .Ltmp190-.Lfunc_begin17        #   Call between .Lfunc_begin17 and .Ltmp190
	.byte	0                               #     has no landing pad
	.byte	0                               #   On action: cleanup
	.uleb128 .Ltmp190-.Lfunc_begin17        # >> Call Site 2 <<
	.uleb128 .Ltmp191-.Ltmp190              #   Call between .Ltmp190 and .Ltmp191
	.uleb128 .Ltmp192-.Lfunc_begin17        #     jumps to .Ltmp192
	.byte	0                               #   On action: cleanup
	.uleb128 .Ltmp193-.Lfunc_begin17        # >> Call Site 3 <<
	.uleb128 .Ltmp194-.Ltmp193              #   Call between .Ltmp193 and .Ltmp194
	.uleb128 .Ltmp195-.Lfunc_begin17        #     jumps to .Ltmp195
	.byte	0                               #   On action: cleanup
	.uleb128 .Ltmp196-.Lfunc_begin17        # >> Call Site 4 <<
	.uleb128 .Ltmp197-.Ltmp196              #   Call between .Ltmp196 and .Ltmp197
	.uleb128 .Ltmp203-.Lfunc_begin17        #     jumps to .Ltmp203
	.byte	0                               #   On action: cleanup
	.uleb128 .Ltmp198-.Lfunc_begin17        # >> Call Site 5 <<
	.uleb128 .Ltmp199-.Ltmp198              #   Call between .Ltmp198 and .Ltmp199
	.uleb128 .Ltmp200-.Lfunc_begin17        #     jumps to .Ltmp200
	.byte	0                               #   On action: cleanup
	.uleb128 .Ltmp201-.Lfunc_begin17        # >> Call Site 6 <<
	.uleb128 .Ltmp202-.Ltmp201              #   Call between .Ltmp201 and .Ltmp202
	.uleb128 .Ltmp203-.Lfunc_begin17        #     jumps to .Ltmp203
	.byte	0                               #   On action: cleanup
	.uleb128 .Ltmp202-.Lfunc_begin17        # >> Call Site 7 <<
	.uleb128 .Lfunc_end17-.Ltmp202          #   Call between .Ltmp202 and .Lfunc_end17
	.byte	0                               #     has no landing pad
	.byte	0                               #   On action: cleanup
.Lcst_end17:
	.p2align	2, 0x0
                                        # -- End function
	.section	.text._ZSt11make_uniqueIN9benchmark8internal17FunctionBenchmarkEJRA41_KcPFvRNS0_5StateEEEENSt8__detail9_MakeUniqIT_E15__single_objectEDpOT0_,"axG",@progbits,_ZSt11make_uniqueIN9benchmark8internal17FunctionBenchmarkEJRA41_KcPFvRNS0_5StateEEEENSt8__detail9_MakeUniqIT_E15__single_objectEDpOT0_,comdat
	.weak	_ZSt11make_uniqueIN9benchmark8internal17FunctionBenchmarkEJRA41_KcPFvRNS0_5StateEEEENSt8__detail9_MakeUniqIT_E15__single_objectEDpOT0_ # -- Begin function _ZSt11make_uniqueIN9benchmark8internal17FunctionBenchmarkEJRA41_KcPFvRNS0_5StateEEEENSt8__detail9_MakeUniqIT_E15__single_objectEDpOT0_
	.p2align	2
	.prefalign	5, .Lfunc_end18, nop
	.type	_ZSt11make_uniqueIN9benchmark8internal17FunctionBenchmarkEJRA41_KcPFvRNS0_5StateEEEENSt8__detail9_MakeUniqIT_E15__single_objectEDpOT0_,@function
_ZSt11make_uniqueIN9benchmark8internal17FunctionBenchmarkEJRA41_KcPFvRNS0_5StateEEEENSt8__detail9_MakeUniqIT_E15__single_objectEDpOT0_: # @_ZSt11make_uniqueIN9benchmark8internal17FunctionBenchmarkEJRA41_KcPFvRNS0_5StateEEEENSt8__detail9_MakeUniqIT_E15__single_objectEDpOT0_
.Lfunc_begin18:
	.cfi_startproc
	.cfi_personality 155, DW.ref.__gxx_personality_v0
	.cfi_lsda 27, .Lexception18
# %bb.0:
	addi.d	$sp, $sp, -112
	.cfi_def_cfa_offset 112
	st.d	$ra, $sp, 104                   # 8-byte Folded Spill
	st.d	$fp, $sp, 96                    # 8-byte Folded Spill
	st.d	$s0, $sp, 88                    # 8-byte Folded Spill
	st.d	$s1, $sp, 80                    # 8-byte Folded Spill
	st.d	$s2, $sp, 72                    # 8-byte Folded Spill
	st.d	$s3, $sp, 64                    # 8-byte Folded Spill
	st.d	$s4, $sp, 56                    # 8-byte Folded Spill
	.cfi_offset 1, -8
	.cfi_offset 22, -16
	.cfi_offset 23, -24
	.cfi_offset 24, -32
	.cfi_offset 25, -40
	.cfi_offset 26, -48
	.cfi_offset 27, -56
	move	$s1, $a2
	move	$s2, $a1
	move	$s0, $a0
	ori	$a0, $zero, 312
	pcaddu18i	$ra, %call36(_Znwm)
	jirl	$ra, $ra, 0
	move	$fp, $a0
	addi.d	$s4, $sp, 32
	st.d	$s4, $sp, 16
	move	$a0, $s2
	pcaddu18i	$ra, %call36(strlen)
	jirl	$ra, $ra, 0
	move	$s3, $a0
	ori	$a1, $zero, 16
	st.d	$a0, $sp, 48
	move	$a0, $s4
	bltu	$s3, $a1, .LBB18_3
# %bb.1:                                # %.noexc.i
.Ltmp204:                               # EH_LABEL
	addi.d	$a0, $sp, 16
	addi.d	$a1, $sp, 48
	move	$a2, $zero
	pcaddu18i	$ra, %call36(_ZNSt7__cxx1112basic_stringIcSt11char_traitsIcESaIcEE9_M_createERmm)
	jirl	$ra, $ra, 0
.Ltmp205:                               # EH_LABEL
# %bb.2:                                # %.noexc
	ld.d	$a1, $sp, 48
	st.d	$a0, $sp, 16
	st.d	$a1, $sp, 32
.LBB18_3:                               # %._crit_edge.i.i
	beqz	$s3, .LBB18_7
# %bb.4:                                # %._crit_edge.i.i
	ori	$a1, $zero, 1
	bne	$s3, $a1, .LBB18_6
# %bb.5:
	ld.b	$a1, $s2, 0
	st.b	$a1, $a0, 0
	b	.LBB18_7
.LBB18_6:
	move	$a1, $s2
	move	$a2, $s3
	pcaddu18i	$ra, %call36(memcpy)
	jirl	$ra, $ra, 0
.LBB18_7:
	ld.d	$a0, $sp, 48
	ld.d	$a1, $sp, 16
	st.d	$a0, $sp, 24
	stx.b	$zero, $a1, $a0
	ld.d	$s1, $s1, 0
.Ltmp207:                               # EH_LABEL
	addi.d	$a1, $sp, 16
	move	$a0, $fp
	pcaddu18i	$ra, %call36(_ZN9benchmark9BenchmarkC2ERKNSt7__cxx1112basic_stringIcSt11char_traitsIcESaIcEEE)
	jirl	$ra, $ra, 0
.Ltmp208:                               # EH_LABEL
# %bb.8:
	pcalau12i	$a0, %got_pc_hi20(_ZTVN9benchmark8internal17FunctionBenchmarkE)
	ld.d	$a1, $a0, %got_pc_lo12(_ZTVN9benchmark8internal17FunctionBenchmarkE)
	ld.d	$a0, $sp, 16
	addi.d	$a1, $a1, 16
	st.d	$a1, $fp, 0
	st.d	$s1, $fp, 304
	st.d	$fp, $s0, 0
	beq	$a0, $s4, .LBB18_10
# %bb.9:                                # %_ZNKSt7__cxx1112basic_stringIcSt11char_traitsIcESaIcEE11_M_is_localEv.exit.i.i
	ld.d	$a1, $sp, 32
	addi.d	$a1, $a1, 1
	pcaddu18i	$ra, %call36(_ZdlPvm)
	jirl	$ra, $ra, 0
.LBB18_10:                              # %_ZNSt7__cxx1112basic_stringIcSt11char_traitsIcESaIcEED2Ev.exit
	ld.d	$s4, $sp, 56                    # 8-byte Folded Reload
	ld.d	$s3, $sp, 64                    # 8-byte Folded Reload
	ld.d	$s2, $sp, 72                    # 8-byte Folded Reload
	ld.d	$s1, $sp, 80                    # 8-byte Folded Reload
	ld.d	$s0, $sp, 88                    # 8-byte Folded Reload
	ld.d	$fp, $sp, 96                    # 8-byte Folded Reload
	ld.d	$ra, $sp, 104                   # 8-byte Folded Reload
	addi.d	$sp, $sp, 112
	ret
.LBB18_11:
.Ltmp206:                               # EH_LABEL
	move	$s0, $a0
	b	.LBB18_14
.LBB18_12:
.Ltmp209:                               # EH_LABEL
	ld.d	$a2, $sp, 16
	move	$s0, $a0
	beq	$a2, $s4, .LBB18_14
# %bb.13:                               # %_ZNKSt7__cxx1112basic_stringIcSt11char_traitsIcESaIcEE11_M_is_localEv.exit.i.i7
	ld.d	$a0, $sp, 32
	addi.d	$a1, $a0, 1
	move	$a0, $a2
	pcaddu18i	$ra, %call36(_ZdlPvm)
	jirl	$ra, $ra, 0
.LBB18_14:                              # %_ZNSt7__cxx1112basic_stringIcSt11char_traitsIcESaIcEED2Ev.exit9
	ori	$a1, $zero, 312
	move	$a0, $fp
	pcaddu18i	$ra, %call36(_ZdlPvm)
	jirl	$ra, $ra, 0
	move	$a0, $s0
	pcaddu18i	$ra, %call36(_Unwind_Resume)
	jirl	$ra, $ra, 0
.Lfunc_end18:
	.size	_ZSt11make_uniqueIN9benchmark8internal17FunctionBenchmarkEJRA41_KcPFvRNS0_5StateEEEENSt8__detail9_MakeUniqIT_E15__single_objectEDpOT0_, .Lfunc_end18-_ZSt11make_uniqueIN9benchmark8internal17FunctionBenchmarkEJRA41_KcPFvRNS0_5StateEEEENSt8__detail9_MakeUniqIT_E15__single_objectEDpOT0_
	.cfi_endproc
	.section	.gcc_except_table._ZSt11make_uniqueIN9benchmark8internal17FunctionBenchmarkEJRA41_KcPFvRNS0_5StateEEEENSt8__detail9_MakeUniqIT_E15__single_objectEDpOT0_,"aG",@progbits,_ZSt11make_uniqueIN9benchmark8internal17FunctionBenchmarkEJRA41_KcPFvRNS0_5StateEEEENSt8__detail9_MakeUniqIT_E15__single_objectEDpOT0_,comdat
	.p2align	2, 0x0
GCC_except_table18:
.Lexception18:
	.byte	255                             # @LPStart Encoding = omit
	.byte	255                             # @TType Encoding = omit
	.byte	1                               # Call site Encoding = uleb128
	.uleb128 .Lcst_end18-.Lcst_begin18
.Lcst_begin18:
	.uleb128 .Lfunc_begin18-.Lfunc_begin18  # >> Call Site 1 <<
	.uleb128 .Ltmp204-.Lfunc_begin18        #   Call between .Lfunc_begin18 and .Ltmp204
	.byte	0                               #     has no landing pad
	.byte	0                               #   On action: cleanup
	.uleb128 .Ltmp204-.Lfunc_begin18        # >> Call Site 2 <<
	.uleb128 .Ltmp205-.Ltmp204              #   Call between .Ltmp204 and .Ltmp205
	.uleb128 .Ltmp206-.Lfunc_begin18        #     jumps to .Ltmp206
	.byte	0                               #   On action: cleanup
	.uleb128 .Ltmp205-.Lfunc_begin18        # >> Call Site 3 <<
	.uleb128 .Ltmp207-.Ltmp205              #   Call between .Ltmp205 and .Ltmp207
	.byte	0                               #     has no landing pad
	.byte	0                               #   On action: cleanup
	.uleb128 .Ltmp207-.Lfunc_begin18        # >> Call Site 4 <<
	.uleb128 .Ltmp208-.Ltmp207              #   Call between .Ltmp207 and .Ltmp208
	.uleb128 .Ltmp209-.Lfunc_begin18        #     jumps to .Ltmp209
	.byte	0                               #   On action: cleanup
	.uleb128 .Ltmp208-.Lfunc_begin18        # >> Call Site 5 <<
	.uleb128 .Lfunc_end18-.Ltmp208          #   Call between .Ltmp208 and .Lfunc_end18
	.byte	0                               #     has no landing pad
	.byte	0                               #   On action: cleanup
.Lcst_end18:
	.p2align	2, 0x0
                                        # -- End function
	.section	.text._Z31autovec_no_early_exit_two_loadsIhEvRN9benchmark5StateE,"axG",@progbits,_Z31autovec_no_early_exit_two_loadsIhEvRN9benchmark5StateE,comdat
	.weak	_Z31autovec_no_early_exit_two_loadsIhEvRN9benchmark5StateE # -- Begin function _Z31autovec_no_early_exit_two_loadsIhEvRN9benchmark5StateE
	.p2align	2
	.prefalign	5, .Lfunc_end19, nop
	.type	_Z31autovec_no_early_exit_two_loadsIhEvRN9benchmark5StateE,@function
_Z31autovec_no_early_exit_two_loadsIhEvRN9benchmark5StateE: # @_Z31autovec_no_early_exit_two_loadsIhEvRN9benchmark5StateE
.Lfunc_begin19:
	.cfi_startproc
	.cfi_personality 155, DW.ref.__gxx_personality_v0
	.cfi_lsda 27, .Lexception19
# %bb.0:
	addi.d	$sp, $sp, -144
	.cfi_def_cfa_offset 144
	st.d	$ra, $sp, 136                   # 8-byte Folded Spill
	st.d	$fp, $sp, 128                   # 8-byte Folded Spill
	st.d	$s0, $sp, 120                   # 8-byte Folded Spill
	st.d	$s1, $sp, 112                   # 8-byte Folded Spill
	st.d	$s2, $sp, 104                   # 8-byte Folded Spill
	st.d	$s3, $sp, 96                    # 8-byte Folded Spill
	st.d	$s4, $sp, 88                    # 8-byte Folded Spill
	.cfi_offset 1, -8
	.cfi_offset 22, -16
	.cfi_offset 23, -24
	.cfi_offset 24, -32
	.cfi_offset 25, -40
	.cfi_offset 26, -48
	.cfi_offset 27, -56
	move	$fp, $a0
	pcalau12i	$a0, %pc_hi20(_ZL27singleEarlyExitWithTwoLoadsIhEmPT_S1_S1_i)
	addi.d	$a0, $a0, %pc_lo12(_ZL27singleEarlyExitWithTwoLoadsIhEmPT_S1_S1_i)
	ld.d	$a1, $fp, 32
	ld.d	$s2, $a1, 0
	st.d	$a0, $sp, 80
	st.d	$s2, $sp, 72
	move	$a0, $s2
	pcaddu18i	$ra, %call36(_Znam)
	jirl	$ra, $ra, 0
	move	$s0, $a0
	st.d	$a0, $sp, 64
.Ltmp210:                               # EH_LABEL
	move	$a0, $s2
	pcaddu18i	$ra, %call36(_Znam)
	jirl	$ra, $ra, 0
.Ltmp211:                               # EH_LABEL
# %bb.1:
	move	$s1, $a0
	st.d	$a0, $sp, 56
.Ltmp213:                               # EH_LABEL
	move	$a0, $s2
	pcaddu18i	$ra, %call36(_Znam)
	jirl	$ra, $ra, 0
.Ltmp214:                               # EH_LABEL
# %bb.2:
	move	$s3, $a0
	bstrpick.d	$s2, $s2, 31, 0
	st.d	$a0, $sp, 48
	beqz	$s2, .LBB19_4
# %bb.3:
	ori	$a1, $zero, 1
	move	$a0, $s0
	move	$a2, $s2
	pcaddu18i	$ra, %call36(memset)
	jirl	$ra, $ra, 0
	ori	$a1, $zero, 1
	move	$a0, $s1
	move	$a2, $s2
	pcaddu18i	$ra, %call36(memset)
	jirl	$ra, $ra, 0
	ori	$a1, $zero, 1
	move	$a0, $s3
	move	$a2, $s2
	pcaddu18i	$ra, %call36(memset)
	jirl	$ra, $ra, 0
.LBB19_4:                               # %_ZL9init_dataIhEvRKSt10unique_ptrIA_T_St14default_deleteIS2_EEj.exit10
	ld.w	$s1, $fp, 28
	ld.d	$s0, $fp, 16
	st.d	$zero, $sp, 40
.Ltmp216:                               # EH_LABEL
	move	$a0, $fp
	pcaddu18i	$ra, %call36(_ZN9benchmark5State16StartKeepRunningEv)
	jirl	$ra, $ra, 0
.Ltmp217:                               # EH_LABEL
# %bb.5:                                # %_ZN9benchmark5State3endEv.exit.preheader
	bnez	$s1, .LBB19_10
# %bb.6:                                # %_ZN9benchmark5State3endEv.exit.preheader
	beqz	$s0, .LBB19_10
# %bb.7:
	addi.d	$s1, $sp, 64
	addi.d	$s2, $sp, 56
	addi.d	$s3, $sp, 48
	addi.d	$s4, $sp, 40
	.p2align	4, , 16
.LBB19_8:                               # %.lr.ph
                                        # =>This Inner Loop Header: Depth=1
	#APP
	#NO_APP
	#APP
	#NO_APP
	#APP
	#NO_APP
	#APP
	#NO_APP
	#MEMBARRIER
	ld.d	$a0, $sp, 64
	ld.d	$a1, $sp, 56
	ld.d	$a2, $sp, 48
	st.d	$a0, $sp, 32
	st.d	$a1, $sp, 24
	st.d	$a2, $sp, 16
.Ltmp218:                               # EH_LABEL
	addi.d	$a0, $sp, 80
	addi.d	$a1, $sp, 32
	addi.d	$a2, $sp, 24
	addi.d	$a3, $sp, 16
	addi.d	$a4, $sp, 72
	pcaddu18i	$ra, %call36(_ZL18callThroughOptnoneIRPFmPhS0_S0_iEJS0_S0_S0_RlEEmOT_DpOT0_)
	jirl	$ra, $ra, 0
.Ltmp219:                               # EH_LABEL
# %bb.9:                                # %_ZN9benchmark5State3endEv.exit
                                        #   in Loop: Header=BB19_8 Depth=1
	ld.d	$a1, $sp, 40
	add.d	$a0, $a1, $a0
	addi.d	$s0, $s0, -1
	st.d	$a0, $sp, 40
	bnez	$s0, .LBB19_8
.LBB19_10:                              # %_ZN9benchmark5State3endEv.exit._crit_edge
.Ltmp221:                               # EH_LABEL
	move	$a0, $fp
	pcaddu18i	$ra, %call36(_ZN9benchmark5State17FinishKeepRunningEv)
	jirl	$ra, $ra, 0
.Ltmp222:                               # EH_LABEL
# %bb.11:                               # %_ZL21runEarlyExitBenchmarkIhEvRN9benchmark5StateEPFmPT_S4_S4_iE17EarlyExitPosition.exit
	ld.d	$a0, $sp, 48
	beqz	$a0, .LBB19_13
# %bb.12:                               # %_ZNKSt14default_deleteIA_hEclIhEENSt9enable_ifIXsr14is_convertibleIPA_T_PS0_EE5valueEvE4typeEPS4_.exit.i19
	pcaddu18i	$ra, %call36(_ZdaPv)
	jirl	$ra, $ra, 0
.LBB19_13:                              # %_ZNSt10unique_ptrIA_hSt14default_deleteIS0_EED2Ev.exit20
	ld.d	$a0, $sp, 56
	beqz	$a0, .LBB19_15
# %bb.14:                               # %_ZNKSt14default_deleteIA_hEclIhEENSt9enable_ifIXsr14is_convertibleIPA_T_PS0_EE5valueEvE4typeEPS4_.exit.i22
	pcaddu18i	$ra, %call36(_ZdaPv)
	jirl	$ra, $ra, 0
.LBB19_15:                              # %_ZNSt10unique_ptrIA_hSt14default_deleteIS0_EED2Ev.exit23
	ld.d	$a0, $sp, 64
	beqz	$a0, .LBB19_17
# %bb.16:                               # %_ZNKSt14default_deleteIA_hEclIhEENSt9enable_ifIXsr14is_convertibleIPA_T_PS0_EE5valueEvE4typeEPS4_.exit.i25
	pcaddu18i	$ra, %call36(_ZdaPv)
	jirl	$ra, $ra, 0
.LBB19_17:                              # %_ZNSt10unique_ptrIA_hSt14default_deleteIS0_EED2Ev.exit26
	ld.d	$s4, $sp, 88                    # 8-byte Folded Reload
	ld.d	$s3, $sp, 96                    # 8-byte Folded Reload
	ld.d	$s2, $sp, 104                   # 8-byte Folded Reload
	ld.d	$s1, $sp, 112                   # 8-byte Folded Reload
	ld.d	$s0, $sp, 120                   # 8-byte Folded Reload
	ld.d	$fp, $sp, 128                   # 8-byte Folded Reload
	ld.d	$ra, $sp, 136                   # 8-byte Folded Reload
	addi.d	$sp, $sp, 144
	ret
.LBB19_18:                              # %_ZNSt10unique_ptrIA_hSt14default_deleteIS0_EED2Ev.exit.thread
.Ltmp215:                               # EH_LABEL
	move	$fp, $a0
	b	.LBB19_27
.LBB19_19:                              # %_ZNSt10unique_ptrIA_hSt14default_deleteIS0_EED2Ev.exit14.thread
.Ltmp212:                               # EH_LABEL
	move	$fp, $a0
	move	$a0, $s0
	pcaddu18i	$ra, %call36(_ZdaPv)
	jirl	$ra, $ra, 0
	move	$a0, $fp
	pcaddu18i	$ra, %call36(_Unwind_Resume)
	jirl	$ra, $ra, 0
.LBB19_20:
.Ltmp223:                               # EH_LABEL
	b	.LBB19_22
.LBB19_21:
.Ltmp220:                               # EH_LABEL
.LBB19_22:
	move	$fp, $a0
	ld.d	$a0, $sp, 48
	bnez	$a0, .LBB19_26
# %bb.23:                               # %_ZNSt10unique_ptrIA_hSt14default_deleteIS0_EED2Ev.exit
	ld.d	$s1, $sp, 56
	bnez	$s1, .LBB19_27
.LBB19_24:                              # %_ZNSt10unique_ptrIA_hSt14default_deleteIS0_EED2Ev.exit14
	ld.d	$s0, $sp, 64
	bnez	$s0, .LBB19_28
.LBB19_25:                              # %_ZNSt10unique_ptrIA_hSt14default_deleteIS0_EED2Ev.exit17
	move	$a0, $fp
	pcaddu18i	$ra, %call36(_Unwind_Resume)
	jirl	$ra, $ra, 0
.LBB19_26:                              # %_ZNKSt14default_deleteIA_hEclIhEENSt9enable_ifIXsr14is_convertibleIPA_T_PS0_EE5valueEvE4typeEPS4_.exit.i
	pcaddu18i	$ra, %call36(_ZdaPv)
	jirl	$ra, $ra, 0
	ld.d	$s1, $sp, 56
	beqz	$s1, .LBB19_24
.LBB19_27:                              # %_ZNKSt14default_deleteIA_hEclIhEENSt9enable_ifIXsr14is_convertibleIPA_T_PS0_EE5valueEvE4typeEPS4_.exit.i13
	move	$a0, $s1
	pcaddu18i	$ra, %call36(_ZdaPv)
	jirl	$ra, $ra, 0
	ld.d	$s0, $sp, 64
	beqz	$s0, .LBB19_25
.LBB19_28:                              # %_ZNKSt14default_deleteIA_hEclIhEENSt9enable_ifIXsr14is_convertibleIPA_T_PS0_EE5valueEvE4typeEPS4_.exit.i16
	move	$a0, $s0
	pcaddu18i	$ra, %call36(_ZdaPv)
	jirl	$ra, $ra, 0
	move	$a0, $fp
	pcaddu18i	$ra, %call36(_Unwind_Resume)
	jirl	$ra, $ra, 0
.Lfunc_end19:
	.size	_Z31autovec_no_early_exit_two_loadsIhEvRN9benchmark5StateE, .Lfunc_end19-_Z31autovec_no_early_exit_two_loadsIhEvRN9benchmark5StateE
	.cfi_endproc
	.section	.gcc_except_table._Z31autovec_no_early_exit_two_loadsIhEvRN9benchmark5StateE,"aG",@progbits,_Z31autovec_no_early_exit_two_loadsIhEvRN9benchmark5StateE,comdat
	.p2align	2, 0x0
GCC_except_table19:
.Lexception19:
	.byte	255                             # @LPStart Encoding = omit
	.byte	255                             # @TType Encoding = omit
	.byte	1                               # Call site Encoding = uleb128
	.uleb128 .Lcst_end19-.Lcst_begin19
.Lcst_begin19:
	.uleb128 .Lfunc_begin19-.Lfunc_begin19  # >> Call Site 1 <<
	.uleb128 .Ltmp210-.Lfunc_begin19        #   Call between .Lfunc_begin19 and .Ltmp210
	.byte	0                               #     has no landing pad
	.byte	0                               #   On action: cleanup
	.uleb128 .Ltmp210-.Lfunc_begin19        # >> Call Site 2 <<
	.uleb128 .Ltmp211-.Ltmp210              #   Call between .Ltmp210 and .Ltmp211
	.uleb128 .Ltmp212-.Lfunc_begin19        #     jumps to .Ltmp212
	.byte	0                               #   On action: cleanup
	.uleb128 .Ltmp213-.Lfunc_begin19        # >> Call Site 3 <<
	.uleb128 .Ltmp214-.Ltmp213              #   Call between .Ltmp213 and .Ltmp214
	.uleb128 .Ltmp215-.Lfunc_begin19        #     jumps to .Ltmp215
	.byte	0                               #   On action: cleanup
	.uleb128 .Ltmp214-.Lfunc_begin19        # >> Call Site 4 <<
	.uleb128 .Ltmp216-.Ltmp214              #   Call between .Ltmp214 and .Ltmp216
	.byte	0                               #     has no landing pad
	.byte	0                               #   On action: cleanup
	.uleb128 .Ltmp216-.Lfunc_begin19        # >> Call Site 5 <<
	.uleb128 .Ltmp217-.Ltmp216              #   Call between .Ltmp216 and .Ltmp217
	.uleb128 .Ltmp223-.Lfunc_begin19        #     jumps to .Ltmp223
	.byte	0                               #   On action: cleanup
	.uleb128 .Ltmp218-.Lfunc_begin19        # >> Call Site 6 <<
	.uleb128 .Ltmp219-.Ltmp218              #   Call between .Ltmp218 and .Ltmp219
	.uleb128 .Ltmp220-.Lfunc_begin19        #     jumps to .Ltmp220
	.byte	0                               #   On action: cleanup
	.uleb128 .Ltmp221-.Lfunc_begin19        # >> Call Site 7 <<
	.uleb128 .Ltmp222-.Ltmp221              #   Call between .Ltmp221 and .Ltmp222
	.uleb128 .Ltmp223-.Lfunc_begin19        #     jumps to .Ltmp223
	.byte	0                               #   On action: cleanup
	.uleb128 .Ltmp222-.Lfunc_begin19        # >> Call Site 8 <<
	.uleb128 .Lfunc_end19-.Ltmp222          #   Call between .Ltmp222 and .Lfunc_end19
	.byte	0                               #     has no landing pad
	.byte	0                               #   On action: cleanup
.Lcst_end19:
	.p2align	2, 0x0
                                        # -- End function
	.section	.text._ZSt11make_uniqueIN9benchmark8internal17FunctionBenchmarkEJRA42_KcPFvRNS0_5StateEEEENSt8__detail9_MakeUniqIT_E15__single_objectEDpOT0_,"axG",@progbits,_ZSt11make_uniqueIN9benchmark8internal17FunctionBenchmarkEJRA42_KcPFvRNS0_5StateEEEENSt8__detail9_MakeUniqIT_E15__single_objectEDpOT0_,comdat
	.weak	_ZSt11make_uniqueIN9benchmark8internal17FunctionBenchmarkEJRA42_KcPFvRNS0_5StateEEEENSt8__detail9_MakeUniqIT_E15__single_objectEDpOT0_ # -- Begin function _ZSt11make_uniqueIN9benchmark8internal17FunctionBenchmarkEJRA42_KcPFvRNS0_5StateEEEENSt8__detail9_MakeUniqIT_E15__single_objectEDpOT0_
	.p2align	2
	.prefalign	5, .Lfunc_end20, nop
	.type	_ZSt11make_uniqueIN9benchmark8internal17FunctionBenchmarkEJRA42_KcPFvRNS0_5StateEEEENSt8__detail9_MakeUniqIT_E15__single_objectEDpOT0_,@function
_ZSt11make_uniqueIN9benchmark8internal17FunctionBenchmarkEJRA42_KcPFvRNS0_5StateEEEENSt8__detail9_MakeUniqIT_E15__single_objectEDpOT0_: # @_ZSt11make_uniqueIN9benchmark8internal17FunctionBenchmarkEJRA42_KcPFvRNS0_5StateEEEENSt8__detail9_MakeUniqIT_E15__single_objectEDpOT0_
.Lfunc_begin20:
	.cfi_startproc
	.cfi_personality 155, DW.ref.__gxx_personality_v0
	.cfi_lsda 27, .Lexception20
# %bb.0:
	addi.d	$sp, $sp, -112
	.cfi_def_cfa_offset 112
	st.d	$ra, $sp, 104                   # 8-byte Folded Spill
	st.d	$fp, $sp, 96                    # 8-byte Folded Spill
	st.d	$s0, $sp, 88                    # 8-byte Folded Spill
	st.d	$s1, $sp, 80                    # 8-byte Folded Spill
	st.d	$s2, $sp, 72                    # 8-byte Folded Spill
	st.d	$s3, $sp, 64                    # 8-byte Folded Spill
	st.d	$s4, $sp, 56                    # 8-byte Folded Spill
	.cfi_offset 1, -8
	.cfi_offset 22, -16
	.cfi_offset 23, -24
	.cfi_offset 24, -32
	.cfi_offset 25, -40
	.cfi_offset 26, -48
	.cfi_offset 27, -56
	move	$s1, $a2
	move	$s2, $a1
	move	$s0, $a0
	ori	$a0, $zero, 312
	pcaddu18i	$ra, %call36(_Znwm)
	jirl	$ra, $ra, 0
	move	$fp, $a0
	addi.d	$s4, $sp, 32
	st.d	$s4, $sp, 16
	move	$a0, $s2
	pcaddu18i	$ra, %call36(strlen)
	jirl	$ra, $ra, 0
	move	$s3, $a0
	ori	$a1, $zero, 16
	st.d	$a0, $sp, 48
	move	$a0, $s4
	bltu	$s3, $a1, .LBB20_3
# %bb.1:                                # %.noexc.i
.Ltmp224:                               # EH_LABEL
	addi.d	$a0, $sp, 16
	addi.d	$a1, $sp, 48
	move	$a2, $zero
	pcaddu18i	$ra, %call36(_ZNSt7__cxx1112basic_stringIcSt11char_traitsIcESaIcEE9_M_createERmm)
	jirl	$ra, $ra, 0
.Ltmp225:                               # EH_LABEL
# %bb.2:                                # %.noexc
	ld.d	$a1, $sp, 48
	st.d	$a0, $sp, 16
	st.d	$a1, $sp, 32
.LBB20_3:                               # %._crit_edge.i.i
	beqz	$s3, .LBB20_7
# %bb.4:                                # %._crit_edge.i.i
	ori	$a1, $zero, 1
	bne	$s3, $a1, .LBB20_6
# %bb.5:
	ld.b	$a1, $s2, 0
	st.b	$a1, $a0, 0
	b	.LBB20_7
.LBB20_6:
	move	$a1, $s2
	move	$a2, $s3
	pcaddu18i	$ra, %call36(memcpy)
	jirl	$ra, $ra, 0
.LBB20_7:
	ld.d	$a0, $sp, 48
	ld.d	$a1, $sp, 16
	st.d	$a0, $sp, 24
	stx.b	$zero, $a1, $a0
	ld.d	$s1, $s1, 0
.Ltmp227:                               # EH_LABEL
	addi.d	$a1, $sp, 16
	move	$a0, $fp
	pcaddu18i	$ra, %call36(_ZN9benchmark9BenchmarkC2ERKNSt7__cxx1112basic_stringIcSt11char_traitsIcESaIcEEE)
	jirl	$ra, $ra, 0
.Ltmp228:                               # EH_LABEL
# %bb.8:
	pcalau12i	$a0, %got_pc_hi20(_ZTVN9benchmark8internal17FunctionBenchmarkE)
	ld.d	$a1, $a0, %got_pc_lo12(_ZTVN9benchmark8internal17FunctionBenchmarkE)
	ld.d	$a0, $sp, 16
	addi.d	$a1, $a1, 16
	st.d	$a1, $fp, 0
	st.d	$s1, $fp, 304
	st.d	$fp, $s0, 0
	beq	$a0, $s4, .LBB20_10
# %bb.9:                                # %_ZNKSt7__cxx1112basic_stringIcSt11char_traitsIcESaIcEE11_M_is_localEv.exit.i.i
	ld.d	$a1, $sp, 32
	addi.d	$a1, $a1, 1
	pcaddu18i	$ra, %call36(_ZdlPvm)
	jirl	$ra, $ra, 0
.LBB20_10:                              # %_ZNSt7__cxx1112basic_stringIcSt11char_traitsIcESaIcEED2Ev.exit
	ld.d	$s4, $sp, 56                    # 8-byte Folded Reload
	ld.d	$s3, $sp, 64                    # 8-byte Folded Reload
	ld.d	$s2, $sp, 72                    # 8-byte Folded Reload
	ld.d	$s1, $sp, 80                    # 8-byte Folded Reload
	ld.d	$s0, $sp, 88                    # 8-byte Folded Reload
	ld.d	$fp, $sp, 96                    # 8-byte Folded Reload
	ld.d	$ra, $sp, 104                   # 8-byte Folded Reload
	addi.d	$sp, $sp, 112
	ret
.LBB20_11:
.Ltmp226:                               # EH_LABEL
	move	$s0, $a0
	b	.LBB20_14
.LBB20_12:
.Ltmp229:                               # EH_LABEL
	ld.d	$a2, $sp, 16
	move	$s0, $a0
	beq	$a2, $s4, .LBB20_14
# %bb.13:                               # %_ZNKSt7__cxx1112basic_stringIcSt11char_traitsIcESaIcEE11_M_is_localEv.exit.i.i7
	ld.d	$a0, $sp, 32
	addi.d	$a1, $a0, 1
	move	$a0, $a2
	pcaddu18i	$ra, %call36(_ZdlPvm)
	jirl	$ra, $ra, 0
.LBB20_14:                              # %_ZNSt7__cxx1112basic_stringIcSt11char_traitsIcESaIcEED2Ev.exit9
	ori	$a1, $zero, 312
	move	$a0, $fp
	pcaddu18i	$ra, %call36(_ZdlPvm)
	jirl	$ra, $ra, 0
	move	$a0, $s0
	pcaddu18i	$ra, %call36(_Unwind_Resume)
	jirl	$ra, $ra, 0
.Lfunc_end20:
	.size	_ZSt11make_uniqueIN9benchmark8internal17FunctionBenchmarkEJRA42_KcPFvRNS0_5StateEEEENSt8__detail9_MakeUniqIT_E15__single_objectEDpOT0_, .Lfunc_end20-_ZSt11make_uniqueIN9benchmark8internal17FunctionBenchmarkEJRA42_KcPFvRNS0_5StateEEEENSt8__detail9_MakeUniqIT_E15__single_objectEDpOT0_
	.cfi_endproc
	.section	.gcc_except_table._ZSt11make_uniqueIN9benchmark8internal17FunctionBenchmarkEJRA42_KcPFvRNS0_5StateEEEENSt8__detail9_MakeUniqIT_E15__single_objectEDpOT0_,"aG",@progbits,_ZSt11make_uniqueIN9benchmark8internal17FunctionBenchmarkEJRA42_KcPFvRNS0_5StateEEEENSt8__detail9_MakeUniqIT_E15__single_objectEDpOT0_,comdat
	.p2align	2, 0x0
GCC_except_table20:
.Lexception20:
	.byte	255                             # @LPStart Encoding = omit
	.byte	255                             # @TType Encoding = omit
	.byte	1                               # Call site Encoding = uleb128
	.uleb128 .Lcst_end20-.Lcst_begin20
.Lcst_begin20:
	.uleb128 .Lfunc_begin20-.Lfunc_begin20  # >> Call Site 1 <<
	.uleb128 .Ltmp224-.Lfunc_begin20        #   Call between .Lfunc_begin20 and .Ltmp224
	.byte	0                               #     has no landing pad
	.byte	0                               #   On action: cleanup
	.uleb128 .Ltmp224-.Lfunc_begin20        # >> Call Site 2 <<
	.uleb128 .Ltmp225-.Ltmp224              #   Call between .Ltmp224 and .Ltmp225
	.uleb128 .Ltmp226-.Lfunc_begin20        #     jumps to .Ltmp226
	.byte	0                               #   On action: cleanup
	.uleb128 .Ltmp225-.Lfunc_begin20        # >> Call Site 3 <<
	.uleb128 .Ltmp227-.Ltmp225              #   Call between .Ltmp225 and .Ltmp227
	.byte	0                               #     has no landing pad
	.byte	0                               #   On action: cleanup
	.uleb128 .Ltmp227-.Lfunc_begin20        # >> Call Site 4 <<
	.uleb128 .Ltmp228-.Ltmp227              #   Call between .Ltmp227 and .Ltmp228
	.uleb128 .Ltmp229-.Lfunc_begin20        #     jumps to .Ltmp229
	.byte	0                               #   On action: cleanup
	.uleb128 .Ltmp228-.Lfunc_begin20        # >> Call Site 5 <<
	.uleb128 .Lfunc_end20-.Ltmp228          #   Call between .Ltmp228 and .Lfunc_end20
	.byte	0                               #     has no landing pad
	.byte	0                               #   On action: cleanup
.Lcst_end20:
	.p2align	2, 0x0
                                        # -- End function
	.section	.text._Z31autovec_no_early_exit_two_loadsItEvRN9benchmark5StateE,"axG",@progbits,_Z31autovec_no_early_exit_two_loadsItEvRN9benchmark5StateE,comdat
	.weak	_Z31autovec_no_early_exit_two_loadsItEvRN9benchmark5StateE # -- Begin function _Z31autovec_no_early_exit_two_loadsItEvRN9benchmark5StateE
	.p2align	2
	.prefalign	5, .Lfunc_end21, nop
	.type	_Z31autovec_no_early_exit_two_loadsItEvRN9benchmark5StateE,@function
_Z31autovec_no_early_exit_two_loadsItEvRN9benchmark5StateE: # @_Z31autovec_no_early_exit_two_loadsItEvRN9benchmark5StateE
.Lfunc_begin21:
	.cfi_startproc
	.cfi_personality 155, DW.ref.__gxx_personality_v0
	.cfi_lsda 27, .Lexception21
# %bb.0:
	addi.d	$sp, $sp, -160
	.cfi_def_cfa_offset 160
	st.d	$ra, $sp, 152                   # 8-byte Folded Spill
	st.d	$fp, $sp, 144                   # 8-byte Folded Spill
	st.d	$s0, $sp, 136                   # 8-byte Folded Spill
	st.d	$s1, $sp, 128                   # 8-byte Folded Spill
	st.d	$s2, $sp, 120                   # 8-byte Folded Spill
	st.d	$s3, $sp, 112                   # 8-byte Folded Spill
	st.d	$s4, $sp, 104                   # 8-byte Folded Spill
	st.d	$s5, $sp, 96                    # 8-byte Folded Spill
	st.d	$s6, $sp, 88                    # 8-byte Folded Spill
	.cfi_offset 1, -8
	.cfi_offset 22, -16
	.cfi_offset 23, -24
	.cfi_offset 24, -32
	.cfi_offset 25, -40
	.cfi_offset 26, -48
	.cfi_offset 27, -56
	.cfi_offset 28, -64
	.cfi_offset 29, -72
	move	$fp, $a0
	pcalau12i	$a0, %pc_hi20(_ZL27singleEarlyExitWithTwoLoadsItEmPT_S1_S1_i)
	addi.d	$a0, $a0, %pc_lo12(_ZL27singleEarlyExitWithTwoLoadsItEmPT_S1_S1_i)
	ld.d	$a1, $fp, 32
	ld.d	$s6, $a1, 0
	st.d	$a0, $sp, 80
	st.d	$s6, $sp, 72
	slli.d	$s5, $s6, 1
	addi.w	$a0, $zero, -1
	slt	$a1, $a0, $s6
	masknez	$a0, $a0, $a1
	maskeqz	$a1, $s5, $a1
	or	$s4, $a1, $a0
	move	$a0, $s4
	pcaddu18i	$ra, %call36(_Znam)
	jirl	$ra, $ra, 0
	move	$s3, $a0
	move	$s2, $a0
	st.d	$a0, $sp, 64
.Ltmp230:                               # EH_LABEL
	move	$a0, $s4
	pcaddu18i	$ra, %call36(_Znam)
	jirl	$ra, $ra, 0
.Ltmp231:                               # EH_LABEL
# %bb.1:
	move	$s1, $a0
	move	$s0, $a0
	st.d	$s1, $sp, 56
.Ltmp233:                               # EH_LABEL
	move	$a0, $s4
	pcaddu18i	$ra, %call36(_Znam)
	jirl	$ra, $ra, 0
.Ltmp234:                               # EH_LABEL
# %bb.2:
	slli.d	$a2, $s6, 32
	st.d	$a0, $sp, 48
	beqz	$a2, .LBB21_39
# %bb.3:                                # %iter.check
	move	$a1, $a0
	bstrpick.d	$a5, $s5, 32, 1
	slli.d	$a2, $a5, 1
	addi.d	$a4, $a2, -2
	srli.d	$a3, $a4, 1
	ori	$a6, $zero, 14
	addi.d	$a3, $a3, 1
	bltu	$a4, $a6, .LBB21_13
# %bb.4:                                # %vector.main.loop.iter.check
	ori	$a6, $zero, 62
	bgeu	$a4, $a6, .LBB21_6
# %bb.5:
	move	$a6, $zero
	b	.LBB21_10
.LBB21_6:                               # %vector.ph
	andi	$a7, $a3, 24
	move	$a6, $a3
	bstrins.d	$a6, $zero, 4, 0
	alsl.d	$s2, $a6, $s3, 1
	addi.d	$t0, $s3, 32
	xvrepli.h	$xr0, 1
	move	$t1, $a6
	.p2align	4, , 16
.LBB21_7:                               # %vector.body
                                        # =>This Inner Loop Header: Depth=1
	xvst	$xr0, $t0, -32
	xvst	$xr0, $t0, 0
	addi.d	$t1, $t1, -32
	addi.d	$t0, $t0, 64
	bnez	$t1, .LBB21_7
# %bb.8:                                # %middle.block
	beq	$a3, $a6, .LBB21_15
# %bb.9:                                # %vec.epilog.iter.check
	beqz	$a7, .LBB21_13
.LBB21_10:                              # %vec.epilog.ph
	move	$a7, $a3
	bstrins.d	$a7, $zero, 2, 0
	alsl.d	$s2, $a7, $s3, 1
	alsl.d	$t0, $a6, $s3, 1
	sub.d	$a6, $a6, $a7
	vrepli.h	$vr0, 1
	.p2align	4, , 16
.LBB21_11:                              # %vec.epilog.vector.body
                                        # =>This Inner Loop Header: Depth=1
	vst	$vr0, $t0, 0
	addi.d	$a6, $a6, 8
	addi.d	$t0, $t0, 16
	bnez	$a6, .LBB21_11
# %bb.12:                               # %vec.epilog.middle.block
	beq	$a3, $a7, .LBB21_15
.LBB21_13:                              # %.lr.ph.i.i.i.i.i.preheader
	alsl.d	$a5, $a5, $s3, 1
	ori	$a6, $zero, 1
	.p2align	4, , 16
.LBB21_14:                              # %.lr.ph.i.i.i.i.i
                                        # =>This Inner Loop Header: Depth=1
	st.h	$a6, $s2, 0
	addi.d	$s2, $s2, 2
	bne	$s2, $a5, .LBB21_14
.LBB21_15:                              # %iter.check73
	ori	$a5, $zero, 14
	bltu	$a4, $a5, .LBB21_25
# %bb.16:                               # %vector.main.loop.iter.check60
	ori	$a5, $zero, 62
	bgeu	$a4, $a5, .LBB21_18
# %bb.17:
	move	$a5, $zero
	b	.LBB21_22
.LBB21_18:                              # %vector.ph62
	andi	$a6, $a3, 24
	move	$a5, $a3
	bstrins.d	$a5, $zero, 4, 0
	alsl.d	$s0, $a5, $s1, 1
	addi.d	$a7, $s1, 32
	xvrepli.h	$xr0, 1
	move	$t0, $a5
	.p2align	4, , 16
.LBB21_19:                              # %vector.body65
                                        # =>This Inner Loop Header: Depth=1
	xvst	$xr0, $a7, -32
	xvst	$xr0, $a7, 0
	addi.d	$t0, $t0, -32
	addi.d	$a7, $a7, 64
	bnez	$t0, .LBB21_19
# %bb.20:                               # %middle.block70
	beq	$a3, $a5, .LBB21_27
# %bb.21:                               # %vec.epilog.iter.check75
	beqz	$a6, .LBB21_25
.LBB21_22:                              # %vec.epilog.ph77
	move	$a6, $a3
	bstrins.d	$a6, $zero, 2, 0
	alsl.d	$s0, $a6, $s1, 1
	alsl.d	$a7, $a5, $s1, 1
	sub.d	$a5, $a5, $a6
	vrepli.h	$vr0, 1
	.p2align	4, , 16
.LBB21_23:                              # %vec.epilog.vector.body80
                                        # =>This Inner Loop Header: Depth=1
	vst	$vr0, $a7, 0
	addi.d	$a5, $a5, 8
	addi.d	$a7, $a7, 16
	bnez	$a5, .LBB21_23
# %bb.24:                               # %vec.epilog.middle.block84
	beq	$a3, $a6, .LBB21_27
.LBB21_25:                              # %.lr.ph.i.i.i.i.i4.preheader
	add.d	$a5, $s1, $a2
	ori	$a6, $zero, 1
	.p2align	4, , 16
.LBB21_26:                              # %.lr.ph.i.i.i.i.i4
                                        # =>This Inner Loop Header: Depth=1
	st.h	$a6, $s0, 0
	addi.d	$s0, $s0, 2
	bne	$s0, $a5, .LBB21_26
.LBB21_27:                              # %iter.check101
	ori	$a5, $zero, 14
	bltu	$a4, $a5, .LBB21_37
# %bb.28:                               # %vector.main.loop.iter.check88
	ori	$a1, $zero, 62
	bgeu	$a4, $a1, .LBB21_30
# %bb.29:
	move	$a4, $zero
	b	.LBB21_34
.LBB21_30:                              # %vector.ph90
	andi	$a5, $a3, 24
	move	$a4, $a3
	bstrins.d	$a4, $zero, 4, 0
	alsl.d	$a1, $a4, $a0, 1
	addi.d	$a6, $a0, 32
	xvrepli.h	$xr0, 1
	move	$a7, $a4
	.p2align	4, , 16
.LBB21_31:                              # %vector.body93
                                        # =>This Inner Loop Header: Depth=1
	xvst	$xr0, $a6, -32
	xvst	$xr0, $a6, 0
	addi.d	$a7, $a7, -32
	addi.d	$a6, $a6, 64
	bnez	$a7, .LBB21_31
# %bb.32:                               # %middle.block98
	beq	$a3, $a4, .LBB21_39
# %bb.33:                               # %vec.epilog.iter.check103
	beqz	$a5, .LBB21_37
.LBB21_34:                              # %vec.epilog.ph105
	move	$a5, $a3
	bstrins.d	$a5, $zero, 2, 0
	alsl.d	$a1, $a5, $a0, 1
	alsl.d	$a6, $a4, $a0, 1
	sub.d	$a4, $a4, $a5
	vrepli.h	$vr0, 1
	.p2align	4, , 16
.LBB21_35:                              # %vec.epilog.vector.body108
                                        # =>This Inner Loop Header: Depth=1
	vst	$vr0, $a6, 0
	addi.d	$a4, $a4, 8
	addi.d	$a6, $a6, 16
	bnez	$a4, .LBB21_35
# %bb.36:                               # %vec.epilog.middle.block112
	beq	$a3, $a5, .LBB21_39
.LBB21_37:                              # %.lr.ph.i.i.i.i.i9.preheader
	add.d	$a0, $a0, $a2
	ori	$a2, $zero, 1
	.p2align	4, , 16
.LBB21_38:                              # %.lr.ph.i.i.i.i.i9
                                        # =>This Inner Loop Header: Depth=1
	st.h	$a2, $a1, 0
	addi.d	$a1, $a1, 2
	bne	$a1, $a0, .LBB21_38
.LBB21_39:                              # %_ZL9init_dataItEvRKSt10unique_ptrIA_T_St14default_deleteIS2_EEj.exit12
	ld.w	$s1, $fp, 28
	ld.d	$s0, $fp, 16
	st.d	$zero, $sp, 40
.Ltmp236:                               # EH_LABEL
	move	$a0, $fp
	pcaddu18i	$ra, %call36(_ZN9benchmark5State16StartKeepRunningEv)
	jirl	$ra, $ra, 0
.Ltmp237:                               # EH_LABEL
# %bb.40:                               # %_ZN9benchmark5State3endEv.exit.i.preheader
	bnez	$s1, .LBB21_45
# %bb.41:                               # %_ZN9benchmark5State3endEv.exit.i.preheader
	beqz	$s0, .LBB21_45
# %bb.42:
	addi.d	$s1, $sp, 64
	addi.d	$s2, $sp, 56
	addi.d	$s3, $sp, 48
	addi.d	$s4, $sp, 40
	.p2align	4, , 16
.LBB21_43:                              # %.lr.ph
                                        # =>This Inner Loop Header: Depth=1
	#APP
	#NO_APP
	#APP
	#NO_APP
	#APP
	#NO_APP
	#APP
	#NO_APP
	#MEMBARRIER
	ld.d	$a0, $sp, 64
	ld.d	$a1, $sp, 56
	ld.d	$a2, $sp, 48
	st.d	$a0, $sp, 32
	st.d	$a1, $sp, 24
	st.d	$a2, $sp, 16
.Ltmp238:                               # EH_LABEL
	addi.d	$a0, $sp, 80
	addi.d	$a1, $sp, 32
	addi.d	$a2, $sp, 24
	addi.d	$a3, $sp, 16
	addi.d	$a4, $sp, 72
	pcaddu18i	$ra, %call36(_ZL18callThroughOptnoneIRPFmPtS0_S0_iEJS0_S0_S0_RlEEmOT_DpOT0_)
	jirl	$ra, $ra, 0
.Ltmp239:                               # EH_LABEL
# %bb.44:                               # %_ZN9benchmark5State3endEv.exit.i
                                        #   in Loop: Header=BB21_43 Depth=1
	ld.d	$a1, $sp, 40
	add.d	$a0, $a1, $a0
	addi.d	$s0, $s0, -1
	st.d	$a0, $sp, 40
	bnez	$s0, .LBB21_43
.LBB21_45:                              # %_ZN9benchmark5State3endEv.exit.i._crit_edge
.Ltmp241:                               # EH_LABEL
	move	$a0, $fp
	pcaddu18i	$ra, %call36(_ZN9benchmark5State17FinishKeepRunningEv)
	jirl	$ra, $ra, 0
.Ltmp242:                               # EH_LABEL
# %bb.46:                               # %_ZL21runEarlyExitBenchmarkItEvRN9benchmark5StateEPFmPT_S4_S4_iE17EarlyExitPosition.exit
	ld.d	$a0, $sp, 48
	beqz	$a0, .LBB21_48
# %bb.47:                               # %_ZNKSt14default_deleteIA_tEclItEENSt9enable_ifIXsr14is_convertibleIPA_T_PS0_EE5valueEvE4typeEPS4_.exit.i20
	pcaddu18i	$ra, %call36(_ZdaPv)
	jirl	$ra, $ra, 0
.LBB21_48:                              # %_ZNSt10unique_ptrIA_tSt14default_deleteIS0_EED2Ev.exit21
	ld.d	$a0, $sp, 56
	beqz	$a0, .LBB21_50
# %bb.49:                               # %_ZNKSt14default_deleteIA_tEclItEENSt9enable_ifIXsr14is_convertibleIPA_T_PS0_EE5valueEvE4typeEPS4_.exit.i23
	pcaddu18i	$ra, %call36(_ZdaPv)
	jirl	$ra, $ra, 0
.LBB21_50:                              # %_ZNSt10unique_ptrIA_tSt14default_deleteIS0_EED2Ev.exit24
	ld.d	$a0, $sp, 64
	beqz	$a0, .LBB21_52
# %bb.51:                               # %_ZNKSt14default_deleteIA_tEclItEENSt9enable_ifIXsr14is_convertibleIPA_T_PS0_EE5valueEvE4typeEPS4_.exit.i26
	pcaddu18i	$ra, %call36(_ZdaPv)
	jirl	$ra, $ra, 0
.LBB21_52:                              # %_ZNSt10unique_ptrIA_tSt14default_deleteIS0_EED2Ev.exit27
	ld.d	$s6, $sp, 88                    # 8-byte Folded Reload
	ld.d	$s5, $sp, 96                    # 8-byte Folded Reload
	ld.d	$s4, $sp, 104                   # 8-byte Folded Reload
	ld.d	$s3, $sp, 112                   # 8-byte Folded Reload
	ld.d	$s2, $sp, 120                   # 8-byte Folded Reload
	ld.d	$s1, $sp, 128                   # 8-byte Folded Reload
	ld.d	$s0, $sp, 136                   # 8-byte Folded Reload
	ld.d	$fp, $sp, 144                   # 8-byte Folded Reload
	ld.d	$ra, $sp, 152                   # 8-byte Folded Reload
	addi.d	$sp, $sp, 160
	ret
.LBB21_53:                              # %_ZNSt10unique_ptrIA_tSt14default_deleteIS0_EED2Ev.exit.thread
.Ltmp235:                               # EH_LABEL
	move	$fp, $a0
	b	.LBB21_62
.LBB21_54:                              # %_ZNSt10unique_ptrIA_tSt14default_deleteIS0_EED2Ev.exit15.thread
.Ltmp232:                               # EH_LABEL
	move	$fp, $a0
	move	$a0, $s2
	pcaddu18i	$ra, %call36(_ZdaPv)
	jirl	$ra, $ra, 0
	move	$a0, $fp
	pcaddu18i	$ra, %call36(_Unwind_Resume)
	jirl	$ra, $ra, 0
.LBB21_55:
.Ltmp243:                               # EH_LABEL
	b	.LBB21_57
.LBB21_56:
